
build/gd32vf103.elf:     file format elf32-littleriscv
build/gd32vf103.elf
architecture: riscv:rv32, flags 0x00000112:
EXEC_P, HAS_SYMS, D_PAGED
start address 0x0800015c

Program Header:
    LOAD off    0x00001000 vaddr 0x08000000 paddr 0x08000000 align 2**12
         filesz 0x00007dd8 memsz 0x00007dd8 flags r-x
    LOAD off    0x00009000 vaddr 0x20000000 paddr 0x08007dd8 align 2**12
         filesz 0x00000500 memsz 0x00000500 flags rw-
    LOAD off    0x00009500 vaddr 0x20000500 paddr 0x20000500 align 2**12
         filesz 0x00000000 memsz 0x00005108 flags rw-
    LOAD off    0x0000a000 vaddr 0x20007000 paddr 0x20005608 align 2**12
         filesz 0x00000000 memsz 0x00001000 flags rw-

Sections:
Idx Name          Size      VMA       LMA       File off  Algn
  0 .init         00000254  08000000  08000000  00001000  2**2
                  CONTENTS, ALLOC, LOAD, READONLY, CODE
  1 .ilalign      00000000  08000254  08000254  00009500  2**0
                  CONTENTS
  2 .text         00007b46  08000280  08000280  00001280  2**6
                  CONTENTS, ALLOC, LOAD, READONLY, CODE
  3 .sdata2.usbd_language_id_desc 00000004  08007dc8  08007dc8  00008dc8  2**2
                  CONTENTS, ALLOC, LOAD, READONLY, DATA
  4 .sdata2.EP0_MAXLEN 00000004  08007dcc  08007dcc  00008dcc  2**2
                  CONTENTS, ALLOC, LOAD, READONLY, DATA
  5 .sdata2.USB_SPEED 00000004  08007dd0  08007dd0  00008dd0  2**2
                  CONTENTS, ALLOC, LOAD, READONLY, DATA
  6 .sdata2._global_impure_ptr 00000004  08007dd4  08007dd4  00008dd4  2**2
                  CONTENTS, ALLOC, LOAD, READONLY, DATA
  7 .lalign       00000000  08007dd8  08007dd8  00009500  2**0
                  CONTENTS
  8 .dalign       00000000  20000000  20000000  00009500  2**0
                  CONTENTS
  9 .data         00000500  20000000  08007dd8  00009000  2**2
                  CONTENTS, ALLOC, LOAD, DATA
 10 .bss          00005108  20000500  20000500  00009500  2**3
                  ALLOC
 11 .stack        00001000  20007000  20005608  0000a000  2**0
                  ALLOC
 12 .debug_info   0002ce98  00000000  00000000  00009500  2**0
                  CONTENTS, READONLY, DEBUGGING
 13 .debug_abbrev 00007212  00000000  00000000  00036398  2**0
                  CONTENTS, READONLY, DEBUGGING
 14 .debug_loc    000101b7  00000000  00000000  0003d5aa  2**0
                  CONTENTS, READONLY, DEBUGGING
 15 .debug_aranges 00001578  00000000  00000000  0004d768  2**3
                  CONTENTS, READONLY, DEBUGGING
 16 .debug_ranges 00001d60  00000000  00000000  0004ece0  2**3
                  CONTENTS, READONLY, DEBUGGING
 17 .debug_line   0002095e  00000000  00000000  00050a40  2**0
                  CONTENTS, READONLY, DEBUGGING
 18 .debug_str    00006dc0  00000000  00000000  0007139e  2**0
                  CONTENTS, READONLY, DEBUGGING
 19 .comment      00000028  00000000  00000000  0007815e  2**0
                  CONTENTS, READONLY
 20 .riscv.attributes 0000002b  00000000  00000000  00078186  2**0
                  CONTENTS, READONLY
 21 .debug_frame  00003448  00000000  00000000  000781b4  2**2
                  CONTENTS, READONLY, DEBUGGING
SYMBOL TABLE:
08000000 l    d  .init	00000000 .init
08000254 l    d  .ilalign	00000000 .ilalign
08000280 l    d  .text	00000000 .text
08007dc8 l    d  .sdata2.usbd_language_id_desc	00000000 .sdata2.usbd_language_id_desc
08007dcc l    d  .sdata2.EP0_MAXLEN	00000000 .sdata2.EP0_MAXLEN
08007dd0 l    d  .sdata2.USB_SPEED	00000000 .sdata2.USB_SPEED
08007dd4 l    d  .sdata2._global_impure_ptr	00000000 .sdata2._global_impure_ptr
08007dd8 l    d  .lalign	00000000 .lalign
20000000 l    d  .dalign	00000000 .dalign
20000000 l    d  .data	00000000 .data
20000500 l    d  .bss	00000000 .bss
20007000 l    d  .stack	00000000 .stack
00000000 l    d  .debug_info	00000000 .debug_info
00000000 l    d  .debug_abbrev	00000000 .debug_abbrev
00000000 l    d  .debug_loc	00000000 .debug_loc
00000000 l    d  .debug_aranges	00000000 .debug_aranges
00000000 l    d  .debug_ranges	00000000 .debug_ranges
00000000 l    d  .debug_line	00000000 .debug_line
00000000 l    d  .debug_str	00000000 .debug_str
00000000 l    d  .comment	00000000 .comment
00000000 l    d  .riscv.attributes	00000000 .riscv.attributes
00000000 l    d  .debug_frame	00000000 .debug_frame
00000000 l    df *ABS*	00000000 build/start.o
08000000 l       .init	00000000 vector_base
08000182 l       .init	00000000 _start0800
00000000 l    df *ABS*	00000000 gd32vf103_rcu.c
00000000 l    df *ABS*	00000000 _exit.c
00000000 l    df *ABS*	00000000 write_hex.c
00000000 l    df *ABS*	00000000 handlers.c
00000000 l    df *ABS*	00000000 ff.c
08001eca l     F .text	0000001e ld_dword
08001ee8 l     F .text	0000001c st_dword
08001f04 l     F .text	0000001a mem_cmp
08001f1e l     F .text	0000001c clst2sect
08001f3a l     F .text	0000003e get_ldnumber
08001f78 l     F .text	0000004e validate
08001fc6 l     F .text	0000001a mem_cpy.part.0
08001fe0 l     F .text	00000026 ld_clust.isra.1
08002006 l     F .text	00000064 sync_window.part.3
0800206a l     F .text	0000004e move_window
080020b8 l     F .text	00000092 check_fs
0800214a l     F .text	00000342 find_volume
0800248c l     F .text	00000154 put_fat
080025e0 l     F .text	000000f6 get_fat.isra.7
080026d6 l     F .text	00000128 create_chain
080027fe l     F .text	0000014a dir_next
08002948 l     F .text	00000098 dir_sdi.constprop.9
20000508 l     O .bss	00000004 FatFs
2000050c l     O .bss	00000002 Fsid
00000000 l    df *ABS*	00000000 tf_card.c
080033a2 l     F .text	00000062 xchg_spi
08003404 l     F .text	00000022 deselect
08003426 l     F .text	000000e4 wait_ready
0800350a l     F .text	00000042 _select
0800354c l     F .text	000000ec send_cmd
08003638 l     F .text	00000080 rcvr_datablock
080036b8 l     F .text	00000060 xmit_datablock.part.1
2000050e l     O .bss	00000001 CardType
200004f8 l     O .data	00000001 Stat
00000000 l    df *ABS*	00000000 cdc_acm_core.c
080002e8 l     O .text	00000018 __compound_literal.0
08000300 l     O .text	0000003a __compound_literal.1
0800033c l     O .text	00000030 __compound_literal.2
00000000 l    df *ABS*	00000000 usbd_enum.c
08004bca l     F .text	00000004 _usb_std_reserved
08004bce l     F .text	0000000e _usb_dev_desc_get
08004bdc l     F .text	0000000e _usb_config_desc_get
08004bea l     F .text	00000014 _usb_str_desc_get
08004bfe l     F .text	000000fa _usb_std_getdescriptor
08004cf8 l     F .text	000000a8 _usb_std_setconfiguration
08004da0 l     F .text	000000ba _usb_std_getstatus
08004e5a l     F .text	0000003c _usb_std_getconfiguration
08004e96 l     F .text	0000002c _usb_std_getinterface
08004ec2 l     F .text	0000002a _usb_std_setinterface
08004eec l     F .text	00000064 _usb_std_setaddress
08004f50 l     F .text	00000080 _usb_std_setfeature
08004fd0 l     F .text	00000098 _usb_std_clearfeature
08005068 l     F .text	00000004 _usb_std_setdescriptor
0800506c l     F .text	00000004 _usb_std_synchframe
08000390 l     O .text	00000034 _std_dev_req
20000528 l     O .bss	00000001 config.4766
2000052c l     O .bss	00000002 status.4696
00000000 l    df *ABS*	00000000 main.c
00000000 l    df *ABS*	00000000 divdf3.c
00000000 l    df *ABS*	00000000 muldf3.c
00000000 l    df *ABS*	00000000 libgcc2.c
00000000 l    df *ABS*	00000000 findfp.c
00000000 l    df *ABS*	00000000 nano-vfprintf.c
00000000 l    df *ABS*	00000000 nano-vfprintf_i.c
00000000 l    df *ABS*	00000000 gd32vf103_adc.c
00000000 l    df *ABS*	00000000 gd32vf103_dma.c
00000000 l    df *ABS*	00000000 gd32vf103_eclic.c
00000000 l    df *ABS*	00000000 gd32vf103_exti.c
00000000 l    df *ABS*	00000000 gd32vf103_gpio.c
00000000 l    df *ABS*	00000000 gd32vf103_spi.c
00000000 l    df *ABS*	00000000 gd32vf103_timer.c
00000000 l    df *ABS*	00000000 gd32vf103_usart.c
00000000 l    df *ABS*	00000000 system_gd32vf103.c
00000000 l    df *ABS*	00000000 sbrk.c
200004ec l     O .data	00000004 curbrk.1524
00000000 l    df *ABS*	00000000 n200_func.c
00000000 l    df *ABS*	00000000 init.c
00000000 l    df *ABS*	00000000 dma.c
00000000 l    df *ABS*	00000000 eclicw.c
20000500 l     O .bss	00000004 pmtisr
20000504 l     O .bss	00000004 pu0tbeisr
00000000 l    df *ABS*	00000000 gd32v_tf_card_if.c
00000000 l    df *ABS*	00000000 tf_delay.c
00000000 l    df *ABS*	00000000 systick.c
00000000 l    df *ABS*	00000000 drv_usb_core.c
00000000 l    df *ABS*	00000000 drv_usb_dev.c
08007dcc l     O .sdata2.EP0_MAXLEN	00000004 EP0_MAXLEN
00000000 l    df *ABS*	00000000 drv_usbd_int.c
080043e2 l     F .text	000000fe usbd_int_epout
080044e0 l     F .text	000000bc usbd_int_epin
0800459c l     F .text	000000c6 usbd_int_rxfifo
08004662 l     F .text	000000d2 usbd_int_reset
08004734 l     F .text	00000068 usbd_int_enumfinish
0800479c l     F .text	000000e6 usbd_emptytxfifo_write
08007dd0 l     O .sdata2.USB_SPEED	00000004 USB_SPEED
00000000 l    df *ABS*	00000000 gd32vf103_hw.c
00000000 l    df *ABS*	00000000 gd32vf103_usb_it.c
00000000 l    df *ABS*	00000000 usb_delay.c
00000000 l    df *ABS*	00000000 usb_serial_if.c
00000000 l    df *ABS*	00000000 usbd_core.c
00000000 l    df *ABS*	00000000 usbd_transc.c
00000000 l    df *ABS*	00000000 adc.c
00000000 l    df *ABS*	00000000 queue.c
00000000 l    df *ABS*	00000000 radioHead.c
00000000 l    df *ABS*	00000000 rn4871.c
00000000 l    df *ABS*	00000000 state.c
20000544 l     O .bss	00000004 current_state
00000000 l    df *ABS*	00000000 build/entry.o
080063b4 l       .text	00000000 service_loop
00000000 l    df *ABS*	00000000 ledf2.c
00000000 l    df *ABS*	00000000 fixdfsi.c
00000000 l    df *ABS*	00000000 floatunsidf.c
00000000 l    df *ABS*	00000000 floatundidf.c
00000000 l    df *ABS*	00000000 libgcc2.c
00000000 l    df *ABS*	00000000 libgcc2.c
00000000 l    df *ABS*	00000000 libgcc2.c
00000000 l    df *ABS*	00000000 atexit.c
00000000 l    df *ABS*	00000000 exit.c
00000000 l    df *ABS*	00000000 fini.c
00000000 l    df *ABS*	00000000 init.c
00000000 l    df *ABS*	00000000 sprintf.c
00000000 l    df *ABS*	00000000 strlen.c
00000000 l    df *ABS*	00000000 __atexit.c
20001554 l     O .bss	0000008c _global_atexit0
00000000 l    df *ABS*	00000000 __call_atexit.c
00000000 l    df *ABS*	00000000 nano-mallocr.c
00000000 l    df *ABS*	00000000 nano-mallocr.c
00000000 l    df *ABS*	00000000 sbrkr.c
00000000 l    df *ABS*	00000000 memchr.c
00000000 l    df *ABS*	00000000 mlock.c
00000000 l    df *ABS*	00000000 nano-mallocr.c
00000000 l    df *ABS*	00000000 nano-mallocr.c
00000000 l    df *ABS*	00000000 impure.c
20000488 l     O .data	00000060 impure_data
00000000 l    df *ABS*	00000000 
08007dd8 l       .sdata2._global_impure_ptr	00000000 __fini_array_end
08007dd8 l       .sdata2._global_impure_ptr	00000000 __fini_array_start
08007dd8 l       .sdata2._global_impure_ptr	00000000 __init_array_end
08007dd8 l       .sdata2._global_impure_ptr	00000000 __preinit_array_end
08007dd8 l       .sdata2._global_impure_ptr	00000000 __init_array_start
08007dd8 l       .sdata2._global_impure_ptr	00000000 __preinit_array_start
08007db2 g     F .text	00000014 _malloc_usable_size_r
08005910 g     F .text	00000014 led_off_B1
080018f0 g     F .text	0000000a usart_transmit_config
08007076 g     F .text	0000002a .hidden __ashldi3
20000478 g     O .data	00000010 finapressHandles
08000daa g     F .text	00000034 adc_external_trigger_source_config
080056a6 g     F .text	00000026 send_data_to_phone
20000ce8 g       .data	00000000 __global_pointer$
08005188 g     F .text	00000030 usbd_ctl_status_recev
08004106 g     F .text	0000008c usb_transc_outxfer
08005938 g     F .text	00000014 led_off_B0
08007d3e g     F .text	00000002 __malloc_unlock
08005b4a g     F .text	00000030 append_int_to_string
080050e8 g     F .text	00000038 usbd_ctl_send
08005924 g     F .text	00000014 led_on_B0
08007d16 g     F .text	00000026 memmove
08000cec g     F .text	000000be adc_regular_channel_config
0800111c g     F .text	00000014 rcu_usb_clock_config
08005d90 g     F .text	0000003e clear_queues
08001c54 g     F .text	0000000e eclic_get_nlbits
0800489a g     F .text	00000056 USBFS_WKUP_IRQHandler
080018c2 g     F .text	00000012 usart_word_length_set
08004882 g     F .text	00000008 usb_udelay
08000f6a g     F .text	00000026 dma_channel_enable
20000554 g     O .bss	00000400 rx_radio_buffer
08003f10 g     F .text	00000032 usb_rxfifo_read
20005604 g     O .bss	00000004 errno
08001130 g     F .text	0000013a rcu_clock_freq_get
08005088 g     F .text	0000002c usbd_class_request
00001000 g       *ABS*	00000000 __stack_size
08001468 g     F .text	0000023c timer_channel_output_config
0800488a g     F .text	00000010 USBFS_IRQHandler
08006198 g     F .text	000000b6 lio_read_bt
08000c20 g     F .text	00000010 adc_enable
080062f4 g     F .text	0000000a set_state
08000380 g     O .text	00000010 usbd_strings
08004242 g     F .text	00000020 usb_iepintr_read
080071c4 g     F .text	00000016 memcpy
08004234 g     F .text	0000000e usb_iepintnum_read
080049d6 g     F .text	000000ee set_usb_clock_96m_hxtal
08001e26 g     F .text	00000052 eclic_mtip_handler
08001720 g     F .text	00000056 timer_channel_output_shadow_config
080018e6 g     F .text	0000000a usart_enable
08007672 g     F .text	0000029a _svfprintf_r
0800693c g     F .text	000000a4 .hidden __ltdf2
08003718 g     F .text	0000027c disk_initialize
0800524c g     F .text	000000e6 usbd_out_transc
0800107e g     F .text	00000004 gpio_bit_set
08001444 g     F .text	0000000a timer_enable
200004e8 g     O .data	00000004 SystemCoreClock
080010c0 g     F .text	0000001c rcu_periph_reset_disable
0800126a g     F .text	00000036 spi_init
08001d40  w    F .text	00000038 handle_trap
08003994 g     F .text	00000014 disk_status
08006384  w      .text	00000000 irq_entry
200015f0 g     O .bss	00004014 w
08004b84 g     F .text	0000003e usbd_ep_stall_clear
08007cc6 g     F .text	00000036 _sbrk_r
08000e42 g     F .text	0000000c adc_flag_clear
08003b52 g     F .text	0000021e disk_ioctl
08004b44 g     F .text	00000040 usbd_ep_stall
08007dc8 g     O .sdata2.usbd_language_id_desc	00000004 usbd_language_id_desc
080018b2 g     F .text	00000010 usart_parity_config
20007000 g       .stack	00000000 _heap_end
08000b96 g     F .text	00000050 adc_deinit
08006026 g     F .text	00000172 lio_init_bt
08005120 g     F .text	00000038 usbd_ctl_recev
08007dd4 g     O .sdata2._global_impure_ptr	00000004 _global_impure_ptr
08007d40 g     F .text	00000072 _realloc_r
0800715a g     F .text	0000006a __libc_init_array
08006e90 g     F .text	00000056 .hidden __floatunsidf
08001b66 g     F .text	0000002e _sbrk
08000be6 g     F .text	00000020 adc_mode_config
0800191c g     F .text	0000000c usart_dma_receive_config
08001d78 g     F .text	0000002c _init
08004b04 g     F .text	00000040 usbd_ep_send
0800543e g     F .text	000001a4 init_ADC_A0_A7
08007122 g     F .text	00000038 __libc_fini_array
08001d1e  w    F .text	00000022 handle_nmi
080012aa g     F .text	00000004 spi_i2s_data_transmit
08004ac4 g     F .text	00000040 usbd_ep_recev
08006e2c g     F .text	00000064 .hidden __fixdfsi
0800139e g     F .text	00000018 timer_struct_para_init
08000e38 g     F .text	0000000a adc_flag_get
0800401c g     F .text	000000ea usb_transc_inxfer
0800594c g     F .text	000000fa timer_interrupt_config
080013b6 g     F .text	0000008e timer_init
0800178a g     F .text	00000012 timer_interrupt_flag_get
20000540 g     O .bss	00000004 write
08004222 g     F .text	00000012 usb_oepintr_read
08003f42 g     F .text	00000028 usb_txfifo_flush
0800704c g     F .text	0000002a .hidden __lshrdi3
0800693c g     F .text	000000a4 .hidden __ledf2
080016a4 g     F .text	00000056 timer_channel_output_mode_config
08004262 g     F .text	00000026 usb_ctlep_startout
08003e08 g     F .text	000000ce delay_1ms
080018fa g     F .text	0000000a usart_receive_config
08001e78 g     F .text	00000052 USART0_IRQHandler
08001c62 g     F .text	00000058 eclic_set_irq_lvl_abs
08001c42 g     F .text	00000012 eclic_enable_interrupt
08000f96 g     F .text	00000006 eclic_global_interrupt_disable
08003ed6 g     F .text	0000003a usb_txfifo_write
08005720 g     F .text	000001b2 TIMER1_IRQHandler
08000618 g     O .text	00000020 __sf_fake_stderr
080041cc g     F .text	00000046 usb_transc_clrstall
08001b94 g     F .text	0000007c write_hex
08005dce g     F .text	00000172 init_radio
08007570 g     F .text	00000102 __ssputs_r
200015e0 g     O .bss	00000010 sample_buffer
2000053c g     O .bss	00000004 start_time
080070a0 g     F .text	0000003c .hidden __clzsi2
080051b8 g     F .text	00000094 usbd_setup_transc
08001082 g     F .text	00000004 gpio_bit_reset
08007cfc g     F .text	0000001a memchr
080073b6 g     F .text	000000b8 _free_r
08000e18 g     F .text	00000020 adc_software_trigger_enable
20000548 g     O .bss	00000004 _global_atexit
080072ee g     F .text	000000c8 __call_exitprocs
0800179c g     F .text	00000008 timer_interrupt_flag_clear
20008000 g       .stack	00000000 _sp
080018d4 g     F .text	00000012 usart_stop_bit_set
0800331a g     F .text	0000002c f_close
08005bea g     F .text	00000020 init_q
0800015c g     F .init	00000000 _start
0800177e g     F .text	0000000c timer_interrupt_disable
08001090 g     F .text	00000018 rcu_periph_clock_enable
08006ee6 g     F .text	00000166 .hidden __floatundidf
0800036c g     O .text	00000012 device_descriptor
0800024c g       .init	00000000 enable_mcycle_minstret
08007262 g     F .text	0000008c __register_exitproc
08004288 g     F .text	0000001a usb_clock_active
080012cc g     F .text	000000d2 timer_deinit
08003f6a g     F .text	00000014 usb_devaddr_set
08001c10 g     F .text	00000010 get_timer_value
08001776 g     F .text	00000008 timer_interrupt_enable
080012a0 g     F .text	0000000a spi_enable
08005b7a g     F .text	0000000e append_newLine
080012b6 g     F .text	0000000c spi_crc_polynomial_set
08004212 g     F .text	00000010 usb_oepintnum_read
08005f40 g     F .text	0000009c send_radio
080063f6 g     F .text	00000546 .hidden __divdf3
08001846 g     F .text	0000006c usart_baudrate_set
08001928 g     F .text	0000000c usart_dma_transmit_config
080069e0 g     F .text	0000044c .hidden __muldf3
20000520 g     O .bss	00000001 setupc_flag
08000f1e g     F .text	00000026 dma_circulation_enable
08003368 g     F .text	0000003a get_fattime
08000c06 g     F .text	0000001a adc_data_alignment_config
20000d54 g     O .bss	00000400 rx_dma_buffer
08007d3c g     F .text	00000002 __malloc_lock
08001910 g     F .text	0000000c usart_hardware_flow_cts_config
08001cba g     F .text	00000052 eclic_set_irq_priority
08000638 g     O .text	00000020 __sf_fake_stdin
20000500 g       .bss	00000000 __bss_start
080071da g     F .text	00000010 memset
080012ae g     F .text	00000008 spi_i2s_data_receive
080006b4 g     F .text	000004e2 main
080056fa g     F .text	00000026 reboot_BT
08006300  w      .text	00000000 trap_entry
0800316a g     F .text	000001b0 f_sync
08003346 g     F .text	00000022 set_fattime
08000246 g       .init	00000000 disable_mcycle_minstret
08000e92 g     F .text	0000008c dma_init
0800746e g     F .text	00000102 _malloc_r
200004f0 g     O .data	00000008 time
080029e0 g     F .text	0000005c f_mount
08001d0c g     F .text	00000012 eclic_mode_enable
20000538 g     O .bss	00000004 seconds
080042a2 g     F .text	00000140 usbd_isr
20000510 g     O .bss	00000008 tf_current_time
08007238 g     F .text	00000018 strcmp
08001934 g     F .text	0000011c SystemInit
08005c76 g     F .text	0000000c queue_str_len
08001da4 g     F .text	00000002 _fini
00000000 g       *ABS*	00000000 __dbg_stack_size
20000524 g     O .bss	00000004 usbfs_prescaler
080071ea g     F .text	0000004e sprintf
08000518 g     O .text	00000100 .hidden __clz_tab
080017a4 g     F .text	000000a2 usart_deinit
080070dc g     F .text	00000010 atexit
080050b4 g     F .text	00000004 usbd_vendor_request
0800624e g     F .text	0000009c lio_send_bt
0800790c g     F .text	0000010c _printf_common
200004fc g     O .data	00000004 _impure_ptr
080010a8 g     F .text	00000018 rcu_periph_reset_enable
08003f7e g     F .text	0000009e usb_transc_active
20000000 g     O .data	00000043 configuration_descriptor
08007672 g     F .text	0000029a _svfiprintf_r
20000000 g       .dalign	00000000 _data
20000044 g     O .data	00000434 USB_OTG_dev
080055e2 g     F .text	000000c4 write_handle_raw
080048f0 g     F .text	00000072 usb_delay_1ms
20000530 g     O .bss	00000004 millisec
08000c5c g     F .text	00000046 adc_discontinuous_mode_config
08005ac2 g     F .text	00000088 int_to_string
08000f9c g     F .text	00000034 eclic_irq_enable
08005a46 g     F .text	0000007c formatTime
08001904 g     F .text	0000000c usart_hardware_flow_rts_config
20001154 g     O .bss	00000400 tx_dma_buffer
08005c0a g     F .text	0000006c enqueue_string
08005d24 g     F .text	0000006c empty_string_queue
20000500 g       .bss	00000000 _edata
20005608 g       .bss	00000000 _end
08005158 g     F .text	00000030 usbd_ctl_status_send
08002f62 g     F .text	00000208 f_write
08003d70 g     F .text	0000005a tf_start_timer
08003dca g     F .text	0000003e tf_timer_done
08000f90 g     F .text	00000006 eclic_global_interrupt_enable
08004192 g     F .text	0000003a usb_transc_stall
08007dd8 g       .lalign	00000000 _data_lma
08000fd0 g     F .text	0000000a exti_interrupt_flag_clear
08002a3c g     F .text	00000526 f_open
08000dde g     F .text	0000003a adc_external_trigger_config
08003a4a g     F .text	00000108 disk_write
08000c52 g     F .text	0000000a adc_dma_mode_enable
080070ec g     F .text	00000036 exit
080050b8 g     F .text	00000030 usbd_enum_error
0800144e g     F .text	0000001a timer_channel_output_struct_para_init
08001a50 g     F .text	000000ca SystemCoreClockUpdate
080012c2 g     F .text	0000000a spi_i2s_flag_get
08001c20 g     F .text	00000022 eclic_init
080016fa g     F .text	00000026 timer_channel_output_pulse_value_config
08000658 g     O .text	00000020 __sf_fake_stdout
080071ea g     F .text	0000004e siprintf
08000ca2 g     F .text	0000004a adc_channel_length_config
080062ea g     F .text	0000000a get_state
08005c82 g     F .text	00000026 fuseStrings
08001b1a g     F .text	0000004c _exit
08000e4e g     F .text	00000044 dma_deinit
20000534 g     O .bss	00000004 minutes
08005fdc g     F .text	0000004a enter_command_mode
080058fc g     F .text	00000014 led_on_B1
08000f44 g     F .text	00000026 dma_circulation_disable
08001da6 g     F .text	00000080 dma_config
08007250 g     F .text	00000012 strlen
080039a8 g     F .text	000000a2 disk_read
08007a18 g     F .text	000002ae _printf_i
20000518 g     O .bss	00000008 tf_delay_until
20000550 g     O .bss	00000004 __malloc_sbrk_start
08004bc2 g     F .text	00000008 usbd_addr_set
080056cc g     F .text	0000002e stagger_data_to_phone
080010dc g     F .text	00000040 rcu_adc_clock_config
080058d2 g     F .text	0000002a ledInit
08000fda g     F .text	000000a4 gpio_init
08004962 g     F .text	00000074 usb_delay_1us
2000054c g     O .bss	00000004 __malloc_free_list
08000c30 g     F .text	00000022 adc_calibration_enable
08005332 g     F .text	0000010c usbd_in_transc
08005ca8 g     F .text	0000007c dequeue_string
08005b88 g     F .text	00000062 millis
08001086 g     F .text	0000000a gpio_bit_write
20000954 g     O .bss	00000400 tx_radio_buffer
08005070 g     F .text	00000018 usbd_standard_request



Disassembly of section .init:

08000000 <vector_base>:
    .weak  CAN1_RX1_IRQHandler
    .weak  CAN1_EWMC_IRQHandler
    .weak  USBFS_IRQHandler

vector_base:
    j _start
 8000000:	aab1                	j	800015c <_start>
 8000002:	0001                	nop
	...
 800001c:	1e26                	slli	t3,t3,0x29
 800001e:	0800                	addi	s0,sp,16
	...
 80000bc:	5720                	lw	s0,104(a4)
 80000be:	0800                	addi	s0,sp,16
	...
 80000e0:	1e78                	addi	a4,sp,828
 80000e2:	0800                	addi	s0,sp,16
	...
 80000f4:	489a                	lw	a7,132(sp)
 80000f6:	0800                	addi	s0,sp,16
	...
 8000158:	488a                	lw	a7,128(sp)
 800015a:	0800                	addi	s0,sp,16

0800015c <_start>:
	.globl _start
	.type _start,@function

_start:

	csrc CSR_MSTATUS, MSTATUS_MIE
 800015c:	30047073          	csrci	mstatus,8
	/* Jump to logical address first to ensure correct operation of RAM region  */
    la		a0,	_start
 8000160:	00000517          	auipc	a0,0x0
 8000164:	ffc50513          	addi	a0,a0,-4 # 800015c <_start>
    li		a1,	1
 8000168:	4585                	li	a1,1
	slli	a1,	a1, 29
 800016a:	05f6                	slli	a1,a1,0x1d
    bleu	a1, a0, _start0800
 800016c:	00b57b63          	bgeu	a0,a1,8000182 <_start0800>
    srli	a1,	a1, 2
 8000170:	8189                	srli	a1,a1,0x2
    bleu	a1, a0, _start0800
 8000172:	00b57863          	bgeu	a0,a1,8000182 <_start0800>
    la		a0,	_start0800
 8000176:	00000517          	auipc	a0,0x0
 800017a:	00c50513          	addi	a0,a0,12 # 8000182 <_start0800>
    add		a0, a0, a1
 800017e:	952e                	add	a0,a0,a1
	jr      a0
 8000180:	8502                	jr	a0

08000182 <_start0800>:

_start0800:

    /* Set the the NMI base to share with mtvec by setting CSR_MMISC_CTL */
    li t0, 0x200
 8000182:	20000293          	li	t0,512
    csrs CSR_MMISC_CTL, t0
 8000186:	7d02a073          	csrs	0x7d0,t0

	/* Intial the mtvt*/
    la t0, vector_base
 800018a:	00000297          	auipc	t0,0x0
 800018e:	e7628293          	addi	t0,t0,-394 # 8000000 <vector_base>
    csrw CSR_MTVT, t0
 8000192:	30729073          	csrw	mtvt,t0

	/* Intial the mtvt2 and enable it*/
    la t0, irq_entry
 8000196:	00006297          	auipc	t0,0x6
 800019a:	1ee28293          	addi	t0,t0,494 # 8006384 <irq_entry>
    csrw CSR_MTVT2, t0
 800019e:	7ec29073          	csrw	0x7ec,t0
    csrs CSR_MTVT2, 0x1
 80001a2:	7ec0e073          	csrsi	0x7ec,1

    /* Intial the CSR MTVEC for the Trap ane NMI base addr*/
    la t0, trap_entry
 80001a6:	00006297          	auipc	t0,0x6
 80001aa:	15a28293          	addi	t0,t0,346 # 8006300 <trap_entry>
    csrw CSR_MTVEC, t0
 80001ae:	30529073          	csrw	mtvec,t0
	csrw fcsr, x0
#endif

.option push
.option norelax
	la gp, __global_pointer$
 80001b2:	18001197          	auipc	gp,0x18001
 80001b6:	b3618193          	addi	gp,gp,-1226 # 20000ce8 <__global_pointer$>
.option pop
	la sp, _sp
 80001ba:	18008117          	auipc	sp,0x18008
 80001be:	e4610113          	addi	sp,sp,-442 # 20008000 <_sp>

	/* Load data section */
	la a0, _data_lma
 80001c2:	00008517          	auipc	a0,0x8
 80001c6:	c1650513          	addi	a0,a0,-1002 # 8007dd8 <__fini_array_end>
	la a1, _data
 80001ca:	18000597          	auipc	a1,0x18000
 80001ce:	e3658593          	addi	a1,a1,-458 # 20000000 <_data>
	la a2, _edata
 80001d2:	18000617          	auipc	a2,0x18000
 80001d6:	32e60613          	addi	a2,a2,814 # 20000500 <__bss_start>
	bgeu a1, a2, 2f
 80001da:	00c5fa63          	bgeu	a1,a2,80001ee <_start0800+0x6c>
1:
	lw t0, (a0)
 80001de:	00052283          	lw	t0,0(a0)
	sw t0, (a1)
 80001e2:	0055a023          	sw	t0,0(a1)
	addi a0, a0, 4
 80001e6:	0511                	addi	a0,a0,4
	addi a1, a1, 4
 80001e8:	0591                	addi	a1,a1,4
	bltu a1, a2, 1b
 80001ea:	fec5eae3          	bltu	a1,a2,80001de <_start0800+0x5c>
2:
	/* Clear bss section */
	la a0, __bss_start
 80001ee:	18000517          	auipc	a0,0x18000
 80001f2:	31250513          	addi	a0,a0,786 # 20000500 <__bss_start>
	la a1, _end
 80001f6:	18005597          	auipc	a1,0x18005
 80001fa:	41258593          	addi	a1,a1,1042 # 20005608 <_end>
	bgeu a0, a1, 2f
 80001fe:	00b57763          	bgeu	a0,a1,800020c <_start0800+0x8a>
1:
	sw zero, (a0)
 8000202:	00052023          	sw	zero,0(a0)
	addi a0, a0, 4
 8000206:	0511                	addi	a0,a0,4
	bltu a0, a1, 1b
 8000208:	feb56de3          	bltu	a0,a1,8000202 <_start0800+0x80>
2:
	/*enable mcycle_minstret*/
    csrci CSR_MCOUNTINHIBIT, 0x5
 800020c:	3202f073          	csrci	mucounteren,5
	/* Call global constructors */
	la a0, __libc_fini_array
 8000210:	00007517          	auipc	a0,0x7
 8000214:	f1250513          	addi	a0,a0,-238 # 8007122 <__libc_fini_array>
	call atexit
 8000218:	00007097          	auipc	ra,0x7
 800021c:	ec4080e7          	jalr	-316(ra) # 80070dc <atexit>
	call __libc_init_array
 8000220:	00007097          	auipc	ra,0x7
 8000224:	f3a080e7          	jalr	-198(ra) # 800715a <__libc_init_array>


	/* argc = argv = 0 */
	call _init
 8000228:	00002097          	auipc	ra,0x2
 800022c:	b50080e7          	jalr	-1200(ra) # 8001d78 <_init>
	li a0, 0
 8000230:	4501                	li	a0,0
	li a1, 0
 8000232:	4581                	li	a1,0
	call main
 8000234:	00000097          	auipc	ra,0x0
 8000238:	480080e7          	jalr	1152(ra) # 80006b4 <main>
	tail exit
 800023c:	00007317          	auipc	t1,0x7
 8000240:	eb030067          	jr	-336(t1) # 80070ec <exit>

1:
	j 1b
 8000244:	a001                	j	8000244 <_start0800+0xc2>

08000246 <disable_mcycle_minstret>:
	
	.global disable_mcycle_minstret
disable_mcycle_minstret:
        csrsi CSR_MCOUNTINHIBIT, 0x5
 8000246:	3202e073          	csrsi	mucounteren,5
	ret
 800024a:	8082                	ret

0800024c <enable_mcycle_minstret>:

	.global enable_mcycle_minstret
enable_mcycle_minstret:
        csrci CSR_MCOUNTINHIBIT, 0x5
 800024c:	3202f073          	csrci	mucounteren,5
	ret
 8000250:	8082                	ret
	...

Disassembly of section .text:

08000280 <__compound_literal.0-0x68>:
	...
 8000288:	0201                	addi	tp,tp,0
 800028a:	07060403          	lb	s0,112(a2)
 800028e:	0908                	addi	a0,sp,144
 8000290:	500a                	0x500a
 8000292:	6f72                	flw	ft10,28(sp)
 8000294:	6d617267          	0x6d617267
 8000298:	6820                	flw	fs0,80(s0)
 800029a:	7361                	lui	t1,0xffff8
 800029c:	6520                	flw	fs0,72(a0)
 800029e:	6978                	flw	fa4,84(a0)
 80002a0:	6574                	flw	fa3,76(a0)
 80002a2:	2064                	fld	fs1,192(s0)
 80002a4:	68746977          	0x68746977
 80002a8:	6320                	flw	fs0,64(a4)
 80002aa:	3a65646f          	jal	s0,8056650 <__fini_array_end+0x4e878>
 80002ae:	0000                	unimp
 80002b0:	7830                	flw	fa2,112(s0)
 80002b2:	0000                	unimp
 80002b4:	6d6e                	flw	fs10,216(sp)
 80002b6:	0a69                	addi	s4,s4,26
 80002b8:	0000                	unimp
 80002ba:	0000                	unimp
 80002bc:	7274                	flw	fa3,100(a2)
 80002be:	7061                	c.lui	zero,0xffff8
 80002c0:	000a                	c.slli	zero,0x2
 80002c2:	0000                	unimp
 80002c4:	4146                	lw	sp,80(sp)
 80002c6:	0054                	addi	a3,sp,4
 80002c8:	4146                	lw	sp,80(sp)
 80002ca:	3354                	fld	fa3,160(a4)
 80002cc:	0032                	c.slli	zero,0xc
 80002ce:	0000                	unimp
 80002d0:	2a22                	fld	fs4,8(sp)
 80002d2:	3b3a2c2b          	0x3b3a2c2b
 80002d6:	3d3c                	fld	fa5,120(a0)
 80002d8:	3f3e                	fld	ft10,488(sp)
 80002da:	7f7c5d5b          	0x7f7c5d5b
 80002de:	0000                	unimp
 80002e0:	0000                	unimp
 80002e2:	0000                	unimp
 80002e4:	4000                	lw	s0,0(s0)
 80002e6:	          	0x40af

080002e8 <__compound_literal.0>:
 80002e8:	00470316 00670069 00440061 00760065     ..G.i.g.a.D.e.v.
 80002f8:	00630069 00000065                       i.c.e...

08000300 <__compound_literal.1>:
 8000300:	00470338 00330044 00200032 00530055     8.G.D.3.2. .U.S.
 8000310:	00200042 00440043 00200043 00430041     B. .C.D.C. .A.C.
 8000320:	0020004d 006e0069 00460020 00200053     M. .i.n. .F.S. .
 8000330:	006f004d 00650064 00000000              M.o.d.e.....

0800033c <__compound_literal.2>:
 800033c:	0047032e 00330044 00580032 00580058     ..G.D.3.2.X.X.X.
 800034c:	0033002d 0030002e 0030002e 0037002d     -.3...0...0.-.7.
 800035c:	0038007a 00390078 00650079 00000072     z.8.x.9.y.e.r...

0800036c <device_descriptor>:
 800036c:	02000112 40000002 018a28e9 02010100     .......@.(......
 800037c:	00000103                                ....

08000380 <usbd_strings>:
 8000380:	08007dc8 080002e8 08000300 0800033c     .}..........<...

08000390 <_std_dev_req>:
 8000390:	08004da0 08004fd0 08004bca 08004f50     .M...O...K..PO..
 80003a0:	08004bca 08004eec 08004bfe 08005068     .K...N...K..hP..
 80003b0:	08004e5a 08004cf8 08004e96 08004ec2     ZN...L...N...N..
 80003c0:	0800506c 00000000 72617473 00003074     lP......start0..
 80003d0:	72617473 00003174 72617473 00003274     start1..start2..
 80003e0:	706f7473 00003070 706f7473 00003170     stopp0..stopp1..
 80003f0:	706f7473 00003270 33323130 37363534     stopp2..01234567
 8000400:	42413938 46454443 00000000 2c574853     89ABCDEF....SHW,
 8000410:	00000000 2e257325 252c7834 000a0d73     ....%s%.4x,%s...
 8000420:	0d312c52 00000000 74736574 00000000     R,1.....test....
 8000430:	414e4946 53432e50 00000056 656d6954     FINAP.CSV...Time
 8000440:	3b30413b 413b3141 33413b32 3b34413b     ;A0;A1;A2;A3;A4;
 8000450:	413b3541 37413b36 0000000a 2c565725     A5;A6;A7....%WV,
 8000460:	32373030 2531302c 00000000 74706d65     0072,01%....empt
 8000470:	00000079 2c565725 32373030 2530302c     y...%WV,0072,00%
 8000480:	00000000 2c565725 32373030 2532302c     ....%WV,0072,02%
	...
 800049c:	40af4000 00006484 000063d4 000063da     .@.@.d...c...c..
 80004ac:	000063d4 00006476 000063d4 000063da     .c..vd...c...c..
 80004bc:	00006484 00006484 00006476 000063da     .d...d..vd...c..
 80004cc:	000063ba 000063ba 000063ba 000063de     .c...c...c...c..
 80004dc:	0000688a 0000688a 000068a2 00006884     .h...h...h...h..
 80004ec:	00006884 00006930 000068a2 00006884     .h..0i...h...h..
 80004fc:	00006930 00006884 000068a2 00006882     0i...h...h...h..
 800050c:	00006882 00006882 00006930              .h...h..0i..

08000518 <__clz_tab>:
 8000518:	02020100 03030303 04040404 04040404     ................
 8000528:	05050505 05050505 05050505 05050505     ................
 8000538:	06060606 06060606 06060606 06060606     ................
 8000548:	06060606 06060606 06060606 06060606     ................
 8000558:	07070707 07070707 07070707 07070707     ................
 8000568:	07070707 07070707 07070707 07070707     ................
 8000578:	07070707 07070707 07070707 07070707     ................
 8000588:	07070707 07070707 07070707 07070707     ................
 8000598:	08080808 08080808 08080808 08080808     ................
 80005a8:	08080808 08080808 08080808 08080808     ................
 80005b8:	08080808 08080808 08080808 08080808     ................
 80005c8:	08080808 08080808 08080808 08080808     ................
 80005d8:	08080808 08080808 08080808 08080808     ................
 80005e8:	08080808 08080808 08080808 08080808     ................
 80005f8:	08080808 08080808 08080808 08080808     ................
 8000608:	08080808 08080808 08080808 08080808     ................

08000618 <__sf_fake_stderr>:
	...

08000638 <__sf_fake_stdin>:
	...

08000658 <__sf_fake_stdout>:
	...
 8000678:	2b302d23 00000020 004c6c68 45676665     #-0+ ...hlL.efgE
 8000688:	00004746 33323130 37363534 42413938     FG..0123456789AB
 8000698:	46454443 00000000 33323130 37363534     CDEF....01234567
 80006a8:	62613938 66656463 00000000              89abcdef....

080006b4 <main>:
            
        }
    }
}

int main(void){
 80006b4:	737d                	lui	t1,0xfffff
 80006b6:	aa010113          	addi	sp,sp,-1376
 80006ba:	54112e23          	sw	ra,1372(sp)
 80006be:	54812c23          	sw	s0,1368(sp)
 80006c2:	54912a23          	sw	s1,1364(sp)
 80006c6:	55212823          	sw	s2,1360(sp)
 80006ca:	55312623          	sw	s3,1356(sp)
 80006ce:	55412423          	sw	s4,1352(sp)
 80006d2:	55512223          	sw	s5,1348(sp)
 80006d6:	55612023          	sw	s6,1344(sp)
 80006da:	53712e23          	sw	s7,1340(sp)
 80006de:	53812c23          	sw	s8,1336(sp)
 80006e2:	53912a23          	sw	s9,1332(sp)
 80006e6:	53a12823          	sw	s10,1328(sp)
 80006ea:	53b12623          	sw	s11,1324(sp)
 80006ee:	911a                	add	sp,sp,t1
    init_q();
 80006f0:	00005097          	auipc	ra,0x5
 80006f4:	4fa080e7          	jalr	1274(ra) # 8005bea <init_q>

    /* Used for bytes written */
    UINT bw = 0;
    
    /* Sets a valid date for when writing to file */
    set_fattime(1980, 1, 1, 0, 0, 0); // 1980 Jan 1st, 00:00:00
 80006f8:	4701                	li	a4,0
 80006fa:	4681                	li	a3,0
 80006fc:	4781                	li	a5,0
 80006fe:	4605                	li	a2,1
 8000700:	4585                	li	a1,1
 8000702:	7bc00513          	li	a0,1980
    UINT bw = 0;
 8000706:	c202                	sw	zero,4(sp)
    set_fattime(1980, 1, 1, 0, 0, 0); // 1980 Jan 1st, 00:00:00
 8000708:	00003097          	auipc	ra,0x3
 800070c:	c3e080e7          	jalr	-962(ra) # 8003346 <set_fattime>
    delay_1ms(100);
 8000710:	06400513          	li	a0,100
 8000714:	00003097          	auipc	ra,0x3
 8000718:	6f4080e7          	jalr	1780(ra) # 8003e08 <delay_1ms>

    /* This function "mounts" the SD-card which makes the filesystem available */
    fr = f_mount(&fs, "test", 1); // Mount storage device
 800071c:	6905                	lui	s2,0x1
    UINT bw = 0;
 800071e:	747d                	lui	s0,0xfffff
    fr = f_mount(&fs, "test", 1); // Mount storage device
 8000720:	52090793          	addi	a5,s2,1312 # 1520 <__stack_size+0x520>
 8000724:	978a                	add	a5,a5,sp
 8000726:	dd040513          	addi	a0,s0,-560 # ffffedd0 <_sp+0xdfff6dd0>
 800072a:	08000b37          	lui	s6,0x8000
 800072e:	4605                	li	a2,1
 8000730:	428b0593          	addi	a1,s6,1064 # 8000428 <_std_dev_req+0x98>
 8000734:	953e                	add	a0,a0,a5
 8000736:	00002097          	auipc	ra,0x2
 800073a:	2aa080e7          	jalr	682(ra) # 80029e0 <f_mount>
    f_sync(&fil);
 800073e:	52090793          	addi	a5,s2,1312
 8000742:	978a                	add	a5,a5,sp
    fr = f_mount(&fs, "test", 1); // Mount storage device
 8000744:	c02a                	sw	a0,0(sp)
    f_sync(&fil);
 8000746:	ba840513          	addi	a0,s0,-1112
 800074a:	953e                	add	a0,a0,a5
 800074c:	00003097          	auipc	ra,0x3
 8000750:	a1e080e7          	jalr	-1506(ra) # 800316a <f_sync>

    /* This function opens a file. In this case, we are creating a file which we want to write to */
    /* Filename should be at most 8 chars long and the extension should be at most 3 */
    
    delay_1ms(400);
 8000754:	19000513          	li	a0,400
 8000758:	00003097          	auipc	ra,0x3
 800075c:	6b0080e7          	jalr	1712(ra) # 8003e08 <delay_1ms>

    int ind_ble = 0;
    char read_buf[80] = {'\0'};
 8000760:	05000613          	li	a2,80
 8000764:	4581                	li	a1,0
 8000766:	1028                	addi	a0,sp,40
 8000768:	00007097          	auipc	ra,0x7
 800076c:	a72080e7          	jalr	-1422(ra) # 80071da <memset>
    char read_buf_ble[80] = {'\0'};
 8000770:	05000613          	li	a2,80
 8000774:	4581                	li	a1,0
 8000776:	18a8                	addi	a0,sp,120
 8000778:	00007097          	auipc	ra,0x7
 800077c:	a62080e7          	jalr	-1438(ra) # 80071da <memset>
    //configure_usb_serial(); //måste vara före lio_init_bt
    lio_init_bt();
 8000780:	00006097          	auipc	ra,0x6
 8000784:	8a6080e7          	jalr	-1882(ra) # 8006026 <lio_init_bt>
    init_radio();
 8000788:	00005097          	auipc	ra,0x5
 800078c:	646080e7          	jalr	1606(ra) # 8005dce <init_radio>
    dma_config();
 8000790:	00001097          	auipc	ra,0x1
 8000794:	616080e7          	jalr	1558(ra) # 8001da6 <dma_config>
    init_ADC_A0_A7();
 8000798:	00005097          	auipc	ra,0x5
 800079c:	ca6080e7          	jalr	-858(ra) # 800543e <init_ADC_A0_A7>
    ledInit();
 80007a0:	00005097          	auipc	ra,0x5
 80007a4:	132080e7          	jalr	306(ra) # 80058d2 <ledInit>
    usb_delay_1ms(1);
 80007a8:	4505                	li	a0,1
 80007aa:	00004097          	auipc	ra,0x4
 80007ae:	146080e7          	jalr	326(ra) # 80048f0 <usb_delay_1ms>

    char write_to_sd[4096] = {'\0'};
 80007b2:	6605                	lui	a2,0x1
 80007b4:	4581                	li	a1,0
 80007b6:	52010513          	addi	a0,sp,1312
 80007ba:	00007097          	auipc	ra,0x7
 80007be:	a20080e7          	jalr	-1504(ra) # 80071da <memset>
    char buf[BUFFER_SIZE] = {'\0'};
    int buf_size = 0;
    char usb_data_buffer[4096] = {'\0'};
    int dequeued_str_len = 0;

    write = 0;
 80007c2:	200004b7          	lui	s1,0x20000
 80007c6:	5404a023          	sw	zero,1344(s1) # 20000540 <write>
    /* while(!usb_serial_available()){
        delay_1ms(100);
    } */

    int file_Nr = 0;
    reboot_BT();
 80007ca:	00005097          	auipc	ra,0x5
 80007ce:	f30080e7          	jalr	-208(ra) # 80056fa <reboot_BT>
    enter_command_mode();
 80007d2:	00006097          	auipc	ra,0x6
 80007d6:	80a080e7          	jalr	-2038(ra) # 8005fdc <enter_command_mode>
    send_data_to_phone(finapressHandle_start_stop,0x00);
 80007da:	4581                	li	a1,0
 80007dc:	07500513          	li	a0,117
 80007e0:	00005097          	auipc	ra,0x5
 80007e4:	ec6080e7          	jalr	-314(ra) # 80056a6 <send_data_to_phone>
        switch (get_state()){
            case START:
                eclic_global_interrupt_disable();    
                fr = f_mount(&fs, "test", 1); // Mount storage device
                f_sync(&fil);
                fr = f_open(&fil, FILENAME, FA_WRITE | FA_CREATE_ALWAYS);
 80007e8:	080009b7          	lui	s3,0x8000
                eclic_global_interrupt_disable();
                //Skicka till telefon jag stoppar nu
                
                write_to_sd[0] = '\0';
                while(empty_string_queue(write_to_sd, 8)){
                    f_write(&fil, write_to_sd, strlen(write_to_sd), &bw); // testa byt strlen till buf_size för bättre prestanda
 80007ec:	52090793          	addi	a5,s2,1312
                fr = f_open(&fil, FILENAME, FA_WRITE | FA_CREATE_ALWAYS);
 80007f0:	3c898993          	addi	s3,s3,968 # 80003c8 <_std_dev_req+0x38>
                    f_write(&fil, write_to_sd, strlen(write_to_sd), &bw); // testa byt strlen till buf_size för bättre prestanda
 80007f4:	ae440a93          	addi	s5,s0,-1308
 80007f8:	978a                	add	a5,a5,sp
    int onOff = 0;
 80007fa:	4b81                	li	s7,0
    int blink = 0;
 80007fc:	4a01                	li	s4,0
 80007fe:	54048493          	addi	s1,s1,1344
                fr = f_open(&fil, FILENAME, FA_WRITE | FA_CREATE_ALWAYS);
 8000802:	06898c13          	addi	s8,s3,104
                millisec = 0;
 8000806:	20000cb7          	lui	s9,0x20000
                    f_write(&fil, write_to_sd, strlen(write_to_sd), &bw); // testa byt strlen till buf_size för bättre prestanda
 800080a:	9abe                	add	s5,s5,a5
        switch (get_state()){
 800080c:	00006097          	auipc	ra,0x6
 8000810:	ade080e7          	jalr	-1314(ra) # 80062ea <get_state>
 8000814:	4785                	li	a5,1
 8000816:	892a                	mv	s2,a0
 8000818:	18f50063          	beq	a0,a5,8000998 <main+0x2e4>
 800081c:	4789                	li	a5,2
 800081e:	24f50063          	beq	a0,a5,8000a5e <main+0x3aa>
 8000822:	f56d                	bnez	a0,800080c <main+0x158>
                set_state(RUNNING);
                break;

            case RUNNING:
                //RUNNING CONTROL
                lio_read_bt(read_buf, 20);
 8000824:	6d85                	lui	s11,0x1
 8000826:	520d8793          	addi	a5,s11,1312 # 1520 <__stack_size+0x520>
 800082a:	978a                	add	a5,a5,sp
 800082c:	b0840913          	addi	s2,s0,-1272
 8000830:	993e                	add	s2,s2,a5
 8000832:	45d1                	li	a1,20
 8000834:	854a                	mv	a0,s2
 8000836:	00006097          	auipc	ra,0x6
 800083a:	962080e7          	jalr	-1694(ra) # 8006198 <lio_read_bt>
                ind_ble = fuseStrings(read_buf_ble, read_buf);
 800083e:	520d8793          	addi	a5,s11,1312
 8000842:	978a                	add	a5,a5,sp
 8000844:	b5840d13          	addi	s10,s0,-1192
 8000848:	9d3e                	add	s10,s10,a5
 800084a:	85ca                	mv	a1,s2
 800084c:	856a                	mv	a0,s10
 800084e:	00005097          	auipc	ra,0x5
 8000852:	434080e7          	jalr	1076(ra) # 8005c82 <fuseStrings>
                memset(read_buf, '\0', sizeof(read_buf));
 8000856:	05000613          	li	a2,80
 800085a:	4581                	li	a1,0
 800085c:	854a                	mv	a0,s2
 800085e:	00007097          	auipc	ra,0x7
 8000862:	97c080e7          	jalr	-1668(ra) # 80071da <memset>
                blink++;
                if (blink == 100000){
 8000866:	67e1                	lui	a5,0x18
                blink++;
 8000868:	0a05                	addi	s4,s4,1
                if (blink == 100000){
 800086a:	6a078793          	addi	a5,a5,1696 # 186a0 <__stack_size+0x176a0>
 800086e:	02fa1263          	bne	s4,a5,8000892 <main+0x1de>
                    /* if(read_handle(finapressHandle_start_stop,read_buf_ble,1000)){
                        led_on_b2();
                    }else{
                        led_off_b2();
                    } */
                    memset(read_buf_ble, '\0', sizeof(read_buf_ble));
 8000872:	05000613          	li	a2,80
 8000876:	4581                	li	a1,0
 8000878:	856a                	mv	a0,s10
 800087a:	00007097          	auipc	ra,0x7
 800087e:	960080e7          	jalr	-1696(ra) # 80071da <memset>
                    if(onOff){
 8000882:	260b8663          	beqz	s7,8000aee <main+0x43a>
                        led_on_B0();
 8000886:	00005097          	auipc	ra,0x5
 800088a:	09e080e7          	jalr	158(ra) # 8005924 <led_on_B0>
                        
                        onOff = 0;
 800088e:	4b81                	li	s7,0
                    blink = 0;
 8000890:	4a01                	li	s4,0
                        led_off_B0();
                        onOff = 1;
                    }
                }
                //printf("%s\r\n", read_buf_ble);
                if(!strcmp(read_buf_ble, BLUETOOTH_START_MESSAGE)){
 8000892:	6785                	lui	a5,0x1
 8000894:	52078793          	addi	a5,a5,1312 # 1520 <__stack_size+0x520>
 8000898:	b5840913          	addi	s2,s0,-1192
 800089c:	978a                	add	a5,a5,sp
 800089e:	993e                	add	s2,s2,a5
 80008a0:	09498593          	addi	a1,s3,148
 80008a4:	854a                	mv	a0,s2
 80008a6:	00007097          	auipc	ra,0x7
 80008aa:	992080e7          	jalr	-1646(ra) # 8007238 <strcmp>
 80008ae:	24051763          	bnez	a0,8000afc <main+0x448>
                    send_radio("empty",5);
 80008b2:	08000537          	lui	a0,0x8000
 80008b6:	4595                	li	a1,5
 80008b8:	46c50513          	addi	a0,a0,1132 # 800046c <_std_dev_req+0xdc>
 80008bc:	00005097          	auipc	ra,0x5
 80008c0:	684080e7          	jalr	1668(ra) # 8005f40 <send_radio>
                    delay_1ms(50);
 80008c4:	03200513          	li	a0,50
 80008c8:	00003097          	auipc	ra,0x3
 80008cc:	540080e7          	jalr	1344(ra) # 8003e08 <delay_1ms>
                    send_radio("start0", 6);
 80008d0:	08000537          	lui	a0,0x8000
 80008d4:	4599                	li	a1,6
 80008d6:	3c850513          	addi	a0,a0,968 # 80003c8 <_std_dev_req+0x38>
 80008da:	00005097          	auipc	ra,0x5
 80008de:	666080e7          	jalr	1638(ra) # 8005f40 <send_radio>
                    memset(read_buf_ble, '\0', sizeof(read_buf_ble));
 80008e2:	05000613          	li	a2,80
 80008e6:	4581                	li	a1,0
 80008e8:	854a                	mv	a0,s2
 80008ea:	00007097          	auipc	ra,0x7
 80008ee:	8f0080e7          	jalr	-1808(ra) # 80071da <memset>
                    start_time = millis() + 1051;
 80008f2:	00005097          	auipc	ra,0x5
 80008f6:	296080e7          	jalr	662(ra) # 8005b88 <millis>
 80008fa:	200007b7          	lui	a5,0x20000
 80008fe:	41b50513          	addi	a0,a0,1051
 8000902:	52a7ae23          	sw	a0,1340(a5) # 2000053c <start_time>
                    led_on_B1();
 8000906:	00005097          	auipc	ra,0x5
 800090a:	ff6080e7          	jalr	-10(ra) # 80058fc <led_on_B1>
                    set_state(START);
 800090e:	4505                	li	a0,1
 8000910:	00006097          	auipc	ra,0x6
 8000914:	9e4080e7          	jalr	-1564(ra) # 80062f4 <set_state>
                    write = 1;
 8000918:	4785                	li	a5,1
                    send_data_to_phone(finapressHandle_start_stop,0x01);
 800091a:	4585                	li	a1,1
 800091c:	07500513          	li	a0,117
                    write = 1;
 8000920:	c09c                	sw	a5,0(s1)
                    send_data_to_phone(finapressHandle_start_stop,0x01);
 8000922:	00005097          	auipc	ra,0x5
 8000926:	d84080e7          	jalr	-636(ra) # 80056a6 <send_data_to_phone>
                    led_on_B1();
 800092a:	00005097          	auipc	ra,0x5
 800092e:	fd2080e7          	jalr	-46(ra) # 80058fc <led_on_B1>
                }else if(!strcmp(read_buf_ble, RUNNING_MSG)){
                    memset(read_buf_ble, '\0', sizeof(read_buf_ble));
                }//Vi kan koll vilket kommand vi får när vi connectar för att ta bort det. Just nu så memsettar vi aldrig read_buf_ble så den kommer alltid ligga kvar där i buffern, vilket gör att disconnectar telefonen och sen connectar så kan vi ej starta mätningen

                //BREAK IF PROGRAM SHOULDNT WRITE
                if(!write){
 8000932:	409c                	lw	a5,0(s1)
 8000934:	ec078ce3          	beqz	a5,800080c <main+0x158>
                    break;
                }

                //WRITE TO FILE
                if (queue_str_len() > 8){
 8000938:	00005097          	auipc	ra,0x5
 800093c:	33e080e7          	jalr	830(ra) # 8005c76 <queue_str_len>
 8000940:	47a1                	li	a5,8
 8000942:	eca7d5e3          	bge	a5,a0,800080c <main+0x158>
                    write_to_sd[0] = '\0';
                    buf_size = dequeue_string(write_to_sd, 8);
 8000946:	45a1                	li	a1,8
 8000948:	52010513          	addi	a0,sp,1312
                    write_to_sd[0] = '\0';
 800094c:	52010023          	sb	zero,1312(sp)
                    buf_size = dequeue_string(write_to_sd, 8);
 8000950:	00005097          	auipc	ra,0x5
 8000954:	358080e7          	jalr	856(ra) # 8005ca8 <dequeue_string>
                    if(buf_size > 0){
 8000958:	eaa05ae3          	blez	a0,800080c <main+0x158>
                        //led_on();
                        f_write(&fil, write_to_sd, strlen(write_to_sd), &bw); // testa byt strlen till buf_size för bättre prestanda
 800095c:	52010513          	addi	a0,sp,1312
 8000960:	00007097          	auipc	ra,0x7
 8000964:	8f0080e7          	jalr	-1808(ra) # 8007250 <strlen>
 8000968:	6785                	lui	a5,0x1
 800096a:	52078793          	addi	a5,a5,1312 # 1520 <__stack_size+0x520>
 800096e:	978a                	add	a5,a5,sp
 8000970:	ba840913          	addi	s2,s0,-1112
 8000974:	993e                	add	s2,s2,a5
 8000976:	862a                	mv	a2,a0
 8000978:	86d6                	mv	a3,s5
 800097a:	52010593          	addi	a1,sp,1312
 800097e:	854a                	mv	a0,s2
 8000980:	00002097          	auipc	ra,0x2
 8000984:	5e2080e7          	jalr	1506(ra) # 8002f62 <f_write>
                        f_sync(&fil);
 8000988:	854a                	mv	a0,s2
 800098a:	00002097          	auipc	ra,0x2
 800098e:	7e0080e7          	jalr	2016(ra) # 800316a <f_sync>
                        write_to_sd[0] = '\0';
 8000992:	52010023          	sb	zero,1312(sp)
        switch (get_state()){
 8000996:	bd9d                	j	800080c <main+0x158>
                eclic_global_interrupt_disable();    
 8000998:	00000097          	auipc	ra,0x0
 800099c:	5fe080e7          	jalr	1534(ra) # 8000f96 <eclic_global_interrupt_disable>
                fr = f_mount(&fs, "test", 1); // Mount storage device
 80009a0:	6d85                	lui	s11,0x1
 80009a2:	520d8793          	addi	a5,s11,1312 # 1520 <__stack_size+0x520>
 80009a6:	978a                	add	a5,a5,sp
 80009a8:	dd040513          	addi	a0,s0,-560
 80009ac:	4605                	li	a2,1
 80009ae:	428b0593          	addi	a1,s6,1064
 80009b2:	953e                	add	a0,a0,a5
 80009b4:	00002097          	auipc	ra,0x2
 80009b8:	02c080e7          	jalr	44(ra) # 80029e0 <f_mount>
                f_sync(&fil);
 80009bc:	520d8793          	addi	a5,s11,1312
 80009c0:	978a                	add	a5,a5,sp
 80009c2:	ba840d13          	addi	s10,s0,-1112
 80009c6:	9d3e                	add	s10,s10,a5
                fr = f_mount(&fs, "test", 1); // Mount storage device
 80009c8:	c02a                	sw	a0,0(sp)
                f_sync(&fil);
 80009ca:	856a                	mv	a0,s10
 80009cc:	00002097          	auipc	ra,0x2
 80009d0:	79e080e7          	jalr	1950(ra) # 800316a <f_sync>
                fr = f_open(&fil, FILENAME, FA_WRITE | FA_CREATE_ALWAYS);
 80009d4:	4629                	li	a2,10
 80009d6:	85e2                	mv	a1,s8
 80009d8:	856a                	mv	a0,s10
 80009da:	00002097          	auipc	ra,0x2
 80009de:	062080e7          	jalr	98(ra) # 8002a3c <f_open>
 80009e2:	c02a                	sw	a0,0(sp)
                clear_queues();
 80009e4:	00005097          	auipc	ra,0x5
 80009e8:	3ac080e7          	jalr	940(ra) # 8005d90 <clear_queues>
                char header[] = "Time;A0;A1;A2;A3;A4;A5;A6;A7\n";
 80009ec:	4679                	li	a2,30
 80009ee:	07498593          	addi	a1,s3,116
 80009f2:	0028                	addi	a0,sp,8
 80009f4:	00006097          	auipc	ra,0x6
 80009f8:	7d0080e7          	jalr	2000(ra) # 80071c4 <memcpy>
                enqueue_string(header);
 80009fc:	520d8793          	addi	a5,s11,1312
 8000a00:	978a                	add	a5,a5,sp
 8000a02:	ae840513          	addi	a0,s0,-1304
 8000a06:	953e                	add	a0,a0,a5
 8000a08:	00005097          	auipc	ra,0x5
 8000a0c:	202080e7          	jalr	514(ra) # 8005c0a <enqueue_string>
                millisec = 0;
 8000a10:	530c8793          	addi	a5,s9,1328 # 20000530 <millisec>
 8000a14:	0007a023          	sw	zero,0(a5)
                seconds = 0;
 8000a18:	200007b7          	lui	a5,0x20000
 8000a1c:	5207ac23          	sw	zero,1336(a5) # 20000538 <seconds>
                set_state(RUNNING);
 8000a20:	4501                	li	a0,0
                minutes = 0;
 8000a22:	200007b7          	lui	a5,0x20000
 8000a26:	5207aa23          	sw	zero,1332(a5) # 20000534 <minutes>
                set_state(RUNNING);
 8000a2a:	00006097          	auipc	ra,0x6
 8000a2e:	8ca080e7          	jalr	-1846(ra) # 80062f4 <set_state>
                write = 1;
 8000a32:	0124a023          	sw	s2,0(s1)
                while(millis() < start_time);
 8000a36:	20000937          	lui	s2,0x20000
 8000a3a:	00005097          	auipc	ra,0x5
 8000a3e:	14e080e7          	jalr	334(ra) # 8005b88 <millis>
 8000a42:	53c90793          	addi	a5,s2,1340 # 2000053c <start_time>
 8000a46:	439c                	lw	a5,0(a5)
 8000a48:	fef549e3          	blt	a0,a5,8000a3a <main+0x386>
                timer_interrupt_config();
 8000a4c:	00005097          	auipc	ra,0x5
 8000a50:	f00080e7          	jalr	-256(ra) # 800594c <timer_interrupt_config>
                eclic_global_interrupt_enable();  
 8000a54:	00000097          	auipc	ra,0x0
 8000a58:	53c080e7          	jalr	1340(ra) # 8000f90 <eclic_global_interrupt_enable>
                break;
 8000a5c:	bb45                	j	800080c <main+0x158>
                timer_interrupt_disable(TIMER1, TIMER_INT_CH0);
 8000a5e:	4589                	li	a1,2
 8000a60:	40000537          	lui	a0,0x40000
 8000a64:	00001097          	auipc	ra,0x1
 8000a68:	d1a080e7          	jalr	-742(ra) # 800177e <timer_interrupt_disable>
                eclic_global_interrupt_disable();
 8000a6c:	00000097          	auipc	ra,0x0
 8000a70:	52a080e7          	jalr	1322(ra) # 8000f96 <eclic_global_interrupt_disable>
                write_to_sd[0] = '\0';
 8000a74:	6705                	lui	a4,0x1
 8000a76:	52070793          	addi	a5,a4,1312 # 1520 <__stack_size+0x520>
 8000a7a:	978a                	add	a5,a5,sp
 8000a7c:	00878933          	add	s2,a5,s0
                    f_write(&fil, write_to_sd, strlen(write_to_sd), &bw); // testa byt strlen till buf_size för bättre prestanda
 8000a80:	52070793          	addi	a5,a4,1312
 8000a84:	ba840d13          	addi	s10,s0,-1112
 8000a88:	978a                	add	a5,a5,sp
                write_to_sd[0] = '\0';
 8000a8a:	00090023          	sb	zero,0(s2)
                    f_write(&fil, write_to_sd, strlen(write_to_sd), &bw); // testa byt strlen till buf_size för bättre prestanda
 8000a8e:	9d3e                	add	s10,s10,a5
                while(empty_string_queue(write_to_sd, 8)){
 8000a90:	45a1                	li	a1,8
 8000a92:	854a                	mv	a0,s2
 8000a94:	00005097          	auipc	ra,0x5
 8000a98:	290080e7          	jalr	656(ra) # 8005d24 <empty_string_queue>
 8000a9c:	e505                	bnez	a0,8000ac4 <main+0x410>
                f_close(&fil);
 8000a9e:	6785                	lui	a5,0x1
 8000aa0:	52078793          	addi	a5,a5,1312 # 1520 <__stack_size+0x520>
 8000aa4:	978a                	add	a5,a5,sp
 8000aa6:	ba840513          	addi	a0,s0,-1112
 8000aaa:	953e                	add	a0,a0,a5
 8000aac:	00003097          	auipc	ra,0x3
 8000ab0:	86e080e7          	jalr	-1938(ra) # 800331a <f_close>
                set_state(RUNNING);
 8000ab4:	4501                	li	a0,0
                write = 0;
 8000ab6:	0004a023          	sw	zero,0(s1)
                set_state(RUNNING);
 8000aba:	00006097          	auipc	ra,0x6
 8000abe:	83a080e7          	jalr	-1990(ra) # 80062f4 <set_state>
                break;
 8000ac2:	b3a9                	j	800080c <main+0x158>
                    f_write(&fil, write_to_sd, strlen(write_to_sd), &bw); // testa byt strlen till buf_size för bättre prestanda
 8000ac4:	854a                	mv	a0,s2
 8000ac6:	00006097          	auipc	ra,0x6
 8000aca:	78a080e7          	jalr	1930(ra) # 8007250 <strlen>
 8000ace:	862a                	mv	a2,a0
 8000ad0:	86d6                	mv	a3,s5
 8000ad2:	85ca                	mv	a1,s2
 8000ad4:	856a                	mv	a0,s10
 8000ad6:	00002097          	auipc	ra,0x2
 8000ada:	48c080e7          	jalr	1164(ra) # 8002f62 <f_write>
                    f_sync(&fil);
 8000ade:	856a                	mv	a0,s10
 8000ae0:	00002097          	auipc	ra,0x2
 8000ae4:	68a080e7          	jalr	1674(ra) # 800316a <f_sync>
                    write_to_sd[0] = '\0';
 8000ae8:	00090023          	sb	zero,0(s2)
 8000aec:	b755                	j	8000a90 <main+0x3dc>
                        led_off_B0();
 8000aee:	00005097          	auipc	ra,0x5
 8000af2:	e4a080e7          	jalr	-438(ra) # 8005938 <led_off_B0>
                    blink = 0;
 8000af6:	4a01                	li	s4,0
                        onOff = 1;
 8000af8:	4b85                	li	s7,1
 8000afa:	bb61                	j	8000892 <main+0x1de>
                }else if(!strcmp(read_buf_ble, BLUETOOTH_STOP_MESSAGE)){
 8000afc:	0ac98593          	addi	a1,s3,172
 8000b00:	854a                	mv	a0,s2
 8000b02:	00006097          	auipc	ra,0x6
 8000b06:	736080e7          	jalr	1846(ra) # 8007238 <strcmp>
 8000b0a:	e525                	bnez	a0,8000b72 <main+0x4be>
                    send_radio("empty",5);
 8000b0c:	08000537          	lui	a0,0x8000
 8000b10:	4595                	li	a1,5
 8000b12:	46c50513          	addi	a0,a0,1132 # 800046c <_std_dev_req+0xdc>
 8000b16:	00005097          	auipc	ra,0x5
 8000b1a:	42a080e7          	jalr	1066(ra) # 8005f40 <send_radio>
                    delay_1ms(50);
 8000b1e:	03200513          	li	a0,50
 8000b22:	00003097          	auipc	ra,0x3
 8000b26:	2e6080e7          	jalr	742(ra) # 8003e08 <delay_1ms>
                    send_radio("stopp0", 6);
 8000b2a:	08000537          	lui	a0,0x8000
 8000b2e:	4599                	li	a1,6
 8000b30:	3e050513          	addi	a0,a0,992 # 80003e0 <_std_dev_req+0x50>
 8000b34:	00005097          	auipc	ra,0x5
 8000b38:	40c080e7          	jalr	1036(ra) # 8005f40 <send_radio>
                    memset(read_buf_ble, '\0', sizeof(read_buf_ble));
 8000b3c:	05000613          	li	a2,80
 8000b40:	4581                	li	a1,0
 8000b42:	854a                	mv	a0,s2
 8000b44:	00006097          	auipc	ra,0x6
 8000b48:	696080e7          	jalr	1686(ra) # 80071da <memset>
                    set_state(STOP);
 8000b4c:	4509                	li	a0,2
 8000b4e:	00005097          	auipc	ra,0x5
 8000b52:	7a6080e7          	jalr	1958(ra) # 80062f4 <set_state>
                    send_data_to_phone(finapressHandle_start_stop,0x00);
 8000b56:	4581                	li	a1,0
 8000b58:	07500513          	li	a0,117
 8000b5c:	00005097          	auipc	ra,0x5
 8000b60:	b4a080e7          	jalr	-1206(ra) # 80056a6 <send_data_to_phone>
                    write = 0;
 8000b64:	0004a023          	sw	zero,0(s1)
                    led_off_B1();
 8000b68:	00005097          	auipc	ra,0x5
 8000b6c:	da8080e7          	jalr	-600(ra) # 8005910 <led_off_B1>
 8000b70:	b3c9                	j	8000932 <main+0x27e>
                }else if(!strcmp(read_buf_ble, RUNNING_MSG)){
 8000b72:	0bc98593          	addi	a1,s3,188
 8000b76:	854a                	mv	a0,s2
 8000b78:	00006097          	auipc	ra,0x6
 8000b7c:	6c0080e7          	jalr	1728(ra) # 8007238 <strcmp>
 8000b80:	da0519e3          	bnez	a0,8000932 <main+0x27e>
                    memset(read_buf_ble, '\0', sizeof(read_buf_ble));
 8000b84:	05000613          	li	a2,80
 8000b88:	4581                	li	a1,0
 8000b8a:	854a                	mv	a0,s2
 8000b8c:	00006097          	auipc	ra,0x6
 8000b90:	64e080e7          	jalr	1614(ra) # 80071da <memset>
 8000b94:	bb79                	j	8000932 <main+0x27e>

08000b96 <adc_deinit>:
    \param[in]  adc_periph: ADCx, x=0,1
    \param[out] none
    \retval     none
*/
void adc_deinit(uint32_t adc_periph)
{
 8000b96:	1141                	addi	sp,sp,-16
    switch(adc_periph){
 8000b98:	400127b7          	lui	a5,0x40012
{
 8000b9c:	c606                	sw	ra,12(sp)
    switch(adc_periph){
 8000b9e:	40078793          	addi	a5,a5,1024 # 40012400 <_sp+0x2000a400>
 8000ba2:	00f50b63          	beq	a0,a5,8000bb8 <adc_deinit+0x22>
 8000ba6:	400137b7          	lui	a5,0x40013
 8000baa:	80078793          	addi	a5,a5,-2048 # 40012800 <_sp+0x2000a800>
 8000bae:	02f50363          	beq	a0,a5,8000bd4 <adc_deinit+0x3e>
        rcu_periph_reset_disable(RCU_ADC1RST);
        break;
    default:
        break;
    }
}
 8000bb2:	40b2                	lw	ra,12(sp)
 8000bb4:	0141                	addi	sp,sp,16
 8000bb6:	8082                	ret
        rcu_periph_reset_enable(RCU_ADC0RST);
 8000bb8:	30900513          	li	a0,777
 8000bbc:	00000097          	auipc	ra,0x0
 8000bc0:	4ec080e7          	jalr	1260(ra) # 80010a8 <rcu_periph_reset_enable>
        rcu_periph_reset_disable(RCU_ADC0RST);
 8000bc4:	30900513          	li	a0,777
}
 8000bc8:	40b2                	lw	ra,12(sp)
 8000bca:	0141                	addi	sp,sp,16
        rcu_periph_reset_disable(RCU_ADC1RST);
 8000bcc:	00000317          	auipc	t1,0x0
 8000bd0:	4f430067          	jr	1268(t1) # 80010c0 <rcu_periph_reset_disable>
        rcu_periph_reset_enable(RCU_ADC1RST);
 8000bd4:	30a00513          	li	a0,778
 8000bd8:	00000097          	auipc	ra,0x0
 8000bdc:	4d0080e7          	jalr	1232(ra) # 80010a8 <rcu_periph_reset_enable>
        rcu_periph_reset_disable(RCU_ADC1RST);
 8000be0:	30a00513          	li	a0,778
 8000be4:	b7d5                	j	8000bc8 <adc_deinit+0x32>

08000be6 <adc_mode_config>:
    \param[out] none
    \retval     none
*/
void adc_mode_config(uint32_t mode)
{
    ADC_CTL0(ADC0) &= ~(ADC_CTL0_SYNCM);
 8000be6:	400127b7          	lui	a5,0x40012
 8000bea:	4047a703          	lw	a4,1028(a5) # 40012404 <_sp+0x2000a404>
 8000bee:	fff106b7          	lui	a3,0xfff10
 8000bf2:	16fd                	addi	a3,a3,-1
 8000bf4:	8f75                	and	a4,a4,a3
 8000bf6:	40e7a223          	sw	a4,1028(a5)
    ADC_CTL0(ADC0) |= mode;
 8000bfa:	4047a703          	lw	a4,1028(a5)
 8000bfe:	8d59                	or	a0,a0,a4
 8000c00:	40a7a223          	sw	a0,1028(a5)
}
 8000c04:	8082                	ret

08000c06 <adc_data_alignment_config>:
*/
void adc_data_alignment_config(uint32_t adc_periph, uint32_t data_alignment)
{
    if(ADC_DATAALIGN_RIGHT != data_alignment){
        /* MSB alignment */
        ADC_CTL1(adc_periph) |= ADC_CTL1_DAL;
 8000c06:	451c                	lw	a5,8(a0)
    if(ADC_DATAALIGN_RIGHT != data_alignment){
 8000c08:	c599                	beqz	a1,8000c16 <adc_data_alignment_config+0x10>
        ADC_CTL1(adc_periph) |= ADC_CTL1_DAL;
 8000c0a:	6705                	lui	a4,0x1
 8000c0c:	80070713          	addi	a4,a4,-2048 # 800 <__dbg_stack_size+0x800>
 8000c10:	8fd9                	or	a5,a5,a4
    }else{
        /* LSB alignment */
        ADC_CTL1(adc_periph) &= ~((uint32_t)ADC_CTL1_DAL);
 8000c12:	c51c                	sw	a5,8(a0)
    }
}
 8000c14:	8082                	ret
        ADC_CTL1(adc_periph) &= ~((uint32_t)ADC_CTL1_DAL);
 8000c16:	777d                	lui	a4,0xfffff
 8000c18:	7ff70713          	addi	a4,a4,2047 # fffff7ff <_sp+0xdfff77ff>
 8000c1c:	8ff9                	and	a5,a5,a4
 8000c1e:	bfd5                	j	8000c12 <adc_data_alignment_config+0xc>

08000c20 <adc_enable>:
    \param[out] none
    \retval     none
*/
void adc_enable(uint32_t adc_periph)
{
    if((uint32_t)RESET == (ADC_CTL1(adc_periph) & ADC_CTL1_ADCON)){
 8000c20:	451c                	lw	a5,8(a0)
 8000c22:	8b85                	andi	a5,a5,1
 8000c24:	e789                	bnez	a5,8000c2e <adc_enable+0xe>
        /* enable ADC */
        ADC_CTL1(adc_periph) |= (uint32_t)ADC_CTL1_ADCON;
 8000c26:	451c                	lw	a5,8(a0)
 8000c28:	0017e793          	ori	a5,a5,1
 8000c2c:	c51c                	sw	a5,8(a0)
    }       
}
 8000c2e:	8082                	ret

08000c30 <adc_calibration_enable>:
    \retval     none
*/
void adc_calibration_enable(uint32_t adc_periph)
{
    /* reset the selected ADC1 calibration registers */
    ADC_CTL1(adc_periph) |= (uint32_t) ADC_CTL1_RSTCLB;
 8000c30:	451c                	lw	a5,8(a0)
 8000c32:	00850713          	addi	a4,a0,8
 8000c36:	0087e793          	ori	a5,a5,8
 8000c3a:	c51c                	sw	a5,8(a0)
    /* check the RSTCLB bit state */
    while((uint32_t)RESET != (ADC_CTL1(adc_periph) & ADC_CTL1_RSTCLB)){
 8000c3c:	431c                	lw	a5,0(a4)
 8000c3e:	8ba1                	andi	a5,a5,8
 8000c40:	fff5                	bnez	a5,8000c3c <adc_calibration_enable+0xc>
    }
    /* enable ADC calibration process */
    ADC_CTL1(adc_periph) |= ADC_CTL1_CLB;
 8000c42:	451c                	lw	a5,8(a0)
 8000c44:	0047e793          	ori	a5,a5,4
 8000c48:	c51c                	sw	a5,8(a0)
    /* check the CLB bit state */
    while((uint32_t)RESET != (ADC_CTL1(adc_periph) & ADC_CTL1_CLB)){
 8000c4a:	431c                	lw	a5,0(a4)
 8000c4c:	8b91                	andi	a5,a5,4
 8000c4e:	fff5                	bnez	a5,8000c4a <adc_calibration_enable+0x1a>
    }
}
 8000c50:	8082                	ret

08000c52 <adc_dma_mode_enable>:
    \retval     none
*/
void adc_dma_mode_enable(uint32_t adc_periph)
{
    /* enable DMA request */
    ADC_CTL1(adc_periph) |= (uint32_t)(ADC_CTL1_DMA);
 8000c52:	451c                	lw	a5,8(a0)
 8000c54:	1007e793          	ori	a5,a5,256
 8000c58:	c51c                	sw	a5,8(a0)
}
 8000c5a:	8082                	ret

08000c5c <adc_discontinuous_mode_config>:
    \retval     none
*/
void adc_discontinuous_mode_config(uint32_t adc_periph, uint8_t adc_channel_group, uint8_t length)
{
    /* disable discontinuous mode of regular & inserted channel */
    ADC_CTL0(adc_periph) &= ~((uint32_t)(ADC_CTL0_DISRC | ADC_CTL0_DISIC));
 8000c5c:	415c                	lw	a5,4(a0)
 8000c5e:	7779                	lui	a4,0xffffe
 8000c60:	7ff70713          	addi	a4,a4,2047 # ffffe7ff <_sp+0xdfff67ff>
 8000c64:	8ff9                	and	a5,a5,a4
 8000c66:	c15c                	sw	a5,4(a0)
    switch(adc_channel_group){
 8000c68:	4785                	li	a5,1
 8000c6a:	00f58663          	beq	a1,a5,8000c76 <adc_discontinuous_mode_config+0x1a>
 8000c6e:	4789                	li	a5,2
 8000c70:	02f58663          	beq	a1,a5,8000c9c <adc_discontinuous_mode_config+0x40>
 8000c74:	8082                	ret
    case ADC_REGULAR_CHANNEL:
        /* config the number of conversions in discontinuous mode */
        ADC_CTL0(adc_periph) &= ~((uint32_t)ADC_CTL0_DISNUM);
 8000c76:	415c                	lw	a5,4(a0)
 8000c78:	7749                	lui	a4,0xffff2
 8000c7a:	177d                	addi	a4,a4,-1
 8000c7c:	8ff9                	and	a5,a5,a4
 8000c7e:	c15c                	sw	a5,4(a0)
        ADC_CTL0(adc_periph) |= CTL0_DISNUM(((uint32_t)length - ADC_CHANNEL_LENGTH_SUBTRACT_ONE));
 8000c80:	415c                	lw	a5,4(a0)
 8000c82:	167d                	addi	a2,a2,-1
 8000c84:	6739                	lui	a4,0xe
 8000c86:	0636                	slli	a2,a2,0xd
 8000c88:	8e79                	and	a2,a2,a4
 8000c8a:	8e5d                	or	a2,a2,a5
 8000c8c:	c150                	sw	a2,4(a0)
        /* enable regular channel group discontinuous mode */
        ADC_CTL0(adc_periph) |= (uint32_t)ADC_CTL0_DISRC;
 8000c8e:	415c                	lw	a5,4(a0)
 8000c90:	6705                	lui	a4,0x1
 8000c92:	80070713          	addi	a4,a4,-2048 # 800 <__dbg_stack_size+0x800>
        break;
    case ADC_INSERTED_CHANNEL:
        /* enable inserted channel group discontinuous mode */
        ADC_CTL0(adc_periph) |= (uint32_t)ADC_CTL0_DISIC;
 8000c96:	8fd9                	or	a5,a5,a4
 8000c98:	c15c                	sw	a5,4(a0)
    case ADC_CHANNEL_DISCON_DISABLE:
        /* disable discontinuous mode of regular & inserted channel */
    default:
        break;
    }
}
 8000c9a:	8082                	ret
        ADC_CTL0(adc_periph) |= (uint32_t)ADC_CTL0_DISIC;
 8000c9c:	415c                	lw	a5,4(a0)
 8000c9e:	6705                	lui	a4,0x1
 8000ca0:	bfdd                	j	8000c96 <adc_discontinuous_mode_config+0x3a>

08000ca2 <adc_channel_length_config>:
    \param[out] none
    \retval     none
*/
void adc_channel_length_config(uint32_t adc_periph, uint8_t adc_channel_group, uint32_t length)
{
    switch(adc_channel_group){
 8000ca2:	4785                	li	a5,1
 8000ca4:	00f58663          	beq	a1,a5,8000cb0 <adc_channel_length_config+0xe>
 8000ca8:	4789                	li	a5,2
 8000caa:	02f58263          	beq	a1,a5,8000cce <adc_channel_length_config+0x2c>
 8000cae:	8082                	ret
    case ADC_REGULAR_CHANNEL:
        /* configure the length of regular channel group */
        ADC_RSQ0(adc_periph) &= ~((uint32_t)ADC_RSQ0_RL);
 8000cb0:	555c                	lw	a5,44(a0)
 8000cb2:	ff100737          	lui	a4,0xff100
 8000cb6:	177d                	addi	a4,a4,-1
 8000cb8:	8ff9                	and	a5,a5,a4
 8000cba:	d55c                	sw	a5,44(a0)
        ADC_RSQ0(adc_periph) |= RSQ0_RL((uint32_t)(length-ADC_CHANNEL_LENGTH_SUBTRACT_ONE));
 8000cbc:	555c                	lw	a5,44(a0)
 8000cbe:	167d                	addi	a2,a2,-1
 8000cc0:	0652                	slli	a2,a2,0x14
 8000cc2:	00f00737          	lui	a4,0xf00
 8000cc6:	8e79                	and	a2,a2,a4
 8000cc8:	8e5d                	or	a2,a2,a5
 8000cca:	d550                	sw	a2,44(a0)
        break;
 8000ccc:	8082                	ret
    case ADC_INSERTED_CHANNEL:
        /* configure the length of inserted channel group */
        ADC_ISQ(adc_periph) &= ~((uint32_t)ADC_ISQ_IL);
 8000cce:	5d1c                	lw	a5,56(a0)
 8000cd0:	ffd00737          	lui	a4,0xffd00
 8000cd4:	177d                	addi	a4,a4,-1
 8000cd6:	8ff9                	and	a5,a5,a4
 8000cd8:	dd1c                	sw	a5,56(a0)
        ADC_ISQ(adc_periph) |= ISQ_IL((uint32_t)(length-ADC_CHANNEL_LENGTH_SUBTRACT_ONE));
 8000cda:	5d1c                	lw	a5,56(a0)
 8000cdc:	167d                	addi	a2,a2,-1
 8000cde:	0652                	slli	a2,a2,0x14
 8000ce0:	00300737          	lui	a4,0x300
 8000ce4:	8e79                	and	a2,a2,a4
 8000ce6:	8e5d                	or	a2,a2,a5
 8000ce8:	dd10                	sw	a2,56(a0)
        break;
    default:
        break;
    }
}
 8000cea:	8082                	ret

08000cec <adc_regular_channel_config>:
void adc_regular_channel_config(uint32_t adc_periph, uint8_t rank, uint8_t adc_channel, uint32_t sample_time)
{
    uint32_t rsq,sampt;
    
    /* ADC regular sequence config */
    if(rank < ADC_REGULAR_CHANNEL_RANK_SIX){
 8000cec:	4715                	li	a4,5
 8000cee:	04b76363          	bltu	a4,a1,8000d34 <adc_regular_channel_config+0x48>
        /* the regular group sequence rank is smaller than six */
        rsq = ADC_RSQ2(adc_periph);
        rsq &=  ~((uint32_t)(ADC_RSQX_RSQN << (ADC_REGULAR_CHANNEL_RANK_LENGTH*rank)));
 8000cf2:	02e585b3          	mul	a1,a1,a4
        rsq = ADC_RSQ2(adc_periph);
 8000cf6:	03452803          	lw	a6,52(a0)
        rsq &=  ~((uint32_t)(ADC_RSQX_RSQN << (ADC_REGULAR_CHANNEL_RANK_LENGTH*rank)));
 8000cfa:	47fd                	li	a5,31
 8000cfc:	00b797b3          	sll	a5,a5,a1
 8000d00:	fff7c793          	not	a5,a5
 8000d04:	0107f7b3          	and	a5,a5,a6
        /* the channel number is written to these bits to select a channel as the nth conversion in the regular channel group */
        rsq |= ((uint32_t)adc_channel << (ADC_REGULAR_CHANNEL_RANK_LENGTH*rank));
 8000d08:	00b615b3          	sll	a1,a2,a1
 8000d0c:	8ddd                	or	a1,a1,a5
        ADC_RSQ2(adc_periph) = rsq;
 8000d0e:	d94c                	sw	a1,52(a0)
        ADC_RSQ0(adc_periph) = rsq;
    }else{
    }
    
    /* ADC sampling time config */
    if(adc_channel < ADC_CHANNEL_SAMPLE_TEN){
 8000d10:	47a5                	li	a5,9
 8000d12:	06c7e963          	bltu	a5,a2,8000d84 <adc_regular_channel_config+0x98>
        /* the regular group sequence rank is smaller than ten */
        sampt = ADC_SAMPT1(adc_periph);
        sampt &= ~((uint32_t)(ADC_SAMPTX_SPTN << (ADC_CHANNEL_SAMPLE_LENGTH*adc_channel)));
 8000d16:	478d                	li	a5,3
 8000d18:	02f60633          	mul	a2,a2,a5
        sampt = ADC_SAMPT1(adc_periph);
 8000d1c:	490c                	lw	a1,16(a0)
        sampt &= ~((uint32_t)(ADC_SAMPTX_SPTN << (ADC_CHANNEL_SAMPLE_LENGTH*adc_channel)));
 8000d1e:	471d                	li	a4,7
 8000d20:	00c71733          	sll	a4,a4,a2
 8000d24:	fff74713          	not	a4,a4
 8000d28:	8f6d                	and	a4,a4,a1
        /* channel sample time set*/
        sampt |= (uint32_t)(sample_time << (ADC_CHANNEL_SAMPLE_LENGTH*adc_channel));
 8000d2a:	00c69633          	sll	a2,a3,a2
 8000d2e:	8e59                	or	a2,a2,a4
        ADC_SAMPT1(adc_periph) = sampt;
 8000d30:	c910                	sw	a2,16(a0)
 8000d32:	8082                	ret
    }else if(rank < ADC_REGULAR_CHANNEL_RANK_TWELVE){
 8000d34:	47ad                	li	a5,11
 8000d36:	02b7e363          	bltu	a5,a1,8000d5c <adc_regular_channel_config+0x70>
        rsq &= ~((uint32_t)(ADC_RSQX_RSQN << (ADC_REGULAR_CHANNEL_RANK_LENGTH*(rank-ADC_REGULAR_CHANNEL_RANK_SIX))));
 8000d3a:	15e9                	addi	a1,a1,-6
 8000d3c:	02e585b3          	mul	a1,a1,a4
        rsq = ADC_RSQ1(adc_periph);
 8000d40:	03052803          	lw	a6,48(a0)
        rsq &= ~((uint32_t)(ADC_RSQX_RSQN << (ADC_REGULAR_CHANNEL_RANK_LENGTH*(rank-ADC_REGULAR_CHANNEL_RANK_SIX))));
 8000d44:	47fd                	li	a5,31
 8000d46:	00b797b3          	sll	a5,a5,a1
 8000d4a:	fff7c793          	not	a5,a5
 8000d4e:	0107f7b3          	and	a5,a5,a6
        rsq |= ((uint32_t)adc_channel << (ADC_REGULAR_CHANNEL_RANK_LENGTH*(rank-ADC_REGULAR_CHANNEL_RANK_SIX)));
 8000d52:	00b615b3          	sll	a1,a2,a1
 8000d56:	8ddd                	or	a1,a1,a5
        ADC_RSQ1(adc_periph) = rsq;
 8000d58:	d90c                	sw	a1,48(a0)
 8000d5a:	bf5d                	j	8000d10 <adc_regular_channel_config+0x24>
    }else if(rank < ADC_REGULAR_CHANNEL_RANK_SIXTEEN){
 8000d5c:	47bd                	li	a5,15
 8000d5e:	fab7e9e3          	bltu	a5,a1,8000d10 <adc_regular_channel_config+0x24>
        rsq &= ~((uint32_t)(ADC_RSQX_RSQN << (ADC_REGULAR_CHANNEL_RANK_LENGTH*(rank-ADC_REGULAR_CHANNEL_RANK_TWELVE))));
 8000d62:	15d1                	addi	a1,a1,-12
 8000d64:	02e585b3          	mul	a1,a1,a4
        rsq = ADC_RSQ0(adc_periph);
 8000d68:	02c52803          	lw	a6,44(a0)
        rsq &= ~((uint32_t)(ADC_RSQX_RSQN << (ADC_REGULAR_CHANNEL_RANK_LENGTH*(rank-ADC_REGULAR_CHANNEL_RANK_TWELVE))));
 8000d6c:	47fd                	li	a5,31
 8000d6e:	00b797b3          	sll	a5,a5,a1
 8000d72:	fff7c793          	not	a5,a5
 8000d76:	0107f7b3          	and	a5,a5,a6
        rsq |= ((uint32_t)adc_channel << (ADC_REGULAR_CHANNEL_RANK_LENGTH*(rank-ADC_REGULAR_CHANNEL_RANK_TWELVE)));
 8000d7a:	00b615b3          	sll	a1,a2,a1
 8000d7e:	8ddd                	or	a1,a1,a5
        ADC_RSQ0(adc_periph) = rsq;
 8000d80:	d54c                	sw	a1,44(a0)
 8000d82:	b779                	j	8000d10 <adc_regular_channel_config+0x24>
    }else if(adc_channel < ADC_CHANNEL_SAMPLE_EIGHTEEN){
 8000d84:	47c5                	li	a5,17
 8000d86:	02c7e163          	bltu	a5,a2,8000da8 <adc_regular_channel_config+0xbc>
        /* the regular group sequence rank is smaller than eighteen */
        sampt = ADC_SAMPT0(adc_periph);
        sampt &= ~((uint32_t)(ADC_SAMPTX_SPTN << (ADC_CHANNEL_SAMPLE_LENGTH*(adc_channel-ADC_CHANNEL_SAMPLE_TEN))));
 8000d8a:	478d                	li	a5,3
 8000d8c:	1659                	addi	a2,a2,-10
 8000d8e:	02f60633          	mul	a2,a2,a5
        sampt = ADC_SAMPT0(adc_periph);
 8000d92:	4558                	lw	a4,12(a0)
        sampt &= ~((uint32_t)(ADC_SAMPTX_SPTN << (ADC_CHANNEL_SAMPLE_LENGTH*(adc_channel-ADC_CHANNEL_SAMPLE_TEN))));
 8000d94:	479d                	li	a5,7
 8000d96:	00c797b3          	sll	a5,a5,a2
 8000d9a:	fff7c793          	not	a5,a5
 8000d9e:	8ff9                	and	a5,a5,a4
        /* channel sample time set*/
        sampt |= (uint32_t)(sample_time << (ADC_CHANNEL_SAMPLE_LENGTH*(adc_channel-ADC_CHANNEL_SAMPLE_TEN)));
 8000da0:	00c69633          	sll	a2,a3,a2
 8000da4:	8fd1                	or	a5,a5,a2
        ADC_SAMPT0(adc_periph) = sampt;
 8000da6:	c55c                	sw	a5,12(a0)
    }else{
    }
}
 8000da8:	8082                	ret

08000daa <adc_external_trigger_source_config>:
    \param[out] none
    \retval     none
*/
void adc_external_trigger_source_config(uint32_t adc_periph, uint8_t adc_channel_group, uint32_t external_trigger_source)
{   
    switch(adc_channel_group){
 8000daa:	4785                	li	a5,1
 8000dac:	00f58663          	beq	a1,a5,8000db8 <adc_external_trigger_source_config+0xe>
 8000db0:	4789                	li	a5,2
 8000db2:	00f58d63          	beq	a1,a5,8000dcc <adc_external_trigger_source_config+0x22>
 8000db6:	8082                	ret
    case ADC_REGULAR_CHANNEL:
        /* configure ADC regular group external trigger source */
        ADC_CTL1(adc_periph) &= ~((uint32_t)ADC_CTL1_ETSRC);
 8000db8:	4514                	lw	a3,8(a0)
 8000dba:	fff205b7          	lui	a1,0xfff20
 8000dbe:	15fd                	addi	a1,a1,-1
 8000dc0:	8eed                	and	a3,a3,a1
 8000dc2:	c514                	sw	a3,8(a0)
        ADC_CTL1(adc_periph) |= (uint32_t)external_trigger_source;
 8000dc4:	4518                	lw	a4,8(a0)
 8000dc6:	8f51                	or	a4,a4,a2
 8000dc8:	c518                	sw	a4,8(a0)
        break;
 8000dca:	8082                	ret
    case ADC_INSERTED_CHANNEL:
        /* configure ADC inserted group external trigger source */
        ADC_CTL1(adc_periph) &= ~((uint32_t)ADC_CTL1_ETSIC);
 8000dcc:	4518                	lw	a4,8(a0)
 8000dce:	76e5                	lui	a3,0xffff9
 8000dd0:	16fd                	addi	a3,a3,-1
 8000dd2:	8f75                	and	a4,a4,a3
 8000dd4:	c518                	sw	a4,8(a0)
        ADC_CTL1(adc_periph) |= (uint32_t)external_trigger_source;
 8000dd6:	451c                	lw	a5,8(a0)
 8000dd8:	8fd1                	or	a5,a5,a2
 8000dda:	c51c                	sw	a5,8(a0)
        break;
    default:
        break;
    }
}
 8000ddc:	8082                	ret

08000dde <adc_external_trigger_config>:
    \param[out] none
    \retval     none
*/
void adc_external_trigger_config(uint32_t adc_periph, uint8_t adc_channel_group, ControlStatus newvalue)
{
    if(newvalue){
 8000dde:	0015f793          	andi	a5,a1,1
 8000de2:	8989                	andi	a1,a1,2
 8000de4:	ce09                	beqz	a2,8000dfe <adc_external_trigger_config+0x20>
        if(0U != (adc_channel_group & ADC_REGULAR_CHANNEL)){
 8000de6:	c791                	beqz	a5,8000df2 <adc_external_trigger_config+0x14>
            /* enable ADC regular channel group external trigger */
            ADC_CTL1(adc_periph) |= ADC_CTL1_ETERC;
 8000de8:	451c                	lw	a5,8(a0)
 8000dea:	00100737          	lui	a4,0x100
 8000dee:	8fd9                	or	a5,a5,a4
 8000df0:	c51c                	sw	a5,8(a0)
        }
        if(0U != (adc_channel_group & ADC_INSERTED_CHANNEL)){
 8000df2:	c589                	beqz	a1,8000dfc <adc_external_trigger_config+0x1e>
            /* enable ADC inserted channel group external trigger */
            ADC_CTL1(adc_periph) |= ADC_CTL1_ETEIC;
 8000df4:	451c                	lw	a5,8(a0)
 8000df6:	6721                	lui	a4,0x8
 8000df8:	8fd9                	or	a5,a5,a4
            /* disable ADC regular channel group external trigger */
            ADC_CTL1(adc_periph) &= ~ADC_CTL1_ETERC;
        }
        if(0U != (adc_channel_group & ADC_INSERTED_CHANNEL)){
            /* disable ADC regular channel group external trigger */
            ADC_CTL1(adc_periph) &= ~ADC_CTL1_ETEIC;
 8000dfa:	c51c                	sw	a5,8(a0)
        }      
    }
}
 8000dfc:	8082                	ret
        if(0U != (adc_channel_group & ADC_REGULAR_CHANNEL)){
 8000dfe:	c799                	beqz	a5,8000e0c <adc_external_trigger_config+0x2e>
            ADC_CTL1(adc_periph) &= ~ADC_CTL1_ETERC;
 8000e00:	451c                	lw	a5,8(a0)
 8000e02:	fff00737          	lui	a4,0xfff00
 8000e06:	177d                	addi	a4,a4,-1
 8000e08:	8ff9                	and	a5,a5,a4
 8000e0a:	c51c                	sw	a5,8(a0)
        if(0U != (adc_channel_group & ADC_INSERTED_CHANNEL)){
 8000e0c:	d9e5                	beqz	a1,8000dfc <adc_external_trigger_config+0x1e>
            ADC_CTL1(adc_periph) &= ~ADC_CTL1_ETEIC;
 8000e0e:	451c                	lw	a5,8(a0)
 8000e10:	7761                	lui	a4,0xffff8
 8000e12:	177d                	addi	a4,a4,-1
 8000e14:	8ff9                	and	a5,a5,a4
 8000e16:	b7d5                	j	8000dfa <adc_external_trigger_config+0x1c>

08000e18 <adc_software_trigger_enable>:
    \param[out] none
    \retval     none
*/
void adc_software_trigger_enable(uint32_t adc_periph, uint8_t adc_channel_group)
{
    if(0U != (adc_channel_group & ADC_REGULAR_CHANNEL)){
 8000e18:	0015f793          	andi	a5,a1,1
 8000e1c:	c791                	beqz	a5,8000e28 <adc_software_trigger_enable+0x10>
        /* enable ADC regular channel group software trigger */
        ADC_CTL1(adc_periph) |= ADC_CTL1_SWRCST;
 8000e1e:	451c                	lw	a5,8(a0)
 8000e20:	00400737          	lui	a4,0x400
 8000e24:	8fd9                	or	a5,a5,a4
 8000e26:	c51c                	sw	a5,8(a0)
    }
    if(0U != (adc_channel_group & ADC_INSERTED_CHANNEL)){
 8000e28:	8989                	andi	a1,a1,2
 8000e2a:	c591                	beqz	a1,8000e36 <adc_software_trigger_enable+0x1e>
        /* enable ADC inserted channel group software trigger */
        ADC_CTL1(adc_periph) |= ADC_CTL1_SWICST;
 8000e2c:	451c                	lw	a5,8(a0)
 8000e2e:	00200737          	lui	a4,0x200
 8000e32:	8fd9                	or	a5,a5,a4
 8000e34:	c51c                	sw	a5,8(a0)
    }
}
 8000e36:	8082                	ret

08000e38 <adc_flag_get>:
    \retval     FlagStatus: SET or RESET
*/
FlagStatus adc_flag_get(uint32_t adc_periph, uint32_t adc_flag)
{
    FlagStatus reval = RESET;
    if(ADC_STAT(adc_periph) & adc_flag){
 8000e38:	4108                	lw	a0,0(a0)
 8000e3a:	8d6d                	and	a0,a0,a1
        reval = SET;
    }
    return reval;
}
 8000e3c:	00a03533          	snez	a0,a0
 8000e40:	8082                	ret

08000e42 <adc_flag_clear>:
    \param[out] none
    \retval     none
*/
void adc_flag_clear(uint32_t adc_periph, uint32_t adc_flag)
{
    ADC_STAT(adc_periph) &= ~((uint32_t)adc_flag);
 8000e42:	411c                	lw	a5,0(a0)
 8000e44:	fff5c593          	not	a1,a1
 8000e48:	8dfd                	and	a1,a1,a5
 8000e4a:	c10c                	sw	a1,0(a0)
}
 8000e4c:	8082                	ret

08000e4e <dma_deinit>:
*/
static ErrStatus dma_periph_and_channel_check(uint32_t dma_periph, dma_channel_enum channelx)
{
    ErrStatus val = SUCCESS;

    if(DMA1 == dma_periph){
 8000e4e:	400207b7          	lui	a5,0x40020
 8000e52:	40078793          	addi	a5,a5,1024 # 40020400 <_sp+0x20018400>
 8000e56:	00f51663          	bne	a0,a5,8000e62 <dma_deinit+0x14>
        /* for DMA1, the channel is from DMA_CH0 to DMA_CH4 */
        if(channelx > DMA_CH4){
 8000e5a:	4791                	li	a5,4
 8000e5c:	00b7f363          	bgeu	a5,a1,8000e62 <dma_deinit+0x14>
		DMA_WRONG_HANDLE
 8000e60:	a001                	j	8000e60 <dma_deinit+0x12>
	DMA_CHCTL(dma_periph, channelx) &= ~DMA_CHXCTL_CHEN;
 8000e62:	47d1                	li	a5,20
 8000e64:	02f587b3          	mul	a5,a1,a5
 8000e68:	97aa                	add	a5,a5,a0
 8000e6a:	4798                	lw	a4,8(a5)
 8000e6c:	9b79                	andi	a4,a4,-2
 8000e6e:	c798                	sw	a4,8(a5)
	DMA_CHCTL(dma_periph, channelx) = DMA_CHCTL_RESET_VALUE;
 8000e70:	0007a423          	sw	zero,8(a5)
	DMA_CHCNT(dma_periph, channelx) = DMA_CHCNT_RESET_VALUE;
 8000e74:	0007a623          	sw	zero,12(a5)
	DMA_CHPADDR(dma_periph, channelx) = DMA_CHPADDR_RESET_VALUE;
 8000e78:	0007a823          	sw	zero,16(a5)
	DMA_CHMADDR(dma_periph, channelx) = DMA_CHMADDR_RESET_VALUE;
 8000e7c:	0007aa23          	sw	zero,20(a5)
	DMA_INTC(dma_periph) |= DMA_FLAG_ADD(DMA_CHINTF_RESET_VALUE, (uint32_t)channelx);
 8000e80:	4158                	lw	a4,4(a0)
 8000e82:	00259793          	slli	a5,a1,0x2
 8000e86:	45bd                	li	a1,15
 8000e88:	00f595b3          	sll	a1,a1,a5
 8000e8c:	8dd9                	or	a1,a1,a4
 8000e8e:	c14c                	sw	a1,4(a0)
}
 8000e90:	8082                	ret

08000e92 <dma_init>:
    if(DMA1 == dma_periph){
 8000e92:	400207b7          	lui	a5,0x40020
 8000e96:	40078793          	addi	a5,a5,1024 # 40020400 <_sp+0x20018400>
 8000e9a:	00f51663          	bne	a0,a5,8000ea6 <dma_init+0x14>
        if(channelx > DMA_CH4){
 8000e9e:	4791                	li	a5,4
 8000ea0:	00b7f363          	bgeu	a5,a1,8000ea6 <dma_init+0x14>
        DMA_WRONG_HANDLE
 8000ea4:	a001                	j	8000ea4 <dma_init+0x12>
    DMA_CHPADDR(dma_periph, channelx) = init_struct->periph_addr;
 8000ea6:	47d1                	li	a5,20
 8000ea8:	02f585b3          	mul	a1,a1,a5
 8000eac:	421c                	lw	a5,0(a2)
    ctl &= ~(DMA_CHXCTL_PWIDTH | DMA_CHXCTL_MWIDTH | DMA_CHXCTL_PRIO);
 8000eae:	7771                	lui	a4,0xffffc
 8000eb0:	0ff70713          	addi	a4,a4,255 # ffffc0ff <_sp+0xdfff40ff>
    DMA_CHPADDR(dma_periph, channelx) = init_struct->periph_addr;
 8000eb4:	952e                	add	a0,a0,a1
 8000eb6:	c91c                	sw	a5,16(a0)
    DMA_CHMADDR(dma_periph, channelx) = init_struct->memory_addr;
 8000eb8:	461c                	lw	a5,8(a2)
 8000eba:	c95c                	sw	a5,20(a0)
    DMA_CHCNT(dma_periph, channelx) = (init_struct->number & DMA_CHANNEL_CNT_MASK);
 8000ebc:	01065783          	lhu	a5,16(a2) # 1010 <__stack_size+0x10>
 8000ec0:	c55c                	sw	a5,12(a0)
    ctl = DMA_CHCTL(dma_periph, channelx);
 8000ec2:	451c                	lw	a5,8(a0)
    ctl |= (init_struct->periph_width | init_struct->memory_width | init_struct->priority);
 8000ec4:	4654                	lw	a3,12(a2)
    ctl &= ~(DMA_CHXCTL_PWIDTH | DMA_CHXCTL_MWIDTH | DMA_CHXCTL_PRIO);
 8000ec6:	8f7d                	and	a4,a4,a5
    ctl |= (init_struct->periph_width | init_struct->memory_width | init_struct->priority);
 8000ec8:	425c                	lw	a5,4(a2)
 8000eca:	8fd5                	or	a5,a5,a3
 8000ecc:	4a54                	lw	a3,20(a2)
 8000ece:	8fd5                	or	a5,a5,a3
 8000ed0:	8fd9                	or	a5,a5,a4
    DMA_CHCTL(dma_periph, channelx) = ctl;
 8000ed2:	c51c                	sw	a5,8(a0)
    if(DMA_PERIPH_INCREASE_ENABLE == init_struct->periph_inc){
 8000ed4:	01864703          	lbu	a4,24(a2)
 8000ed8:	4785                	li	a5,1
 8000eda:	02f71663          	bne	a4,a5,8000f06 <dma_init+0x74>
        DMA_CHCTL(dma_periph, channelx) |= DMA_CHXCTL_PNAGA;
 8000ede:	451c                	lw	a5,8(a0)
 8000ee0:	0407e793          	ori	a5,a5,64
        DMA_CHCTL(dma_periph, channelx) &= ~DMA_CHXCTL_PNAGA;
 8000ee4:	c51c                	sw	a5,8(a0)
    if(DMA_MEMORY_INCREASE_ENABLE == init_struct->memory_inc){
 8000ee6:	01964703          	lbu	a4,25(a2)
 8000eea:	4785                	li	a5,1
 8000eec:	02f71163          	bne	a4,a5,8000f0e <dma_init+0x7c>
        DMA_CHCTL(dma_periph, channelx) |= DMA_CHXCTL_MNAGA;
 8000ef0:	451c                	lw	a5,8(a0)
 8000ef2:	0807e793          	ori	a5,a5,128
        DMA_CHCTL(dma_periph, channelx) &= ~DMA_CHXCTL_MNAGA;
 8000ef6:	c51c                	sw	a5,8(a0)
    if(DMA_PERIPHERAL_TO_MEMORY == init_struct->direction){
 8000ef8:	01a64783          	lbu	a5,26(a2)
 8000efc:	ef89                	bnez	a5,8000f16 <dma_init+0x84>
        DMA_CHCTL(dma_periph, channelx) &= ~DMA_CHXCTL_DIR;
 8000efe:	451c                	lw	a5,8(a0)
 8000f00:	9bbd                	andi	a5,a5,-17
        DMA_CHCTL(dma_periph, channelx) |= DMA_CHXCTL_DIR;
 8000f02:	c51c                	sw	a5,8(a0)
}
 8000f04:	8082                	ret
        DMA_CHCTL(dma_periph, channelx) &= ~DMA_CHXCTL_PNAGA;
 8000f06:	451c                	lw	a5,8(a0)
 8000f08:	fbf7f793          	andi	a5,a5,-65
 8000f0c:	bfe1                	j	8000ee4 <dma_init+0x52>
        DMA_CHCTL(dma_periph, channelx) &= ~DMA_CHXCTL_MNAGA;
 8000f0e:	451c                	lw	a5,8(a0)
 8000f10:	f7f7f793          	andi	a5,a5,-129
 8000f14:	b7cd                	j	8000ef6 <dma_init+0x64>
        DMA_CHCTL(dma_periph, channelx) |= DMA_CHXCTL_DIR;
 8000f16:	451c                	lw	a5,8(a0)
 8000f18:	0107e793          	ori	a5,a5,16
 8000f1c:	b7dd                	j	8000f02 <dma_init+0x70>

08000f1e <dma_circulation_enable>:
    if(DMA1 == dma_periph){
 8000f1e:	400207b7          	lui	a5,0x40020
 8000f22:	40078793          	addi	a5,a5,1024 # 40020400 <_sp+0x20018400>
 8000f26:	00f51663          	bne	a0,a5,8000f32 <dma_circulation_enable+0x14>
        if(channelx > DMA_CH4){
 8000f2a:	4791                	li	a5,4
 8000f2c:	00b7f363          	bgeu	a5,a1,8000f32 <dma_circulation_enable+0x14>
        DMA_WRONG_HANDLE
 8000f30:	a001                	j	8000f30 <dma_circulation_enable+0x12>
    DMA_CHCTL(dma_periph, channelx) |= DMA_CHXCTL_CMEN;
 8000f32:	47d1                	li	a5,20
 8000f34:	02f585b3          	mul	a1,a1,a5
 8000f38:	952e                	add	a0,a0,a1
 8000f3a:	451c                	lw	a5,8(a0)
 8000f3c:	0207e793          	ori	a5,a5,32
 8000f40:	c51c                	sw	a5,8(a0)
}
 8000f42:	8082                	ret

08000f44 <dma_circulation_disable>:
    if(DMA1 == dma_periph){
 8000f44:	400207b7          	lui	a5,0x40020
 8000f48:	40078793          	addi	a5,a5,1024 # 40020400 <_sp+0x20018400>
 8000f4c:	00f51663          	bne	a0,a5,8000f58 <dma_circulation_disable+0x14>
        if(channelx > DMA_CH4){
 8000f50:	4791                	li	a5,4
 8000f52:	00b7f363          	bgeu	a5,a1,8000f58 <dma_circulation_disable+0x14>
        DMA_WRONG_HANDLE
 8000f56:	a001                	j	8000f56 <dma_circulation_disable+0x12>
    DMA_CHCTL(dma_periph, channelx) &= ~DMA_CHXCTL_CMEN;
 8000f58:	47d1                	li	a5,20
 8000f5a:	02f585b3          	mul	a1,a1,a5
 8000f5e:	952e                	add	a0,a0,a1
 8000f60:	451c                	lw	a5,8(a0)
 8000f62:	fdf7f793          	andi	a5,a5,-33
 8000f66:	c51c                	sw	a5,8(a0)
}
 8000f68:	8082                	ret

08000f6a <dma_channel_enable>:
    if(DMA1 == dma_periph){
 8000f6a:	400207b7          	lui	a5,0x40020
 8000f6e:	40078793          	addi	a5,a5,1024 # 40020400 <_sp+0x20018400>
 8000f72:	00f51663          	bne	a0,a5,8000f7e <dma_channel_enable+0x14>
        if(channelx > DMA_CH4){
 8000f76:	4791                	li	a5,4
 8000f78:	00b7f363          	bgeu	a5,a1,8000f7e <dma_channel_enable+0x14>
        DMA_WRONG_HANDLE
 8000f7c:	a001                	j	8000f7c <dma_channel_enable+0x12>
    DMA_CHCTL(dma_periph, channelx) |= DMA_CHXCTL_CHEN;
 8000f7e:	47d1                	li	a5,20
 8000f80:	02f585b3          	mul	a1,a1,a5
 8000f84:	952e                	add	a0,a0,a1
 8000f86:	451c                	lw	a5,8(a0)
 8000f88:	0017e793          	ori	a5,a5,1
 8000f8c:	c51c                	sw	a5,8(a0)
}
 8000f8e:	8082                	ret

08000f90 <eclic_global_interrupt_enable>:
    \retval     none
*/
void eclic_global_interrupt_enable(void)
{
    /* set machine interrupt enable bit */
    set_csr(mstatus, MSTATUS_MIE);
 8000f90:	300467f3          	csrrsi	a5,mstatus,8
}
 8000f94:	8082                	ret

08000f96 <eclic_global_interrupt_disable>:
    \retval     none
*/
void eclic_global_interrupt_disable(void)
{
    /* clear machine interrupt enable bit */
    clear_csr(mstatus, MSTATUS_MIE);
 8000f96:	300477f3          	csrrci	a5,mstatus,8
}
 8000f9a:	8082                	ret

08000f9c <eclic_irq_enable>:
    \param[in]  priority: the priority needed to set (maximum is 15, refer to the priority group)
    \param[out] none
    \retval     none
*/
void eclic_irq_enable(uint32_t source, uint8_t level, uint8_t priority)
{
 8000f9c:	1101                	addi	sp,sp,-32
 8000f9e:	ce06                	sw	ra,28(sp)
 8000fa0:	cc22                	sw	s0,24(sp)
 8000fa2:	c432                	sw	a2,8(sp)
 8000fa4:	842a                	mv	s0,a0
 8000fa6:	c62e                	sw	a1,12(sp)
    eclic_enable_interrupt(source);
 8000fa8:	00001097          	auipc	ra,0x1
 8000fac:	c9a080e7          	jalr	-870(ra) # 8001c42 <eclic_enable_interrupt>
    eclic_set_irq_lvl_abs(source, level);
 8000fb0:	45b2                	lw	a1,12(sp)
 8000fb2:	8522                	mv	a0,s0
 8000fb4:	00001097          	auipc	ra,0x1
 8000fb8:	cae080e7          	jalr	-850(ra) # 8001c62 <eclic_set_irq_lvl_abs>
    eclic_set_irq_priority(source, priority);
 8000fbc:	4622                	lw	a2,8(sp)
 8000fbe:	8522                	mv	a0,s0
}
 8000fc0:	4462                	lw	s0,24(sp)
 8000fc2:	40f2                	lw	ra,28(sp)
    eclic_set_irq_priority(source, priority);
 8000fc4:	85b2                	mv	a1,a2
}
 8000fc6:	6105                	addi	sp,sp,32
    eclic_set_irq_priority(source, priority);
 8000fc8:	00001317          	auipc	t1,0x1
 8000fcc:	cf230067          	jr	-782(t1) # 8001cba <eclic_set_irq_priority>

08000fd0 <exti_interrupt_flag_clear>:
 8000fd0:	400107b7          	lui	a5,0x40010
 8000fd4:	40a7aa23          	sw	a0,1044(a5) # 40010414 <_sp+0x20008414>
 8000fd8:	8082                	ret

08000fda <gpio_init>:

    /* GPIO mode configuration */
    temp_mode = (uint32_t) (mode & ((uint32_t) 0x0FU));

    /* GPIO speed configuration */
    if (((uint32_t) 0x00U) != ((uint32_t) mode & ((uint32_t) 0x10U))) {
 8000fda:	0105f793          	andi	a5,a1,16
    temp_mode = (uint32_t) (mode & ((uint32_t) 0x0FU));
 8000fde:	00f5f893          	andi	a7,a1,15
    if (((uint32_t) 0x00U) != ((uint32_t) mode & ((uint32_t) 0x10U))) {
 8000fe2:	c399                	beqz	a5,8000fe8 <gpio_init+0xe>
        /* output mode max speed:10MHz,2MHz,50MHz */
        temp_mode |= (uint32_t) speed;
 8000fe4:	00c8e8b3          	or	a7,a7,a2
{
 8000fe8:	4781                	li	a5,0
    }

    /* configure the eight low port pins with GPIO_CTL0 */
    for (i = 0U; i < 8U; i++) {
        if ((1U << i) & pin) {
 8000fea:	4e05                	li	t3,1
            reg = GPIO_CTL0(gpio_periph);

            /* clear the specified pin mode bits */
            reg &= ~GPIO_MODE_MASK(i);
 8000fec:	4ebd                	li	t4,15
            /* set the specified pin mode bits */
            reg |= GPIO_MODE_SET(i, temp_mode);

            /* set IPD or IPU */
            if (GPIO_MODE_IPD == mode) {
 8000fee:	02800f13          	li	t5,40
                /* reset the corresponding OCTL bit */
                GPIO_BC(gpio_periph) = (uint32_t) ((1U << i) & pin);
            } else {
                /* set the corresponding OCTL bit */
                if (GPIO_MODE_IPU == mode) {
 8000ff2:	04800f93          	li	t6,72
    for (i = 0U; i < 8U; i++) {
 8000ff6:	4321                	li	t1,8
        if ((1U << i) & pin) {
 8000ff8:	00fe1633          	sll	a2,t3,a5
 8000ffc:	8e75                	and	a2,a2,a3
 8000ffe:	c21d                	beqz	a2,8001024 <gpio_init+0x4a>
            reg = GPIO_CTL0(gpio_periph);
 8001000:	00279713          	slli	a4,a5,0x2
 8001004:	00052283          	lw	t0,0(a0)
            reg &= ~GPIO_MODE_MASK(i);
 8001008:	00ee9833          	sll	a6,t4,a4
 800100c:	fff84813          	not	a6,a6
 8001010:	00587833          	and	a6,a6,t0
            reg |= GPIO_MODE_SET(i, temp_mode);
 8001014:	00e89733          	sll	a4,a7,a4
 8001018:	01076733          	or	a4,a4,a6
            if (GPIO_MODE_IPD == mode) {
 800101c:	05e59963          	bne	a1,t5,800106e <gpio_init+0x94>
                GPIO_BC(gpio_periph) = (uint32_t) ((1U << i) & pin);
 8001020:	c950                	sw	a2,20(a0)
                    GPIO_BOP(gpio_periph) = (uint32_t) ((1U << i) & pin);
                }
            }
            /* set GPIO_CTL0 register */
            GPIO_CTL0(gpio_periph) = reg;
 8001022:	c118                	sw	a4,0(a0)
 8001024:	0785                	addi	a5,a5,1
    for (i = 0U; i < 8U; i++) {
 8001026:	fc6799e3          	bne	a5,t1,8000ff8 <gpio_init+0x1e>
        }
    }
    /* configure the eight high port pins with GPIO_CTL1 */
    for (i = 8U; i < 16U; i++) {
        if ((1U << i) & pin) {
 800102a:	4e05                	li	t3,1
            reg = GPIO_CTL1(gpio_periph);

            /* clear the specified pin mode bits */
            reg &= ~GPIO_MODE_MASK(i - 8U);
 800102c:	4ebd                	li	t4,15
            /* set the specified pin mode bits */
            reg |= GPIO_MODE_SET(i - 8U, temp_mode);

            /* set IPD or IPU */
            if (GPIO_MODE_IPD == mode) {
 800102e:	02800f13          	li	t5,40
                /* reset the corresponding OCTL bit */
                GPIO_BC(gpio_periph) = (uint32_t) ((1U << i) & pin);
            } else {
                /* set the corresponding OCTL bit */
                if (GPIO_MODE_IPU == mode) {
 8001032:	04800f93          	li	t6,72
    for (i = 8U; i < 16U; i++) {
 8001036:	4341                	li	t1,16
        if ((1U << i) & pin) {
 8001038:	00fe1633          	sll	a2,t3,a5
 800103c:	8e75                	and	a2,a2,a3
 800103e:	c605                	beqz	a2,8001066 <gpio_init+0x8c>
            reg &= ~GPIO_MODE_MASK(i - 8U);
 8001040:	00279713          	slli	a4,a5,0x2
 8001044:	1701                	addi	a4,a4,-32
            reg = GPIO_CTL1(gpio_periph);
 8001046:	00452283          	lw	t0,4(a0)
            reg &= ~GPIO_MODE_MASK(i - 8U);
 800104a:	00ee9833          	sll	a6,t4,a4
 800104e:	fff84813          	not	a6,a6
 8001052:	00587833          	and	a6,a6,t0
            reg |= GPIO_MODE_SET(i - 8U, temp_mode);
 8001056:	00e89733          	sll	a4,a7,a4
 800105a:	01076733          	or	a4,a4,a6
            if (GPIO_MODE_IPD == mode) {
 800105e:	01e59c63          	bne	a1,t5,8001076 <gpio_init+0x9c>
                GPIO_BC(gpio_periph) = (uint32_t) ((1U << i) & pin);
 8001062:	c950                	sw	a2,20(a0)
                    GPIO_BOP(gpio_periph) = (uint32_t) ((1U << i) & pin);
                }
            }
            /* set GPIO_CTL1 register */
            GPIO_CTL1(gpio_periph) = reg;
 8001064:	c158                	sw	a4,4(a0)
 8001066:	0785                	addi	a5,a5,1
    for (i = 8U; i < 16U; i++) {
 8001068:	fc6798e3          	bne	a5,t1,8001038 <gpio_init+0x5e>
        }
    }
}
 800106c:	8082                	ret
                if (GPIO_MODE_IPU == mode) {
 800106e:	fbf59ae3          	bne	a1,t6,8001022 <gpio_init+0x48>
                    GPIO_BOP(gpio_periph) = (uint32_t) ((1U << i) & pin);
 8001072:	c910                	sw	a2,16(a0)
 8001074:	b77d                	j	8001022 <gpio_init+0x48>
                if (GPIO_MODE_IPU == mode) {
 8001076:	fff597e3          	bne	a1,t6,8001064 <gpio_init+0x8a>
                    GPIO_BOP(gpio_periph) = (uint32_t) ((1U << i) & pin);
 800107a:	c910                	sw	a2,16(a0)
 800107c:	b7e5                	j	8001064 <gpio_init+0x8a>

0800107e <gpio_bit_set>:
    \param[out] none
    \retval     none
*/
void gpio_bit_set(uint32_t gpio_periph, uint32_t pin)
{
    GPIO_BOP(gpio_periph) = (uint32_t) pin;
 800107e:	c90c                	sw	a1,16(a0)
}
 8001080:	8082                	ret

08001082 <gpio_bit_reset>:
    \param[out] none
    \retval     none
*/
void gpio_bit_reset(uint32_t gpio_periph, uint32_t pin)
{
    GPIO_BC(gpio_periph) = (uint32_t) pin;
 8001082:	c94c                	sw	a1,20(a0)
}
 8001084:	8082                	ret

08001086 <gpio_bit_write>:
    \param[out] none
    \retval     none
*/
void gpio_bit_write(uint32_t gpio_periph, uint32_t pin, bit_status bit_value)
{
    if (RESET != bit_value) {
 8001086:	c219                	beqz	a2,800108c <gpio_bit_write+0x6>
        GPIO_BOP(gpio_periph) = (uint32_t) pin;
 8001088:	c90c                	sw	a1,16(a0)
 800108a:	8082                	ret
    } else {
        GPIO_BC(gpio_periph) = (uint32_t) pin;
 800108c:	c94c                	sw	a1,20(a0)
    }
}
 800108e:	8082                	ret

08001090 <rcu_periph_clock_enable>:
    \param[out] none
    \retval     none
*/
void rcu_periph_clock_enable(rcu_periph_enum periph)
{
    RCU_REG_VAL(periph) |= BIT(RCU_BIT_POS(periph));
 8001090:	400217b7          	lui	a5,0x40021
 8001094:	00655713          	srli	a4,a0,0x6
 8001098:	973e                	add	a4,a4,a5
 800109a:	4314                	lw	a3,0(a4)
 800109c:	4785                	li	a5,1
 800109e:	00a797b3          	sll	a5,a5,a0
 80010a2:	8fd5                	or	a5,a5,a3
 80010a4:	c31c                	sw	a5,0(a4)
}
 80010a6:	8082                	ret

080010a8 <rcu_periph_reset_enable>:
    \param[out] none
    \retval     none
*/
void rcu_periph_reset_enable(rcu_periph_reset_enum periph_reset)
{
    RCU_REG_VAL(periph_reset) |= BIT(RCU_BIT_POS(periph_reset));
 80010a8:	400217b7          	lui	a5,0x40021
 80010ac:	00655713          	srli	a4,a0,0x6
 80010b0:	973e                	add	a4,a4,a5
 80010b2:	4314                	lw	a3,0(a4)
 80010b4:	4785                	li	a5,1
 80010b6:	00a797b3          	sll	a5,a5,a0
 80010ba:	8fd5                	or	a5,a5,a3
 80010bc:	c31c                	sw	a5,0(a4)
}
 80010be:	8082                	ret

080010c0 <rcu_periph_reset_disable>:
    \param[out] none
    \retval     none
*/
void rcu_periph_reset_disable(rcu_periph_reset_enum periph_reset)
{
    RCU_REG_VAL(periph_reset) &= ~BIT(RCU_BIT_POS(periph_reset));
 80010c0:	400217b7          	lui	a5,0x40021
 80010c4:	00655713          	srli	a4,a0,0x6
 80010c8:	973e                	add	a4,a4,a5
 80010ca:	4314                	lw	a3,0(a4)
 80010cc:	4785                	li	a5,1
 80010ce:	00a797b3          	sll	a5,a5,a0
 80010d2:	fff7c793          	not	a5,a5
 80010d6:	8ff5                	and	a5,a5,a3
 80010d8:	c31c                	sw	a5,0(a4)
}
 80010da:	8082                	ret

080010dc <rcu_adc_clock_config>:
void rcu_adc_clock_config(uint32_t adc_psc)
{
    uint32_t reg0;

    /* reset the ADCPSC bits */
    reg0 = RCU_CFG0;
 80010dc:	400217b7          	lui	a5,0x40021
 80010e0:	43dc                	lw	a5,4(a5)
    reg0 &= ~(RCU_CFG0_ADCPSC_2 | RCU_CFG0_ADCPSC);
 80010e2:	efff4737          	lui	a4,0xefff4
 80010e6:	177d                	addi	a4,a4,-1
 80010e8:	8ff9                	and	a5,a5,a4

    /* set the ADC prescaler factor */
    switch(adc_psc){
 80010ea:	4715                	li	a4,5
 80010ec:	00e50e63          	beq	a0,a4,8001108 <rcu_adc_clock_config+0x2c>
 80010f0:	00a76963          	bltu	a4,a0,8001102 <rcu_adc_clock_config+0x26>
 80010f4:	470d                	li	a4,3
 80010f6:	02a77063          	bgeu	a4,a0,8001116 <rcu_adc_clock_config+0x3a>
        default:
            break;
    }

    /* set the register */
    RCU_CFG0 = reg0;
 80010fa:	40021737          	lui	a4,0x40021
 80010fe:	c35c                	sw	a5,4(a4)
}
 8001100:	8082                	ret
    switch(adc_psc){
 8001102:	471d                	li	a4,7
 8001104:	fee51be3          	bne	a0,a4,80010fa <rcu_adc_clock_config+0x1e>
            reg0 |= (adc_psc << 14 | RCU_CFG0_ADCPSC_2);
 8001108:	053a                	slli	a0,a0,0xe
 800110a:	7731                	lui	a4,0xfffec
 800110c:	8d79                	and	a0,a0,a4
 800110e:	8d5d                	or	a0,a0,a5
 8001110:	100007b7          	lui	a5,0x10000
 8001114:	a011                	j	8001118 <rcu_adc_clock_config+0x3c>
            reg0 |= (adc_psc << 14);
 8001116:	053a                	slli	a0,a0,0xe
            reg0 |= (adc_psc << 14 | RCU_CFG0_ADCPSC_2);
 8001118:	8fc9                	or	a5,a5,a0
            break;
 800111a:	b7c5                	j	80010fa <rcu_adc_clock_config+0x1e>

0800111c <rcu_usb_clock_config>:
*/
void rcu_usb_clock_config(uint32_t usb_psc)
{
    uint32_t reg;
    
    reg = RCU_CFG0;
 800111c:	400216b7          	lui	a3,0x40021
 8001120:	42dc                	lw	a5,4(a3)

    /* configure the USBFS prescaler factor */
    reg &= ~RCU_CFG0_USBFSPSC;
 8001122:	ff400737          	lui	a4,0xff400
 8001126:	177d                	addi	a4,a4,-1
 8001128:	8ff9                	and	a5,a5,a4
    RCU_CFG0 = (reg | usb_psc);
 800112a:	8d5d                	or	a0,a0,a5
 800112c:	c2c8                	sw	a0,4(a3)
}
 800112e:	8082                	ret

08001130 <rcu_clock_freq_get>:
      \arg        CK_APB2: APB2 clock frequency
    \param[out] none
    \retval     clock frequency of system, AHB, APB1, APB2
*/
uint32_t rcu_clock_freq_get(rcu_clock_freq_enum clock)
{
 8001130:	7179                	addi	sp,sp,-48
    uint32_t cksys_freq, ahb_freq, apb1_freq, apb2_freq;
    uint32_t pllsel, predv0sel, pllmf,ck_src, idx, clk_exp;
    uint32_t predv0, predv1, pll1mf;

    /* exponent of AHB, APB1 and APB2 clock divider */
    uint8_t ahb_exp[16] = {0, 0, 0, 0, 0, 0, 0, 0, 1, 2, 3, 4, 6, 7, 8, 9};
 8001132:	080005b7          	lui	a1,0x8000
{
 8001136:	d422                	sw	s0,40(sp)
    uint8_t ahb_exp[16] = {0, 0, 0, 0, 0, 0, 0, 0, 1, 2, 3, 4, 6, 7, 8, 9};
 8001138:	4641                	li	a2,16
{
 800113a:	842a                	mv	s0,a0
    uint8_t ahb_exp[16] = {0, 0, 0, 0, 0, 0, 0, 0, 1, 2, 3, 4, 6, 7, 8, 9};
 800113c:	28058593          	addi	a1,a1,640 # 8000280 <enable_mcycle_minstret+0x34>
 8001140:	0808                	addi	a0,sp,16
{
 8001142:	d606                	sw	ra,44(sp)
    uint8_t ahb_exp[16] = {0, 0, 0, 0, 0, 0, 0, 0, 1, 2, 3, 4, 6, 7, 8, 9};
 8001144:	00006097          	auipc	ra,0x6
 8001148:	080080e7          	jalr	128(ra) # 80071c4 <memcpy>
    uint8_t apb1_exp[8] = {0, 0, 0, 0, 1, 2, 3, 4};
 800114c:	040307b7          	lui	a5,0x4030
 8001150:	20178793          	addi	a5,a5,513 # 4030201 <__stack_size+0x402f201>
 8001154:	c002                	sw	zero,0(sp)
 8001156:	c23e                	sw	a5,4(sp)
    uint8_t apb2_exp[8] = {0, 0, 0, 0, 1, 2, 3, 4};
 8001158:	c402                	sw	zero,8(sp)
 800115a:	c63e                	sw	a5,12(sp)

    sws = GET_BITS(RCU_CFG0, 2, 3);
 800115c:	40021737          	lui	a4,0x40021
 8001160:	435c                	lw	a5,4(a4)
    switch(sws){
 8001162:	4689                	li	a3,2
    sws = GET_BITS(RCU_CFG0, 2, 3);
 8001164:	8389                	srli	a5,a5,0x2
 8001166:	8b8d                	andi	a5,a5,3
    switch(sws){
 8001168:	0ed79763          	bne	a5,a3,8001256 <rcu_clock_freq_get+0x126>
        cksys_freq = HXTAL_VALUE;
        break;
    /* PLL is selected as CK_SYS */
    case SEL_PLL:
        /* PLL clock source selection, HXTAL or IRC8M/2 */
        pllsel = (RCU_CFG0 & RCU_CFG0_PLLSEL);
 800116c:	435c                	lw	a5,4(a4)

        if(RCU_PLLSRC_HXTAL == pllsel) {
 800116e:	00f79693          	slli	a3,a5,0xf
 8001172:	0606d663          	bgez	a3,80011de <rcu_clock_freq_get+0xae>
            /* PLL clock source is HXTAL */
            ck_src = HXTAL_VALUE;

            predv0sel = (RCU_CFG1 & RCU_CFG1_PREDV0SEL);
 8001176:	575c                	lw	a5,44(a4)
            /* source clock use PLL1 */
            if(RCU_PREDV0SRC_CKPLL1 == predv0sel){
 8001178:	00f79693          	slli	a3,a5,0xf
 800117c:	0406dc63          	bgez	a3,80011d4 <rcu_clock_freq_get+0xa4>
                predv1 = (uint32_t)((RCU_CFG1 & RCU_CFG1_PREDV1) >> 4) + 1U;
 8001180:	575c                	lw	a5,44(a4)
                pll1mf = (uint32_t)((RCU_CFG1 & RCU_CFG1_PLL1MF) >> 8) + 2U;
 8001182:	5758                	lw	a4,44(a4)
                predv1 = (uint32_t)((RCU_CFG1 & RCU_CFG1_PREDV1) >> 4) + 1U;
 8001184:	8391                	srli	a5,a5,0x4
                pll1mf = (uint32_t)((RCU_CFG1 & RCU_CFG1_PLL1MF) >> 8) + 2U;
 8001186:	8321                	srli	a4,a4,0x8
                predv1 = (uint32_t)((RCU_CFG1 & RCU_CFG1_PREDV1) >> 4) + 1U;
 8001188:	8bbd                	andi	a5,a5,15
                pll1mf = (uint32_t)((RCU_CFG1 & RCU_CFG1_PLL1MF) >> 8) + 2U;
 800118a:	8b3d                	andi	a4,a4,15
                predv1 = (uint32_t)((RCU_CFG1 & RCU_CFG1_PREDV1) >> 4) + 1U;
 800118c:	00178693          	addi	a3,a5,1
                pll1mf = (uint32_t)((RCU_CFG1 & RCU_CFG1_PLL1MF) >> 8) + 2U;
 8001190:	0709                	addi	a4,a4,2
                if(17U == pll1mf){
 8001192:	47c5                	li	a5,17
 8001194:	00f71363          	bne	a4,a5,800119a <rcu_clock_freq_get+0x6a>
                    pll1mf = 20U;
 8001198:	4751                	li	a4,20
                }
                ck_src = (ck_src / predv1) * pll1mf;
 800119a:	007a17b7          	lui	a5,0x7a1
 800119e:	20078793          	addi	a5,a5,512 # 7a1200 <__stack_size+0x7a0200>
 80011a2:	02d7d7b3          	divu	a5,a5,a3
 80011a6:	02e787b3          	mul	a5,a5,a4
            }
            predv0 = (RCU_CFG1 & RCU_CFG1_PREDV0) + 1U;
 80011aa:	40021737          	lui	a4,0x40021
 80011ae:	5758                	lw	a4,44(a4)
 80011b0:	8b3d                	andi	a4,a4,15
 80011b2:	0705                	addi	a4,a4,1
            ck_src /= predv0;
 80011b4:	02e7d733          	divu	a4,a5,a4
            /* PLL clock source is IRC8M/2 */
            ck_src = IRC8M_VALUE/2U;
        }

        /* PLL multiplication factor */
        pllmf = GET_BITS(RCU_CFG0, 18, 21);
 80011b8:	400216b7          	lui	a3,0x40021
 80011bc:	42dc                	lw	a5,4(a3)
        if((RCU_CFG0 & RCU_CFG0_PLLMF_4)){
 80011be:	42d4                	lw	a3,4(a3)
        pllmf = GET_BITS(RCU_CFG0, 18, 21);
 80011c0:	83c9                	srli	a5,a5,0x12
        if((RCU_CFG0 & RCU_CFG0_PLLMF_4)){
 80011c2:	00269613          	slli	a2,a3,0x2
        pllmf = GET_BITS(RCU_CFG0, 18, 21);
 80011c6:	8bbd                	andi	a5,a5,15
        if((RCU_CFG0 & RCU_CFG0_PLLMF_4)){
 80011c8:	02065063          	bgez	a2,80011e8 <rcu_clock_freq_get+0xb8>
            pllmf |= 0x10U;
 80011cc:	0107e793          	ori	a5,a5,16
        }
        if(pllmf < 15U){
            pllmf += 2U;
        }else{
            pllmf += 1U;
 80011d0:	0785                	addi	a5,a5,1
        }

        cksys_freq = ck_src * pllmf;

        if(15U == pllmf){
 80011d2:	a00d                	j	80011f4 <rcu_clock_freq_get+0xc4>
            ck_src = HXTAL_VALUE;
 80011d4:	007a17b7          	lui	a5,0x7a1
 80011d8:	20078793          	addi	a5,a5,512 # 7a1200 <__stack_size+0x7a0200>
 80011dc:	b7f9                	j	80011aa <rcu_clock_freq_get+0x7a>
            ck_src = IRC8M_VALUE/2U;
 80011de:	003d17b7          	lui	a5,0x3d1
 80011e2:	90078713          	addi	a4,a5,-1792 # 3d0900 <__stack_size+0x3cf900>
 80011e6:	bfc9                	j	80011b8 <rcu_clock_freq_get+0x88>
        if(pllmf < 15U){
 80011e8:	46bd                	li	a3,15
 80011ea:	fed783e3          	beq	a5,a3,80011d0 <rcu_clock_freq_get+0xa0>
            pllmf += 2U;
 80011ee:	0789                	addi	a5,a5,2
        if(15U == pllmf){
 80011f0:	04d78d63          	beq	a5,a3,800124a <rcu_clock_freq_get+0x11a>
        cksys_freq = ck_src * pllmf;
 80011f4:	02e787b3          	mul	a5,a5,a4
        cksys_freq = IRC8M_VALUE;
        break;
    }

    /* calculate AHB clock frequency */
    idx = GET_BITS(RCU_CFG0, 4, 7);
 80011f8:	400216b7          	lui	a3,0x40021
 80011fc:	42d8                	lw	a4,4(a3)
    clk_exp = ahb_exp[idx];
 80011fe:	1010                	addi	a2,sp,32
    idx = GET_BITS(RCU_CFG0, 4, 7);
 8001200:	8311                	srli	a4,a4,0x4
 8001202:	8b3d                	andi	a4,a4,15
    clk_exp = ahb_exp[idx];
 8001204:	9732                	add	a4,a4,a2
 8001206:	ff074503          	lbu	a0,-16(a4) # 40020ff0 <_sp+0x20018ff0>
    ahb_freq = cksys_freq >> clk_exp;
    
    /* calculate APB1 clock frequency */
    idx = GET_BITS(RCU_CFG0, 8, 10);
 800120a:	42d8                	lw	a4,4(a3)
    ahb_freq = cksys_freq >> clk_exp;
 800120c:	00a7d533          	srl	a0,a5,a0
    idx = GET_BITS(RCU_CFG0, 8, 10);
 8001210:	8321                	srli	a4,a4,0x8
 8001212:	8b1d                	andi	a4,a4,7
    clk_exp = apb1_exp[idx];
 8001214:	9732                	add	a4,a4,a2
 8001216:	fe074603          	lbu	a2,-32(a4)
    apb1_freq = ahb_freq >> clk_exp;
    
    /* calculate APB2 clock frequency */
    idx = GET_BITS(RCU_CFG0, 11, 13);
 800121a:	42d8                	lw	a4,4(a3)
    clk_exp = apb2_exp[idx];
 800121c:	1014                	addi	a3,sp,32
    idx = GET_BITS(RCU_CFG0, 11, 13);
 800121e:	832d                	srli	a4,a4,0xb
 8001220:	8b1d                	andi	a4,a4,7
    clk_exp = apb2_exp[idx];
 8001222:	9736                	add	a4,a4,a3
    apb2_freq = ahb_freq >> clk_exp;
    
    /* return the clocks frequency */
    switch(clock){
 8001224:	4685                	li	a3,1
    clk_exp = apb2_exp[idx];
 8001226:	fe874703          	lbu	a4,-24(a4)
    switch(clock){
 800122a:	00d40c63          	beq	s0,a3,8001242 <rcu_clock_freq_get+0x112>
 800122e:	cc05                	beqz	s0,8001266 <rcu_clock_freq_get+0x136>
 8001230:	4789                	li	a5,2
 8001232:	02f40763          	beq	s0,a5,8001260 <rcu_clock_freq_get+0x130>
 8001236:	478d                	li	a5,3
    apb2_freq = ahb_freq >> clk_exp;
 8001238:	00e55533          	srl	a0,a0,a4
    switch(clock){
 800123c:	00f40363          	beq	s0,a5,8001242 <rcu_clock_freq_get+0x112>
    uint32_t sws, ck_freq = 0U;
 8001240:	4501                	li	a0,0
        break;
    default:
        break;
    }
    return ck_freq;
}
 8001242:	50b2                	lw	ra,44(sp)
 8001244:	5422                	lw	s0,40(sp)
 8001246:	6145                	addi	sp,sp,48
 8001248:	8082                	ret
            cksys_freq = ck_src * 6U + ck_src / 2U;
 800124a:	4799                	li	a5,6
 800124c:	02f707b3          	mul	a5,a4,a5
 8001250:	8305                	srli	a4,a4,0x1
 8001252:	97ba                	add	a5,a5,a4
 8001254:	b755                	j	80011f8 <rcu_clock_freq_get+0xc8>
        cksys_freq = IRC8M_VALUE;
 8001256:	007a17b7          	lui	a5,0x7a1
 800125a:	20078793          	addi	a5,a5,512 # 7a1200 <__stack_size+0x7a0200>
 800125e:	bf69                	j	80011f8 <rcu_clock_freq_get+0xc8>
    apb1_freq = ahb_freq >> clk_exp;
 8001260:	00c55533          	srl	a0,a0,a2
        break;
 8001264:	bff9                	j	8001242 <rcu_clock_freq_get+0x112>
        ck_freq = cksys_freq;
 8001266:	853e                	mv	a0,a5
    return ck_freq;
 8001268:	bfe9                	j	8001242 <rcu_clock_freq_get+0x112>

0800126a <spi_init>:
    \retval     none
*/
void spi_init(uint32_t spi_periph, spi_parameter_struct* spi_struct)
{   
    uint32_t reg = 0U;
    reg = SPI_CTL0(spi_periph);
 800126a:	411c                	lw	a5,0(a0)
    reg &= SPI_INIT_MASK;
 800126c:	670d                	lui	a4,0x3
 800126e:	04070713          	addi	a4,a4,64 # 3040 <__stack_size+0x2040>
    /* select SPI LSB or MSB */
    reg |= spi_struct->endian;
    /* select SPI polarity and phase */
    reg |= spi_struct->clock_polarity_phase;
    /* select SPI prescale to adjust transmit speed */
    reg |= spi_struct->prescale;
 8001272:	41d4                	lw	a3,4(a1)
    reg &= SPI_INIT_MASK;
 8001274:	8f7d                	and	a4,a4,a5
    reg |= spi_struct->prescale;
 8001276:	419c                	lw	a5,0(a1)
 8001278:	8fd5                	or	a5,a5,a3
 800127a:	4594                	lw	a3,8(a1)
 800127c:	8fd5                	or	a5,a5,a3
 800127e:	45d4                	lw	a3,12(a1)
 8001280:	8fd5                	or	a5,a5,a3
 8001282:	4994                	lw	a3,16(a1)
 8001284:	8fd5                	or	a5,a5,a3
 8001286:	49d4                	lw	a3,20(a1)
 8001288:	8fd5                	or	a5,a5,a3
 800128a:	4d94                	lw	a3,24(a1)
 800128c:	8fd5                	or	a5,a5,a3
 800128e:	8fd9                	or	a5,a5,a4

    /* write to SPI_CTL0 register */
    SPI_CTL0(spi_periph) = (uint32_t)reg;
 8001290:	c11c                	sw	a5,0(a0)

    SPI_I2SCTL(spi_periph) &= (uint32_t)(~SPI_I2SCTL_I2SSEL);
 8001292:	4d5c                	lw	a5,28(a0)
 8001294:	777d                	lui	a4,0xfffff
 8001296:	7ff70713          	addi	a4,a4,2047 # fffff7ff <_sp+0xdfff77ff>
 800129a:	8ff9                	and	a5,a5,a4
 800129c:	cd5c                	sw	a5,28(a0)
}
 800129e:	8082                	ret

080012a0 <spi_enable>:
    \param[out] none
    \retval     none
*/
void spi_enable(uint32_t spi_periph)
{
    SPI_CTL0(spi_periph) |= (uint32_t)SPI_CTL0_SPIEN;
 80012a0:	411c                	lw	a5,0(a0)
 80012a2:	0407e793          	ori	a5,a5,64
 80012a6:	c11c                	sw	a5,0(a0)
}
 80012a8:	8082                	ret

080012aa <spi_i2s_data_transmit>:
    \param[out] none
    \retval     none
*/
void spi_i2s_data_transmit(uint32_t spi_periph, uint16_t data)
{
    SPI_DATA(spi_periph) = (uint32_t)data;
 80012aa:	c54c                	sw	a1,12(a0)
}
 80012ac:	8082                	ret

080012ae <spi_i2s_data_receive>:
    \param[out] none
    \retval     16-bit data
*/
uint16_t spi_i2s_data_receive(uint32_t spi_periph)
{
    return ((uint16_t)SPI_DATA(spi_periph));
 80012ae:	4548                	lw	a0,12(a0)
}
 80012b0:	0542                	slli	a0,a0,0x10
 80012b2:	8141                	srli	a0,a0,0x10
 80012b4:	8082                	ret

080012b6 <spi_crc_polynomial_set>:
    \retval     none
*/
void spi_crc_polynomial_set(uint32_t spi_periph,uint16_t crc_poly)
{
    /* enable SPI CRC */
    SPI_CTL0(spi_periph) |= (uint32_t)SPI_CTL0_CRCEN;
 80012b6:	411c                	lw	a5,0(a0)
 80012b8:	6709                	lui	a4,0x2
 80012ba:	8fd9                	or	a5,a5,a4
 80012bc:	c11c                	sw	a5,0(a0)

    /* set SPI CRC polynomial */
    SPI_CRCPOLY(spi_periph) = (uint32_t)crc_poly;
 80012be:	c90c                	sw	a1,16(a0)
}
 80012c0:	8082                	ret

080012c2 <spi_i2s_flag_get>:
    \param[out] none
    \retval     FlagStatus: SET or RESET
*/
FlagStatus spi_i2s_flag_get(uint32_t spi_periph, uint32_t flag)
{
    if(RESET != (SPI_STAT(spi_periph) & flag)){
 80012c2:	4508                	lw	a0,8(a0)
 80012c4:	8d6d                	and	a0,a0,a1
        return SET;
    }else{
        return RESET;
    }
}
 80012c6:	00a03533          	snez	a0,a0
 80012ca:	8082                	ret

080012cc <timer_deinit>:
    \param[in]  timer_periph: TIMERx(x=0..6)
    \param[out] none
    \retval     none
*/
void timer_deinit(uint32_t timer_periph)
{
 80012cc:	1141                	addi	sp,sp,-16
    switch(timer_periph){
 80012ce:	400017b7          	lui	a5,0x40001
{
 80012d2:	c606                	sw	ra,12(sp)
    switch(timer_periph){
 80012d4:	c0078713          	addi	a4,a5,-1024 # 40000c00 <_sp+0x1fff8c00>
 80012d8:	08e50e63          	beq	a0,a4,8001374 <timer_deinit+0xa8>
 80012dc:	02a76763          	bltu	a4,a0,800130a <timer_deinit+0x3e>
 80012e0:	40000737          	lui	a4,0x40000
 80012e4:	40070693          	addi	a3,a4,1024 # 40000400 <_sp+0x1fff8400>
 80012e8:	06d50463          	beq	a0,a3,8001350 <timer_deinit+0x84>
 80012ec:	80078793          	addi	a5,a5,-2048
 80012f0:	06f50963          	beq	a0,a5,8001362 <timer_deinit+0x96>
 80012f4:	0ae51263          	bne	a0,a4,8001398 <timer_deinit+0xcc>
        rcu_periph_reset_enable(RCU_TIMER0RST);
        rcu_periph_reset_disable(RCU_TIMER0RST);
        break;
    case TIMER1:
        /* reset TIMER1 */
        rcu_periph_reset_enable(RCU_TIMER1RST);
 80012f8:	40000513          	li	a0,1024
 80012fc:	00000097          	auipc	ra,0x0
 8001300:	dac080e7          	jalr	-596(ra) # 80010a8 <rcu_periph_reset_enable>
        rcu_periph_reset_disable(RCU_TIMER1RST);
 8001304:	40000513          	li	a0,1024
 8001308:	a835                	j	8001344 <timer_deinit+0x78>
    switch(timer_periph){
 800130a:	40078713          	addi	a4,a5,1024
 800130e:	06e50c63          	beq	a0,a4,8001386 <timer_deinit+0xba>
 8001312:	40013737          	lui	a4,0x40013
 8001316:	c0070713          	addi	a4,a4,-1024 # 40012c00 <_sp+0x2000ac00>
 800131a:	00e50d63          	beq	a0,a4,8001334 <timer_deinit+0x68>
 800131e:	06f51d63          	bne	a0,a5,8001398 <timer_deinit+0xcc>
        rcu_periph_reset_enable(RCU_TIMER4RST);
        rcu_periph_reset_disable(RCU_TIMER4RST);
        break;
    case TIMER5:
        /* reset TIMER5 */
        rcu_periph_reset_enable(RCU_TIMER5RST);
 8001322:	40400513          	li	a0,1028
 8001326:	00000097          	auipc	ra,0x0
 800132a:	d82080e7          	jalr	-638(ra) # 80010a8 <rcu_periph_reset_enable>
        rcu_periph_reset_disable(RCU_TIMER5RST);
 800132e:	40400513          	li	a0,1028
 8001332:	a809                	j	8001344 <timer_deinit+0x78>
        rcu_periph_reset_enable(RCU_TIMER0RST);
 8001334:	30b00513          	li	a0,779
 8001338:	00000097          	auipc	ra,0x0
 800133c:	d70080e7          	jalr	-656(ra) # 80010a8 <rcu_periph_reset_enable>
        rcu_periph_reset_disable(RCU_TIMER0RST);
 8001340:	30b00513          	li	a0,779
        break;

    default:
        break;
    }
}
 8001344:	40b2                	lw	ra,12(sp)
 8001346:	0141                	addi	sp,sp,16
        rcu_periph_reset_disable(RCU_TIMER6RST);
 8001348:	00000317          	auipc	t1,0x0
 800134c:	d7830067          	jr	-648(t1) # 80010c0 <rcu_periph_reset_disable>
        rcu_periph_reset_enable(RCU_TIMER2RST);
 8001350:	40100513          	li	a0,1025
 8001354:	00000097          	auipc	ra,0x0
 8001358:	d54080e7          	jalr	-684(ra) # 80010a8 <rcu_periph_reset_enable>
        rcu_periph_reset_disable(RCU_TIMER2RST);
 800135c:	40100513          	li	a0,1025
 8001360:	b7d5                	j	8001344 <timer_deinit+0x78>
        rcu_periph_reset_enable(RCU_TIMER3RST);
 8001362:	40200513          	li	a0,1026
 8001366:	00000097          	auipc	ra,0x0
 800136a:	d42080e7          	jalr	-702(ra) # 80010a8 <rcu_periph_reset_enable>
        rcu_periph_reset_disable(RCU_TIMER3RST);
 800136e:	40200513          	li	a0,1026
 8001372:	bfc9                	j	8001344 <timer_deinit+0x78>
        rcu_periph_reset_enable(RCU_TIMER4RST);
 8001374:	40300513          	li	a0,1027
 8001378:	00000097          	auipc	ra,0x0
 800137c:	d30080e7          	jalr	-720(ra) # 80010a8 <rcu_periph_reset_enable>
        rcu_periph_reset_disable(RCU_TIMER4RST);
 8001380:	40300513          	li	a0,1027
 8001384:	b7c1                	j	8001344 <timer_deinit+0x78>
        rcu_periph_reset_enable(RCU_TIMER6RST);
 8001386:	40500513          	li	a0,1029
 800138a:	00000097          	auipc	ra,0x0
 800138e:	d1e080e7          	jalr	-738(ra) # 80010a8 <rcu_periph_reset_enable>
        rcu_periph_reset_disable(RCU_TIMER6RST);
 8001392:	40500513          	li	a0,1029
 8001396:	b77d                	j	8001344 <timer_deinit+0x78>
}
 8001398:	40b2                	lw	ra,12(sp)
 800139a:	0141                	addi	sp,sp,16
 800139c:	8082                	ret

0800139e <timer_struct_para_init>:
{
    /* initialize the init parameter struct member with the default value */
    initpara->prescaler         = 0U;
    initpara->alignedmode       = TIMER_COUNTER_EDGE;
    initpara->counterdirection  = TIMER_COUNTER_UP;
    initpara->period            = 65535U;
 800139e:	67c1                	lui	a5,0x10
 80013a0:	17fd                	addi	a5,a5,-1
    initpara->prescaler         = 0U;
 80013a2:	00052023          	sw	zero,0(a0)
    initpara->counterdirection  = TIMER_COUNTER_UP;
 80013a6:	00051223          	sh	zero,4(a0)
    initpara->period            = 65535U;
 80013aa:	c51c                	sw	a5,8(a0)
    initpara->clockdivision     = TIMER_CKDIV_DIV1;
 80013ac:	00051623          	sh	zero,12(a0)
    initpara->repetitioncounter = 0U;
 80013b0:	00050723          	sb	zero,14(a0)
}
 80013b4:	8082                	ret

080013b6 <timer_init>:
    \retval     none
*/
void timer_init(uint32_t timer_periph, timer_parameter_struct* initpara)
{
    /* configure the counter prescaler value */
    TIMER_PSC(timer_periph) = (uint16_t)initpara->prescaler;
 80013b6:	0005d783          	lhu	a5,0(a1)
 80013ba:	0045d703          	lhu	a4,4(a1)
 80013be:	bff57693          	andi	a3,a0,-1025
 80013c2:	d51c                	sw	a5,40(a0)

    /* configure the counter direction and aligned mode */
    if((TIMER0 == timer_periph) || (TIMER1 == timer_periph) || (TIMER2 == timer_periph)
 80013c4:	400137b7          	lui	a5,0x40013
 80013c8:	c0078793          	addi	a5,a5,-1024 # 40012c00 <_sp+0x2000ac00>
 80013cc:	8b41                	andi	a4,a4,16
 80013ce:	00f50a63          	beq	a0,a5,80013e2 <timer_init+0x2c>
 80013d2:	77fd                	lui	a5,0xfffff
 80013d4:	3ff78793          	addi	a5,a5,1023 # fffff3ff <_sp+0xdfff73ff>
 80013d8:	8fe9                	and	a5,a5,a0
 80013da:	40000637          	lui	a2,0x40000
 80013de:	06c79063          	bne	a5,a2,800143e <timer_init+0x88>
        || (TIMER3 == timer_periph) || (TIMER4 == timer_periph) ){
        TIMER_CTL0(timer_periph) &= (~(uint32_t)(TIMER_CTL0_DIR | TIMER_CTL0_CAM));
 80013e2:	411c                	lw	a5,0(a0)
 80013e4:	f8f7f793          	andi	a5,a5,-113
 80013e8:	c11c                	sw	a5,0(a0)
        TIMER_CTL0(timer_periph) |= (uint32_t)(initpara->alignedmode & ALIGNEDMODE_MASK);
 80013ea:	0025d783          	lhu	a5,2(a1)
 80013ee:	4110                	lw	a2,0(a0)
 80013f0:	0607f793          	andi	a5,a5,96
 80013f4:	8fd1                	or	a5,a5,a2
        TIMER_CTL0(timer_periph) |= (uint32_t)(initpara->counterdirection & COUNTERDIRECTION_MASK);            
    }else{
        TIMER_CTL0(timer_periph) &= (uint32_t)(~ TIMER_CTL0_DIR);
 80013f6:	c11c                	sw	a5,0(a0)
        TIMER_CTL0(timer_periph) |= (uint32_t)(initpara->counterdirection & COUNTERDIRECTION_MASK); 
 80013f8:	411c                	lw	a5,0(a0)
 80013fa:	8f5d                	or	a4,a4,a5
 80013fc:	c118                	sw	a4,0(a0)
    }
    
    /* configure the autoreload value */
    TIMER_CAR(timer_periph) = (uint32_t)initpara->period;
 80013fe:	459c                	lw	a5,8(a1)
 8001400:	d55c                	sw	a5,44(a0)

    if((TIMER5 != timer_periph) && (TIMER6 != timer_periph)){
 8001402:	400017b7          	lui	a5,0x40001
 8001406:	02f68763          	beq	a3,a5,8001434 <timer_init+0x7e>
        /* reset the CKDIV bit */
        TIMER_CTL0(timer_periph) &= (~(uint32_t)TIMER_CTL0_CKDIV);
 800140a:	411c                	lw	a5,0(a0)
 800140c:	cff7f793          	andi	a5,a5,-769
 8001410:	c11c                	sw	a5,0(a0)
        TIMER_CTL0(timer_periph) |= (uint32_t)(initpara->clockdivision & CLOCKDIVISION_MASK);
 8001412:	00c5d783          	lhu	a5,12(a1)
 8001416:	4118                	lw	a4,0(a0)
 8001418:	3007f793          	andi	a5,a5,768
 800141c:	8fd9                	or	a5,a5,a4
 800141e:	c11c                	sw	a5,0(a0)
    }

    if (TIMER0 == timer_periph) {
 8001420:	400137b7          	lui	a5,0x40013
 8001424:	c0078713          	addi	a4,a5,-1024 # 40012c00 <_sp+0x2000ac00>
 8001428:	00e51663          	bne	a0,a4,8001434 <timer_init+0x7e>
        /* configure the repetition counter value */
        TIMER_CREP(timer_periph) = (uint32_t)initpara->repetitioncounter;
 800142c:	00e5c703          	lbu	a4,14(a1)
 8001430:	c2e7a823          	sw	a4,-976(a5)
    }

    /* generate an update event */
    TIMER_SWEVG(timer_periph) |= (uint32_t)TIMER_SWEVG_UPG;
 8001434:	495c                	lw	a5,20(a0)
 8001436:	0017e793          	ori	a5,a5,1
 800143a:	c95c                	sw	a5,20(a0)
}
 800143c:	8082                	ret
        TIMER_CTL0(timer_periph) &= (uint32_t)(~ TIMER_CTL0_DIR);
 800143e:	411c                	lw	a5,0(a0)
 8001440:	9bbd                	andi	a5,a5,-17
 8001442:	bf55                	j	80013f6 <timer_init+0x40>

08001444 <timer_enable>:
    \param[out] none
    \retval     none
*/
void timer_enable(uint32_t timer_periph)
{
    TIMER_CTL0(timer_periph) |= (uint32_t)TIMER_CTL0_CEN;
 8001444:	411c                	lw	a5,0(a0)
 8001446:	0017e793          	ori	a5,a5,1
 800144a:	c11c                	sw	a5,0(a0)
}
 800144c:	8082                	ret

0800144e <timer_channel_output_struct_para_init>:
    \retval     none
*/
void timer_channel_output_struct_para_init(timer_oc_parameter_struct* ocpara)
{
    /* initialize the channel output parameter struct member with the default value */
    ocpara->outputstate  = TIMER_CCX_DISABLE;
 800144e:	00051023          	sh	zero,0(a0)
    ocpara->outputnstate = TIMER_CCXN_DISABLE;
 8001452:	00051123          	sh	zero,2(a0)
    ocpara->ocpolarity   = TIMER_OC_POLARITY_HIGH;
 8001456:	00051223          	sh	zero,4(a0)
    ocpara->ocnpolarity  = TIMER_OCN_POLARITY_HIGH;
 800145a:	00051323          	sh	zero,6(a0)
    ocpara->ocidlestate  = TIMER_OC_IDLE_STATE_LOW;
 800145e:	00051423          	sh	zero,8(a0)
    ocpara->ocnidlestate = TIMER_OCN_IDLE_STATE_LOW;
 8001462:	00051523          	sh	zero,10(a0)
}
 8001466:	8082                	ret

08001468 <timer_channel_output_config>:
    \param[out] none
    \retval     none
*/
void timer_channel_output_config(uint32_t timer_periph, uint16_t channel, timer_oc_parameter_struct* ocpara)
{
    switch(channel){
 8001468:	4785                	li	a5,1
 800146a:	08f58e63          	beq	a1,a5,8001506 <timer_channel_output_config+0x9e>
 800146e:	c981                	beqz	a1,800147e <timer_channel_output_config+0x16>
 8001470:	4789                	li	a5,2
 8001472:	12f58963          	beq	a1,a5,80015a4 <timer_channel_output_config+0x13c>
 8001476:	478d                	li	a5,3
 8001478:	1cf58763          	beq	a1,a5,8001646 <timer_channel_output_config+0x1de>
 800147c:	8082                	ret
    /* configure TIMER_CH_0 */
    case TIMER_CH_0:
        /* reset the CH0EN bit */
        TIMER_CHCTL2(timer_periph) &= (~(uint32_t)TIMER_CHCTL2_CH0EN);
 800147e:	511c                	lw	a5,32(a0)
 8001480:	9bf9                	andi	a5,a5,-2
 8001482:	d11c                	sw	a5,32(a0)
        /* set the CH0EN bit */
        TIMER_CHCTL2(timer_periph) |= (uint32_t)ocpara->outputstate;
 8001484:	5118                	lw	a4,32(a0)
 8001486:	00065783          	lhu	a5,0(a2) # 40000000 <_sp+0x1fff8000>
 800148a:	8fd9                	or	a5,a5,a4
 800148c:	d11c                	sw	a5,32(a0)
        /* reset the CH0P bit */
        TIMER_CHCTL2(timer_periph) &= (~(uint32_t)TIMER_CHCTL2_CH0P);
 800148e:	511c                	lw	a5,32(a0)
 8001490:	9bf5                	andi	a5,a5,-3
 8001492:	d11c                	sw	a5,32(a0)
        /* set the CH0P bit */
        TIMER_CHCTL2(timer_periph) |= (uint32_t)ocpara->ocpolarity;
 8001494:	5118                	lw	a4,32(a0)
 8001496:	00465783          	lhu	a5,4(a2)
 800149a:	8fd9                	or	a5,a5,a4
 800149c:	d11c                	sw	a5,32(a0)

        if (TIMER0 == timer_periph) {
 800149e:	400137b7          	lui	a5,0x40013
 80014a2:	c0078713          	addi	a4,a5,-1024 # 40012c00 <_sp+0x2000ac00>
 80014a6:	04e51c63          	bne	a0,a4,80014fe <timer_channel_output_config+0x96>
            /* reset the CH0NEN bit */
            TIMER_CHCTL2(timer_periph) &= (~(uint32_t)TIMER_CHCTL2_CH0NEN);
 80014aa:	5118                	lw	a4,32(a0)
 80014ac:	9b6d                	andi	a4,a4,-5
 80014ae:	d118                	sw	a4,32(a0)
            /* set the CH0NEN bit */
            TIMER_CHCTL2(timer_periph) |= (uint32_t)ocpara->outputnstate;
 80014b0:	5114                	lw	a3,32(a0)
 80014b2:	00265703          	lhu	a4,2(a2)
 80014b6:	8f55                	or	a4,a4,a3
 80014b8:	d118                	sw	a4,32(a0)
            /* reset the CH0NP bit */
            TIMER_CHCTL2(timer_periph) &= (~(uint32_t)TIMER_CHCTL2_CH0NP);
 80014ba:	5118                	lw	a4,32(a0)
 80014bc:	9b5d                	andi	a4,a4,-9
 80014be:	d118                	sw	a4,32(a0)
            /* set the CH0NP bit */
            TIMER_CHCTL2(timer_periph) |= (uint32_t)ocpara->ocnpolarity;
 80014c0:	5114                	lw	a3,32(a0)
 80014c2:	00665703          	lhu	a4,6(a2)
 80014c6:	8f55                	or	a4,a4,a3
 80014c8:	d118                	sw	a4,32(a0)
            /* reset the ISO0 bit */
            TIMER_CTL1(timer_periph) &= (~(uint32_t)TIMER_CTL1_ISO0);
 80014ca:	c047a703          	lw	a4,-1020(a5)
 80014ce:	eff77713          	andi	a4,a4,-257
 80014d2:	c0e7a223          	sw	a4,-1020(a5)
            /* set the ISO0 bit */
            TIMER_CTL1(timer_periph) |= (uint32_t)ocpara->ocidlestate;
 80014d6:	c047a683          	lw	a3,-1020(a5)
 80014da:	00865703          	lhu	a4,8(a2)
 80014de:	8f55                	or	a4,a4,a3
 80014e0:	c0e7a223          	sw	a4,-1020(a5)
            /* reset the ISO0N bit */
            TIMER_CTL1(timer_periph) &= (~(uint32_t)TIMER_CTL1_ISO0N);
 80014e4:	c047a703          	lw	a4,-1020(a5)
 80014e8:	dff77713          	andi	a4,a4,-513
 80014ec:	c0e7a223          	sw	a4,-1020(a5)
            /* set the ISO0N bit */
            TIMER_CTL1(timer_periph) |= (uint32_t)ocpara->ocnidlestate;
 80014f0:	c047a683          	lw	a3,-1020(a5)
 80014f4:	00a65703          	lhu	a4,10(a2)
 80014f8:	8f55                	or	a4,a4,a3
 80014fa:	c0e7a223          	sw	a4,-1020(a5)
        }
        TIMER_CHCTL0(timer_periph) &= ~(uint32_t)TIMER_CHCTL0_CH0MS;
 80014fe:	4d1c                	lw	a5,24(a0)
 8001500:	9bf1                	andi	a5,a5,-4
            /* reset the ISO1N bit */
            TIMER_CTL1(timer_periph) &= (~(uint32_t)TIMER_CTL1_ISO1N);
            /* set the ISO1N bit */
            TIMER_CTL1(timer_periph) |= (uint32_t)((uint32_t)(ocpara->ocnidlestate) << 2U);
        }
        TIMER_CHCTL0(timer_periph) &= ~(uint32_t)TIMER_CHCTL0_CH1MS;
 8001502:	cd1c                	sw	a5,24(a0)
        break;
 8001504:	8082                	ret
        TIMER_CHCTL2(timer_periph) &= (~(uint32_t)TIMER_CHCTL2_CH1EN);
 8001506:	511c                	lw	a5,32(a0)
 8001508:	9bbd                	andi	a5,a5,-17
 800150a:	d11c                	sw	a5,32(a0)
        TIMER_CHCTL2(timer_periph) |= (uint32_t)((uint32_t)(ocpara->outputstate) << 4U);
 800150c:	00065783          	lhu	a5,0(a2)
 8001510:	5118                	lw	a4,32(a0)
 8001512:	0792                	slli	a5,a5,0x4
 8001514:	8fd9                	or	a5,a5,a4
 8001516:	d11c                	sw	a5,32(a0)
        TIMER_CHCTL2(timer_periph) &= (~(uint32_t)TIMER_CHCTL2_CH1P);
 8001518:	511c                	lw	a5,32(a0)
 800151a:	fdf7f793          	andi	a5,a5,-33
 800151e:	d11c                	sw	a5,32(a0)
        TIMER_CHCTL2(timer_periph) |= (uint32_t)((uint32_t)(ocpara->ocpolarity) << 4U);
 8001520:	00465783          	lhu	a5,4(a2)
 8001524:	5118                	lw	a4,32(a0)
 8001526:	0792                	slli	a5,a5,0x4
 8001528:	8fd9                	or	a5,a5,a4
 800152a:	d11c                	sw	a5,32(a0)
        if (TIMER0 == timer_periph) {
 800152c:	400137b7          	lui	a5,0x40013
 8001530:	c0078713          	addi	a4,a5,-1024 # 40012c00 <_sp+0x2000ac00>
 8001534:	06e51463          	bne	a0,a4,800159c <timer_channel_output_config+0x134>
            TIMER_CHCTL2(timer_periph) &= (~(uint32_t)TIMER_CHCTL2_CH1NEN);
 8001538:	5118                	lw	a4,32(a0)
 800153a:	fbf77713          	andi	a4,a4,-65
 800153e:	d118                	sw	a4,32(a0)
            TIMER_CHCTL2(timer_periph) |= (uint32_t)((uint32_t)(ocpara->outputnstate) << 4U);
 8001540:	00265703          	lhu	a4,2(a2)
 8001544:	5114                	lw	a3,32(a0)
 8001546:	0712                	slli	a4,a4,0x4
 8001548:	8f55                	or	a4,a4,a3
 800154a:	d118                	sw	a4,32(a0)
            TIMER_CHCTL2(timer_periph) &= (~(uint32_t)TIMER_CHCTL2_CH1NP);
 800154c:	5118                	lw	a4,32(a0)
 800154e:	f7f77713          	andi	a4,a4,-129
 8001552:	d118                	sw	a4,32(a0)
            TIMER_CHCTL2(timer_periph) |= (uint32_t)((uint32_t)(ocpara->ocnpolarity) << 4U);
 8001554:	00665703          	lhu	a4,6(a2)
 8001558:	5114                	lw	a3,32(a0)
 800155a:	0712                	slli	a4,a4,0x4
 800155c:	8f55                	or	a4,a4,a3
 800155e:	d118                	sw	a4,32(a0)
            TIMER_CTL1(timer_periph) &= (~(uint32_t)TIMER_CTL1_ISO1);
 8001560:	c047a703          	lw	a4,-1020(a5)
 8001564:	bff77713          	andi	a4,a4,-1025
 8001568:	c0e7a223          	sw	a4,-1020(a5)
            TIMER_CTL1(timer_periph) |= (uint32_t)((uint32_t)(ocpara->ocidlestate) << 2U);
 800156c:	00865703          	lhu	a4,8(a2)
 8001570:	c047a683          	lw	a3,-1020(a5)
 8001574:	070a                	slli	a4,a4,0x2
 8001576:	8f55                	or	a4,a4,a3
 8001578:	c0e7a223          	sw	a4,-1020(a5)
            TIMER_CTL1(timer_periph) &= (~(uint32_t)TIMER_CTL1_ISO1N);
 800157c:	c047a703          	lw	a4,-1020(a5)
 8001580:	76fd                	lui	a3,0xfffff
 8001582:	7ff68693          	addi	a3,a3,2047 # fffff7ff <_sp+0xdfff77ff>
 8001586:	8f75                	and	a4,a4,a3
 8001588:	c0e7a223          	sw	a4,-1020(a5)
            TIMER_CTL1(timer_periph) |= (uint32_t)((uint32_t)(ocpara->ocnidlestate) << 2U);
 800158c:	00a65703          	lhu	a4,10(a2)
 8001590:	c047a683          	lw	a3,-1020(a5)
 8001594:	070a                	slli	a4,a4,0x2
 8001596:	8f55                	or	a4,a4,a3
 8001598:	c0e7a223          	sw	a4,-1020(a5)
        TIMER_CHCTL0(timer_periph) &= ~(uint32_t)TIMER_CHCTL0_CH1MS;
 800159c:	4d1c                	lw	a5,24(a0)
 800159e:	cff7f793          	andi	a5,a5,-769
 80015a2:	b785                	j	8001502 <timer_channel_output_config+0x9a>
    /* configure TIMER_CH_2 */
    case TIMER_CH_2:
        /* reset the CH2EN bit */
        TIMER_CHCTL2(timer_periph) &= (~(uint32_t)TIMER_CHCTL2_CH2EN);
 80015a4:	511c                	lw	a5,32(a0)
 80015a6:	eff7f793          	andi	a5,a5,-257
 80015aa:	d11c                	sw	a5,32(a0)
        /* set the CH2EN bit */
        TIMER_CHCTL2(timer_periph) |= (uint32_t)((uint32_t)(ocpara->outputstate) << 8U);
 80015ac:	00065783          	lhu	a5,0(a2)
 80015b0:	5118                	lw	a4,32(a0)
 80015b2:	07a2                	slli	a5,a5,0x8
 80015b4:	8fd9                	or	a5,a5,a4
 80015b6:	d11c                	sw	a5,32(a0)
        /* reset the CH2P bit */
        TIMER_CHCTL2(timer_periph) &= (~(uint32_t)TIMER_CHCTL2_CH2P);
 80015b8:	511c                	lw	a5,32(a0)
 80015ba:	dff7f793          	andi	a5,a5,-513
 80015be:	d11c                	sw	a5,32(a0)
        /* set the CH2P bit */
        TIMER_CHCTL2(timer_periph) |= (uint32_t)((uint32_t)(ocpara->ocpolarity) << 8U);
 80015c0:	00465783          	lhu	a5,4(a2)
 80015c4:	5118                	lw	a4,32(a0)
 80015c6:	07a2                	slli	a5,a5,0x8
 80015c8:	8fd9                	or	a5,a5,a4
 80015ca:	d11c                	sw	a5,32(a0)

        if (TIMER0 == timer_periph) {
 80015cc:	400137b7          	lui	a5,0x40013
 80015d0:	c0078713          	addi	a4,a5,-1024 # 40012c00 <_sp+0x2000ac00>
 80015d4:	06e51563          	bne	a0,a4,800163e <timer_channel_output_config+0x1d6>
            /* reset the CH2NEN bit */
            TIMER_CHCTL2(timer_periph) &= (~(uint32_t)TIMER_CHCTL2_CH2NEN);
 80015d8:	5118                	lw	a4,32(a0)
 80015da:	bff77713          	andi	a4,a4,-1025
 80015de:	d118                	sw	a4,32(a0)
            /* set the CH2NEN bit */
            TIMER_CHCTL2(timer_periph) |= (uint32_t)((uint32_t)(ocpara->outputnstate) << 8U);
 80015e0:	00265703          	lhu	a4,2(a2)
 80015e4:	5114                	lw	a3,32(a0)
 80015e6:	0722                	slli	a4,a4,0x8
 80015e8:	8f55                	or	a4,a4,a3
 80015ea:	d118                	sw	a4,32(a0)
            /* reset the CH2NP bit */
            TIMER_CHCTL2(timer_periph) &= (~(uint32_t)TIMER_CHCTL2_CH2NP);
 80015ec:	5118                	lw	a4,32(a0)
 80015ee:	76fd                	lui	a3,0xfffff
 80015f0:	7ff68593          	addi	a1,a3,2047 # fffff7ff <_sp+0xdfff77ff>
 80015f4:	8f6d                	and	a4,a4,a1
 80015f6:	d118                	sw	a4,32(a0)
            /* set the CH2NP bit */
            TIMER_CHCTL2(timer_periph) |= (uint32_t)((uint32_t)(ocpara->ocnpolarity) << 8U);
 80015f8:	00665703          	lhu	a4,6(a2)
 80015fc:	510c                	lw	a1,32(a0)
            /* reset the ISO2 bit */
            TIMER_CTL1(timer_periph) &= (~(uint32_t)TIMER_CTL1_ISO2);
 80015fe:	16fd                	addi	a3,a3,-1
            TIMER_CHCTL2(timer_periph) |= (uint32_t)((uint32_t)(ocpara->ocnpolarity) << 8U);
 8001600:	0722                	slli	a4,a4,0x8
 8001602:	8f4d                	or	a4,a4,a1
 8001604:	d118                	sw	a4,32(a0)
            TIMER_CTL1(timer_periph) &= (~(uint32_t)TIMER_CTL1_ISO2);
 8001606:	c047a703          	lw	a4,-1020(a5)
 800160a:	8ef9                	and	a3,a3,a4
 800160c:	c0d7a223          	sw	a3,-1020(a5)
            /* set the ISO2 bit */
            TIMER_CTL1(timer_periph) |= (uint32_t)((uint32_t)(ocpara->ocidlestate) << 4U);
 8001610:	00865703          	lhu	a4,8(a2)
 8001614:	c047a683          	lw	a3,-1020(a5)
 8001618:	0712                	slli	a4,a4,0x4
 800161a:	8f55                	or	a4,a4,a3
 800161c:	c0e7a223          	sw	a4,-1020(a5)
            /* reset the ISO2N bit */
            TIMER_CTL1(timer_periph) &= (~(uint32_t)TIMER_CTL1_ISO2N);
 8001620:	c047a703          	lw	a4,-1020(a5)
 8001624:	76f9                	lui	a3,0xffffe
 8001626:	16fd                	addi	a3,a3,-1
 8001628:	8f75                	and	a4,a4,a3
 800162a:	c0e7a223          	sw	a4,-1020(a5)
            /* set the ISO2N bit */
            TIMER_CTL1(timer_periph) |= (uint32_t)((uint32_t)(ocpara->ocnidlestate) << 4U);
 800162e:	00a65703          	lhu	a4,10(a2)
 8001632:	c047a683          	lw	a3,-1020(a5)
 8001636:	0712                	slli	a4,a4,0x4
 8001638:	8f55                	or	a4,a4,a3
 800163a:	c0e7a223          	sw	a4,-1020(a5)
        }
        TIMER_CHCTL1(timer_periph) &= ~(uint32_t)TIMER_CHCTL1_CH2MS;
 800163e:	4d5c                	lw	a5,28(a0)
 8001640:	9bf1                	andi	a5,a5,-4
            /* reset the ISO3 bit */
            TIMER_CTL1(timer_periph) &= (~(uint32_t)TIMER_CTL1_ISO3);
            /* set the ISO3 bit */
            TIMER_CTL1(timer_periph) |= (uint32_t)((uint32_t)(ocpara->ocidlestate) << 6U);
        }
        TIMER_CHCTL1(timer_periph) &= ~(uint32_t)TIMER_CHCTL1_CH3MS;
 8001642:	cd5c                	sw	a5,28(a0)
        break;
    default:
        break;
    }
}
 8001644:	8082                	ret
        TIMER_CHCTL2(timer_periph) &=(~(uint32_t)TIMER_CHCTL2_CH3EN);
 8001646:	511c                	lw	a5,32(a0)
 8001648:	777d                	lui	a4,0xfffff
 800164a:	177d                	addi	a4,a4,-1
 800164c:	8ff9                	and	a5,a5,a4
 800164e:	d11c                	sw	a5,32(a0)
        TIMER_CHCTL2(timer_periph) |= (uint32_t)((uint32_t)(ocpara->outputstate) << 12U);
 8001650:	00065783          	lhu	a5,0(a2)
 8001654:	5118                	lw	a4,32(a0)
 8001656:	07b2                	slli	a5,a5,0xc
 8001658:	8fd9                	or	a5,a5,a4
 800165a:	d11c                	sw	a5,32(a0)
        TIMER_CHCTL2(timer_periph) &= (~(uint32_t)TIMER_CHCTL2_CH3P);
 800165c:	511c                	lw	a5,32(a0)
 800165e:	7779                	lui	a4,0xffffe
 8001660:	177d                	addi	a4,a4,-1
 8001662:	8ff9                	and	a5,a5,a4
 8001664:	d11c                	sw	a5,32(a0)
        TIMER_CHCTL2(timer_periph) |= (uint32_t)((uint32_t)(ocpara->ocpolarity) << 12U);
 8001666:	00465783          	lhu	a5,4(a2)
 800166a:	5118                	lw	a4,32(a0)
 800166c:	07b2                	slli	a5,a5,0xc
 800166e:	8fd9                	or	a5,a5,a4
 8001670:	d11c                	sw	a5,32(a0)
        if (TIMER0 == timer_periph) {
 8001672:	400137b7          	lui	a5,0x40013
 8001676:	c0078713          	addi	a4,a5,-1024 # 40012c00 <_sp+0x2000ac00>
 800167a:	02e51163          	bne	a0,a4,800169c <timer_channel_output_config+0x234>
            TIMER_CTL1(timer_periph) &= (~(uint32_t)TIMER_CTL1_ISO3);
 800167e:	c047a703          	lw	a4,-1020(a5)
 8001682:	76f1                	lui	a3,0xffffc
 8001684:	16fd                	addi	a3,a3,-1
 8001686:	8f75                	and	a4,a4,a3
 8001688:	c0e7a223          	sw	a4,-1020(a5)
            TIMER_CTL1(timer_periph) |= (uint32_t)((uint32_t)(ocpara->ocidlestate) << 6U);
 800168c:	00865703          	lhu	a4,8(a2)
 8001690:	c047a683          	lw	a3,-1020(a5)
 8001694:	071a                	slli	a4,a4,0x6
 8001696:	8f55                	or	a4,a4,a3
 8001698:	c0e7a223          	sw	a4,-1020(a5)
        TIMER_CHCTL1(timer_periph) &= ~(uint32_t)TIMER_CHCTL1_CH3MS;
 800169c:	4d5c                	lw	a5,28(a0)
 800169e:	cff7f793          	andi	a5,a5,-769
 80016a2:	b745                	j	8001642 <timer_channel_output_config+0x1da>

080016a4 <timer_channel_output_mode_config>:
    \param[out] none
    \retval     none
*/
void timer_channel_output_mode_config(uint32_t timer_periph, uint16_t channel, uint16_t ocmode)
{
    switch(channel){
 80016a4:	4785                	li	a5,1
 80016a6:	02f58263          	beq	a1,a5,80016ca <timer_channel_output_mode_config+0x26>
 80016aa:	c981                	beqz	a1,80016ba <timer_channel_output_mode_config+0x16>
 80016ac:	4789                	li	a5,2
 80016ae:	02f58663          	beq	a1,a5,80016da <timer_channel_output_mode_config+0x36>
 80016b2:	478d                	li	a5,3
 80016b4:	02f58b63          	beq	a1,a5,80016ea <timer_channel_output_mode_config+0x46>
 80016b8:	8082                	ret
    /* configure TIMER_CH_0 */
    case TIMER_CH_0:
        TIMER_CHCTL0(timer_periph) &= (~(uint32_t)TIMER_CHCTL0_CH0COMCTL);
 80016ba:	4d1c                	lw	a5,24(a0)
 80016bc:	f8f7f793          	andi	a5,a5,-113
 80016c0:	cd1c                	sw	a5,24(a0)
        TIMER_CHCTL0(timer_periph) |= (uint32_t)ocmode;
 80016c2:	4d1c                	lw	a5,24(a0)
        break;
    /* configure TIMER_CH_1 */
    case TIMER_CH_1:
        TIMER_CHCTL0(timer_periph) &= (~(uint32_t)TIMER_CHCTL0_CH1COMCTL);
        TIMER_CHCTL0(timer_periph) |= (uint32_t)((uint32_t)(ocmode) << 8U);
 80016c4:	8e5d                	or	a2,a2,a5
 80016c6:	cd10                	sw	a2,24(a0)
        break;
 80016c8:	8082                	ret
        TIMER_CHCTL0(timer_periph) &= (~(uint32_t)TIMER_CHCTL0_CH1COMCTL);
 80016ca:	4d1c                	lw	a5,24(a0)
 80016cc:	7765                	lui	a4,0xffff9
 80016ce:	177d                	addi	a4,a4,-1
 80016d0:	8ff9                	and	a5,a5,a4
 80016d2:	cd1c                	sw	a5,24(a0)
        TIMER_CHCTL0(timer_periph) |= (uint32_t)((uint32_t)(ocmode) << 8U);
 80016d4:	4d1c                	lw	a5,24(a0)
 80016d6:	0622                	slli	a2,a2,0x8
 80016d8:	b7f5                	j	80016c4 <timer_channel_output_mode_config+0x20>
    /* configure TIMER_CH_2 */
    case TIMER_CH_2:
        TIMER_CHCTL1(timer_periph) &= (~(uint32_t)TIMER_CHCTL1_CH2COMCTL);
 80016da:	4d5c                	lw	a5,28(a0)
 80016dc:	f8f7f793          	andi	a5,a5,-113
 80016e0:	cd5c                	sw	a5,28(a0)
        TIMER_CHCTL1(timer_periph) |= (uint32_t)ocmode;
 80016e2:	4d5c                	lw	a5,28(a0)
        break;
    /* configure TIMER_CH_3 */
    case TIMER_CH_3:
        TIMER_CHCTL1(timer_periph) &= (~(uint32_t)TIMER_CHCTL1_CH3COMCTL);
        TIMER_CHCTL1(timer_periph) |= (uint32_t)((uint32_t)(ocmode) << 8U);
 80016e4:	8e5d                	or	a2,a2,a5
 80016e6:	cd50                	sw	a2,28(a0)
        break;
    default:
        break;
    }
}
 80016e8:	8082                	ret
        TIMER_CHCTL1(timer_periph) &= (~(uint32_t)TIMER_CHCTL1_CH3COMCTL);
 80016ea:	4d5c                	lw	a5,28(a0)
 80016ec:	7765                	lui	a4,0xffff9
 80016ee:	177d                	addi	a4,a4,-1
 80016f0:	8ff9                	and	a5,a5,a4
 80016f2:	cd5c                	sw	a5,28(a0)
        TIMER_CHCTL1(timer_periph) |= (uint32_t)((uint32_t)(ocmode) << 8U);
 80016f4:	4d5c                	lw	a5,28(a0)
 80016f6:	0622                	slli	a2,a2,0x8
 80016f8:	b7f5                	j	80016e4 <timer_channel_output_mode_config+0x40>

080016fa <timer_channel_output_pulse_value_config>:
    \param[out] none
    \retval     none
*/
void timer_channel_output_pulse_value_config(uint32_t timer_periph, uint16_t channel, uint32_t pulse)
{
    switch(channel){
 80016fa:	4785                	li	a5,1
 80016fc:	00f58c63          	beq	a1,a5,8001714 <timer_channel_output_pulse_value_config+0x1a>
 8001700:	c981                	beqz	a1,8001710 <timer_channel_output_pulse_value_config+0x16>
 8001702:	4789                	li	a5,2
 8001704:	00f58a63          	beq	a1,a5,8001718 <timer_channel_output_pulse_value_config+0x1e>
 8001708:	478d                	li	a5,3
 800170a:	00f58963          	beq	a1,a5,800171c <timer_channel_output_pulse_value_config+0x22>
 800170e:	8082                	ret
    /* configure TIMER_CH_0 */
    case TIMER_CH_0:
        TIMER_CH0CV(timer_periph) = (uint32_t)pulse;
 8001710:	d950                	sw	a2,52(a0)
        break;
 8001712:	8082                	ret
    /* configure TIMER_CH_1 */
    case TIMER_CH_1:
        TIMER_CH1CV(timer_periph) = (uint32_t)pulse;
 8001714:	dd10                	sw	a2,56(a0)
        break;
 8001716:	8082                	ret
    /* configure TIMER_CH_2 */
    case TIMER_CH_2:
        TIMER_CH2CV(timer_periph) = (uint32_t)pulse;
 8001718:	dd50                	sw	a2,60(a0)
        break;
 800171a:	8082                	ret
    /* configure TIMER_CH_3 */
    case TIMER_CH_3:
         TIMER_CH3CV(timer_periph) = (uint32_t)pulse;
 800171c:	c130                	sw	a2,64(a0)
        break;
    default:
        break;
    }
}
 800171e:	8082                	ret

08001720 <timer_channel_output_shadow_config>:
    \param[out] none
    \retval     none
*/
void timer_channel_output_shadow_config(uint32_t timer_periph, uint16_t channel, uint16_t ocshadow)
{
    switch(channel){
 8001720:	4785                	li	a5,1
 8001722:	02f58163          	beq	a1,a5,8001744 <timer_channel_output_shadow_config+0x24>
 8001726:	c981                	beqz	a1,8001736 <timer_channel_output_shadow_config+0x16>
 8001728:	4789                	li	a5,2
 800172a:	02f58663          	beq	a1,a5,8001756 <timer_channel_output_shadow_config+0x36>
 800172e:	478d                	li	a5,3
 8001730:	02f58a63          	beq	a1,a5,8001764 <timer_channel_output_shadow_config+0x44>
 8001734:	8082                	ret
    /* configure TIMER_CH_0 */
    case TIMER_CH_0:
        TIMER_CHCTL0(timer_periph) &= (~(uint32_t)TIMER_CHCTL0_CH0COMSEN);
 8001736:	4d1c                	lw	a5,24(a0)
 8001738:	9bdd                	andi	a5,a5,-9
 800173a:	cd1c                	sw	a5,24(a0)
        TIMER_CHCTL0(timer_periph) |= (uint32_t)ocshadow;
 800173c:	4d1c                	lw	a5,24(a0)
        break;
    /* configure TIMER_CH_1 */
    case TIMER_CH_1:
        TIMER_CHCTL0(timer_periph) &= (~(uint32_t)TIMER_CHCTL0_CH1COMSEN);
        TIMER_CHCTL0(timer_periph) |= (uint32_t)((uint32_t)(ocshadow) << 8U);
 800173e:	8e5d                	or	a2,a2,a5
 8001740:	cd10                	sw	a2,24(a0)
        break;
 8001742:	8082                	ret
        TIMER_CHCTL0(timer_periph) &= (~(uint32_t)TIMER_CHCTL0_CH1COMSEN);
 8001744:	4d1c                	lw	a5,24(a0)
 8001746:	777d                	lui	a4,0xfffff
 8001748:	7ff70713          	addi	a4,a4,2047 # fffff7ff <_sp+0xdfff77ff>
 800174c:	8ff9                	and	a5,a5,a4
 800174e:	cd1c                	sw	a5,24(a0)
        TIMER_CHCTL0(timer_periph) |= (uint32_t)((uint32_t)(ocshadow) << 8U);
 8001750:	4d1c                	lw	a5,24(a0)
 8001752:	0622                	slli	a2,a2,0x8
 8001754:	b7ed                	j	800173e <timer_channel_output_shadow_config+0x1e>
    /* configure TIMER_CH_2 */
    case TIMER_CH_2:
        TIMER_CHCTL1(timer_periph) &= (~(uint32_t)TIMER_CHCTL1_CH2COMSEN);
 8001756:	4d5c                	lw	a5,28(a0)
 8001758:	9bdd                	andi	a5,a5,-9
 800175a:	cd5c                	sw	a5,28(a0)
        TIMER_CHCTL1(timer_periph) |= (uint32_t)ocshadow;
 800175c:	4d5c                	lw	a5,28(a0)
        break;
    /* configure TIMER_CH_3 */
    case TIMER_CH_3:
        TIMER_CHCTL1(timer_periph) &= (~(uint32_t)TIMER_CHCTL1_CH3COMSEN);
        TIMER_CHCTL1(timer_periph) |= (uint32_t)((uint32_t)(ocshadow) << 8U);
 800175e:	8e5d                	or	a2,a2,a5
 8001760:	cd50                	sw	a2,28(a0)
        break;
    default:
        break;
    }
}
 8001762:	8082                	ret
        TIMER_CHCTL1(timer_periph) &= (~(uint32_t)TIMER_CHCTL1_CH3COMSEN);
 8001764:	4d5c                	lw	a5,28(a0)
 8001766:	777d                	lui	a4,0xfffff
 8001768:	7ff70713          	addi	a4,a4,2047 # fffff7ff <_sp+0xdfff77ff>
 800176c:	8ff9                	and	a5,a5,a4
 800176e:	cd5c                	sw	a5,28(a0)
        TIMER_CHCTL1(timer_periph) |= (uint32_t)((uint32_t)(ocshadow) << 8U);
 8001770:	4d5c                	lw	a5,28(a0)
 8001772:	0622                	slli	a2,a2,0x8
 8001774:	b7ed                	j	800175e <timer_channel_output_shadow_config+0x3e>

08001776 <timer_interrupt_enable>:
    \param[out] none
    \retval     none
*/
void timer_interrupt_enable(uint32_t timer_periph, uint32_t interrupt)
{
    TIMER_DMAINTEN(timer_periph) |= (uint32_t) interrupt; 
 8001776:	455c                	lw	a5,12(a0)
 8001778:	8ddd                	or	a1,a1,a5
 800177a:	c54c                	sw	a1,12(a0)
}
 800177c:	8082                	ret

0800177e <timer_interrupt_disable>:
    \param[out] none
    \retval     none
*/
void timer_interrupt_disable(uint32_t timer_periph, uint32_t interrupt)
{
    TIMER_DMAINTEN(timer_periph) &= (~(uint32_t)interrupt); 
 800177e:	455c                	lw	a5,12(a0)
 8001780:	fff5c593          	not	a1,a1
 8001784:	8dfd                	and	a1,a1,a5
 8001786:	c54c                	sw	a1,12(a0)
}
 8001788:	8082                	ret

0800178a <timer_interrupt_flag_get>:
    \retval     FlagStatus: SET or RESET
*/
FlagStatus timer_interrupt_flag_get(uint32_t timer_periph, uint32_t interrupt)
{
    uint32_t val;
    val = (TIMER_DMAINTEN(timer_periph) & interrupt);
 800178a:	455c                	lw	a5,12(a0)
    if((RESET != (TIMER_INTF(timer_periph) & interrupt)) && (RESET != val)){
 800178c:	4908                	lw	a0,16(a0)
 800178e:	8d6d                	and	a0,a0,a1
 8001790:	c509                	beqz	a0,800179a <timer_interrupt_flag_get+0x10>
    val = (TIMER_DMAINTEN(timer_periph) & interrupt);
 8001792:	00b7f533          	and	a0,a5,a1
    if((RESET != (TIMER_INTF(timer_periph) & interrupt)) && (RESET != val)){
 8001796:	00a03533          	snez	a0,a0
        return SET;
    }else{
        return RESET;
    }
}
 800179a:	8082                	ret

0800179c <timer_interrupt_flag_clear>:
    \param[out] none
    \retval     none
*/
void timer_interrupt_flag_clear(uint32_t timer_periph, uint32_t interrupt)
{
    TIMER_INTF(timer_periph) = (~(uint32_t)interrupt);
 800179c:	fff5c593          	not	a1,a1
 80017a0:	c90c                	sw	a1,16(a0)
}
 80017a2:	8082                	ret

080017a4 <usart_deinit>:
    \param[in]  usart_periph: USARTx(x=0,1,2)/UARTx(x=3,4)
    \param[out] none
    \retval     none
*/
void usart_deinit(uint32_t usart_periph)
{
 80017a4:	1141                	addi	sp,sp,-16
    switch(usart_periph){
 80017a6:	400057b7          	lui	a5,0x40005
{
 80017aa:	c606                	sw	ra,12(sp)
    switch(usart_periph){
 80017ac:	c0078713          	addi	a4,a5,-1024 # 40004c00 <_sp+0x1fffcc00>
 80017b0:	06e50963          	beq	a0,a4,8001822 <usart_deinit+0x7e>
 80017b4:	00a76f63          	bltu	a4,a0,80017d2 <usart_deinit+0x2e>
 80017b8:	40004737          	lui	a4,0x40004
 80017bc:	40070713          	addi	a4,a4,1024 # 40004400 <_sp+0x1fffc400>
 80017c0:	02e50f63          	beq	a0,a4,80017fe <usart_deinit+0x5a>
 80017c4:	80078793          	addi	a5,a5,-2048
 80017c8:	04f50463          	beq	a0,a5,8001810 <usart_deinit+0x6c>
        rcu_periph_reset_disable(RCU_UART4RST);
        break;
    default:
        break;
    }
}
 80017cc:	40b2                	lw	ra,12(sp)
 80017ce:	0141                	addi	sp,sp,16
 80017d0:	8082                	ret
    switch(usart_periph){
 80017d2:	06f50163          	beq	a0,a5,8001834 <usart_deinit+0x90>
 80017d6:	400147b7          	lui	a5,0x40014
 80017da:	80078793          	addi	a5,a5,-2048 # 40013800 <_sp+0x2000b800>
 80017de:	fef517e3          	bne	a0,a5,80017cc <usart_deinit+0x28>
        rcu_periph_reset_enable(RCU_USART0RST);
 80017e2:	30e00513          	li	a0,782
 80017e6:	00000097          	auipc	ra,0x0
 80017ea:	8c2080e7          	jalr	-1854(ra) # 80010a8 <rcu_periph_reset_enable>
        rcu_periph_reset_disable(RCU_USART0RST);
 80017ee:	30e00513          	li	a0,782
}
 80017f2:	40b2                	lw	ra,12(sp)
 80017f4:	0141                	addi	sp,sp,16
        rcu_periph_reset_disable(RCU_UART4RST);
 80017f6:	00000317          	auipc	t1,0x0
 80017fa:	8ca30067          	jr	-1846(t1) # 80010c0 <rcu_periph_reset_disable>
        rcu_periph_reset_enable(RCU_USART1RST);
 80017fe:	41100513          	li	a0,1041
 8001802:	00000097          	auipc	ra,0x0
 8001806:	8a6080e7          	jalr	-1882(ra) # 80010a8 <rcu_periph_reset_enable>
        rcu_periph_reset_disable(RCU_USART1RST);
 800180a:	41100513          	li	a0,1041
 800180e:	b7d5                	j	80017f2 <usart_deinit+0x4e>
        rcu_periph_reset_enable(RCU_USART2RST);
 8001810:	41200513          	li	a0,1042
 8001814:	00000097          	auipc	ra,0x0
 8001818:	894080e7          	jalr	-1900(ra) # 80010a8 <rcu_periph_reset_enable>
        rcu_periph_reset_disable(RCU_USART2RST);
 800181c:	41200513          	li	a0,1042
 8001820:	bfc9                	j	80017f2 <usart_deinit+0x4e>
        rcu_periph_reset_enable(RCU_UART3RST);
 8001822:	41300513          	li	a0,1043
 8001826:	00000097          	auipc	ra,0x0
 800182a:	882080e7          	jalr	-1918(ra) # 80010a8 <rcu_periph_reset_enable>
        rcu_periph_reset_disable(RCU_UART3RST);
 800182e:	41300513          	li	a0,1043
 8001832:	b7c1                	j	80017f2 <usart_deinit+0x4e>
        rcu_periph_reset_enable(RCU_UART4RST);
 8001834:	41400513          	li	a0,1044
 8001838:	00000097          	auipc	ra,0x0
 800183c:	870080e7          	jalr	-1936(ra) # 80010a8 <rcu_periph_reset_enable>
        rcu_periph_reset_disable(RCU_UART4RST);
 8001840:	41400513          	li	a0,1044
 8001844:	b77d                	j	80017f2 <usart_deinit+0x4e>

08001846 <usart_baudrate_set>:
    \param[in]  baudval: baud rate value
    \param[out] none
    \retval     none
*/ 
void usart_baudrate_set(uint32_t usart_periph, uint32_t baudval)
{
 8001846:	1141                	addi	sp,sp,-16
    uint32_t uclk=0U, intdiv=0U, fradiv=0U, udiv=0U;
    switch(usart_periph){
 8001848:	400057b7          	lui	a5,0x40005
{
 800184c:	c422                	sw	s0,8(sp)
 800184e:	c226                	sw	s1,4(sp)
 8001850:	c606                	sw	ra,12(sp)
    switch(usart_periph){
 8001852:	c0078713          	addi	a4,a5,-1024 # 40004c00 <_sp+0x1fffcc00>
{
 8001856:	842a                	mv	s0,a0
 8001858:	84ae                	mv	s1,a1
    switch(usart_periph){
 800185a:	00e50f63          	beq	a0,a4,8001878 <usart_baudrate_set+0x32>
 800185e:	00a76f63          	bltu	a4,a0,800187c <usart_baudrate_set+0x36>
 8001862:	40004737          	lui	a4,0x40004
 8001866:	40070713          	addi	a4,a4,1024 # 40004400 <_sp+0x1fffc400>
 800186a:	00e50763          	beq	a0,a4,8001878 <usart_baudrate_set+0x32>
 800186e:	80078793          	addi	a5,a5,-2048
    uint32_t uclk=0U, intdiv=0U, fradiv=0U, udiv=0U;
 8001872:	4501                	li	a0,0
    switch(usart_periph){
 8001874:	02f41263          	bne	s0,a5,8001898 <usart_baudrate_set+0x52>
         /* get USART0 clock */
         uclk=rcu_clock_freq_get(CK_APB2);
         break;
    case USART1:
         /* get USART1 clock */
         uclk=rcu_clock_freq_get(CK_APB1);
 8001878:	4509                	li	a0,2
 800187a:	a819                	j	8001890 <usart_baudrate_set+0x4a>
    switch(usart_periph){
 800187c:	fef50ee3          	beq	a0,a5,8001878 <usart_baudrate_set+0x32>
 8001880:	400147b7          	lui	a5,0x40014
 8001884:	80078793          	addi	a5,a5,-2048 # 40013800 <_sp+0x2000b800>
    uint32_t uclk=0U, intdiv=0U, fradiv=0U, udiv=0U;
 8001888:	4501                	li	a0,0
    switch(usart_periph){
 800188a:	00f41763          	bne	s0,a5,8001898 <usart_baudrate_set+0x52>
         uclk=rcu_clock_freq_get(CK_APB2);
 800188e:	450d                	li	a0,3
         uclk=rcu_clock_freq_get(CK_APB1);
 8001890:	00000097          	auipc	ra,0x0
 8001894:	8a0080e7          	jalr	-1888(ra) # 8001130 <rcu_clock_freq_get>
         break;  
    default:
         break;
    }
    /* oversampling by 16, configure the value of USART_BAUD */
    udiv = (uclk+baudval/2U)/baudval;
 8001898:	0014d793          	srli	a5,s1,0x1
 800189c:	97aa                	add	a5,a5,a0
 800189e:	0297d7b3          	divu	a5,a5,s1
    intdiv = udiv & (0x0000fff0U);
    fradiv = udiv & (0x0000000fU);
    USART_BAUD(usart_periph) = ((USART_BAUD_FRADIV | USART_BAUD_INTDIV) & (intdiv | fradiv));
}
 80018a2:	40b2                	lw	ra,12(sp)
 80018a4:	4492                	lw	s1,4(sp)
    USART_BAUD(usart_periph) = ((USART_BAUD_FRADIV | USART_BAUD_INTDIV) & (intdiv | fradiv));
 80018a6:	07c2                	slli	a5,a5,0x10
 80018a8:	83c1                	srli	a5,a5,0x10
 80018aa:	c41c                	sw	a5,8(s0)
}
 80018ac:	4422                	lw	s0,8(sp)
 80018ae:	0141                	addi	sp,sp,16
 80018b0:	8082                	ret

080018b2 <usart_parity_config>:
    \retval     none
*/
void usart_parity_config(uint32_t usart_periph, uint32_t paritycfg)
{
    /* clear USART_CTL0 PM,PCEN bits */
    USART_CTL0(usart_periph) &= ~(USART_CTL0_PM | USART_CTL0_PCEN);
 80018b2:	455c                	lw	a5,12(a0)
 80018b4:	9ff7f793          	andi	a5,a5,-1537
 80018b8:	c55c                	sw	a5,12(a0)
    /* configure USART parity mode */
    USART_CTL0(usart_periph) |= paritycfg ;
 80018ba:	455c                	lw	a5,12(a0)
 80018bc:	8ddd                	or	a1,a1,a5
 80018be:	c54c                	sw	a1,12(a0)
}
 80018c0:	8082                	ret

080018c2 <usart_word_length_set>:
    \retval     none
*/
void usart_word_length_set(uint32_t usart_periph, uint32_t wlen)
{
    /* clear USART_CTL0 WL bit */
    USART_CTL0(usart_periph) &= ~USART_CTL0_WL;
 80018c2:	455c                	lw	a5,12(a0)
 80018c4:	777d                	lui	a4,0xfffff
 80018c6:	177d                	addi	a4,a4,-1
 80018c8:	8ff9                	and	a5,a5,a4
 80018ca:	c55c                	sw	a5,12(a0)
    /* configure USART word length */
    USART_CTL0(usart_periph) |= wlen;
 80018cc:	455c                	lw	a5,12(a0)
 80018ce:	8ddd                	or	a1,a1,a5
 80018d0:	c54c                	sw	a1,12(a0)
}
 80018d2:	8082                	ret

080018d4 <usart_stop_bit_set>:
    \retval     none
*/
void usart_stop_bit_set(uint32_t usart_periph, uint32_t stblen)
{
    /* clear USART_CTL1 STB bits */
    USART_CTL1(usart_periph) &= ~USART_CTL1_STB; 
 80018d4:	491c                	lw	a5,16(a0)
 80018d6:	7775                	lui	a4,0xffffd
 80018d8:	177d                	addi	a4,a4,-1
 80018da:	8ff9                	and	a5,a5,a4
 80018dc:	c91c                	sw	a5,16(a0)
    /* configure USART stop bits */
    USART_CTL1(usart_periph) |= stblen;
 80018de:	491c                	lw	a5,16(a0)
 80018e0:	8ddd                	or	a1,a1,a5
 80018e2:	c90c                	sw	a1,16(a0)
}
 80018e4:	8082                	ret

080018e6 <usart_enable>:
    \param[in]  usart_periph: USARTx(x=0,1,2)/UARTx(x=3,4)
    \param[out] none
    \retval     none
*/
void usart_enable(uint32_t usart_periph){
    USART_CTL0(usart_periph) |= USART_CTL0_UEN;
 80018e6:	455c                	lw	a5,12(a0)
 80018e8:	6709                	lui	a4,0x2
 80018ea:	8fd9                	or	a5,a5,a4
 80018ec:	c55c                	sw	a5,12(a0)
}
 80018ee:	8082                	ret

080018f0 <usart_transmit_config>:
*/
void usart_transmit_config(uint32_t usart_periph, uint32_t txconfig)
{
    uint32_t ctl = 0U;
    
    ctl = USART_CTL0(usart_periph);
 80018f0:	455c                	lw	a5,12(a0)
    ctl &= ~USART_CTL0_TEN;
 80018f2:	9bdd                	andi	a5,a5,-9
    ctl |= txconfig;
 80018f4:	8ddd                	or	a1,a1,a5
    /* configure transfer mode */
    USART_CTL0(usart_periph) = ctl;
 80018f6:	c54c                	sw	a1,12(a0)
}
 80018f8:	8082                	ret

080018fa <usart_receive_config>:
*/
void usart_receive_config(uint32_t usart_periph, uint32_t rxconfig)
{
    uint32_t ctl = 0U;
    
    ctl = USART_CTL0(usart_periph);
 80018fa:	455c                	lw	a5,12(a0)
    ctl &= ~USART_CTL0_REN;
 80018fc:	9bed                	andi	a5,a5,-5
    ctl |= rxconfig;
 80018fe:	8ddd                	or	a1,a1,a5
    /* configure receiver mode */
    USART_CTL0(usart_periph) = ctl;
 8001900:	c54c                	sw	a1,12(a0)
}
 8001902:	8082                	ret

08001904 <usart_hardware_flow_rts_config>:
*/
void usart_hardware_flow_rts_config(uint32_t usart_periph, uint32_t rtsconfig)
{
    uint32_t ctl = 0U;
    
    ctl = USART_CTL2(usart_periph);
 8001904:	495c                	lw	a5,20(a0)
    ctl &= ~USART_CTL2_RTSEN;
 8001906:	eff7f793          	andi	a5,a5,-257
    ctl |= rtsconfig;
 800190a:	8ddd                	or	a1,a1,a5
    /* configure RTS */
    USART_CTL2(usart_periph) = ctl;
 800190c:	c94c                	sw	a1,20(a0)
}
 800190e:	8082                	ret

08001910 <usart_hardware_flow_cts_config>:
*/
void usart_hardware_flow_cts_config(uint32_t usart_periph, uint32_t ctsconfig)
{
    uint32_t ctl = 0U;
    
    ctl = USART_CTL2(usart_periph);
 8001910:	495c                	lw	a5,20(a0)
    ctl &= ~USART_CTL2_CTSEN;
 8001912:	dff7f793          	andi	a5,a5,-513
    ctl |= ctsconfig;
 8001916:	8ddd                	or	a1,a1,a5
    /* configure CTS */
    USART_CTL2(usart_periph) = ctl;
 8001918:	c94c                	sw	a1,20(a0)
}
 800191a:	8082                	ret

0800191c <usart_dma_receive_config>:
*/
void usart_dma_receive_config(uint32_t usart_periph, uint32_t dmacmd)
{
    uint32_t ctl = 0U;
    
    ctl = USART_CTL2(usart_periph);
 800191c:	495c                	lw	a5,20(a0)
    ctl &= ~USART_CTL2_DENR;
 800191e:	fbf7f793          	andi	a5,a5,-65
    ctl |= dmacmd;
 8001922:	8ddd                	or	a1,a1,a5
    /* configure DMA reception */
    USART_CTL2(usart_periph) = ctl;
 8001924:	c94c                	sw	a1,20(a0)
}
 8001926:	8082                	ret

08001928 <usart_dma_transmit_config>:
*/
void usart_dma_transmit_config(uint32_t usart_periph, uint32_t dmacmd)
{
    uint32_t ctl = 0U;
    
    ctl = USART_CTL2(usart_periph);
 8001928:	495c                	lw	a5,20(a0)
    ctl &= ~USART_CTL2_DENT;
 800192a:	f7f7f793          	andi	a5,a5,-129
    ctl |= dmacmd;
 800192e:	8ddd                	or	a1,a1,a5
    /* configure DMA transmission */
    USART_CTL2(usart_periph) = ctl;
 8001930:	c94c                	sw	a1,20(a0)
}
 8001932:	8082                	ret

08001934 <SystemInit>:
*/
void SystemInit(void)
{
    /* reset the RCC clock configuration to the default reset state */
    /* enable IRC8M */
    RCU_CTL |= RCU_CTL_IRC8MEN;
 8001934:	400217b7          	lui	a5,0x40021
 8001938:	4398                	lw	a4,0(a5)
    
    /* reset SCS, AHBPSC, APB1PSC, APB2PSC, ADCPSC, CKOUT0SEL bits */
    RCU_CFG0 &= ~(RCU_CFG0_SCS | RCU_CFG0_AHBPSC | RCU_CFG0_APB1PSC | RCU_CFG0_APB2PSC |
 800193a:	e0ff06b7          	lui	a3,0xe0ff0
 800193e:	06b1                	addi	a3,a3,12
    RCU_CTL |= RCU_CTL_IRC8MEN;
 8001940:	00176713          	ori	a4,a4,1
 8001944:	c398                	sw	a4,0(a5)
    RCU_CFG0 &= ~(RCU_CFG0_SCS | RCU_CFG0_AHBPSC | RCU_CFG0_APB1PSC | RCU_CFG0_APB2PSC |
 8001946:	43d8                	lw	a4,4(a5)
 8001948:	8f75                	and	a4,a4,a3
 800194a:	c3d8                	sw	a4,4(a5)
                  RCU_CFG0_ADCPSC | RCU_CFG0_ADCPSC_2 | RCU_CFG0_CKOUT0SEL);

    /* reset HXTALEN, CKMEN, PLLEN bits */
    RCU_CTL &= ~(RCU_CTL_HXTALEN | RCU_CTL_CKMEN | RCU_CTL_PLLEN);
 800194c:	4398                	lw	a4,0(a5)
 800194e:	fef706b7          	lui	a3,0xfef70
 8001952:	16fd                	addi	a3,a3,-1
 8001954:	8f75                	and	a4,a4,a3
 8001956:	c398                	sw	a4,0(a5)

    /* Reset HXTALBPS bit */
    RCU_CTL &= ~(RCU_CTL_HXTALBPS);
 8001958:	4398                	lw	a4,0(a5)
 800195a:	fffc06b7          	lui	a3,0xfffc0
 800195e:	16fd                	addi	a3,a3,-1
 8001960:	8f75                	and	a4,a4,a3
 8001962:	c398                	sw	a4,0(a5)

    /* reset PLLSEL, PREDV0_LSB, PLLMF, USBFSPSC bits */
    
    RCU_CFG0 &= ~(RCU_CFG0_PLLSEL | RCU_CFG0_PREDV0_LSB | RCU_CFG0_PLLMF |
 8001964:	43d8                	lw	a4,4(a5)
 8001966:	df0106b7          	lui	a3,0xdf010
 800196a:	16fd                	addi	a3,a3,-1
 800196c:	8f75                	and	a4,a4,a3
 800196e:	c3d8                	sw	a4,4(a5)
                  RCU_CFG0_USBFSPSC | RCU_CFG0_PLLMF_4);
    RCU_CFG1 = 0x00000000U;
 8001970:	0207a623          	sw	zero,44(a5) # 4002102c <_sp+0x2001902c>

    /* Reset HXTALEN, CKMEN, PLLEN, PLL1EN and PLL2EN bits */
    RCU_CTL &= ~(RCU_CTL_PLLEN | RCU_CTL_PLL1EN | RCU_CTL_PLL2EN | RCU_CTL_CKMEN | RCU_CTL_HXTALEN);
 8001974:	4398                	lw	a4,0(a5)
 8001976:	eaf706b7          	lui	a3,0xeaf70
 800197a:	16fd                	addi	a3,a3,-1
 800197c:	8f75                	and	a4,a4,a3
 800197e:	c398                	sw	a4,0(a5)
    /* disable all interrupts */
    RCU_INT = 0x00FF0000U;
 8001980:	00ff0737          	lui	a4,0xff0
 8001984:	c798                	sw	a4,8(a5)
{
    uint32_t timeout   = 0U;
    uint32_t stab_flag = 0U;

    /* enable HXTAL */
    RCU_CTL |= RCU_CTL_HXTALEN;
 8001986:	4394                	lw	a3,0(a5)
 8001988:	6741                	lui	a4,0x10
 800198a:	8ed9                	or	a3,a3,a4
 800198c:	c394                	sw	a3,0(a5)
 800198e:	fff70793          	addi	a5,a4,-1 # ffff <__stack_size+0xefff>

    /* wait until HXTAL is stable or the startup time is longer than HXTAL_STARTUP_TIMEOUT */
    do{
        timeout++;
        stab_flag = (RCU_CTL & RCU_CTL_HXTALSTB);
 8001992:	40021737          	lui	a4,0x40021
 8001996:	4314                	lw	a3,0(a4)
    }while((0U == stab_flag) && (HXTAL_STARTUP_TIMEOUT != timeout));
 8001998:	00e69613          	slli	a2,a3,0xe
 800199c:	00064463          	bltz	a2,80019a4 <SystemInit+0x70>
 80019a0:	17fd                	addi	a5,a5,-1
 80019a2:	fbf5                	bnez	a5,8001996 <SystemInit+0x62>

    /* if fail */
    if(0U == (RCU_CTL & RCU_CTL_HXTALSTB)){
 80019a4:	400217b7          	lui	a5,0x40021
 80019a8:	4398                	lw	a4,0(a5)
 80019aa:	00e71693          	slli	a3,a4,0xe
 80019ae:	0006c363          	bltz	a3,80019b4 <SystemInit+0x80>
        while(1){
        }
 80019b2:	a001                	j	80019b2 <SystemInit+0x7e>
    }

    /* HXTAL is stable */
    /* AHB = SYSCLK */
    RCU_CFG0 |= RCU_AHB_CKSYS_DIV1;
 80019b4:	43d8                	lw	a4,4(a5)
    RCU_CFG0 |= RCU_APB2_CKAHB_DIV1;
    /* APB1 = AHB/2 */
    RCU_CFG0 |= RCU_APB1_CKAHB_DIV2;

    /* CK_PLL = (CK_PREDIV0) * 27 = 108 MHz */ 
    RCU_CFG0 &= ~(RCU_CFG0_PLLMF | RCU_CFG0_PLLMF_4);
 80019b6:	dfc406b7          	lui	a3,0xdfc40
 80019ba:	16fd                	addi	a3,a3,-1
    RCU_CFG0 |= RCU_AHB_CKSYS_DIV1;
 80019bc:	c3d8                	sw	a4,4(a5)
    RCU_CFG0 |= RCU_APB2_CKAHB_DIV1;
 80019be:	43d8                	lw	a4,4(a5)
 80019c0:	c3d8                	sw	a4,4(a5)
    RCU_CFG0 |= RCU_APB1_CKAHB_DIV2;
 80019c2:	43d8                	lw	a4,4(a5)
 80019c4:	40076713          	ori	a4,a4,1024
 80019c8:	c3d8                	sw	a4,4(a5)
    RCU_CFG0 &= ~(RCU_CFG0_PLLMF | RCU_CFG0_PLLMF_4);
 80019ca:	43d8                	lw	a4,4(a5)
 80019cc:	8f75                	and	a4,a4,a3
 80019ce:	c3d8                	sw	a4,4(a5)
    RCU_CFG0 |= (RCU_PLLSRC_HXTAL | RCU_PLL_MUL27);
 80019d0:	43d8                	lw	a4,4(a5)
 80019d2:	202906b7          	lui	a3,0x20290
 80019d6:	8f55                	or	a4,a4,a3
 80019d8:	c3d8                	sw	a4,4(a5)
		RCU_CTL |= RCU_CTL_PLL2EN;
		/* wait till PLL1 is ready */
		while(0U == (RCU_CTL & RCU_CTL_PLL2STB)){
		}
    }else if(HXTAL_VALUE==8000000){
		RCU_CFG1 &= ~(RCU_CFG1_PREDV0SEL | RCU_CFG1_PREDV1 | RCU_CFG1_PLL1MF | RCU_CFG1_PREDV0);
 80019da:	57d8                	lw	a4,44(a5)
 80019dc:	76bd                	lui	a3,0xfffef
 80019de:	8f75                	and	a4,a4,a3
 80019e0:	d7d8                	sw	a4,44(a5)
		RCU_CFG1 |= (RCU_PREDV0SRC_HXTAL | RCU_PREDV0_DIV2 | RCU_PREDV1_DIV2 | RCU_PLL1_MUL20 | RCU_PLL2_MUL20);
 80019e2:	57d8                	lw	a4,44(a5)
 80019e4:	66c1                	lui	a3,0x10
 80019e6:	f1168693          	addi	a3,a3,-239 # ff11 <__stack_size+0xef11>
 80019ea:	8f55                	or	a4,a4,a3
 80019ec:	d7d8                	sw	a4,44(a5)

		/* enable PLL1 */
		RCU_CTL |= RCU_CTL_PLL1EN;
 80019ee:	4398                	lw	a4,0(a5)
 80019f0:	040006b7          	lui	a3,0x4000
 80019f4:	8f55                	or	a4,a4,a3
 80019f6:	c398                	sw	a4,0(a5)
		/* wait till PLL1 is ready */
		while(0U == (RCU_CTL & RCU_CTL_PLL1STB)){
 80019f8:	400217b7          	lui	a5,0x40021
 80019fc:	4398                	lw	a4,0(a5)
 80019fe:	00471693          	slli	a3,a4,0x4
 8001a02:	fe06dde3          	bgez	a3,80019fc <SystemInit+0xc8>
		}

		/* enable PLL2 */
		RCU_CTL |= RCU_CTL_PLL2EN;
 8001a06:	4398                	lw	a4,0(a5)
 8001a08:	100006b7          	lui	a3,0x10000
 8001a0c:	8f55                	or	a4,a4,a3
 8001a0e:	c398                	sw	a4,0(a5)
		/* wait till PLL1 is ready */
		while(0U == (RCU_CTL & RCU_CTL_PLL2STB)){
 8001a10:	400217b7          	lui	a5,0x40021
 8001a14:	4398                	lw	a4,0(a5)
 8001a16:	00271693          	slli	a3,a4,0x2
 8001a1a:	fe06dde3          	bgez	a3,8001a14 <SystemInit+0xe0>
		}

    }
    /* enable PLL */
    RCU_CTL |= RCU_CTL_PLLEN;
 8001a1e:	4398                	lw	a4,0(a5)
 8001a20:	010006b7          	lui	a3,0x1000
 8001a24:	8f55                	or	a4,a4,a3
 8001a26:	c398                	sw	a4,0(a5)

    /* wait until PLL is stable */
    while(0U == (RCU_CTL & RCU_CTL_PLLSTB)){
 8001a28:	400217b7          	lui	a5,0x40021
 8001a2c:	4398                	lw	a4,0(a5)
 8001a2e:	00671693          	slli	a3,a4,0x6
 8001a32:	fe06dde3          	bgez	a3,8001a2c <SystemInit+0xf8>
    }

    /* select PLL as system clock */
    RCU_CFG0 &= ~RCU_CFG0_SCS;
 8001a36:	43d8                	lw	a4,4(a5)
 8001a38:	9b71                	andi	a4,a4,-4
 8001a3a:	c3d8                	sw	a4,4(a5)
    RCU_CFG0 |= RCU_CKSYSSRC_PLL;
 8001a3c:	43d8                	lw	a4,4(a5)
 8001a3e:	00276713          	ori	a4,a4,2
 8001a42:	c3d8                	sw	a4,4(a5)

    /* wait until PLL is selected as system clock */
    while(0U == (RCU_CFG0 & RCU_SCSS_PLL)){
 8001a44:	40021737          	lui	a4,0x40021
 8001a48:	435c                	lw	a5,4(a4)
 8001a4a:	8ba1                	andi	a5,a5,8
 8001a4c:	dff5                	beqz	a5,8001a48 <SystemInit+0x114>
}
 8001a4e:	8082                	ret

08001a50 <SystemCoreClockUpdate>:
    scss = GET_BITS(RCU_CFG0, 2, 3);
 8001a50:	40021737          	lui	a4,0x40021
 8001a54:	435c                	lw	a5,4(a4)
 8001a56:	20000637          	lui	a2,0x20000
    switch (scss)
 8001a5a:	4685                	li	a3,1
    scss = GET_BITS(RCU_CFG0, 2, 3);
 8001a5c:	8389                	srli	a5,a5,0x2
 8001a5e:	8b8d                	andi	a5,a5,3
    switch (scss)
 8001a60:	4e860613          	addi	a2,a2,1256 # 200004e8 <SystemCoreClock>
 8001a64:	00d78663          	beq	a5,a3,8001a70 <SystemCoreClockUpdate+0x20>
 8001a68:	c781                	beqz	a5,8001a70 <SystemCoreClockUpdate+0x20>
 8001a6a:	4689                	li	a3,2
 8001a6c:	00d78863          	beq	a5,a3,8001a7c <SystemCoreClockUpdate+0x2c>
            SystemCoreClock = IRC8M_VALUE;
 8001a70:	007a17b7          	lui	a5,0x7a1
 8001a74:	20078793          	addi	a5,a5,512 # 7a1200 <__stack_size+0x7a0200>
                SystemCoreClock = ck_src * 6U + ck_src / 2U;
 8001a78:	c21c                	sw	a5,0(a2)
}
 8001a7a:	8082                	ret
            pllsel = (RCU_CFG0 & RCU_CFG0_PLLSEL);
 8001a7c:	435c                	lw	a5,4(a4)
            if(RCU_PLLSRC_IRC8M_DIV2 == pllsel){
 8001a7e:	00f79693          	slli	a3,a5,0xf
 8001a82:	0606db63          	bgez	a3,8001af8 <SystemCoreClockUpdate+0xa8>
                predv0sel = (RCU_CFG1 & RCU_CFG1_PREDV0SEL);
 8001a86:	575c                	lw	a5,44(a4)
                if(RCU_PREDV0SRC_CKPLL1 == predv0sel){
 8001a88:	00f79693          	slli	a3,a5,0xf
 8001a8c:	0606d163          	bgez	a3,8001aee <SystemCoreClockUpdate+0x9e>
                    predv1 = ((RCU_CFG1 & RCU_CFG1_PREDV1) >> 4) + 1U;
 8001a90:	575c                	lw	a5,44(a4)
                    pll1mf = ((RCU_CFG1 & RCU_CFG1_PLL1MF) >> 8) + 2U;
 8001a92:	5758                	lw	a4,44(a4)
                    predv1 = ((RCU_CFG1 & RCU_CFG1_PREDV1) >> 4) + 1U;
 8001a94:	8391                	srli	a5,a5,0x4
 8001a96:	8bbd                	andi	a5,a5,15
                    pll1mf = ((RCU_CFG1 & RCU_CFG1_PLL1MF) >> 8) + 2U;
 8001a98:	8321                	srli	a4,a4,0x8
                    predv1 = ((RCU_CFG1 & RCU_CFG1_PREDV1) >> 4) + 1U;
 8001a9a:	00178693          	addi	a3,a5,1
                    pll1mf = ((RCU_CFG1 & RCU_CFG1_PLL1MF) >> 8) + 2U;
 8001a9e:	00f77793          	andi	a5,a4,15
 8001aa2:	00278713          	addi	a4,a5,2
                    if(17U == pll1mf){
 8001aa6:	47c5                	li	a5,17
 8001aa8:	00f71363          	bne	a4,a5,8001aae <SystemCoreClockUpdate+0x5e>
                        pll1mf = 20U;
 8001aac:	4751                	li	a4,20
                    ck_src = (ck_src / predv1) * pll1mf;
 8001aae:	007a17b7          	lui	a5,0x7a1
 8001ab2:	20078793          	addi	a5,a5,512 # 7a1200 <__stack_size+0x7a0200>
 8001ab6:	02d7d7b3          	divu	a5,a5,a3
 8001aba:	02e787b3          	mul	a5,a5,a4
                predv0 = (RCU_CFG1 & RCU_CFG1_PREDV0) + 1U;
 8001abe:	40021737          	lui	a4,0x40021
 8001ac2:	5758                	lw	a4,44(a4)
 8001ac4:	8b3d                	andi	a4,a4,15
 8001ac6:	0705                	addi	a4,a4,1
                ck_src /= predv0;
 8001ac8:	02e7d7b3          	divu	a5,a5,a4
            pllmf = GET_BITS(RCU_CFG0, 18, 21);
 8001acc:	400216b7          	lui	a3,0x40021
 8001ad0:	42d8                	lw	a4,4(a3)
            if((RCU_CFG0 & RCU_CFG0_PLLMF_4)){
 8001ad2:	42d4                	lw	a3,4(a3)
            pllmf = GET_BITS(RCU_CFG0, 18, 21);
 8001ad4:	8349                	srli	a4,a4,0x12
            if((RCU_CFG0 & RCU_CFG0_PLLMF_4)){
 8001ad6:	00269593          	slli	a1,a3,0x2
            pllmf = GET_BITS(RCU_CFG0, 18, 21);
 8001ada:	8b3d                	andi	a4,a4,15
            if((RCU_CFG0 & RCU_CFG0_PLLMF_4)){
 8001adc:	0205d363          	bgez	a1,8001b02 <SystemCoreClockUpdate+0xb2>
                pllmf |= 0x10U;
 8001ae0:	01076713          	ori	a4,a4,16
                pllmf += 1U;
 8001ae4:	0705                	addi	a4,a4,1
            SystemCoreClock = ck_src * pllmf;
 8001ae6:	02f70733          	mul	a4,a4,a5
 8001aea:	c218                	sw	a4,0(a2)
 8001aec:	8082                	ret
                ck_src = HXTAL_VALUE;
 8001aee:	007a17b7          	lui	a5,0x7a1
 8001af2:	20078793          	addi	a5,a5,512 # 7a1200 <__stack_size+0x7a0200>
 8001af6:	b7e1                	j	8001abe <SystemCoreClockUpdate+0x6e>
                ck_src = IRC8M_VALUE / 2U;
 8001af8:	003d17b7          	lui	a5,0x3d1
 8001afc:	90078793          	addi	a5,a5,-1792 # 3d0900 <__stack_size+0x3cf900>
 8001b00:	b7f1                	j	8001acc <SystemCoreClockUpdate+0x7c>
            if(pllmf >= 15U){
 8001b02:	46bd                	li	a3,15
 8001b04:	fed700e3          	beq	a4,a3,8001ae4 <SystemCoreClockUpdate+0x94>
                pllmf += 2U;
 8001b08:	0709                	addi	a4,a4,2
            if(15U == pllmf){
 8001b0a:	fcd71ee3          	bne	a4,a3,8001ae6 <SystemCoreClockUpdate+0x96>
                SystemCoreClock = ck_src * 6U + ck_src / 2U;
 8001b0e:	4719                	li	a4,6
 8001b10:	02e78733          	mul	a4,a5,a4
 8001b14:	8385                	srli	a5,a5,0x1
 8001b16:	97ba                	add	a5,a5,a4
 8001b18:	b785                	j	8001a78 <SystemCoreClockUpdate+0x28>

08001b1a <_exit>:

#include "stub.h"


void _exit(int code)
{
 8001b1a:	7179                	addi	sp,sp,-48
  const char message[] = "\nProgram has exited with code:";
 8001b1c:	080005b7          	lui	a1,0x8000
{
 8001b20:	d422                	sw	s0,40(sp)
  const char message[] = "\nProgram has exited with code:";
 8001b22:	467d                	li	a2,31
{
 8001b24:	842a                	mv	s0,a0
  const char message[] = "\nProgram has exited with code:";
 8001b26:	29058593          	addi	a1,a1,656 # 8000290 <enable_mcycle_minstret+0x44>
 8001b2a:	850a                	mv	a0,sp
{
 8001b2c:	d606                	sw	ra,44(sp)
  const char message[] = "\nProgram has exited with code:";
 8001b2e:	00005097          	auipc	ra,0x5
 8001b32:	696080e7          	jalr	1686(ra) # 80071c4 <memcpy>

  write(STDERR_FILENO, message, sizeof(message) - 1);
 8001b36:	4679                	li	a2,30
 8001b38:	858a                	mv	a1,sp
 8001b3a:	4509                	li	a0,2
 8001b3c:	17fff097          	auipc	ra,0x17fff
 8001b40:	a04080e7          	jalr	-1532(ra) # 20000540 <write>
  write_hex(STDERR_FILENO, code);
 8001b44:	85a2                	mv	a1,s0
 8001b46:	4509                	li	a0,2
 8001b48:	00000097          	auipc	ra,0x0
 8001b4c:	04c080e7          	jalr	76(ra) # 8001b94 <write_hex>
  write(STDERR_FILENO, "\n", 1);
 8001b50:	080005b7          	lui	a1,0x8000
 8001b54:	4605                	li	a2,1
 8001b56:	2c058593          	addi	a1,a1,704 # 80002c0 <enable_mcycle_minstret+0x74>
 8001b5a:	4509                	li	a0,2
 8001b5c:	17fff097          	auipc	ra,0x17fff
 8001b60:	9e4080e7          	jalr	-1564(ra) # 20000540 <write>

  for (;;);
 8001b64:	a001                	j	8001b64 <_exit+0x4a>

08001b66 <_sbrk>:
{
  extern char _end[];
  extern char _heap_end[];
  static char *curbrk = _end;

  if ((curbrk + incr < _end) || (curbrk + incr > _heap_end))
 8001b66:	20000737          	lui	a4,0x20000
 8001b6a:	4ec70713          	addi	a4,a4,1260 # 200004ec <curbrk.1524>
 8001b6e:	431c                	lw	a5,0(a4)
 8001b70:	200056b7          	lui	a3,0x20005
 8001b74:	60868693          	addi	a3,a3,1544 # 20005608 <_end>
 8001b78:	953e                	add	a0,a0,a5
 8001b7a:	00d56b63          	bltu	a0,a3,8001b90 <_sbrk+0x2a>
 8001b7e:	200076b7          	lui	a3,0x20007
 8001b82:	00068693          	mv	a3,a3
 8001b86:	00a6e563          	bltu	a3,a0,8001b90 <_sbrk+0x2a>
    return NULL - 1;

  curbrk += incr;
 8001b8a:	c308                	sw	a0,0(a4)
  return curbrk - incr;
 8001b8c:	853e                	mv	a0,a5
 8001b8e:	8082                	ret
    return NULL - 1;
 8001b90:	57fd                	li	a5,-1
 8001b92:	bfed                	j	8001b8c <_sbrk+0x26>

08001b94 <write_hex>:

#include <stdint.h>
#include <unistd.h>

void write_hex(int fd, unsigned long int hex)
{
 8001b94:	7179                	addi	sp,sp,-48
 8001b96:	ce4e                	sw	s3,28(sp)
 8001b98:	89ae                	mv	s3,a1
  uint8_t ii;
  uint8_t jj;
  char towrite;
  write(fd , "0x", 2);
 8001b9a:	080005b7          	lui	a1,0x8000
 8001b9e:	4609                	li	a2,2
 8001ba0:	2b058593          	addi	a1,a1,688 # 80002b0 <enable_mcycle_minstret+0x64>
{
 8001ba4:	d422                	sw	s0,40(sp)
 8001ba6:	d226                	sw	s1,36(sp)
 8001ba8:	d04a                	sw	s2,32(sp)
 8001baa:	cc52                	sw	s4,24(sp)
 8001bac:	ca56                	sw	s5,20(sp)
 8001bae:	d606                	sw	ra,44(sp)
 8001bb0:	892a                	mv	s2,a0
  write(fd , "0x", 2);
 8001bb2:	4471                	li	s0,28
 8001bb4:	17fff097          	auipc	ra,0x17fff
 8001bb8:	98c080e7          	jalr	-1652(ra) # 20000540 <write>
  for (ii = sizeof(unsigned long int) * 2 ; ii > 0; ii--) {
    jj = ii - 1;
    uint8_t digit = ((hex & (0xF << (jj*4))) >> (jj*4));
 8001bbc:	4a3d                	li	s4,15
    towrite = digit < 0xA ? ('0' + digit) : ('A' +  (digit - 0xA));
 8001bbe:	4aa5                	li	s5,9
  for (ii = sizeof(unsigned long int) * 2 ; ii > 0; ii--) {
 8001bc0:	54f1                	li	s1,-4
    uint8_t digit = ((hex & (0xF << (jj*4))) >> (jj*4));
 8001bc2:	008a17b3          	sll	a5,s4,s0
 8001bc6:	0137f7b3          	and	a5,a5,s3
 8001bca:	0087d7b3          	srl	a5,a5,s0
 8001bce:	0ff7f793          	andi	a5,a5,255
    towrite = digit < 0xA ? ('0' + digit) : ('A' +  (digit - 0xA));
 8001bd2:	02faec63          	bltu	s5,a5,8001c0a <write_hex+0x76>
 8001bd6:	03078793          	addi	a5,a5,48
 8001bda:	0ff7f793          	andi	a5,a5,255
    write(fd, &towrite, 1);
 8001bde:	4605                	li	a2,1
 8001be0:	00f10593          	addi	a1,sp,15
 8001be4:	854a                	mv	a0,s2
 8001be6:	1471                	addi	s0,s0,-4
    towrite = digit < 0xA ? ('0' + digit) : ('A' +  (digit - 0xA));
 8001be8:	00f107a3          	sb	a5,15(sp)
    write(fd, &towrite, 1);
 8001bec:	17fff097          	auipc	ra,0x17fff
 8001bf0:	954080e7          	jalr	-1708(ra) # 20000540 <write>
  for (ii = sizeof(unsigned long int) * 2 ; ii > 0; ii--) {
 8001bf4:	fc9417e3          	bne	s0,s1,8001bc2 <write_hex+0x2e>
  }
}
 8001bf8:	50b2                	lw	ra,44(sp)
 8001bfa:	5422                	lw	s0,40(sp)
 8001bfc:	5492                	lw	s1,36(sp)
 8001bfe:	5902                	lw	s2,32(sp)
 8001c00:	49f2                	lw	s3,28(sp)
 8001c02:	4a62                	lw	s4,24(sp)
 8001c04:	4ad2                	lw	s5,20(sp)
 8001c06:	6145                	addi	sp,sp,48
 8001c08:	8082                	ret
    towrite = digit < 0xA ? ('0' + digit) : ('A' +  (digit - 0xA));
 8001c0a:	03778793          	addi	a5,a5,55
 8001c0e:	b7f1                	j	8001bda <write_hex+0x46>

08001c10 <get_timer_value>:
}


uint32_t mtime_hi(void)
{
  return *(volatile uint32_t *)(TIMER_CTRL_ADDR + TIMER_MTIME + 4);
 8001c10:	d10007b7          	lui	a5,0xd1000
 8001c14:	43d8                	lw	a4,4(a5)
  return *(volatile uint32_t *)(TIMER_CTRL_ADDR + TIMER_MTIME);
 8001c16:	4388                	lw	a0,0(a5)
  return *(volatile uint32_t *)(TIMER_CTRL_ADDR + TIMER_MTIME + 4);
 8001c18:	43cc                	lw	a1,4(a5)
uint64_t get_timer_value(void)
{
  while (1) {
    uint32_t hi = mtime_hi();
    uint32_t lo = mtime_lo();
    if (hi == mtime_hi())
 8001c1a:	fee59de3          	bne	a1,a4,8001c14 <get_timer_value+0x4>
      return ((uint64_t)hi << 32) | lo;
  }
}
 8001c1e:	8082                	ret

08001c20 <eclic_init>:
{

  typedef volatile uint32_t vuint32_t;

  /* clear cfg register */
  *(volatile uint8_t*)(ECLIC_ADDR_BASE+ECLIC_CFG_OFFSET)=0;
 8001c20:	d20007b7          	lui	a5,0xd2000
 8001c24:	00078023          	sb	zero,0(a5) # d2000000 <_sp+0xb1ff8000>

  /* clear minthresh register */
  *(volatile uint8_t*)(ECLIC_ADDR_BASE+ECLIC_MTH_OFFSET)=0;
 8001c28:	000785a3          	sb	zero,11(a5)

  /* clear all IP/IE/ATTR/CTRL bits for all interrupt sources */
  vuint32_t * ptr;

  vuint32_t * base = (vuint32_t*)(ECLIC_ADDR_BASE + ECLIC_INT_IP_OFFSET);
  vuint32_t * upper = (vuint32_t*)(base + num_irq*4);
 8001c2c:	0512                	slli	a0,a0,0x4
 8001c2e:	d20017b7          	lui	a5,0xd2001
 8001c32:	953e                	add	a0,a0,a5

  for (ptr = base; ptr < upper; ptr=ptr+4){
 8001c34:	00a7e363          	bltu	a5,a0,8001c3a <eclic_init+0x1a>
    *ptr = 0;
  }
}
 8001c38:	8082                	ret
    *ptr = 0;
 8001c3a:	0007a023          	sw	zero,0(a5) # d2001000 <_sp+0xb1ff9000>
  for (ptr = base; ptr < upper; ptr=ptr+4){
 8001c3e:	07c1                	addi	a5,a5,16
 8001c40:	bfd5                	j	8001c34 <eclic_init+0x14>

08001c42 <eclic_enable_interrupt>:

void eclic_enable_interrupt (uint32_t source) {
    *(volatile uint8_t*)(ECLIC_ADDR_BASE+ECLIC_INT_IE_OFFSET+source*4) = 1;
 8001c42:	d20017b7          	lui	a5,0xd2001
 8001c46:	0785                	addi	a5,a5,1
 8001c48:	050a                	slli	a0,a0,0x2
 8001c4a:	953e                	add	a0,a0,a5
 8001c4c:	4785                	li	a5,1
 8001c4e:	00f50023          	sb	a5,0(a0)
}
 8001c52:	8082                	ret

08001c54 <eclic_get_nlbits>:
void eclic_set_cliccfg (uint8_t cliccfg){
  *(volatile uint8_t*)(ECLIC_ADDR_BASE+ECLIC_CFG_OFFSET) = cliccfg;
}

uint8_t eclic_get_cliccfg (void){
  return *(volatile uint8_t*)(ECLIC_ADDR_BASE+ECLIC_CFG_OFFSET);
 8001c54:	d20007b7          	lui	a5,0xd2000
 8001c58:	0007c503          	lbu	a0,0(a5) # d2000000 <_sp+0xb1ff8000>

/* get nlbits */
uint8_t eclic_get_nlbits(void) {
  /* extract nlbits */
  uint8_t nlbits = eclic_get_cliccfg();
  nlbits = (nlbits & ECLIC_CFG_NLBITS_MASK) >> ECLIC_CFG_NLBITS_LSB;
 8001c5c:	8105                	srli	a0,a0,0x1
  return nlbits;
}
 8001c5e:	893d                	andi	a0,a0,15
 8001c60:	8082                	ret

08001c62 <eclic_set_irq_lvl_abs>:
  uint8_t lvl = intctrl << (8-nlbits);

  return lvl;
}

void eclic_set_irq_lvl_abs(uint32_t source, uint8_t lvl_abs) {
 8001c62:	1141                	addi	sp,sp,-16
 8001c64:	c422                	sw	s0,8(sp)
 8001c66:	c226                	sw	s1,4(sp)
 8001c68:	c606                	sw	ra,12(sp)
 8001c6a:	842a                	mv	s0,a0
 8001c6c:	84ae                	mv	s1,a1
  /* extract nlbits */
  uint8_t nlbits = eclic_get_nlbits();
 8001c6e:	00000097          	auipc	ra,0x0
 8001c72:	fe6080e7          	jalr	-26(ra) # 8001c54 <eclic_get_nlbits>
  if (nlbits > ECLICINTCTLBITS) {
    nlbits = ECLICINTCTLBITS;
  }

  /* shift lvl_abs into correct bit position */
  uint8_t lvl = lvl_abs << (8-nlbits);
 8001c76:	4791                	li	a5,4
 8001c78:	4711                	li	a4,4
 8001c7a:	00a7e363          	bltu	a5,a0,8001c80 <eclic_set_irq_lvl_abs+0x1e>
 8001c7e:	872a                	mv	a4,a0
  return *(volatile uint8_t*)(ECLIC_ADDR_BASE+ECLIC_INT_CTRL_OFFSET+source*4);
 8001c80:	d2001537          	lui	a0,0xd2001
 8001c84:	040a                	slli	s0,s0,0x2
 8001c86:	050d                	addi	a0,a0,3
 8001c88:	9522                	add	a0,a0,s0
 8001c8a:	00054783          	lbu	a5,0(a0) # d2001000 <_sp+0xb1ff9000>
  uint8_t lvl = lvl_abs << (8-nlbits);
 8001c8e:	0ff77693          	andi	a3,a4,255
 8001c92:	45a1                	li	a1,8
 
  /* write to clicintctrl */
  uint8_t current_intctrl = eclic_get_intctrl(source);
  /* shift intctrl left to mask off unused bits */
  current_intctrl = current_intctrl << nlbits;
 8001c94:	00e797b3          	sll	a5,a5,a4
  /* shift intctrl into correct bit position */
  current_intctrl = current_intctrl >> nlbits;
 8001c98:	0ff7f793          	andi	a5,a5,255
  uint8_t lvl = lvl_abs << (8-nlbits);
 8001c9c:	8d95                	sub	a1,a1,a3
 8001c9e:	00b494b3          	sll	s1,s1,a1
  current_intctrl = current_intctrl >> nlbits;
 8001ca2:	40e7d7b3          	sra	a5,a5,a4

  eclic_set_intctrl(source, (current_intctrl | lvl));
 8001ca6:	8fc5                	or	a5,a5,s1
 8001ca8:	0ff7f793          	andi	a5,a5,255
  *(volatile uint8_t*)(ECLIC_ADDR_BASE+ECLIC_INT_CTRL_OFFSET+source*4) = intctrl;
 8001cac:	00f50023          	sb	a5,0(a0)
}
 8001cb0:	40b2                	lw	ra,12(sp)
 8001cb2:	4422                	lw	s0,8(sp)
 8001cb4:	4492                	lw	s1,4(sp)
 8001cb6:	0141                	addi	sp,sp,16
 8001cb8:	8082                	ret

08001cba <eclic_set_irq_priority>:

  return lvl_abs;
}

/* sets an interrupt priority based encoding of nlbits and ECLICINTCTLBITS */
uint8_t eclic_set_irq_priority(uint32_t source, uint8_t priority) {
 8001cba:	1101                	addi	sp,sp,-32
 8001cbc:	cc22                	sw	s0,24(sp)
 8001cbe:	c62e                	sw	a1,12(sp)
 8001cc0:	ce06                	sw	ra,28(sp)
 8001cc2:	842a                	mv	s0,a0
    /* extract nlbits */
    uint8_t nlbits = eclic_get_nlbits();
 8001cc4:	00000097          	auipc	ra,0x0
 8001cc8:	f90080e7          	jalr	-112(ra) # 8001c54 <eclic_get_nlbits>
    if (nlbits >= ECLICINTCTLBITS) {
 8001ccc:	478d                	li	a5,3
        nlbits = ECLICINTCTLBITS;
        return 0;
 8001cce:	4581                	li	a1,0
    if (nlbits >= ECLICINTCTLBITS) {
 8001cd0:	02a7e963          	bltu	a5,a0,8001d02 <eclic_set_irq_priority+0x48>
  return *(volatile uint8_t*)(ECLIC_ADDR_BASE+ECLIC_INT_CTRL_OFFSET+source*4);
 8001cd4:	d2001737          	lui	a4,0xd2001
 8001cd8:	040a                	slli	s0,s0,0x2
 8001cda:	070d                	addi	a4,a4,3
 8001cdc:	9722                	add	a4,a4,s0
 8001cde:	00074783          	lbu	a5,0(a4) # d2001000 <_sp+0xb1ff9000>
    }

    /* shift priority into correct bit position */
    priority = priority << (8 - ECLICINTCTLBITS);
 8001ce2:	45b2                	lw	a1,12(sp)

    /* write to eclicintctrl */
    uint8_t current_intctrl = eclic_get_intctrl(source);
    /* shift intctrl right to mask off unused bits */
    current_intctrl = current_intctrl >> (8-nlbits);
 8001ce4:	46a1                	li	a3,8
 8001ce6:	40a68533          	sub	a0,a3,a0
    priority = priority << (8 - ECLICINTCTLBITS);
 8001cea:	0592                	slli	a1,a1,0x4
    current_intctrl = current_intctrl >> (8-nlbits);
 8001cec:	40a7d7b3          	sra	a5,a5,a0
    priority = priority << (8 - ECLICINTCTLBITS);
 8001cf0:	0ff5f593          	andi	a1,a1,255
    /* shift intctrl into correct bit position */
    current_intctrl = current_intctrl << (8-nlbits);
 8001cf4:	00a797b3          	sll	a5,a5,a0

    eclic_set_intctrl(source, (current_intctrl | priority));
 8001cf8:	8fcd                	or	a5,a5,a1
 8001cfa:	0ff7f793          	andi	a5,a5,255
  *(volatile uint8_t*)(ECLIC_ADDR_BASE+ECLIC_INT_CTRL_OFFSET+source*4) = intctrl;
 8001cfe:	00f70023          	sb	a5,0(a4)

    return priority;
}
 8001d02:	40f2                	lw	ra,28(sp)
 8001d04:	4462                	lw	s0,24(sp)
 8001d06:	852e                	mv	a0,a1
 8001d08:	6105                	addi	sp,sp,32
 8001d0a:	8082                	ret

08001d0c <eclic_mode_enable>:
  uint32_t mtvec_value = read_csr(CSR_MTVEC);
  mtvec_value = mtvec_value & 0xFFFFFFC0;
  mtvec_value = mtvec_value | 0x00000003;
  write_csr(CSR_MTVEC,mtvec_value);
#elif defined ( __GNUC__ )
  uint32_t mtvec_value = read_csr(mtvec);
 8001d0c:	305027f3          	csrr	a5,mtvec
  mtvec_value = mtvec_value & 0xFFFFFFC0;
 8001d10:	fc07f793          	andi	a5,a5,-64
  mtvec_value = mtvec_value | 0x00000003;
 8001d14:	0037e793          	ori	a5,a5,3
  write_csr(mtvec,mtvec_value);
 8001d18:	30579073          	csrw	mtvec,a5
#endif

}
 8001d1c:	8082                	ret

08001d1e <handle_nmi>:
#include "riscv_encoding.h"
#include "n200_func.h"

__attribute__((weak)) uintptr_t handle_nmi()
{
  write(1, "nmi\n", 5);
 8001d1e:	080005b7          	lui	a1,0x8000
{
 8001d22:	1141                	addi	sp,sp,-16
  write(1, "nmi\n", 5);
 8001d24:	4615                	li	a2,5
 8001d26:	2b458593          	addi	a1,a1,692 # 80002b4 <enable_mcycle_minstret+0x68>
 8001d2a:	4505                	li	a0,1
{
 8001d2c:	c606                	sw	ra,12(sp)
  write(1, "nmi\n", 5);
 8001d2e:	17fff097          	auipc	ra,0x17fff
 8001d32:	812080e7          	jalr	-2030(ra) # 20000540 <write>
  _exit(1);
 8001d36:	4505                	li	a0,1
 8001d38:	00000097          	auipc	ra,0x0
 8001d3c:	de2080e7          	jalr	-542(ra) # 8001b1a <_exit>

08001d40 <handle_trap>:
  return 0;
}


__attribute__((weak)) uintptr_t handle_trap(uintptr_t mcause, uintptr_t sp)
{
 8001d40:	1141                	addi	sp,sp,-16
  if((mcause & 0xFFF) == 0xFFF) {
 8001d42:	fff54793          	not	a5,a0
{
 8001d46:	c422                	sw	s0,8(sp)
 8001d48:	c606                	sw	ra,12(sp)
  if((mcause & 0xFFF) == 0xFFF) {
 8001d4a:	01479713          	slli	a4,a5,0x14
{
 8001d4e:	842a                	mv	s0,a0
  if((mcause & 0xFFF) == 0xFFF) {
 8001d50:	e709                	bnez	a4,8001d5a <handle_trap+0x1a>
      handle_nmi();
 8001d52:	00000097          	auipc	ra,0x0
 8001d56:	fcc080e7          	jalr	-52(ra) # 8001d1e <handle_nmi>
  }
  write(1, "trap\n", 5);
 8001d5a:	080005b7          	lui	a1,0x8000
 8001d5e:	4615                	li	a2,5
 8001d60:	2bc58593          	addi	a1,a1,700 # 80002bc <enable_mcycle_minstret+0x70>
 8001d64:	4505                	li	a0,1
 8001d66:	17ffe097          	auipc	ra,0x17ffe
 8001d6a:	7da080e7          	jalr	2010(ra) # 20000540 <write>
  //printf("In trap handler, the mcause is %d\n", mcause);
  //printf("In trap handler, the mepc is 0x%x\n", read_csr(mepc));
  //printf("In trap handler, the mtval is 0x%x\n", read_csr(mbadaddr));
  _exit(mcause);
 8001d6e:	8522                	mv	a0,s0
 8001d70:	00000097          	auipc	ra,0x0
 8001d74:	daa080e7          	jalr	-598(ra) # 8001b1a <_exit>

08001d78 <_init>:
#include "debugger.h"
#endif

extern uint32_t disable_mcycle_minstret();
void _init()
{
 8001d78:	1141                	addi	sp,sp,-16
 8001d7a:	c606                	sw	ra,12(sp)
	SystemInit();
 8001d7c:	00000097          	auipc	ra,0x0
 8001d80:	bb8080e7          	jalr	-1096(ra) # 8001934 <SystemInit>

	//ECLIC init
	eclic_init(ECLIC_NUM_INTERRUPTS);
 8001d84:	05700513          	li	a0,87
 8001d88:	00000097          	auipc	ra,0x0
 8001d8c:	e98080e7          	jalr	-360(ra) # 8001c20 <eclic_init>
	eclic_mode_enable();
 8001d90:	00000097          	auipc	ra,0x0
 8001d94:	f7c080e7          	jalr	-132(ra) # 8001d0c <eclic_mode_enable>
#ifdef USE_SOFTWARE_DEBUGGER
	dbg_init();
#endif
	

}
 8001d98:	40b2                	lw	ra,12(sp)
 8001d9a:	0141                	addi	sp,sp,16
	disable_mcycle_minstret();
 8001d9c:	ffffe317          	auipc	t1,0xffffe
 8001da0:	4aa30067          	jr	1194(t1) # 8000246 <disable_mcycle_minstret>

08001da4 <_fini>:

void _fini()
{
}
 8001da4:	8082                	ret

08001da6 <dma_config>:

    timer_enable(TIMER0);
}

void dma_config()
{
 8001da6:	7179                	addi	sp,sp,-48
	
    /* ADC_DMA_channel configuration */
    dma_parameter_struct dma_data_parameter;
    rcu_periph_clock_enable(RCU_DMA0); //Ändra till DMA1 om möjligt
 8001da8:	50000513          	li	a0,1280
{
 8001dac:	d606                	sw	ra,44(sp)
    rcu_periph_clock_enable(RCU_DMA0); //Ändra till DMA1 om möjligt
 8001dae:	fffff097          	auipc	ra,0xfffff
 8001db2:	2e2080e7          	jalr	738(ra) # 8001090 <rcu_periph_clock_enable>
    /* ADC DMA_channel configuration */
    dma_deinit(DMA0, DMA_CH0);
 8001db6:	4581                	li	a1,0
 8001db8:	40020537          	lui	a0,0x40020
 8001dbc:	fffff097          	auipc	ra,0xfffff
 8001dc0:	092080e7          	jalr	146(ra) # 8000e4e <dma_deinit>
    
    /* initialize DMA data mode */
    dma_data_parameter.periph_addr  = (uint32_t)(&ADC_RDATA(ADC0));
 8001dc4:	400127b7          	lui	a5,0x40012
 8001dc8:	44c78793          	addi	a5,a5,1100 # 4001244c <_sp+0x2000a44c>
 8001dcc:	c23e                	sw	a5,4(sp)
    dma_data_parameter.periph_inc   = DMA_PERIPH_INCREASE_DISABLE;
    dma_data_parameter.memory_addr  = (uint32_t)(&sample_buffer);
    dma_data_parameter.memory_inc   = DMA_MEMORY_INCREASE_ENABLE;
    dma_data_parameter.periph_width = DMA_PERIPHERAL_WIDTH_16BIT;
    dma_data_parameter.memory_width = DMA_MEMORY_WIDTH_16BIT;  
 8001dce:	40000713          	li	a4,1024
    dma_data_parameter.memory_addr  = (uint32_t)(&sample_buffer);
 8001dd2:	200017b7          	lui	a5,0x20001
    dma_data_parameter.memory_width = DMA_MEMORY_WIDTH_16BIT;  
 8001dd6:	c83a                	sw	a4,16(sp)
    dma_data_parameter.memory_addr  = (uint32_t)(&sample_buffer);
 8001dd8:	5e078793          	addi	a5,a5,1504 # 200015e0 <sample_buffer>
    dma_data_parameter.direction    = DMA_PERIPHERAL_TO_MEMORY;
    dma_data_parameter.number       = 8;
 8001ddc:	4721                	li	a4,8
    dma_data_parameter.priority     = DMA_PRIORITY_HIGH;
    dma_init(DMA0, DMA_CH0, &dma_data_parameter);
 8001dde:	0050                	addi	a2,sp,4
    dma_data_parameter.memory_addr  = (uint32_t)(&sample_buffer);
 8001de0:	c63e                	sw	a5,12(sp)
    dma_data_parameter.number       = 8;
 8001de2:	ca3a                	sw	a4,20(sp)
    dma_data_parameter.periph_width = DMA_PERIPHERAL_WIDTH_16BIT;
 8001de4:	10000793          	li	a5,256
    dma_data_parameter.priority     = DMA_PRIORITY_HIGH;
 8001de8:	6709                	lui	a4,0x2
    dma_init(DMA0, DMA_CH0, &dma_data_parameter);
 8001dea:	4581                	li	a1,0
 8001dec:	40020537          	lui	a0,0x40020
    dma_data_parameter.periph_width = DMA_PERIPHERAL_WIDTH_16BIT;
 8001df0:	c43e                	sw	a5,8(sp)
    dma_data_parameter.priority     = DMA_PRIORITY_HIGH;
 8001df2:	cc3a                	sw	a4,24(sp)
    dma_data_parameter.periph_inc   = DMA_PERIPH_INCREASE_DISABLE;
 8001df4:	00f11e23          	sh	a5,28(sp)
    dma_data_parameter.direction    = DMA_PERIPHERAL_TO_MEMORY;
 8001df8:	00010f23          	sb	zero,30(sp)
    dma_init(DMA0, DMA_CH0, &dma_data_parameter);
 8001dfc:	fffff097          	auipc	ra,0xfffff
 8001e00:	096080e7          	jalr	150(ra) # 8000e92 <dma_init>
    dma_circulation_enable(DMA0, DMA_CH0);
 8001e04:	4581                	li	a1,0
 8001e06:	40020537          	lui	a0,0x40020
 8001e0a:	fffff097          	auipc	ra,0xfffff
 8001e0e:	114080e7          	jalr	276(ra) # 8000f1e <dma_circulation_enable>
    //dma_interrupt_enable(DMA0, DMA_CH0, DMA_INT_FLAG_FTF);
    /* enable DMA channel */
    dma_channel_enable(DMA0, DMA_CH0);
 8001e12:	4581                	li	a1,0
 8001e14:	40020537          	lui	a0,0x40020
 8001e18:	fffff097          	auipc	ra,0xfffff
 8001e1c:	152080e7          	jalr	338(ra) # 8000f6a <dma_channel_enable>
}
 8001e20:	50b2                	lw	ra,44(sp)
 8001e22:	6145                	addi	sp,sp,48
 8001e24:	8082                	ret

08001e26 <eclic_mtip_handler>:
       case USART0_IRQn  : pu0tbeisr=pISR;
   }
}

__attribute__( ( interrupt ) )
void eclic_mtip_handler( void ) {               // c-wrapper saves environment...
 8001e26:	7139                	addi	sp,sp,-64
 8001e28:	cc3e                	sw	a5,24(sp)
  (*pmtisr)();                                  // ...Call int's ISR...
 8001e2a:	200007b7          	lui	a5,0x20000
 8001e2e:	5007a783          	lw	a5,1280(a5) # 20000500 <__bss_start>
void eclic_mtip_handler( void ) {               // c-wrapper saves environment...
 8001e32:	de06                	sw	ra,60(sp)
 8001e34:	dc16                	sw	t0,56(sp)
 8001e36:	da1a                	sw	t1,52(sp)
 8001e38:	d81e                	sw	t2,48(sp)
 8001e3a:	d62a                	sw	a0,44(sp)
 8001e3c:	d42e                	sw	a1,40(sp)
 8001e3e:	d232                	sw	a2,36(sp)
 8001e40:	d036                	sw	a3,32(sp)
 8001e42:	ce3a                	sw	a4,28(sp)
 8001e44:	ca42                	sw	a6,20(sp)
 8001e46:	c846                	sw	a7,16(sp)
 8001e48:	c672                	sw	t3,12(sp)
 8001e4a:	c476                	sw	t4,8(sp)
 8001e4c:	c27a                	sw	t5,4(sp)
 8001e4e:	c07e                	sw	t6,0(sp)
  (*pmtisr)();                                  // ...Call int's ISR...
 8001e50:	9782                	jalr	a5
}                                               // and restores environment (also (G)IE)!
 8001e52:	50f2                	lw	ra,60(sp)
 8001e54:	52e2                	lw	t0,56(sp)
 8001e56:	5352                	lw	t1,52(sp)
 8001e58:	53c2                	lw	t2,48(sp)
 8001e5a:	5532                	lw	a0,44(sp)
 8001e5c:	55a2                	lw	a1,40(sp)
 8001e5e:	5612                	lw	a2,36(sp)
 8001e60:	5682                	lw	a3,32(sp)
 8001e62:	4772                	lw	a4,28(sp)
 8001e64:	47e2                	lw	a5,24(sp)
 8001e66:	4852                	lw	a6,20(sp)
 8001e68:	48c2                	lw	a7,16(sp)
 8001e6a:	4e32                	lw	t3,12(sp)
 8001e6c:	4ea2                	lw	t4,8(sp)
 8001e6e:	4f12                	lw	t5,4(sp)
 8001e70:	4f82                	lw	t6,0(sp)
 8001e72:	6121                	addi	sp,sp,64
 8001e74:	30200073          	mret

08001e78 <USART0_IRQHandler>:

__attribute__( ( interrupt ) )                  // !!! ALL USART0 INT GOES HERE !!!
void USART0_IRQHandler( void ) {                // c-wrapper saves environment...
 8001e78:	7139                	addi	sp,sp,-64
 8001e7a:	cc3e                	sw	a5,24(sp)
  (*pu0tbeisr)();                               // ...Call int's ISR...
 8001e7c:	200007b7          	lui	a5,0x20000
 8001e80:	5047a783          	lw	a5,1284(a5) # 20000504 <pu0tbeisr>
void USART0_IRQHandler( void ) {                // c-wrapper saves environment...
 8001e84:	de06                	sw	ra,60(sp)
 8001e86:	dc16                	sw	t0,56(sp)
 8001e88:	da1a                	sw	t1,52(sp)
 8001e8a:	d81e                	sw	t2,48(sp)
 8001e8c:	d62a                	sw	a0,44(sp)
 8001e8e:	d42e                	sw	a1,40(sp)
 8001e90:	d232                	sw	a2,36(sp)
 8001e92:	d036                	sw	a3,32(sp)
 8001e94:	ce3a                	sw	a4,28(sp)
 8001e96:	ca42                	sw	a6,20(sp)
 8001e98:	c846                	sw	a7,16(sp)
 8001e9a:	c672                	sw	t3,12(sp)
 8001e9c:	c476                	sw	t4,8(sp)
 8001e9e:	c27a                	sw	t5,4(sp)
 8001ea0:	c07e                	sw	t6,0(sp)
  (*pu0tbeisr)();                               // ...Call int's ISR...
 8001ea2:	9782                	jalr	a5
}                                               // and restores environment (also (G)IE)!
 8001ea4:	50f2                	lw	ra,60(sp)
 8001ea6:	52e2                	lw	t0,56(sp)
 8001ea8:	5352                	lw	t1,52(sp)
 8001eaa:	53c2                	lw	t2,48(sp)
 8001eac:	5532                	lw	a0,44(sp)
 8001eae:	55a2                	lw	a1,40(sp)
 8001eb0:	5612                	lw	a2,36(sp)
 8001eb2:	5682                	lw	a3,32(sp)
 8001eb4:	4772                	lw	a4,28(sp)
 8001eb6:	47e2                	lw	a5,24(sp)
 8001eb8:	4852                	lw	a6,20(sp)
 8001eba:	48c2                	lw	a7,16(sp)
 8001ebc:	4e32                	lw	t3,12(sp)
 8001ebe:	4ea2                	lw	t4,8(sp)
 8001ec0:	4f12                	lw	t5,4(sp)
 8001ec2:	4f82                	lw	t6,0(sp)
 8001ec4:	6121                	addi	sp,sp,64
 8001ec6:	30200073          	mret

08001eca <ld_dword>:
static DWORD ld_dword (const BYTE* ptr)	/* Load a 4-byte little-endian word */
{
	DWORD rv;

	rv = ptr[3];
	rv = rv << 8 | ptr[2];
 8001eca:	00354783          	lbu	a5,3(a0) # 40020003 <_sp+0x20018003>
 8001ece:	00254703          	lbu	a4,2(a0)
 8001ed2:	07a2                	slli	a5,a5,0x8
 8001ed4:	8fd9                	or	a5,a5,a4
	rv = rv << 8 | ptr[1];
 8001ed6:	00154703          	lbu	a4,1(a0)
 8001eda:	07a2                	slli	a5,a5,0x8
	rv = rv << 8 | ptr[0];
 8001edc:	00054503          	lbu	a0,0(a0)
	rv = rv << 8 | ptr[1];
 8001ee0:	8fd9                	or	a5,a5,a4
	rv = rv << 8 | ptr[0];
 8001ee2:	07a2                	slli	a5,a5,0x8
	return rv;
}
 8001ee4:	8d5d                	or	a0,a0,a5
 8001ee6:	8082                	ret

08001ee8 <st_dword>:
	*ptr++ = (BYTE)val;
}

static void st_dword (BYTE* ptr, DWORD val)	/* Store a 4-byte word in little-endian */
{
	*ptr++ = (BYTE)val; val >>= 8;
 8001ee8:	0085d793          	srli	a5,a1,0x8
 8001eec:	00b50023          	sb	a1,0(a0)
	*ptr++ = (BYTE)val; val >>= 8;
 8001ef0:	00f500a3          	sb	a5,1(a0)
 8001ef4:	0105d793          	srli	a5,a1,0x10
	*ptr++ = (BYTE)val; val >>= 8;
 8001ef8:	81e1                	srli	a1,a1,0x18
 8001efa:	00f50123          	sb	a5,2(a0)
	*ptr++ = (BYTE)val;
 8001efe:	00b501a3          	sb	a1,3(a0)
}
 8001f02:	8082                	ret

08001f04 <mem_cmp>:
}


/* Compare memory block */
static int mem_cmp (const void* dst, const void* src, UINT cnt)	/* ZR:same, NZ:different */
{
 8001f04:	87aa                	mv	a5,a0
	const BYTE *d = (const BYTE *)dst, *s = (const BYTE *)src;
	int r = 0;
 8001f06:	962a                	add	a2,a2,a0

	do {
		r = *d++ - *s++;
 8001f08:	0785                	addi	a5,a5,1
 8001f0a:	0585                	addi	a1,a1,1
 8001f0c:	fff7c503          	lbu	a0,-1(a5)
 8001f10:	fff5c703          	lbu	a4,-1(a1)
 8001f14:	8d19                	sub	a0,a0,a4
	} while (--cnt && r == 0);
 8001f16:	00c78363          	beq	a5,a2,8001f1c <mem_cmp+0x18>
 8001f1a:	d57d                	beqz	a0,8001f08 <mem_cmp+0x4>

	return r;
}
 8001f1c:	8082                	ret

08001f1e <clst2sect>:
	FATFS* fs,		/* Filesystem object */
	DWORD clst		/* Cluster# to be converted */
)
{
	clst -= 2;		/* Cluster number is origin from 2 */
	if (clst >= fs->n_fatent - 2) return 0;		/* Is it invalid cluster number? */
 8001f1e:	4958                	lw	a4,20(a0)
	clst -= 2;		/* Cluster number is origin from 2 */
 8001f20:	15f9                	addi	a1,a1,-2
	if (clst >= fs->n_fatent - 2) return 0;		/* Is it invalid cluster number? */
 8001f22:	1779                	addi	a4,a4,-2
 8001f24:	00e5f963          	bgeu	a1,a4,8001f36 <clst2sect+0x18>
	return fs->database + fs->csize * clst;		/* Start sector number of the cluster */
 8001f28:	00a55783          	lhu	a5,10(a0)
 8001f2c:	5508                	lw	a0,40(a0)
 8001f2e:	02b787b3          	mul	a5,a5,a1
 8001f32:	953e                	add	a0,a0,a5
 8001f34:	8082                	ret
	if (clst >= fs->n_fatent - 2) return 0;		/* Is it invalid cluster number? */
 8001f36:	4501                	li	a0,0
}
 8001f38:	8082                	ret

08001f3a <get_ldnumber>:
#if FF_STR_VOLUME_ID		/* Find string volume ID */
	const char *sp;
	char c;
#endif

	tt = tp = *path;
 8001f3a:	411c                	lw	a5,0(a0)
	if (!tp) return vol;	/* Invalid path name? */
 8001f3c:	c38d                	beqz	a5,8001f5e <get_ldnumber+0x24>
 8001f3e:	873e                	mv	a4,a5
	do tc = *tt++; while ((UINT)tc >= (FF_USE_LFN ? ' ' : '!') && tc != ':');	/* Find a colon in the path */
 8001f40:	02000593          	li	a1,32
 8001f44:	03a00613          	li	a2,58
 8001f48:	0705                	addi	a4,a4,1
 8001f4a:	fff74683          	lbu	a3,-1(a4) # 1fff <__stack_size+0xfff>
 8001f4e:	02d5f263          	bgeu	a1,a3,8001f72 <get_ldnumber+0x38>
 8001f52:	fec69be3          	bne	a3,a2,8001f48 <get_ldnumber+0xe>

	if (tc == ':') {	/* DOS/Windows style volume ID? */
		i = FF_VOLUMES;
		if (IsDigit(*tp) && tp + 2 == tt) {	/* Is there a numeric volume ID + colon? */
 8001f56:	00278693          	addi	a3,a5,2
 8001f5a:	00d70463          	beq	a4,a3,8001f62 <get_ldnumber+0x28>
	if (!tp) return vol;	/* Invalid path name? */
 8001f5e:	57fd                	li	a5,-1
 8001f60:	a811                	j	8001f74 <get_ldnumber+0x3a>
					if (IsLower(tc)) tc -= 0x20;
				} while (c && (TCHAR)c == tc);
			} while ((c || tp != tt) && ++i < FF_VOLUMES);	/* Repeat for each id until pattern match */
		}
#endif
		if (i < FF_VOLUMES) {	/* If a volume ID is found, get the drive number and strip it */
 8001f62:	0007c603          	lbu	a2,0(a5)
 8001f66:	03000693          	li	a3,48
	if (!tp) return vol;	/* Invalid path name? */
 8001f6a:	57fd                	li	a5,-1
		if (i < FF_VOLUMES) {	/* If a volume ID is found, get the drive number and strip it */
 8001f6c:	00d61463          	bne	a2,a3,8001f74 <get_ldnumber+0x3a>
			vol = i;		/* Drive number */
			*path = tt;		/* Snip the drive prefix off */
 8001f70:	c118                	sw	a4,0(a0)
#if FF_FS_RPATH != 0
	vol = CurrVol;	/* Default drive is current drive */
#else
	vol = 0;		/* Default drive is 0 */
#endif
	return vol;		/* Return the default drive */
 8001f72:	4781                	li	a5,0
}
 8001f74:	853e                	mv	a0,a5
 8001f76:	8082                	ret

08001f78 <validate>:
)
{
	FRESULT res = FR_INVALID_OBJECT;


	if (obj && obj->fs && obj->fs->fs_type && obj->id == obj->fs->id) {	/* Test if the object is valid */
 8001f78:	ed01                	bnez	a0,8001f90 <validate+0x18>
		if (!(disk_status(obj->fs->pdrv) & STA_NOINIT)) { /* Test if the phsical drive is kept initialized */
			res = FR_OK;
		}
#endif
	}
	*rfs = (res == FR_OK) ? obj->fs : 0;	/* Corresponding filesystem object */
 8001f7a:	4781                	li	a5,0
	FRESULT res = FR_INVALID_OBJECT;
 8001f7c:	4525                	li	a0,9
	*rfs = (res == FR_OK) ? obj->fs : 0;	/* Corresponding filesystem object */
 8001f7e:	c19c                	sw	a5,0(a1)
	return res;
}
 8001f80:	8082                	ret
	FRESULT res = FR_INVALID_OBJECT;
 8001f82:	4525                	li	a0,9
	*rfs = (res == FR_OK) ? obj->fs : 0;	/* Corresponding filesystem object */
 8001f84:	4781                	li	a5,0
}
 8001f86:	40f2                	lw	ra,28(sp)
 8001f88:	4462                	lw	s0,24(sp)
	*rfs = (res == FR_OK) ? obj->fs : 0;	/* Corresponding filesystem object */
 8001f8a:	c19c                	sw	a5,0(a1)
}
 8001f8c:	6105                	addi	sp,sp,32
 8001f8e:	8082                	ret
	if (obj && obj->fs && obj->fs->fs_type && obj->id == obj->fs->id) {	/* Test if the object is valid */
 8001f90:	411c                	lw	a5,0(a0)
{
 8001f92:	1101                	addi	sp,sp,-32
 8001f94:	cc22                	sw	s0,24(sp)
 8001f96:	ce06                	sw	ra,28(sp)
 8001f98:	842a                	mv	s0,a0
	if (obj && obj->fs && obj->fs->fs_type && obj->id == obj->fs->id) {	/* Test if the object is valid */
 8001f9a:	d7e5                	beqz	a5,8001f82 <validate+0xa>
 8001f9c:	0007c703          	lbu	a4,0(a5)
 8001fa0:	d36d                	beqz	a4,8001f82 <validate+0xa>
 8001fa2:	00455683          	lhu	a3,4(a0)
 8001fa6:	0067d703          	lhu	a4,6(a5)
 8001faa:	fce69ce3          	bne	a3,a4,8001f82 <validate+0xa>
		if (!(disk_status(obj->fs->pdrv) & STA_NOINIT)) { /* Test if the phsical drive is kept initialized */
 8001fae:	0017c503          	lbu	a0,1(a5)
 8001fb2:	c62e                	sw	a1,12(sp)
 8001fb4:	00002097          	auipc	ra,0x2
 8001fb8:	9e0080e7          	jalr	-1568(ra) # 8003994 <disk_status>
 8001fbc:	8905                	andi	a0,a0,1
 8001fbe:	45b2                	lw	a1,12(sp)
 8001fc0:	f169                	bnez	a0,8001f82 <validate+0xa>
	*rfs = (res == FR_OK) ? obj->fs : 0;	/* Corresponding filesystem object */
 8001fc2:	401c                	lw	a5,0(s0)
 8001fc4:	b7c9                	j	8001f86 <validate+0xe>

08001fc6 <mem_cpy.part.0>:
static void mem_cpy (void* dst, const void* src, UINT cnt)
 8001fc6:	4781                	li	a5,0
			*d++ = *s++;
 8001fc8:	00f58733          	add	a4,a1,a5
 8001fcc:	00074683          	lbu	a3,0(a4)
 8001fd0:	00f50733          	add	a4,a0,a5
 8001fd4:	0785                	addi	a5,a5,1
 8001fd6:	00d70023          	sb	a3,0(a4)
		} while (--cnt);
 8001fda:	fef617e3          	bne	a2,a5,8001fc8 <mem_cpy.part.0+0x2>
}
 8001fde:	8082                	ret

08001fe0 <ld_clust.isra.1>:
	rv = rv << 8 | ptr[0];
 8001fe0:	01b5c783          	lbu	a5,27(a1)
 8001fe4:	01a5c703          	lbu	a4,26(a1)
 8001fe8:	07a2                	slli	a5,a5,0x8
	cl = ld_word(dir + DIR_FstClusLO);
 8001fea:	8fd9                	or	a5,a5,a4
	if (fs->fs_type == FS_FAT32) {
 8001fec:	470d                	li	a4,3
 8001fee:	00e51a63          	bne	a0,a4,8002002 <ld_clust.isra.1+0x22>
	rv = rv << 8 | ptr[0];
 8001ff2:	0155c703          	lbu	a4,21(a1)
 8001ff6:	0145c683          	lbu	a3,20(a1)
 8001ffa:	0722                	slli	a4,a4,0x8
		cl |= (DWORD)ld_word(dir + DIR_FstClusHI) << 16;
 8001ffc:	8f55                	or	a4,a4,a3
 8001ffe:	0742                	slli	a4,a4,0x10
 8002000:	8fd9                	or	a5,a5,a4
}
 8002002:	853e                	mv	a0,a5
 8002004:	8082                	ret

08002006 <sync_window.part.3>:
static FRESULT sync_window (	/* Returns FR_OK or FR_DISK_ERR */
 8002006:	1141                	addi	sp,sp,-16
 8002008:	c422                	sw	s0,8(sp)
 800200a:	c226                	sw	s1,4(sp)
 800200c:	c04a                	sw	s2,0(sp)
 800200e:	c606                	sw	ra,12(sp)
		if (disk_write(fs->pdrv, fs->win, fs->winsect, 1) == RES_OK) {	/* Write back the window */
 8002010:	03050913          	addi	s2,a0,48
 8002014:	5550                	lw	a2,44(a0)
static FRESULT sync_window (	/* Returns FR_OK or FR_DISK_ERR */
 8002016:	842a                	mv	s0,a0
		if (disk_write(fs->pdrv, fs->win, fs->winsect, 1) == RES_OK) {	/* Write back the window */
 8002018:	00154503          	lbu	a0,1(a0)
 800201c:	4685                	li	a3,1
 800201e:	85ca                	mv	a1,s2
 8002020:	00002097          	auipc	ra,0x2
 8002024:	a2a080e7          	jalr	-1494(ra) # 8003a4a <disk_write>
			res = FR_DISK_ERR;
 8002028:	4485                	li	s1,1
		if (disk_write(fs->pdrv, fs->win, fs->winsect, 1) == RES_OK) {	/* Write back the window */
 800202a:	e90d                	bnez	a0,800205c <sync_window.part.3+0x56>
			if (fs->winsect - fs->fatbase < fs->fsize) {	/* Is it in the 1st FAT? */
 800202c:	5450                	lw	a2,44(s0)
 800202e:	501c                	lw	a5,32(s0)
 8002030:	4c18                	lw	a4,24(s0)
			fs->wflag = 0;	/* Clear window dirty flag */
 8002032:	000401a3          	sb	zero,3(s0)
			if (fs->winsect - fs->fatbase < fs->fsize) {	/* Is it in the 1st FAT? */
 8002036:	40f607b3          	sub	a5,a2,a5
 800203a:	84aa                	mv	s1,a0
 800203c:	02e7f063          	bgeu	a5,a4,800205c <sync_window.part.3+0x56>
				if (fs->n_fats == 2) disk_write(fs->pdrv, fs->win, fs->winsect + fs->fsize, 1);	/* Reflect it to 2nd FAT if needed */
 8002040:	00244683          	lbu	a3,2(s0)
 8002044:	4789                	li	a5,2
 8002046:	00f69b63          	bne	a3,a5,800205c <sync_window.part.3+0x56>
 800204a:	00144503          	lbu	a0,1(s0)
 800204e:	4685                	li	a3,1
 8002050:	963a                	add	a2,a2,a4
 8002052:	85ca                	mv	a1,s2
 8002054:	00002097          	auipc	ra,0x2
 8002058:	9f6080e7          	jalr	-1546(ra) # 8003a4a <disk_write>
}
 800205c:	40b2                	lw	ra,12(sp)
 800205e:	4422                	lw	s0,8(sp)
 8002060:	8526                	mv	a0,s1
 8002062:	4902                	lw	s2,0(sp)
 8002064:	4492                	lw	s1,4(sp)
 8002066:	0141                	addi	sp,sp,16
 8002068:	8082                	ret

0800206a <move_window>:
	if (sector != fs->winsect) {	/* Window offset changed? */
 800206a:	555c                	lw	a5,44(a0)
 800206c:	04b78463          	beq	a5,a1,80020b4 <move_window+0x4a>
{
 8002070:	1141                	addi	sp,sp,-16
 8002072:	c422                	sw	s0,8(sp)
 8002074:	c226                	sw	s1,4(sp)
 8002076:	c606                	sw	ra,12(sp)
	if (fs->wflag) {	/* Is the disk access window dirty */
 8002078:	00354783          	lbu	a5,3(a0)
 800207c:	842a                	mv	s0,a0
 800207e:	84ae                	mv	s1,a1
 8002080:	e385                	bnez	a5,80020a0 <move_window+0x36>
			if (disk_read(fs->pdrv, fs->win, sector, 1) != RES_OK) {
 8002082:	00144503          	lbu	a0,1(s0)
 8002086:	4685                	li	a3,1
 8002088:	8626                	mv	a2,s1
 800208a:	03040593          	addi	a1,s0,48
 800208e:	00002097          	auipc	ra,0x2
 8002092:	91a080e7          	jalr	-1766(ra) # 80039a8 <disk_read>
 8002096:	c119                	beqz	a0,800209c <move_window+0x32>
				res = FR_DISK_ERR;
 8002098:	4505                	li	a0,1
				sector = 0xFFFFFFFF;	/* Invalidate window if read data is not valid */
 800209a:	54fd                	li	s1,-1
			fs->winsect = sector;
 800209c:	d444                	sw	s1,44(s0)
	return res;
 800209e:	a031                	j	80020aa <move_window+0x40>
 80020a0:	00000097          	auipc	ra,0x0
 80020a4:	f66080e7          	jalr	-154(ra) # 8002006 <sync_window.part.3>
		if (res == FR_OK) {			/* Fill sector window with new data */
 80020a8:	dd69                	beqz	a0,8002082 <move_window+0x18>
}
 80020aa:	40b2                	lw	ra,12(sp)
 80020ac:	4422                	lw	s0,8(sp)
 80020ae:	4492                	lw	s1,4(sp)
 80020b0:	0141                	addi	sp,sp,16
 80020b2:	8082                	ret
	FRESULT res = FR_OK;
 80020b4:	4501                	li	a0,0
}
 80020b6:	8082                	ret

080020b8 <check_fs>:
{
 80020b8:	1141                	addi	sp,sp,-16
 80020ba:	c422                	sw	s0,8(sp)
 80020bc:	c606                	sw	ra,12(sp)
	fs->wflag = 0; fs->winsect = 0xFFFFFFFF;		/* Invaidate window */
 80020be:	57fd                	li	a5,-1
 80020c0:	d55c                	sw	a5,44(a0)
 80020c2:	000501a3          	sb	zero,3(a0)
{
 80020c6:	842a                	mv	s0,a0
	if (move_window(fs, sect) != FR_OK) return 4;	/* Load boot record */
 80020c8:	00000097          	auipc	ra,0x0
 80020cc:	fa2080e7          	jalr	-94(ra) # 800206a <move_window>
 80020d0:	4791                	li	a5,4
 80020d2:	e53d                	bnez	a0,8002140 <check_fs+0x88>
	rv = rv << 8 | ptr[0];
 80020d4:	22f44703          	lbu	a4,559(s0)
 80020d8:	22e44783          	lbu	a5,558(s0)
	if (ld_word(fs->win + BS_55AA) != 0xAA55) return 3;	/* Check boot record signature (always here regardless of the sector size) */
 80020dc:	76ed                	lui	a3,0xffffb
	rv = rv << 8 | ptr[0];
 80020de:	0722                	slli	a4,a4,0x8
 80020e0:	8f5d                	or	a4,a4,a5
	if (ld_word(fs->win + BS_55AA) != 0xAA55) return 3;	/* Check boot record signature (always here regardless of the sector size) */
 80020e2:	0742                	slli	a4,a4,0x10
 80020e4:	8741                	srai	a4,a4,0x10
 80020e6:	a5568693          	addi	a3,a3,-1451 # ffffaa55 <_sp+0xdfff2a55>
 80020ea:	478d                	li	a5,3
 80020ec:	04d71a63          	bne	a4,a3,8002140 <check_fs+0x88>
	if (fs->win[BS_JmpBoot] == 0xE9 || fs->win[BS_JmpBoot] == 0xEB || fs->win[BS_JmpBoot] == 0xE8) {	/* Valid JumpBoot code? */
 80020f0:	03044783          	lbu	a5,48(s0)
 80020f4:	0eb00713          	li	a4,235
 80020f8:	00e78963          	beq	a5,a4,800210a <check_fs+0x52>
 80020fc:	07e1                	addi	a5,a5,24
 80020fe:	0ff7f713          	andi	a4,a5,255
 8002102:	4685                	li	a3,1
	return 2;	/* Valid BS but not FAT */
 8002104:	4789                	li	a5,2
	if (fs->win[BS_JmpBoot] == 0xE9 || fs->win[BS_JmpBoot] == 0xEB || fs->win[BS_JmpBoot] == 0xE8) {	/* Valid JumpBoot code? */
 8002106:	02e6ed63          	bltu	a3,a4,8002140 <check_fs+0x88>
		if (!mem_cmp(fs->win + BS_FilSysType, "FAT", 3)) return 0;		/* Is it an FAT VBR? */
 800210a:	080005b7          	lui	a1,0x8000
 800210e:	460d                	li	a2,3
 8002110:	2c458593          	addi	a1,a1,708 # 80002c4 <enable_mcycle_minstret+0x78>
 8002114:	06640513          	addi	a0,s0,102
 8002118:	00000097          	auipc	ra,0x0
 800211c:	dec080e7          	jalr	-532(ra) # 8001f04 <mem_cmp>
		if (!mem_cmp(fs->win + BS_FilSysType32, "FAT32", 5)) return 0;	/* Is it an FAT32 VBR? */
 8002120:	4781                	li	a5,0
		if (!mem_cmp(fs->win + BS_FilSysType, "FAT", 3)) return 0;		/* Is it an FAT VBR? */
 8002122:	cd19                	beqz	a0,8002140 <check_fs+0x88>
		if (!mem_cmp(fs->win + BS_FilSysType32, "FAT32", 5)) return 0;	/* Is it an FAT32 VBR? */
 8002124:	080005b7          	lui	a1,0x8000
 8002128:	4615                	li	a2,5
 800212a:	2c858593          	addi	a1,a1,712 # 80002c8 <enable_mcycle_minstret+0x7c>
 800212e:	08240513          	addi	a0,s0,130
 8002132:	00000097          	auipc	ra,0x0
 8002136:	dd2080e7          	jalr	-558(ra) # 8001f04 <mem_cmp>
 800213a:	00a037b3          	snez	a5,a0
 800213e:	0786                	slli	a5,a5,0x1
}
 8002140:	40b2                	lw	ra,12(sp)
 8002142:	4422                	lw	s0,8(sp)
 8002144:	853e                	mv	a0,a5
 8002146:	0141                	addi	sp,sp,16
 8002148:	8082                	ret

0800214a <find_volume>:
{
 800214a:	7139                	addi	sp,sp,-64
 800214c:	d84a                	sw	s2,48(sp)
 800214e:	de06                	sw	ra,60(sp)
 8002150:	dc22                	sw	s0,56(sp)
 8002152:	da26                	sw	s1,52(sp)
 8002154:	d64e                	sw	s3,44(sp)
 8002156:	d452                	sw	s4,40(sp)
 8002158:	d256                	sw	s5,36(sp)
 800215a:	d05a                	sw	s6,32(sp)
	*rfs = 0;
 800215c:	0005a023          	sw	zero,0(a1)
{
 8002160:	8932                	mv	s2,a2
	*rfs = 0;
 8002162:	c62e                	sw	a1,12(sp)
	vol = get_ldnumber(path);
 8002164:	00000097          	auipc	ra,0x0
 8002168:	dd6080e7          	jalr	-554(ra) # 8001f3a <get_ldnumber>
	if (vol < 0) return FR_INVALID_DRIVE;
 800216c:	47ad                	li	a5,11
 800216e:	04054263          	bltz	a0,80021b2 <find_volume+0x68>
	fs = FatFs[vol];					/* Get pointer to the filesystem object */
 8002172:	20000737          	lui	a4,0x20000
 8002176:	00251793          	slli	a5,a0,0x2
 800217a:	50870713          	addi	a4,a4,1288 # 20000508 <FatFs>
 800217e:	97ba                	add	a5,a5,a4
 8002180:	4380                	lw	s0,0(a5)
 8002182:	84aa                	mv	s1,a0
	if (!fs) return FR_NOT_ENABLED;		/* Is the filesystem object available? */
 8002184:	47b1                	li	a5,12
 8002186:	c415                	beqz	s0,80021b2 <find_volume+0x68>
	*rfs = fs;							/* Return pointer to the filesystem object */
 8002188:	45b2                	lw	a1,12(sp)
	mode &= (BYTE)~FA_READ;				/* Desired access mode, write access or not */
 800218a:	0fe97913          	andi	s2,s2,254
	*rfs = fs;							/* Return pointer to the filesystem object */
 800218e:	c180                	sw	s0,0(a1)
	if (fs->fs_type != 0) {				/* If the volume has been mounted */
 8002190:	00044783          	lbu	a5,0(s0)
 8002194:	cb95                	beqz	a5,80021c8 <find_volume+0x7e>
		stat = disk_status(fs->pdrv);
 8002196:	00144503          	lbu	a0,1(s0)
 800219a:	00001097          	auipc	ra,0x1
 800219e:	7fa080e7          	jalr	2042(ra) # 8003994 <disk_status>
		if (!(stat & STA_NOINIT)) {		/* and the physical drive is kept initialized */
 80021a2:	00157793          	andi	a5,a0,1
 80021a6:	e38d                	bnez	a5,80021c8 <find_volume+0x7e>
			if (!FF_FS_READONLY && mode && (stat & STA_PROTECT)) {	/* Check write protection if needed */
 80021a8:	00090563          	beqz	s2,80021b2 <find_volume+0x68>
 80021ac:	8911                	andi	a0,a0,4
 80021ae:	c111                	beqz	a0,80021b2 <find_volume+0x68>
				return FR_WRITE_PROTECTED;
 80021b0:	47a9                	li	a5,10
}
 80021b2:	50f2                	lw	ra,60(sp)
 80021b4:	5462                	lw	s0,56(sp)
 80021b6:	54d2                	lw	s1,52(sp)
 80021b8:	5942                	lw	s2,48(sp)
 80021ba:	59b2                	lw	s3,44(sp)
 80021bc:	5a22                	lw	s4,40(sp)
 80021be:	5a92                	lw	s5,36(sp)
 80021c0:	5b02                	lw	s6,32(sp)
 80021c2:	853e                	mv	a0,a5
 80021c4:	6121                	addi	sp,sp,64
 80021c6:	8082                	ret
	fs->pdrv = LD2PD(vol);				/* Bind the logical drive and a physical drive */
 80021c8:	0ff4f513          	andi	a0,s1,255
	fs->fs_type = 0;					/* Clear the filesystem object */
 80021cc:	00040023          	sb	zero,0(s0)
	fs->pdrv = LD2PD(vol);				/* Bind the logical drive and a physical drive */
 80021d0:	00a400a3          	sb	a0,1(s0)
	stat = disk_initialize(fs->pdrv);	/* Initialize the physical drive */
 80021d4:	00001097          	auipc	ra,0x1
 80021d8:	544080e7          	jalr	1348(ra) # 8003718 <disk_initialize>
	if (stat & STA_NOINIT) { 			/* Check if the initialization succeeded */
 80021dc:	00157713          	andi	a4,a0,1
		return FR_NOT_READY;			/* Failed to initialize due to no medium or hard error */
 80021e0:	478d                	li	a5,3
	if (stat & STA_NOINIT) { 			/* Check if the initialization succeeded */
 80021e2:	fb61                	bnez	a4,80021b2 <find_volume+0x68>
	if (!FF_FS_READONLY && mode && (stat & STA_PROTECT)) { /* Check disk write protection if needed */
 80021e4:	00090463          	beqz	s2,80021ec <find_volume+0xa2>
 80021e8:	8911                	andi	a0,a0,4
 80021ea:	f179                	bnez	a0,80021b0 <find_volume+0x66>
	fmt = check_fs(fs, bsect);			/* Load sector 0 and check if it is an FAT-VBR as SFD */
 80021ec:	4581                	li	a1,0
 80021ee:	8522                	mv	a0,s0
 80021f0:	00000097          	auipc	ra,0x0
 80021f4:	ec8080e7          	jalr	-312(ra) # 80020b8 <check_fs>
	if (fmt == 2 || (fmt < 2 && LD2PT(vol) != 0)) {	/* Not an FAT-VBR or forced partition number */
 80021f8:	4789                	li	a5,2
 80021fa:	04f51f63          	bne	a0,a5,8002258 <find_volume+0x10e>
 80021fe:	0804                	addi	s1,sp,16
 8002200:	1f640913          	addi	s2,s0,502
 8002204:	23640a13          	addi	s4,s0,566
 8002208:	89a6                	mv	s3,s1
			br[i] = pt[PTE_System] ? ld_dword(pt + PTE_StLba) : 0;
 800220a:	ffc94783          	lbu	a5,-4(s2)
 800220e:	4501                	li	a0,0
 8002210:	c791                	beqz	a5,800221c <find_volume+0xd2>
 8002212:	854a                	mv	a0,s2
 8002214:	00000097          	auipc	ra,0x0
 8002218:	cb6080e7          	jalr	-842(ra) # 8001eca <ld_dword>
 800221c:	00a9a023          	sw	a0,0(s3)
 8002220:	0941                	addi	s2,s2,16
 8002222:	0991                	addi	s3,s3,4
		for (i = 0; i < 4; i++) {		/* Get partition offset */
 8002224:	ff2a13e3          	bne	s4,s2,800220a <find_volume+0xc0>
 8002228:	01048913          	addi	s2,s1,16
		} while (LD2PT(vol) == 0 && fmt >= 2 && ++i < 4);
 800222c:	4985                	li	s3,1
			bsect = br[i];
 800222e:	0004aa03          	lw	s4,0(s1)
			fmt = bsect ? check_fs(fs, bsect) : 3;	/* Check the partition */
 8002232:	450d                	li	a0,3
 8002234:	000a0a63          	beqz	s4,8002248 <find_volume+0xfe>
 8002238:	85d2                	mv	a1,s4
 800223a:	8522                	mv	a0,s0
 800223c:	00000097          	auipc	ra,0x0
 8002240:	e7c080e7          	jalr	-388(ra) # 80020b8 <check_fs>
		} while (LD2PT(vol) == 0 && fmt >= 2 && ++i < 4);
 8002244:	02a9f363          	bgeu	s3,a0,800226a <find_volume+0x120>
 8002248:	0491                	addi	s1,s1,4
 800224a:	fe9912e3          	bne	s2,s1,800222e <find_volume+0xe4>
	if (fmt == 4) return FR_DISK_ERR;		/* An error occured in the disk I/O layer */
 800224e:	4711                	li	a4,4
 8002250:	4785                	li	a5,1
 8002252:	00e51a63          	bne	a0,a4,8002266 <find_volume+0x11c>
 8002256:	bfb1                	j	80021b2 <find_volume+0x68>
 8002258:	4711                	li	a4,4
 800225a:	4785                	li	a5,1
 800225c:	f4e50be3          	beq	a0,a4,80021b2 <find_volume+0x68>
	bsect = 0;
 8002260:	4a01                	li	s4,0
	if (fmt >= 2) return FR_NO_FILESYSTEM;	/* No FAT volume is found */
 8002262:	00a7f463          	bgeu	a5,a0,800226a <find_volume+0x120>
 8002266:	47b5                	li	a5,13
 8002268:	b7a9                	j	80021b2 <find_volume+0x68>
	rv = rv << 8 | ptr[0];
 800226a:	03c44783          	lbu	a5,60(s0)
 800226e:	03b44703          	lbu	a4,59(s0)
 8002272:	07a2                	slli	a5,a5,0x8
 8002274:	8fd9                	or	a5,a5,a4
		if (ld_word(fs->win + BPB_BytsPerSec) != SS(fs)) return FR_NO_FILESYSTEM;	/* (BPB_BytsPerSec must be equal to the physical sector size) */
 8002276:	07c2                	slli	a5,a5,0x10
 8002278:	87c1                	srai	a5,a5,0x10
 800227a:	20000713          	li	a4,512
 800227e:	fee794e3          	bne	a5,a4,8002266 <find_volume+0x11c>
	rv = rv << 8 | ptr[0];
 8002282:	04744983          	lbu	s3,71(s0)
 8002286:	04644783          	lbu	a5,70(s0)
 800228a:	09a2                	slli	s3,s3,0x8
 800228c:	00f9e9b3          	or	s3,s3,a5
		if (fasize == 0) fasize = ld_dword(fs->win + BPB_FATSz32);
 8002290:	00099963          	bnez	s3,80022a2 <find_volume+0x158>
 8002294:	05440513          	addi	a0,s0,84
 8002298:	00000097          	auipc	ra,0x0
 800229c:	c32080e7          	jalr	-974(ra) # 8001eca <ld_dword>
 80022a0:	89aa                	mv	s3,a0
		fs->n_fats = fs->win[BPB_NumFATs];				/* Number of FATs */
 80022a2:	04044483          	lbu	s1,64(s0)
		fs->fsize = fasize;
 80022a6:	01342c23          	sw	s3,24(s0)
		if (fs->n_fats != 1 && fs->n_fats != 2) return FR_NO_FILESYSTEM;	/* (Must be 1 or 2) */
 80022aa:	4705                	li	a4,1
 80022ac:	fff48793          	addi	a5,s1,-1
		fs->n_fats = fs->win[BPB_NumFATs];				/* Number of FATs */
 80022b0:	00940123          	sb	s1,2(s0)
		if (fs->n_fats != 1 && fs->n_fats != 2) return FR_NO_FILESYSTEM;	/* (Must be 1 or 2) */
 80022b4:	0ff7f793          	andi	a5,a5,255
 80022b8:	faf767e3          	bltu	a4,a5,8002266 <find_volume+0x11c>
		fs->csize = fs->win[BPB_SecPerClus];			/* Cluster size */
 80022bc:	03d44903          	lbu	s2,61(s0)
 80022c0:	01091793          	slli	a5,s2,0x10
 80022c4:	83c1                	srli	a5,a5,0x10
 80022c6:	00f41523          	sh	a5,10(s0)
		if (fs->csize == 0 || (fs->csize & (fs->csize - 1))) return FR_NO_FILESYSTEM;	/* (Must be power of 2) */
 80022ca:	dfd1                	beqz	a5,8002266 <find_volume+0x11c>
 80022cc:	fff90793          	addi	a5,s2,-1
 80022d0:	0127f7b3          	and	a5,a5,s2
 80022d4:	fbc9                	bnez	a5,8002266 <find_volume+0x11c>
	rv = rv << 8 | ptr[0];
 80022d6:	04244783          	lbu	a5,66(s0)
 80022da:	04144a83          	lbu	s5,65(s0)
 80022de:	07a2                	slli	a5,a5,0x8
 80022e0:	0157e7b3          	or	a5,a5,s5
 80022e4:	01079a93          	slli	s5,a5,0x10
 80022e8:	410ada93          	srai	s5,s5,0x10
 80022ec:	010a9b13          	slli	s6,s5,0x10
 80022f0:	010b5b13          	srli	s6,s6,0x10
		fs->n_rootdir = ld_word(fs->win + BPB_RootEntCnt);	/* Number of root directory entries */
 80022f4:	01641423          	sh	s6,8(s0)
		if (fs->n_rootdir % (SS(fs) / SZDIRE)) return FR_NO_FILESYSTEM;	/* (Must be sector aligned) */
 80022f8:	00fb7793          	andi	a5,s6,15
 80022fc:	f7ad                	bnez	a5,8002266 <find_volume+0x11c>
	rv = rv << 8 | ptr[0];
 80022fe:	04444503          	lbu	a0,68(s0)
 8002302:	04344783          	lbu	a5,67(s0)
 8002306:	0522                	slli	a0,a0,0x8
 8002308:	8d5d                	or	a0,a0,a5
		if (tsect == 0) tsect = ld_dword(fs->win + BPB_TotSec32);
 800230a:	e519                	bnez	a0,8002318 <find_volume+0x1ce>
 800230c:	05040513          	addi	a0,s0,80
 8002310:	00000097          	auipc	ra,0x0
 8002314:	bba080e7          	jalr	-1094(ra) # 8001eca <ld_dword>
	rv = rv << 8 | ptr[0];
 8002318:	03f44783          	lbu	a5,63(s0)
 800231c:	03e44703          	lbu	a4,62(s0)
 8002320:	07a2                	slli	a5,a5,0x8
 8002322:	8fd9                	or	a5,a5,a4
		if (nrsv == 0) return FR_NO_FILESYSTEM;			/* (Must not be 0) */
 8002324:	d3a9                	beqz	a5,8002266 <find_volume+0x11c>
		fasize *= fs->n_fats;							/* Number of sectors for FAT area */
 8002326:	033486b3          	mul	a3,s1,s3
		sysect = nrsv + fasize + fs->n_rootdir / (SS(fs) / SZDIRE);	/* RSV + FAT + DIR */
 800232a:	004b5713          	srli	a4,s6,0x4
 800232e:	973e                	add	a4,a4,a5
 8002330:	9736                	add	a4,a4,a3
		if (tsect < sysect) return FR_NO_FILESYSTEM;	/* (Invalid volume size) */
 8002332:	f2e56ae3          	bltu	a0,a4,8002266 <find_volume+0x11c>
		nclst = (tsect - sysect) / fs->csize;			/* Number of clusters */
 8002336:	8d19                	sub	a0,a0,a4
 8002338:	032554b3          	divu	s1,a0,s2
		if (nclst == 0) return FR_NO_FILESYSTEM;		/* (Invalid volume size) */
 800233c:	f32565e3          	bltu	a0,s2,8002266 <find_volume+0x11c>
		if (nclst <= MAX_FAT32) fmt = FS_FAT32;
 8002340:	10000637          	lui	a2,0x10000
 8002344:	1655                	addi	a2,a2,-11
 8002346:	f29660e3          	bltu	a2,s1,8002266 <find_volume+0x11c>
		if (nclst <= MAX_FAT16) fmt = FS_FAT16;
 800234a:	6641                	lui	a2,0x10
 800234c:	1655                	addi	a2,a2,-11
 800234e:	12967963          	bgeu	a2,s1,8002480 <find_volume+0x336>
		if (nclst <= MAX_FAT32) fmt = FS_FAT32;
 8002352:	490d                	li	s2,3
		fs->database = bsect + sysect;					/* Data start sector */
 8002354:	9752                	add	a4,a4,s4
		fs->n_fatent = nclst + 2;						/* Number of FAT entries */
 8002356:	0489                	addi	s1,s1,2
		fs->fatbase = bsect + nrsv; 					/* FAT start sector */
 8002358:	97d2                	add	a5,a5,s4
		fs->database = bsect + sysect;					/* Data start sector */
 800235a:	d418                	sw	a4,40(s0)
		fs->n_fatent = nclst + 2;						/* Number of FAT entries */
 800235c:	c844                	sw	s1,20(s0)
		fs->volbase = bsect;							/* Volume start sector */
 800235e:	01442e23          	sw	s4,28(s0)
		fs->fatbase = bsect + nrsv; 					/* FAT start sector */
 8002362:	d01c                	sw	a5,32(s0)
		if (fmt == FS_FAT32) {
 8002364:	470d                	li	a4,3
 8002366:	0ee91e63          	bne	s2,a4,8002462 <find_volume+0x318>
	rv = rv << 8 | ptr[0];
 800236a:	05b44783          	lbu	a5,91(s0)
 800236e:	05a44703          	lbu	a4,90(s0)
 8002372:	07a2                	slli	a5,a5,0x8
 8002374:	8fd9                	or	a5,a5,a4
			if (ld_word(fs->win + BPB_FSVer32) != 0) return FR_NO_FILESYSTEM;	/* (Must be FAT32 revision 0.0) */
 8002376:	00fae7b3          	or	a5,s5,a5
 800237a:	07c2                	slli	a5,a5,0x10
 800237c:	87c1                	srai	a5,a5,0x10
 800237e:	ee0794e3          	bnez	a5,8002266 <find_volume+0x11c>
			fs->dirbase = ld_dword(fs->win + BPB_RootClus32);	/* Root directory start cluster */
 8002382:	05c40513          	addi	a0,s0,92
 8002386:	00000097          	auipc	ra,0x0
 800238a:	b44080e7          	jalr	-1212(ra) # 8001eca <ld_dword>
 800238e:	d048                	sw	a0,36(s0)
			szbfat = fs->n_fatent * 4;					/* (Needed FAT size) */
 8002390:	048a                	slli	s1,s1,0x2
		if (fs->fsize < (szbfat + (SS(fs) - 1)) / SS(fs)) return FR_NO_FILESYSTEM;	/* (BPB_FATSz must not be less than the size needed) */
 8002392:	1ff48493          	addi	s1,s1,511
 8002396:	80a5                	srli	s1,s1,0x9
 8002398:	ec99e7e3          	bltu	s3,s1,8002266 <find_volume+0x11c>
		fs->last_clst = fs->free_clst = 0xFFFFFFFF;		/* Initialize cluster allocation information */
 800239c:	57fd                	li	a5,-1
 800239e:	c81c                	sw	a5,16(s0)
 80023a0:	c45c                	sw	a5,12(s0)
		fs->fsi_flag = 0x80;
 80023a2:	f8000793          	li	a5,-128
 80023a6:	00f40223          	sb	a5,4(s0)
		if (fmt == FS_FAT32				/* Allow to update FSInfo only if BPB_FSInfo32 == 1 */
 80023aa:	478d                	li	a5,3
 80023ac:	08f91a63          	bne	s2,a5,8002440 <find_volume+0x2f6>
	rv = rv << 8 | ptr[0];
 80023b0:	06144783          	lbu	a5,97(s0)
 80023b4:	06044703          	lbu	a4,96(s0)
 80023b8:	07a2                	slli	a5,a5,0x8
 80023ba:	8fd9                	or	a5,a5,a4
			&& ld_word(fs->win + BPB_FSInfo32) == 1
 80023bc:	07c2                	slli	a5,a5,0x10
 80023be:	87c1                	srai	a5,a5,0x10
 80023c0:	4705                	li	a4,1
 80023c2:	06e79f63          	bne	a5,a4,8002440 <find_volume+0x2f6>
			&& move_window(fs, bsect + 1) == FR_OK)
 80023c6:	001a0593          	addi	a1,s4,1
 80023ca:	8522                	mv	a0,s0
 80023cc:	00000097          	auipc	ra,0x0
 80023d0:	c9e080e7          	jalr	-866(ra) # 800206a <move_window>
 80023d4:	e535                	bnez	a0,8002440 <find_volume+0x2f6>
	rv = rv << 8 | ptr[0];
 80023d6:	22f44783          	lbu	a5,559(s0)
 80023da:	22e44703          	lbu	a4,558(s0)
			fs->fsi_flag = 0;
 80023de:	00040223          	sb	zero,4(s0)
	rv = rv << 8 | ptr[0];
 80023e2:	07a2                	slli	a5,a5,0x8
 80023e4:	8fd9                	or	a5,a5,a4
			if (ld_word(fs->win + BS_55AA) == 0xAA55	/* Load FSInfo data if available */
 80023e6:	07c2                	slli	a5,a5,0x10
 80023e8:	776d                	lui	a4,0xffffb
 80023ea:	87c1                	srai	a5,a5,0x10
 80023ec:	a5570713          	addi	a4,a4,-1451 # ffffaa55 <_sp+0xdfff2a55>
 80023f0:	04e79863          	bne	a5,a4,8002440 <find_volume+0x2f6>
				&& ld_dword(fs->win + FSI_LeadSig) == 0x41615252
 80023f4:	03040513          	addi	a0,s0,48
 80023f8:	00000097          	auipc	ra,0x0
 80023fc:	ad2080e7          	jalr	-1326(ra) # 8001eca <ld_dword>
 8002400:	416157b7          	lui	a5,0x41615
 8002404:	25278793          	addi	a5,a5,594 # 41615252 <_sp+0x2160d252>
 8002408:	02f51c63          	bne	a0,a5,8002440 <find_volume+0x2f6>
				&& ld_dword(fs->win + FSI_StrucSig) == 0x61417272)
 800240c:	21440513          	addi	a0,s0,532
 8002410:	00000097          	auipc	ra,0x0
 8002414:	aba080e7          	jalr	-1350(ra) # 8001eca <ld_dword>
 8002418:	614177b7          	lui	a5,0x61417
 800241c:	27278793          	addi	a5,a5,626 # 61417272 <_sp+0x4140f272>
 8002420:	02f51063          	bne	a0,a5,8002440 <find_volume+0x2f6>
				fs->free_clst = ld_dword(fs->win + FSI_Free_Count);
 8002424:	21840513          	addi	a0,s0,536
 8002428:	00000097          	auipc	ra,0x0
 800242c:	aa2080e7          	jalr	-1374(ra) # 8001eca <ld_dword>
 8002430:	c808                	sw	a0,16(s0)
				fs->last_clst = ld_dword(fs->win + FSI_Nxt_Free);
 8002432:	21c40513          	addi	a0,s0,540
 8002436:	00000097          	auipc	ra,0x0
 800243a:	a94080e7          	jalr	-1388(ra) # 8001eca <ld_dword>
 800243e:	c448                	sw	a0,12(s0)
	fs->id = ++Fsid;		/* Volume mount ID */
 8002440:	20000737          	lui	a4,0x20000
 8002444:	50c70713          	addi	a4,a4,1292 # 2000050c <Fsid>
 8002448:	00075783          	lhu	a5,0(a4)
	fs->fs_type = fmt;		/* FAT sub-type */
 800244c:	01240023          	sb	s2,0(s0)
	fs->id = ++Fsid;		/* Volume mount ID */
 8002450:	0785                	addi	a5,a5,1
 8002452:	07c2                	slli	a5,a5,0x10
 8002454:	83c1                	srli	a5,a5,0x10
 8002456:	00f71023          	sh	a5,0(a4)
 800245a:	00f41323          	sh	a5,6(s0)
	return FR_OK;
 800245e:	4781                	li	a5,0
 8002460:	bb89                	j	80021b2 <find_volume+0x68>
			if (fs->n_rootdir == 0)	return FR_NO_FILESYSTEM;	/* (BPB_RootEntCnt must not be 0) */
 8002462:	e00b02e3          	beqz	s6,8002266 <find_volume+0x11c>
			fs->dirbase = fs->fatbase + fasize;			/* Root directory start sector */
 8002466:	97b6                	add	a5,a5,a3
 8002468:	d05c                	sw	a5,36(s0)
				fs->n_fatent * 2 : fs->n_fatent * 3 / 2 + (fs->n_fatent & 1);
 800246a:	4789                	li	a5,2
 800246c:	00f91463          	bne	s2,a5,8002474 <find_volume+0x32a>
 8002470:	0486                	slli	s1,s1,0x1
 8002472:	b705                	j	8002392 <find_volume+0x248>
 8002474:	02e48733          	mul	a4,s1,a4
 8002478:	8885                	andi	s1,s1,1
 800247a:	8305                	srli	a4,a4,0x1
 800247c:	94ba                	add	s1,s1,a4
 800247e:	bf11                	j	8002392 <find_volume+0x248>
		if (nclst <= MAX_FAT12) fmt = FS_FAT12;
 8002480:	6905                	lui	s2,0x1
 8002482:	1955                	addi	s2,s2,-11
 8002484:	00993933          	sltu	s2,s2,s1
 8002488:	0905                	addi	s2,s2,1
 800248a:	b5e9                	j	8002354 <find_volume+0x20a>

0800248c <put_fat>:
{
 800248c:	1101                	addi	sp,sp,-32
 800248e:	c64e                	sw	s3,12(sp)
 8002490:	c452                	sw	s4,8(sp)
 8002492:	ce06                	sw	ra,28(sp)
 8002494:	cc22                	sw	s0,24(sp)
 8002496:	ca26                	sw	s1,20(sp)
 8002498:	c84a                	sw	s2,16(sp)
 800249a:	c256                	sw	s5,4(sp)
 800249c:	c05a                	sw	s6,0(sp)
	if (clst >= 2 && clst < fs->n_fatent) {	/* Check if in valid range */
 800249e:	4a05                	li	s4,1
	FRESULT res = FR_INT_ERR;
 80024a0:	4989                	li	s3,2
	if (clst >= 2 && clst < fs->n_fatent) {	/* Check if in valid range */
 80024a2:	0aba7463          	bgeu	s4,a1,800254a <put_fat+0xbe>
 80024a6:	495c                	lw	a5,20(a0)
 80024a8:	892a                	mv	s2,a0
	FRESULT res = FR_INT_ERR;
 80024aa:	4989                	li	s3,2
	if (clst >= 2 && clst < fs->n_fatent) {	/* Check if in valid range */
 80024ac:	08f5ff63          	bgeu	a1,a5,800254a <put_fat+0xbe>
		switch (fs->fs_type) {
 80024b0:	00054783          	lbu	a5,0(a0)
 80024b4:	4709                	li	a4,2
 80024b6:	84b2                	mv	s1,a2
 80024b8:	842e                	mv	s0,a1
 80024ba:	0ae78a63          	beq	a5,a4,800256e <put_fat+0xe2>
 80024be:	470d                	li	a4,3
 80024c0:	0ee78063          	beq	a5,a4,80025a0 <put_fat+0x114>
 80024c4:	09479363          	bne	a5,s4,800254a <put_fat+0xbe>
			bc = (UINT)clst; bc += bc / 2;	/* bc: byte offset of the entry */
 80024c8:	0015da13          	srli	s4,a1,0x1
			res = move_window(fs, fs->fatbase + (bc / SS(fs)));
 80024cc:	511c                	lw	a5,32(a0)
			bc = (UINT)clst; bc += bc / 2;	/* bc: byte offset of the entry */
 80024ce:	9a2e                	add	s4,s4,a1
			res = move_window(fs, fs->fatbase + (bc / SS(fs)));
 80024d0:	009a5593          	srli	a1,s4,0x9
 80024d4:	95be                	add	a1,a1,a5
 80024d6:	00000097          	auipc	ra,0x0
 80024da:	b94080e7          	jalr	-1132(ra) # 800206a <move_window>
 80024de:	89aa                	mv	s3,a0
			if (res != FR_OK) break;
 80024e0:	e52d                	bnez	a0,800254a <put_fat+0xbe>
			p = fs->win + bc++ % SS(fs);
 80024e2:	03090a93          	addi	s5,s2,48 # 1030 <__stack_size+0x30>
 80024e6:	001a0b13          	addi	s6,s4,1
			*p = (clst & 1) ? ((*p & 0x0F) | ((BYTE)val << 4)) : (BYTE)val;		/* Put 1st byte */
 80024ea:	8805                	andi	s0,s0,1
			p = fs->win + bc++ % SS(fs);
 80024ec:	1ffa7a13          	andi	s4,s4,511
 80024f0:	9a56                	add	s4,s4,s5
			*p = (clst & 1) ? ((*p & 0x0F) | ((BYTE)val << 4)) : (BYTE)val;		/* Put 1st byte */
 80024f2:	0ff4f793          	andi	a5,s1,255
 80024f6:	cc09                	beqz	s0,8002510 <put_fat+0x84>
 80024f8:	000a4783          	lbu	a5,0(s4)
 80024fc:	6685                	lui	a3,0x1
 80024fe:	16c1                	addi	a3,a3,-16
 8002500:	00f7f713          	andi	a4,a5,15
 8002504:	00449793          	slli	a5,s1,0x4
 8002508:	8ff5                	and	a5,a5,a3
 800250a:	8fd9                	or	a5,a5,a4
 800250c:	0ff7f793          	andi	a5,a5,255
 8002510:	00fa0023          	sb	a5,0(s4)
			fs->wflag = 1;
 8002514:	4785                	li	a5,1
 8002516:	00f901a3          	sb	a5,3(s2)
			res = move_window(fs, fs->fatbase + (bc / SS(fs)));
 800251a:	02092783          	lw	a5,32(s2)
 800251e:	009b5593          	srli	a1,s6,0x9
 8002522:	854a                	mv	a0,s2
 8002524:	95be                	add	a1,a1,a5
 8002526:	00000097          	auipc	ra,0x0
 800252a:	b44080e7          	jalr	-1212(ra) # 800206a <move_window>
 800252e:	89aa                	mv	s3,a0
			if (res != FR_OK) break;
 8002530:	ed09                	bnez	a0,800254a <put_fat+0xbe>
			p = fs->win + bc % SS(fs);
 8002532:	1ffb7b13          	andi	s6,s6,511
 8002536:	9ada                	add	s5,s5,s6
			*p = (clst & 1) ? (BYTE)(val >> 4) : ((*p & 0xF0) | ((BYTE)(val >> 8) & 0x0F));	/* Put 2nd byte */
 8002538:	c405                	beqz	s0,8002560 <put_fat+0xd4>
 800253a:	8091                	srli	s1,s1,0x4
 800253c:	0ff4f493          	andi	s1,s1,255
 8002540:	009a8023          	sb	s1,0(s5)
			fs->wflag = 1;
 8002544:	4785                	li	a5,1
 8002546:	00f901a3          	sb	a5,3(s2)
}
 800254a:	40f2                	lw	ra,28(sp)
 800254c:	4462                	lw	s0,24(sp)
 800254e:	854e                	mv	a0,s3
 8002550:	44d2                	lw	s1,20(sp)
 8002552:	4942                	lw	s2,16(sp)
 8002554:	49b2                	lw	s3,12(sp)
 8002556:	4a22                	lw	s4,8(sp)
 8002558:	4a92                	lw	s5,4(sp)
 800255a:	4b02                	lw	s6,0(sp)
 800255c:	6105                	addi	sp,sp,32
 800255e:	8082                	ret
			*p = (clst & 1) ? (BYTE)(val >> 4) : ((*p & 0xF0) | ((BYTE)(val >> 8) & 0x0F));	/* Put 2nd byte */
 8002560:	000ac783          	lbu	a5,0(s5)
 8002564:	80a1                	srli	s1,s1,0x8
 8002566:	88bd                	andi	s1,s1,15
 8002568:	9bc1                	andi	a5,a5,-16
 800256a:	8cdd                	or	s1,s1,a5
 800256c:	bfd1                	j	8002540 <put_fat+0xb4>
			res = move_window(fs, fs->fatbase + (clst / (SS(fs) / 2)));
 800256e:	511c                	lw	a5,32(a0)
 8002570:	81a1                	srli	a1,a1,0x8
 8002572:	95be                	add	a1,a1,a5
 8002574:	00000097          	auipc	ra,0x0
 8002578:	af6080e7          	jalr	-1290(ra) # 800206a <move_window>
 800257c:	89aa                	mv	s3,a0
			if (res != FR_OK) break;
 800257e:	f571                	bnez	a0,800254a <put_fat+0xbe>
			st_word(fs->win + clst * 2 % SS(fs), (WORD)val);	/* Simple WORD array */
 8002580:	0406                	slli	s0,s0,0x1
 8002582:	03090793          	addi	a5,s2,48
 8002586:	1fe47413          	andi	s0,s0,510
 800258a:	943e                	add	s0,s0,a5
	*ptr++ = (BYTE)val; val >>= 8;
 800258c:	00940023          	sb	s1,0(s0)
 8002590:	04c2                	slli	s1,s1,0x10
 8002592:	80c1                	srli	s1,s1,0x10
 8002594:	80a1                	srli	s1,s1,0x8
	*ptr++ = (BYTE)val;
 8002596:	009400a3          	sb	s1,1(s0)
			fs->wflag = 1;
 800259a:	014901a3          	sb	s4,3(s2)
			break;
 800259e:	b775                	j	800254a <put_fat+0xbe>
			res = move_window(fs, fs->fatbase + (clst / (SS(fs) / 4)));
 80025a0:	511c                	lw	a5,32(a0)
 80025a2:	819d                	srli	a1,a1,0x7
 80025a4:	95be                	add	a1,a1,a5
 80025a6:	00000097          	auipc	ra,0x0
 80025aa:	ac4080e7          	jalr	-1340(ra) # 800206a <move_window>
 80025ae:	89aa                	mv	s3,a0
			if (res != FR_OK) break;
 80025b0:	fd49                	bnez	a0,800254a <put_fat+0xbe>
				val = (val & 0x0FFFFFFF) | (ld_dword(fs->win + clst * 4 % SS(fs)) & 0xF0000000);
 80025b2:	040a                	slli	s0,s0,0x2
 80025b4:	03090793          	addi	a5,s2,48
 80025b8:	1fc47413          	andi	s0,s0,508
 80025bc:	943e                	add	s0,s0,a5
 80025be:	8522                	mv	a0,s0
 80025c0:	00000097          	auipc	ra,0x0
 80025c4:	90a080e7          	jalr	-1782(ra) # 8001eca <ld_dword>
 80025c8:	0492                	slli	s1,s1,0x4
 80025ca:	f00005b7          	lui	a1,0xf0000
 80025ce:	8091                	srli	s1,s1,0x4
 80025d0:	8de9                	and	a1,a1,a0
			st_dword(fs->win + clst * 4 % SS(fs), val);
 80025d2:	8dc5                	or	a1,a1,s1
 80025d4:	8522                	mv	a0,s0
 80025d6:	00000097          	auipc	ra,0x0
 80025da:	912080e7          	jalr	-1774(ra) # 8001ee8 <st_dword>
 80025de:	bf75                	j	800259a <put_fat+0x10e>

080025e0 <get_fat.isra.7>:
	if (clst < 2 || clst >= fs->n_fatent) {	/* Check if in valid range */
 80025e0:	4785                	li	a5,1
 80025e2:	0eb7f763          	bgeu	a5,a1,80026d0 <get_fat.isra.7+0xf0>
 80025e6:	4958                	lw	a4,20(a0)
static DWORD get_fat (		/* 0xFFFFFFFF:Disk error, 1:Internal error, 2..0x7FFFFFFF:Cluster status */
 80025e8:	1101                	addi	sp,sp,-32
 80025ea:	cc22                	sw	s0,24(sp)
 80025ec:	ce06                	sw	ra,28(sp)
 80025ee:	ca26                	sw	s1,20(sp)
 80025f0:	c84a                	sw	s2,16(sp)
 80025f2:	c64e                	sw	s3,12(sp)
 80025f4:	842a                	mv	s0,a0
	if (clst < 2 || clst >= fs->n_fatent) {	/* Check if in valid range */
