GAS LISTING /var/folders/yy/83vjwp7d53j56dbzj8_jnpcr0000gn/T//ccFNxmd6.s 			page 1


   1              		.file	"main.c"
   2              		.option nopic
   3              		.attribute arch, "rv32i2p0_m2p0_a2p0_c2p0"
   4              		.attribute unaligned_access, 0
   5              		.attribute stack_align, 16
   6              		.text
   7              	.Ltext0:
   8              		.cfi_sections	.debug_frame
   9              		.comm	sample_buffer,16,4
  10              		.globl	start_time
  11              		.globl	millisec
  12              		.globl	seconds
  13              		.globl	minutes
  14              		.globl	commands
  15              		.globl	delays
  16              		.globl	states
  17              		.globl	write
  18              		.comm	txbuffer,8,4
  19              		.comm	txCount,1,1
  20              		.section	.text.write_handle_raw,"ax",@progbits
  21              		.align	1
  22              		.globl	write_handle_raw
  24              	write_handle_raw:
  25              	.LFB7:
  26              		.file 1 "main.c"
   1:main.c        **** #include "gd32vf103.h"
   2:main.c        **** #include "usb_serial_if.h"
   3:main.c        **** #include "usb_delay.h"
   4:main.c        **** #include "usart.h"
   5:main.c        **** #include <stdlib.h>
   6:main.c        **** #include <string.h>
   7:main.c        **** #include "rn4871.h"
   8:main.c        **** #include "radioHead.h"
   9:main.c        **** #include "systick.h"
  10:main.c        **** #include "gd32v_tf_card_if.h"
  11:main.c        **** #include "ff.h"
  12:main.c        **** #include "dma.h"
  13:main.c        **** #include "queue.h"
  14:main.c        **** #include "tf_card.h"
  15:main.c        **** #include "state.h"
  16:main.c        **** #include "adc.h"
  17:main.c        **** 
  18:main.c        **** #define BUFFER_SIZE 512
  19:main.c        **** 
  20:main.c        **** #define START_MSG "%WV,0072,01%"
  21:main.c        **** #define RUNNING_MSG "%WV,0072,02%"
  22:main.c        **** #define STOP_MSG "%WV,0072,00%"
  23:main.c        **** 
  24:main.c        **** #define BLUETOOTH_START_MESSAGE "%WV,0072,01%"      //phone send string "start"
  25:main.c        **** #define BLUETOOTH_STOP_MESSAGE  "%WV,0072,00%"        //phone send string "stop"
  26:main.c        **** 
  27:main.c        **** /* Filename should be at most 8 chars long and the extension should be at most 3 */
  28:main.c        **** #define FILENAME "FINAP.CSV"
  29:main.c        **** 
  30:main.c        **** void ledInit (void);
  31:main.c        **** void led_on_B1();
  32:main.c        **** void led_off_B1();
GAS LISTING /var/folders/yy/83vjwp7d53j56dbzj8_jnpcr0000gn/T//ccFNxmd6.s 			page 2


  33:main.c        **** void led_on_B0();
  34:main.c        **** void led_off_B0();
  35:main.c        **** void timer_interrupt_config();
  36:main.c        **** void led_on_b2();
  37:main.c        **** void led_off_b2();
  38:main.c        **** void formatTime(char *output, int minutes, int seconds, int milliseconds);
  39:main.c        **** int int_to_string(char *string, int integer);
  40:main.c        **** int append_int_to_string(char *string, int integer);
  41:main.c        **** void append_newLine(char *string, int length);
  42:main.c        **** int millis(void);
  43:main.c        **** 
  44:main.c        **** volatile int start_time = 0;
  45:main.c        **** volatile int millisec = 0;
  46:main.c        **** volatile int seconds = 0;
  47:main.c        **** volatile int minutes = 0;    
  48:main.c        **** 
  49:main.c        **** const char *commands[] = {
  50:main.c        ****     "start0",
  51:main.c        ****     "start1",
  52:main.c        ****     "start2",
  53:main.c        ****     "stopp0",
  54:main.c        ****     "stopp1",
  55:main.c        ****     "stopp2"
  56:main.c        **** };
  57:main.c        **** 
  58:main.c        **** const int delays[] = {
  59:main.c        ****     300,
  60:main.c        ****     200,
  61:main.c        ****     100,
  62:main.c        ****     300,
  63:main.c        ****     200,
  64:main.c        ****     100
  65:main.c        **** };
  66:main.c        **** 
  67:main.c        **** const int states[] = {
  68:main.c        ****     START,
  69:main.c        ****     START,
  70:main.c        ****     START,
  71:main.c        ****     STOP,
  72:main.c        ****     STOP,
  73:main.c        ****     STOP
  74:main.c        **** };
  75:main.c        **** 
  76:main.c        **** int write = 0;
  77:main.c        **** uint8_t txbuffer[8];
  78:main.c        **** uint8_t txCount;
  79:main.c        **** 
  80:main.c        **** void write_handle_raw(uint16_t handle, uint8_t* byte_data, uint8_t size){
  27              		.loc 1 80 73
  28              		.cfi_startproc
  29              	.LVL0:
  81:main.c        **** 	uint8_t string_buffer[128] = {'\0'};
  30              		.loc 1 81 2
  80:main.c        **** 	uint8_t string_buffer[128] = {'\0'};
  31              		.loc 1 80 73 is_stmt 0
  32 0000 5171     		addi	sp,sp,-240
  33              	.LCFI0:
GAS LISTING /var/folders/yy/83vjwp7d53j56dbzj8_jnpcr0000gn/T//ccFNxmd6.s 			page 3


  34              		.cfi_def_cfa_offset 240
  35 0002 A2D5     		sw	s0,232(sp)
  36 0004 CAD1     		sw	s2,224(sp)
  37 0006 2AC6     		sw	a0,12(sp)
  38              		.cfi_offset 8, -8
  39              		.cfi_offset 18, -16
  40 0008 2E89     		mv	s2,a1
  41 000a 3284     		mv	s0,a2
  42              		.loc 1 81 10
  43 000c 8145     		li	a1,0
  44              	.LVL1:
  45 000e 13060008 		li	a2,128
  46              	.LVL2:
  47 0012 8810     		addi	a0,sp,96
  48              	.LVL3:
  80:main.c        **** 	uint8_t string_buffer[128] = {'\0'};
  49              		.loc 1 80 73
  50 0014 86D7     		sw	ra,236(sp)
  51 0016 A6D3     		sw	s1,228(sp)
  52              		.cfi_offset 1, -4
  53              		.cfi_offset 9, -12
  54              		.loc 1 81 10
  55 0018 97000000 		call	memset
  55      E7800000 
  56              	.LVL4:
  82:main.c        **** 	uint8_t data_buffer[(20*2)+15] = {'\0'};
  57              		.loc 1 82 2 is_stmt 1
  58              		.loc 1 82 10 is_stmt 0
  59 0020 13067003 		li	a2,55
  60 0024 8145     		li	a1,0
  61 0026 2810     		addi	a0,sp,40
  62 0028 97000000 		call	memset
  62      E7800000 
  63              	.LVL5:
  83:main.c        **** 	const uint8_t lut_hex[] = "0123456789ABCDEF";
  64              		.loc 1 83 2 is_stmt 1
  65              		.loc 1 83 16 is_stmt 0
  66 0030 B7040000 		lui	s1,%hi(.LANCHOR0)
  67 0034 93850400 		addi	a1,s1,%lo(.LANCHOR0)
  68 0038 4546     		li	a2,17
  69 003a 93850503 		addi	a1,a1,48
  70 003e 4808     		addi	a0,sp,20
  71 0040 97000000 		call	memcpy
  71      E7800000 
  72              	.LVL6:
  84:main.c        **** 	for(int i = 0; i < size; i++){
  73              		.loc 1 84 2 is_stmt 1
  74              	.LBB2:
  75              		.loc 1 84 6
  76              		.loc 1 84 2 is_stmt 0
  77 0048 B246     		lw	a3,12(sp)
  78 004a 3010     		addi	a2,sp,40
  79              		.loc 1 84 10
  80 004c 0147     		li	a4,0
  81 004e 93850400 		addi	a1,s1,%lo(.LANCHOR0)
  82              	.LVL7:
  83              	.L2:
GAS LISTING /var/folders/yy/83vjwp7d53j56dbzj8_jnpcr0000gn/T//ccFNxmd6.s 			page 4


  84              		.loc 1 84 2 discriminator 1
  85 0052 63448704 		bgt	s0,a4,.L3
  86              	.LBE2:
  85:main.c        **** 		data_buffer[i*2] = lut_hex[byte_data[i] / 16];
  86:main.c        **** 		data_buffer[(i*2)+1] = lut_hex[byte_data[i] % 16];
  87:main.c        **** 	}
  88:main.c        **** 	data_buffer[size*2] = '\0';
  87              		.loc 1 88 2 is_stmt 1
  88              		.loc 1 88 22 is_stmt 0
  89 0056 9C11     		addi	a5,sp,224
  90 0058 0604     		slli	s0,s0,1
  89:main.c        **** 	sprintf(string_buffer, "%s%.4x,%s\r\n", "SHW,", handle, data_buffer);
  91              		.loc 1 89 2
  92 005a 37060000 		lui	a2,%hi(.LC7)
  88:main.c        **** 	sprintf(string_buffer, "%s%.4x,%s\r\n", "SHW,", handle, data_buffer);
  93              		.loc 1 88 22
  94 005e 3E94     		add	s0,a5,s0
  95              		.loc 1 89 2
  96 0060 3810     		addi	a4,sp,40
  97              	.LVL8:
  98 0062 13060600 		addi	a2,a2,%lo(.LC7)
  99 0066 9385C504 		addi	a1,a1,76
 100 006a 8810     		addi	a0,sp,96
  88:main.c        **** 	sprintf(string_buffer, "%s%.4x,%s\r\n", "SHW,", handle, data_buffer);
 101              		.loc 1 88 22
 102 006c 230404F4 		sb	zero,-184(s0)
 103              		.loc 1 89 2 is_stmt 1
 104 0070 97000000 		call	sprintf
 104      E7800000 
 105              	.LVL9:
  90:main.c        **** 	lio_send_bt(string_buffer, strlen(string_buffer));
 106              		.loc 1 90 2
 107              		.loc 1 90 29 is_stmt 0
 108 0078 8810     		addi	a0,sp,96
 109 007a 97000000 		call	strlen
 109      E7800000 
 110              	.LVL10:
 111              		.loc 1 90 2
 112 0082 AA85     		mv	a1,a0
 113 0084 8810     		addi	a0,sp,96
 114 0086 97000000 		call	lio_send_bt
 114      E7800000 
 115              	.LVL11:
  91:main.c        **** }
 116              		.loc 1 91 1
 117 008e BE50     		lw	ra,236(sp)
 118              		.cfi_remember_state
 119              		.cfi_restore 1
 120 0090 2E54     		lw	s0,232(sp)
 121              		.cfi_restore 8
 122 0092 9E54     		lw	s1,228(sp)
 123              		.cfi_restore 9
 124 0094 0E59     		lw	s2,224(sp)
 125              		.cfi_restore 18
 126              	.LVL12:
 127 0096 6D61     		addi	sp,sp,240
 128              	.LCFI1:
GAS LISTING /var/folders/yy/83vjwp7d53j56dbzj8_jnpcr0000gn/T//ccFNxmd6.s 			page 5


 129              		.cfi_def_cfa_offset 0
 130 0098 8280     		jr	ra
 131              	.LVL13:
 132              	.L3:
 133              	.LCFI2:
 134              		.cfi_restore_state
 135              	.LBB3:
  85:main.c        **** 		data_buffer[(i*2)+1] = lut_hex[byte_data[i] % 16];
 136              		.loc 1 85 3 is_stmt 1 discriminator 3
  85:main.c        **** 		data_buffer[(i*2)+1] = lut_hex[byte_data[i] % 16];
 137              		.loc 1 85 39 is_stmt 0 discriminator 3
 138 009a B307E900 		add	a5,s2,a4
 139 009e 83C70700 		lbu	a5,0(a5)
  85:main.c        **** 		data_buffer[(i*2)+1] = lut_hex[byte_data[i] % 16];
 140              		.loc 1 85 29 discriminator 3
 141 00a2 8411     		addi	s1,sp,224
  84:main.c        **** 		data_buffer[i*2] = lut_hex[byte_data[i] / 16];
 142              		.loc 1 84 28 discriminator 3
 143 00a4 0507     		addi	a4,a4,1
 144              	.LVL14:
  85:main.c        **** 		data_buffer[(i*2)+1] = lut_hex[byte_data[i] % 16];
 145              		.loc 1 85 43 discriminator 3
 146 00a6 13D54700 		srli	a0,a5,4
  86:main.c        **** 	}
 147              		.loc 1 86 47 discriminator 3
 148 00aa BD8B     		andi	a5,a5,15
  85:main.c        **** 		data_buffer[(i*2)+1] = lut_hex[byte_data[i] % 16];
 149              		.loc 1 85 29 discriminator 3
 150 00ac 2695     		add	a0,s1,a0
  86:main.c        **** 	}
 151              		.loc 1 86 33 discriminator 3
 152 00ae A697     		add	a5,s1,a5
  85:main.c        **** 		data_buffer[(i*2)+1] = lut_hex[byte_data[i] % 16];
 153              		.loc 1 85 20 discriminator 3
 154 00b0 034545F3 		lbu	a0,-204(a0)
  86:main.c        **** 	}
 155              		.loc 1 86 24 discriminator 3
 156 00b4 83C747F3 		lbu	a5,-204(a5)
 157 00b8 0906     		addi	a2,a2,2
  85:main.c        **** 		data_buffer[(i*2)+1] = lut_hex[byte_data[i] % 16];
 158              		.loc 1 85 20 discriminator 3
 159 00ba 230FA6FE 		sb	a0,-2(a2)
  86:main.c        **** 	}
 160              		.loc 1 86 3 is_stmt 1 discriminator 3
 161              	.LVL15:
  86:main.c        **** 	}
 162              		.loc 1 86 24 is_stmt 0 discriminator 3
 163 00be A30FF6FE 		sb	a5,-1(a2)
 164 00c2 41BF     		j	.L2
 165              	.LBE3:
 166              		.cfi_endproc
 167              	.LFE7:
 169              		.section	.text.send_data_to_phone,"ax",@progbits
 170              		.align	1
 171              		.globl	send_data_to_phone
 173              	send_data_to_phone:
 174              	.LFB8:
GAS LISTING /var/folders/yy/83vjwp7d53j56dbzj8_jnpcr0000gn/T//ccFNxmd6.s 			page 6


  92:main.c        **** 
  93:main.c        **** void send_data_to_phone(uint16_t handle, int16_t value){
 175              		.loc 1 93 56 is_stmt 1
 176              		.cfi_startproc
 177              	.LVL16:
  94:main.c        ****     uint8_t bytes[2] = {0};
 178              		.loc 1 94 5
  95:main.c        ****     bytes[0] = (uint8_t)((value >> 8) & 0xFF);  // Extract high byte 
 179              		.loc 1 95 5
  96:main.c        ****     bytes[1] = (uint8_t)(value & 0xFF);   // Extract low byte
 180              		.loc 1 96 5
  95:main.c        ****     bytes[0] = (uint8_t)((value >> 8) & 0xFF);  // Extract high byte 
 181              		.loc 1 95 14 is_stmt 0
 182 0000 93978500 		slli	a5,a1,8
 183 0004 C205     		slli	a1,a1,16
 184              	.LVL17:
 185 0006 C181     		srli	a1,a1,16
 186 0008 A181     		srli	a1,a1,8
  93:main.c        ****     uint8_t bytes[2] = {0};
 187              		.loc 1 93 56
 188 000a 0111     		addi	sp,sp,-32
 189              	.LCFI3:
 190              		.cfi_def_cfa_offset 32
  95:main.c        ****     bytes[0] = (uint8_t)((value >> 8) & 0xFF);  // Extract high byte 
 191              		.loc 1 95 14
 192 000c DD8D     		or	a1,a5,a1
 193 000e 2316B100 		sh	a1,12(sp)
  97:main.c        ****     write_handle_raw(handle,bytes,2);
 194              		.loc 1 97 5 is_stmt 1
 195 0012 0946     		li	a2,2
 196 0014 6C00     		addi	a1,sp,12
  93:main.c        ****     uint8_t bytes[2] = {0};
 197              		.loc 1 93 56 is_stmt 0
 198 0016 06CE     		sw	ra,28(sp)
 199              		.cfi_offset 1, -4
 200              		.loc 1 97 5
 201 0018 97000000 		call	write_handle_raw
 201      E7800000 
 202              	.LVL18:
  98:main.c        **** }
 203              		.loc 1 98 1
 204 0020 F240     		lw	ra,28(sp)
 205              		.cfi_restore 1
 206 0022 0561     		addi	sp,sp,32
 207              	.LCFI4:
 208              		.cfi_def_cfa_offset 0
 209 0024 8280     		jr	ra
 210              		.cfi_endproc
 211              	.LFE8:
 213              		.globl	finapressHandles
 214              		.section	.text.stagger_data_to_phone,"ax",@progbits
 215              		.align	1
 216              		.globl	stagger_data_to_phone
 218              	stagger_data_to_phone:
 219              	.LFB9:
  99:main.c        **** 
 100:main.c        **** uint16_t finapressHandles[] = {
GAS LISTING /var/folders/yy/83vjwp7d53j56dbzj8_jnpcr0000gn/T//ccFNxmd6.s 			page 7


 101:main.c        ****     finapressHandle_ADC_A0,
 102:main.c        ****     finapressHandle_ADC_A1,
 103:main.c        ****     finapressHandle_ADC_A2,
 104:main.c        ****     finapressHandle_ADC_A3,
 105:main.c        ****     finapressHandle_ADC_A4,
 106:main.c        ****     finapressHandle_ADC_A5,
 107:main.c        ****     finapressHandle_ADC_A6,
 108:main.c        ****     finapressHandle_ADC_A7
 109:main.c        **** };
 110:main.c        **** 
 111:main.c        **** void stagger_data_to_phone(int16_t seconds) {
 220              		.loc 1 111 45 is_stmt 1
 221              		.cfi_startproc
 222              	.LVL19:
 112:main.c        ****     int16_t value = 0;
 223              		.loc 1 112 5
 113:main.c        ****     int emg = 0;
 224              		.loc 1 113 5
 114:main.c        **** 
 115:main.c        ****     // Calculate the index based on seconds, cycling through handles
 116:main.c        ****     int index = (seconds - 1) % 8;
 225              		.loc 1 116 5
 226              		.loc 1 116 9 is_stmt 0
 227 0000 A147     		li	a5,8
 228              		.loc 1 116 26
 229 0002 7D15     		addi	a0,a0,-1
 230              	.LVL20:
 231              		.loc 1 116 9
 232 0004 3365F502 		rem	a0,a0,a5
 233              	.LVL21:
 117:main.c        **** 
 118:main.c        ****     // Send data to the handle corresponding to the index
 119:main.c        ****     value = (int16_t)sample_buffer[index];
 234              		.loc 1 119 5 is_stmt 1
 120:main.c        **** 
 121:main.c        ****     send_data_to_phone(finapressHandles[index], value);
 235              		.loc 1 121 5
 119:main.c        **** 
 236              		.loc 1 119 35 is_stmt 0
 237 0008 37070000 		lui	a4,%hi(sample_buffer)
 238              		.loc 1 121 5
 239 000c B7070000 		lui	a5,%hi(.LANCHOR1)
 119:main.c        **** 
 240              		.loc 1 119 35
 241 0010 13070700 		addi	a4,a4,%lo(sample_buffer)
 242              		.loc 1 121 5
 243 0014 93870700 		addi	a5,a5,%lo(.LANCHOR1)
 119:main.c        **** 
 244              		.loc 1 119 35
 245 0018 0605     		slli	a0,a0,1
 246              	.LVL22:
 247 001a 2A97     		add	a4,a4,a0
 248              		.loc 1 121 5
 249 001c 3E95     		add	a0,a5,a0
 250 001e 83150700 		lh	a1,0(a4)
 251 0022 03550500 		lhu	a0,0(a0)
 252 0026 17030000 		tail	send_data_to_phone
GAS LISTING /var/folders/yy/83vjwp7d53j56dbzj8_jnpcr0000gn/T//ccFNxmd6.s 			page 8


 252      67000300 
 253              	.LVL23:
 254              		.cfi_endproc
 255              	.LFE9:
 257              		.section	.text.reboot_BT,"ax",@progbits
 258              		.align	1
 259              		.globl	reboot_BT
 261              	reboot_BT:
 262              	.LFB10:
 122:main.c        **** }
 123:main.c        **** 
 124:main.c        **** void reboot_BT(){
 263              		.loc 1 124 17 is_stmt 1
 264              		.cfi_startproc
 125:main.c        ****     lio_send_bt("R,1\r",4);//reboot bluetooth
 265              		.loc 1 125 5
 266 0000 37050000 		lui	a0,%hi(.LC9)
 124:main.c        ****     lio_send_bt("R,1\r",4);//reboot bluetooth
 267              		.loc 1 124 17 is_stmt 0
 268 0004 4111     		addi	sp,sp,-16
 269              	.LCFI5:
 270              		.cfi_def_cfa_offset 16
 271              		.loc 1 125 5
 272 0006 9145     		li	a1,4
 273 0008 13050500 		addi	a0,a0,%lo(.LC9)
 124:main.c        ****     lio_send_bt("R,1\r",4);//reboot bluetooth
 274              		.loc 1 124 17
 275 000c 06C6     		sw	ra,12(sp)
 276              		.cfi_offset 1, -4
 277              		.loc 1 125 5
 278 000e 97000000 		call	lio_send_bt
 278      E7800000 
 279              	.LVL24:
 126:main.c        ****     delay_1ms(50);
 280              		.loc 1 126 5 is_stmt 1
 127:main.c        **** }
 281              		.loc 1 127 1 is_stmt 0
 282 0016 B240     		lw	ra,12(sp)
 283              		.cfi_restore 1
 126:main.c        ****     delay_1ms(50);
 284              		.loc 1 126 5
 285 0018 13052003 		li	a0,50
 286              		.loc 1 127 1
 287 001c 4101     		addi	sp,sp,16
 288              	.LCFI6:
 289              		.cfi_def_cfa_offset 0
 126:main.c        ****     delay_1ms(50);
 290              		.loc 1 126 5
 291 001e 17030000 		tail	delay_1ms
 291      67000300 
 292              	.LVL25:
 293              		.cfi_endproc
 294              	.LFE10:
 296              		.section	.text.TIMER1_IRQHandler,"ax",@progbits
 297              		.align	1
 298              		.globl	TIMER1_IRQHandler
 300              	TIMER1_IRQHandler:
GAS LISTING /var/folders/yy/83vjwp7d53j56dbzj8_jnpcr0000gn/T//ccFNxmd6.s 			page 9


 301              	.LFB11:
 128:main.c        **** 
 129:main.c        **** void TIMER1_IRQHandler(void){
 302              		.loc 1 129 29 is_stmt 1
 303              		.cfi_startproc
 130:main.c        ****     if(!adc_flag_get(ADC0,ADC_FLAG_EOC)){
 304              		.loc 1 130 5
 305              		.loc 1 130 9 is_stmt 0
 306 0000 37250140 		li	a0,1073815552
 129:main.c        ****     if(!adc_flag_get(ADC0,ADC_FLAG_EOC)){
 307              		.loc 1 129 29
 308 0004 2D71     		addi	sp,sp,-288
 309              	.LCFI7:
 310              		.cfi_def_cfa_offset 288
 311              		.loc 1 130 9
 312 0006 8945     		li	a1,2
 313 0008 13050540 		addi	a0,a0,1024
 129:main.c        ****     if(!adc_flag_get(ADC0,ADC_FLAG_EOC)){
 314              		.loc 1 129 29
 315 000c 232E1110 		sw	ra,284(sp)
 316 0010 232C8110 		sw	s0,280(sp)
 317 0014 232A9110 		sw	s1,276(sp)
 318              		.cfi_offset 1, -4
 319              		.cfi_offset 8, -8
 320              		.cfi_offset 9, -12
 321              		.loc 1 130 9
 322 0018 97000000 		call	adc_flag_get
 322      E7800000 
 323              	.LVL26:
 324              		.loc 1 130 7
 325 0020 63110518 		bne	a0,zero,.L10
 326 0024 2A84     		mv	s0,a0
 327              	.LBB4:
 131:main.c        ****         uint16_t data_Buffer[8] = {0};
 328              		.loc 1 131 9 is_stmt 1
 132:main.c        ****         char str_buf[256] = {'\0'};
 329              		.loc 1 132 14 is_stmt 0
 330 0026 13060010 		li	a2,256
 331 002a 8145     		li	a1,0
 332 002c 0808     		addi	a0,sp,16
 131:main.c        ****         uint16_t data_Buffer[8] = {0};
 333              		.loc 1 131 18
 334 002e 02C0     		sw	zero,0(sp)
 335 0030 02C2     		sw	zero,4(sp)
 336 0032 02C4     		sw	zero,8(sp)
 337 0034 02C6     		sw	zero,12(sp)
 338              		.loc 1 132 9 is_stmt 1
 339              		.loc 1 132 14 is_stmt 0
 340 0036 97000000 		call	memset
 340      E7800000 
 341              	.LVL27:
 133:main.c        ****         for (int i = 0; i < 8; i++){
 342              		.loc 1 133 9 is_stmt 1
 343              	.LBB5:
 344              		.loc 1 133 14
 134:main.c        ****             data_Buffer[i] = sample_buffer[i];
 345              		.loc 1 134 43 is_stmt 0
GAS LISTING /var/folders/yy/83vjwp7d53j56dbzj8_jnpcr0000gn/T//ccFNxmd6.s 			page 10


 346 003e B7070000 		lui	a5,%hi(sample_buffer)
 347 0042 93870700 		addi	a5,a5,%lo(sample_buffer)
 133:main.c        ****         for (int i = 0; i < 8; i++){
 348              		.loc 1 133 9
 349 0046 4147     		li	a4,16
 350              	.LVL28:
 351              	.L12:
 352              		.loc 1 134 13 is_stmt 1 discriminator 3
 353              		.loc 1 134 43 is_stmt 0 discriminator 3
 354 0048 3306F400 		add	a2,s0,a5
 355              		.loc 1 134 28 discriminator 3
 356 004c 03560600 		lhu	a2,0(a2)
 357 0050 B3068100 		add	a3,sp,s0
 358 0054 0904     		addi	s0,s0,2
 359 0056 2390C600 		sh	a2,0(a3)
 133:main.c        ****         for (int i = 0; i < 8; i++){
 360              		.loc 1 133 9 discriminator 3
 361 005a E317E4FE 		bne	s0,a4,.L12
 362              	.LBE5:
 135:main.c        ****         }
 136:main.c        ****         adc_flag_clear(ADC0, ADC_FLAG_EOC); 
 363              		.loc 1 136 9 is_stmt 1
 364 005e 37240140 		li	s0,1073815552
 365 0062 8945     		li	a1,2
 366 0064 13050440 		addi	a0,s0,1024
 367 0068 97000000 		call	adc_flag_clear
 367      E7800000 
 368              	.LVL29:
 137:main.c        ****         adc_software_trigger_enable(ADC0, ADC_REGULAR_CHANNEL);
 369              		.loc 1 137 9
 370 0070 8545     		li	a1,1
 371 0072 13050440 		addi	a0,s0,1024
 372 0076 97000000 		call	adc_software_trigger_enable
 372      E7800000 
 373              	.LVL30:
 138:main.c        ****         /* Check which channel triggered the interrupt */
 139:main.c        ****         if (SET == timer_interrupt_flag_get(TIMER1, TIMER_INT_CH0)){
 374              		.loc 1 139 9
 375              		.loc 1 139 20 is_stmt 0
 376 007e 8945     		li	a1,2
 377 0080 37050040 		li	a0,1073741824
 378 0084 97000000 		call	timer_interrupt_flag_get
 378      E7800000 
 379              	.LVL31:
 380              		.loc 1 139 12
 381 008c 8547     		li	a5,1
 382 008e 631AF510 		bne	a0,a5,.L10
 140:main.c        ****             millisec++; // Add one each time an interrupt happens
 383              		.loc 1 140 13 is_stmt 1
 384              		.loc 1 140 21 is_stmt 0
 385 0092 B7040000 		lui	s1,%hi(.LANCHOR2)
 386 0096 93870400 		addi	a5,s1,%lo(.LANCHOR2)
 387 009a 9843     		lw	a4,0(a5)
 388 009c 37040000 		lui	s0,%hi(.LANCHOR3)
 389 00a0 93840400 		addi	s1,s1,%lo(.LANCHOR2)
 390 00a4 0507     		addi	a4,a4,1
 391 00a6 98C3     		sw	a4,0(a5)
GAS LISTING /var/folders/yy/83vjwp7d53j56dbzj8_jnpcr0000gn/T//ccFNxmd6.s 			page 11


 141:main.c        ****             
 142:main.c        ****             if (millisec == 1000){
 392              		.loc 1 142 13 is_stmt 1
 393              		.loc 1 142 26 is_stmt 0
 394 00a8 9843     		lw	a4,0(a5)
 395              		.loc 1 142 16
 396 00aa 9307803E 		li	a5,1000
 397 00ae 13040400 		addi	s0,s0,%lo(.LANCHOR3)
 398 00b2 6317F700 		bne	a4,a5,.L14
 143:main.c        ****                 millisec = 0;
 399              		.loc 1 143 17 is_stmt 1
 400              		.loc 1 143 26 is_stmt 0
 401 00b6 23A00400 		sw	zero,0(s1)
 144:main.c        ****                 seconds++;
 402              		.loc 1 144 17 is_stmt 1
 403              		.loc 1 144 24 is_stmt 0
 404 00ba 1C40     		lw	a5,0(s0)
 405 00bc 8507     		addi	a5,a5,1
 406 00be 1CC0     		sw	a5,0(s0)
 407              	.L14:
 145:main.c        ****             }
 146:main.c        **** 
 147:main.c        ****             if(millisec == 800){
 408              		.loc 1 147 13 is_stmt 1
 409              		.loc 1 147 25 is_stmt 0
 410 00c0 9840     		lw	a4,0(s1)
 411              		.loc 1 147 15
 412 00c2 93070032 		li	a5,800
 413 00c6 6319F700 		bne	a4,a5,.L15
 148:main.c        ****                 stagger_data_to_phone(seconds);
 414              		.loc 1 148 17 is_stmt 1
 415 00ca 0840     		lw	a0,0(s0)
 416 00cc 4205     		slli	a0,a0,16
 417 00ce 4185     		srai	a0,a0,16
 418 00d0 97000000 		call	stagger_data_to_phone
 418      E7800000 
 419              	.LVL32:
 420              	.L15:
 149:main.c        ****             }
 150:main.c        **** 
 151:main.c        ****             if (seconds == 60){
 421              		.loc 1 151 13
 422              		.loc 1 151 25 is_stmt 0
 423 00d8 1440     		lw	a3,0(s0)
 424 00da B7070000 		lui	a5,%hi(.LANCHOR4)
 425              		.loc 1 151 16
 426 00de 1307C003 		li	a4,60
 427 00e2 93870700 		addi	a5,a5,%lo(.LANCHOR4)
 428 00e6 6397E600 		bne	a3,a4,.L16
 152:main.c        ****                 seconds = 0;
 429              		.loc 1 152 17 is_stmt 1
 430              		.loc 1 152 25 is_stmt 0
 431 00ea 23200400 		sw	zero,0(s0)
 153:main.c        ****                 minutes++;
 432              		.loc 1 153 17 is_stmt 1
 433              		.loc 1 153 24 is_stmt 0
 434 00ee 9843     		lw	a4,0(a5)
GAS LISTING /var/folders/yy/83vjwp7d53j56dbzj8_jnpcr0000gn/T//ccFNxmd6.s 			page 12


 435 00f0 0507     		addi	a4,a4,1
 436 00f2 98C3     		sw	a4,0(a5)
 437              	.L16:
 154:main.c        ****                 
 155:main.c        ****             }
 156:main.c        **** 
 157:main.c        ****             formatTime(str_buf, minutes, seconds, millisec);
 438              		.loc 1 157 13 is_stmt 1
 439 00f4 8C43     		lw	a1,0(a5)
 440 00f6 1040     		lw	a2,0(s0)
 441 00f8 9440     		lw	a3,0(s1)
 442 00fa 0808     		addi	a0,sp,16
 443 00fc 97000000 		call	formatTime
 443      E7800000 
 444              	.LVL33:
 158:main.c        ****             append_int_to_string(str_buf, data_Buffer[0]);
 445              		.loc 1 158 13
 446 0104 83550100 		lhu	a1,0(sp)
 447 0108 0808     		addi	a0,sp,16
 448 010a 97000000 		call	append_int_to_string
 448      E7800000 
 449              	.LVL34:
 159:main.c        ****             append_int_to_string(str_buf, data_Buffer[1]);
 450              		.loc 1 159 13
 451 0112 83552100 		lhu	a1,2(sp)
 452 0116 0808     		addi	a0,sp,16
 453 0118 97000000 		call	append_int_to_string
 453      E7800000 
 454              	.LVL35:
 160:main.c        ****             append_int_to_string(str_buf, data_Buffer[2]);
 455              		.loc 1 160 13
 456 0120 83554100 		lhu	a1,4(sp)
 457 0124 0808     		addi	a0,sp,16
 458 0126 97000000 		call	append_int_to_string
 458      E7800000 
 459              	.LVL36:
 161:main.c        ****             append_int_to_string(str_buf, data_Buffer[3]);
 460              		.loc 1 161 13
 461 012e 83556100 		lhu	a1,6(sp)
 462 0132 0808     		addi	a0,sp,16
 463 0134 97000000 		call	append_int_to_string
 463      E7800000 
 464              	.LVL37:
 162:main.c        ****             append_int_to_string(str_buf, data_Buffer[4]);
 465              		.loc 1 162 13
 466 013c 83558100 		lhu	a1,8(sp)
 467 0140 0808     		addi	a0,sp,16
 468 0142 97000000 		call	append_int_to_string
 468      E7800000 
 469              	.LVL38:
 163:main.c        ****             append_int_to_string(str_buf, data_Buffer[5]);
 470              		.loc 1 163 13
 471 014a 8355A100 		lhu	a1,10(sp)
 472 014e 0808     		addi	a0,sp,16
 473 0150 97000000 		call	append_int_to_string
 473      E7800000 
 474              	.LVL39:
GAS LISTING /var/folders/yy/83vjwp7d53j56dbzj8_jnpcr0000gn/T//ccFNxmd6.s 			page 13


 164:main.c        ****             append_int_to_string(str_buf, data_Buffer[6]);
 475              		.loc 1 164 13
 476 0158 8355C100 		lhu	a1,12(sp)
 477 015c 0808     		addi	a0,sp,16
 478 015e 97000000 		call	append_int_to_string
 478      E7800000 
 479              	.LVL40:
 165:main.c        ****             append_int_to_string(str_buf, data_Buffer[7]);
 480              		.loc 1 165 13
 481 0166 8355E100 		lhu	a1,14(sp)
 482 016a 0808     		addi	a0,sp,16
 483 016c 97000000 		call	append_int_to_string
 483      E7800000 
 484              	.LVL41:
 166:main.c        ****             append_newLine(str_buf, strlen(str_buf));
 485              		.loc 1 166 13
 486              		.loc 1 166 37 is_stmt 0
 487 0174 0808     		addi	a0,sp,16
 488 0176 97000000 		call	strlen
 488      E7800000 
 489              	.LVL42:
 490              		.loc 1 166 13
 491 017e AA85     		mv	a1,a0
 492 0180 0808     		addi	a0,sp,16
 493 0182 97000000 		call	append_newLine
 493      E7800000 
 494              	.LVL43:
 167:main.c        **** 
 168:main.c        ****             enqueue_string(str_buf);
 495              		.loc 1 168 13 is_stmt 1
 496 018a 0808     		addi	a0,sp,16
 497 018c 97000000 		call	enqueue_string
 497      E7800000 
 498              	.LVL44:
 169:main.c        ****             timer_interrupt_flag_clear(TIMER1, TIMER_INT_CH0);
 499              		.loc 1 169 13
 500 0194 8945     		li	a1,2
 501 0196 37050040 		li	a0,1073741824
 502 019a 97000000 		call	timer_interrupt_flag_clear
 502      E7800000 
 503              	.LVL45:
 504              	.L10:
 505              	.LBE4:
 170:main.c        ****             
 171:main.c        ****         }
 172:main.c        ****     }
 173:main.c        **** }
 506              		.loc 1 173 1 is_stmt 0
 507 01a2 8320C111 		lw	ra,284(sp)
 508              		.cfi_restore 1
 509 01a6 03248111 		lw	s0,280(sp)
 510              		.cfi_restore 8
 511 01aa 83244111 		lw	s1,276(sp)
 512              		.cfi_restore 9
 513 01ae 1561     		addi	sp,sp,288
 514              	.LCFI8:
 515              		.cfi_def_cfa_offset 0
GAS LISTING /var/folders/yy/83vjwp7d53j56dbzj8_jnpcr0000gn/T//ccFNxmd6.s 			page 14


 516 01b0 8280     		jr	ra
 517              		.cfi_endproc
 518              	.LFE11:
 520              		.section	.text.startup.main,"ax",@progbits
 521              		.align	1
 522              		.globl	main
 524              	main:
 525              	.LFB12:
 174:main.c        **** 
 175:main.c        **** int main(void){
 526              		.loc 1 175 15 is_stmt 1
 527              		.cfi_startproc
 176:main.c        ****     init_q();
 528              		.loc 1 176 5
 175:main.c        ****     init_q();
 529              		.loc 1 175 15 is_stmt 0
 530 0000 7D73     		li	t1,-4096
 531 0002 130101AA 		addi	sp,sp,-1376
 532              	.LCFI9:
 533              		.cfi_def_cfa_offset 1376
 534 0006 232E1154 		sw	ra,1372(sp)
 535 000a 232C8154 		sw	s0,1368(sp)
 536 000e 232A9154 		sw	s1,1364(sp)
 537 0012 23282155 		sw	s2,1360(sp)
 538 0016 23263155 		sw	s3,1356(sp)
 539 001a 23244155 		sw	s4,1352(sp)
 540 001e 23225155 		sw	s5,1348(sp)
 541 0022 23206155 		sw	s6,1344(sp)
 542 0026 232E7153 		sw	s7,1340(sp)
 543 002a 232C8153 		sw	s8,1336(sp)
 544 002e 232A9153 		sw	s9,1332(sp)
 545 0032 2328A153 		sw	s10,1328(sp)
 546 0036 2326B153 		sw	s11,1324(sp)
 547 003a 1A91     		add	sp,sp,t1
 548              	.LCFI10:
 549              		.cfi_def_cfa_offset 5472
 550              		.cfi_offset 1, -4
 551              		.cfi_offset 8, -8
 552              		.cfi_offset 9, -12
 553              		.cfi_offset 18, -16
 554              		.cfi_offset 19, -20
 555              		.cfi_offset 20, -24
 556              		.cfi_offset 21, -28
 557              		.cfi_offset 22, -32
 558              		.cfi_offset 23, -36
 559              		.cfi_offset 24, -40
 560              		.cfi_offset 25, -44
 561              		.cfi_offset 26, -48
 562              		.cfi_offset 27, -52
 563              		.loc 1 176 5
 564 003c 97000000 		call	init_q
 564      E7800000 
 565              	.LVL46:
 177:main.c        ****     
 178:main.c        **** 
 179:main.c        ****     /* Handle for the mounted filesystem */
 180:main.c        ****     FATFS fs;
GAS LISTING /var/folders/yy/83vjwp7d53j56dbzj8_jnpcr0000gn/T//ccFNxmd6.s 			page 15


 566              		.loc 1 180 5 is_stmt 1
 181:main.c        **** 
 182:main.c        ****     /* FatFs return code */
 183:main.c        ****     volatile FRESULT fr;
 567              		.loc 1 183 5
 184:main.c        **** 
 185:main.c        ****     /* File handle */
 186:main.c        ****     FIL fil;
 568              		.loc 1 186 5
 187:main.c        **** 
 188:main.c        ****     /* Used for bytes written */
 189:main.c        ****     UINT bw = 0;
 569              		.loc 1 189 5
 190:main.c        ****     
 191:main.c        ****     /* Sets a valid date for when writing to file */
 192:main.c        ****     set_fattime(1980, 1, 1, 0, 0, 0); // 1980 Jan 1st, 00:00:00
 570              		.loc 1 192 5 is_stmt 0
 571 0044 0147     		li	a4,0
 572 0046 8146     		li	a3,0
 573 0048 8147     		li	a5,0
 574 004a 0546     		li	a2,1
 575 004c 8545     		li	a1,1
 576 004e 1305C07B 		li	a0,1980
 189:main.c        ****     
 577              		.loc 1 189 10
 578 0052 02C2     		sw	zero,4(sp)
 579              		.loc 1 192 5 is_stmt 1
 580 0054 97000000 		call	set_fattime
 580      E7800000 
 581              	.LVL47:
 193:main.c        ****     delay_1ms(100);
 582              		.loc 1 193 5
 583 005c 13054006 		li	a0,100
 584 0060 97000000 		call	delay_1ms
 584      E7800000 
 585              	.LVL48:
 194:main.c        **** 
 195:main.c        ****     /* This function "mounts" the SD-card which makes the filesystem available */
 196:main.c        ****     fr = f_mount(&fs, "test", 1); // Mount storage device
 586              		.loc 1 196 5
 587              		.loc 1 196 10 is_stmt 0
 588 0068 0569     		li	s2,4096
 189:main.c        ****     
 589              		.loc 1 189 10
 590 006a 7D74     		li	s0,-4096
 591              		.loc 1 196 10
 592 006c 93070952 		addi	a5,s2,1312
 593 0070 8A97     		add	a5,a5,sp
 594 0072 130504DD 		addi	a0,s0,-560
 595 0076 370B0000 		lui	s6,%hi(.LC10)
 596 007a 0546     		li	a2,1
 597 007c 93050B00 		addi	a1,s6,%lo(.LC10)
 598 0080 3E95     		add	a0,a5,a0
 599 0082 97000000 		call	f_mount
 599      E7800000 
 600              	.LVL49:
 197:main.c        ****     f_sync(&fil);
GAS LISTING /var/folders/yy/83vjwp7d53j56dbzj8_jnpcr0000gn/T//ccFNxmd6.s 			page 16


 601              		.loc 1 197 5
 602 008a 93070952 		addi	a5,s2,1312
 603 008e 8A97     		add	a5,a5,sp
 196:main.c        ****     f_sync(&fil);
 604              		.loc 1 196 8
 605 0090 2AC0     		sw	a0,0(sp)
 606              		.loc 1 197 5 is_stmt 1
 607 0092 130584BA 		addi	a0,s0,-1112
 608 0096 3E95     		add	a0,a5,a0
 609 0098 97000000 		call	f_sync
 609      E7800000 
 610              	.LVL50:
 198:main.c        **** 
 199:main.c        ****     /* This function opens a file. In this case, we are creating a file which we want to write to *
 200:main.c        ****     /* Filename should be at most 8 chars long and the extension should be at most 3 */
 201:main.c        ****     
 202:main.c        ****     delay_1ms(400);
 611              		.loc 1 202 5
 612 00a0 13050019 		li	a0,400
 613 00a4 97000000 		call	delay_1ms
 613      E7800000 
 614              	.LVL51:
 203:main.c        **** 
 204:main.c        ****     int ind_ble = 0;
 615              		.loc 1 204 5
 205:main.c        ****     char read_buf[80] = {'\0'};
 616              		.loc 1 205 5
 617              		.loc 1 205 10 is_stmt 0
 618 00ac 13060005 		li	a2,80
 619 00b0 8145     		li	a1,0
 620 00b2 2810     		addi	a0,sp,40
 621 00b4 97000000 		call	memset
 621      E7800000 
 622              	.LVL52:
 206:main.c        ****     char read_buf_ble[80] = {'\0'};
 623              		.loc 1 206 5 is_stmt 1
 624              		.loc 1 206 10 is_stmt 0
 625 00bc 13060005 		li	a2,80
 626 00c0 8145     		li	a1,0
 627 00c2 A818     		addi	a0,sp,120
 628 00c4 97000000 		call	memset
 628      E7800000 
 629              	.LVL53:
 207:main.c        ****     //configure_usb_serial(); //måste vara före lio_init_bt
 208:main.c        ****     lio_init_bt();
 630              		.loc 1 208 5 is_stmt 1
 631 00cc 97000000 		call	lio_init_bt
 631      E7800000 
 632              	.LVL54:
 209:main.c        ****     init_radio();
 633              		.loc 1 209 5
 634 00d4 97000000 		call	init_radio
 634      E7800000 
 635              	.LVL55:
 210:main.c        ****     dma_config();
 636              		.loc 1 210 5
 637 00dc 97000000 		call	dma_config
GAS LISTING /var/folders/yy/83vjwp7d53j56dbzj8_jnpcr0000gn/T//ccFNxmd6.s 			page 17


 637      E7800000 
 638              	.LVL56:
 211:main.c        ****     init_ADC_A0_A7();
 639              		.loc 1 211 5
 640 00e4 97000000 		call	init_ADC_A0_A7
 640      E7800000 
 641              	.LVL57:
 212:main.c        ****     ledInit();
 642              		.loc 1 212 5
 643 00ec 97000000 		call	ledInit
 643      E7800000 
 644              	.LVL58:
 213:main.c        ****     usb_delay_1ms(1);
 645              		.loc 1 213 5
 646 00f4 0545     		li	a0,1
 647 00f6 97000000 		call	usb_delay_1ms
 647      E7800000 
 648              	.LVL59:
 214:main.c        **** 
 215:main.c        ****     char write_to_sd[4096] = {'\0'};
 649              		.loc 1 215 5
 650              		.loc 1 215 10 is_stmt 0
 651 00fe 0566     		li	a2,4096
 652 0100 8145     		li	a1,0
 653 0102 13050152 		addi	a0,sp,1312
 654 0106 97000000 		call	memset
 654      E7800000 
 655              	.LVL60:
 216:main.c        ****     char buf[BUFFER_SIZE] = {'\0'};
 656              		.loc 1 216 5 is_stmt 1
 217:main.c        ****     int buf_size = 0;
 657              		.loc 1 217 5
 218:main.c        ****     char usb_data_buffer[4096] = {'\0'};
 658              		.loc 1 218 5
 219:main.c        ****     int dequeued_str_len = 0;
 659              		.loc 1 219 5
 220:main.c        **** 
 221:main.c        ****     write = 0;
 660              		.loc 1 221 5
 661              		.loc 1 221 11 is_stmt 0
 662 010e B7040000 		lui	s1,%hi(.LANCHOR5)
 663 0112 23A00400 		sw	zero,%lo(.LANCHOR5)(s1)
 222:main.c        **** 
 223:main.c        ****     int blink = 0;
 664              		.loc 1 223 5 is_stmt 1
 665              	.LVL61:
 224:main.c        ****     int onOff = 0;
 666              		.loc 1 224 5
 225:main.c        ****     
 226:main.c        ****     /* while(!usb_serial_available()){
 227:main.c        ****         delay_1ms(100);
 228:main.c        ****     } */
 229:main.c        **** 
 230:main.c        ****     int file_Nr = 0;
 667              		.loc 1 230 5
 231:main.c        ****     reboot_BT();
 668              		.loc 1 231 5
GAS LISTING /var/folders/yy/83vjwp7d53j56dbzj8_jnpcr0000gn/T//ccFNxmd6.s 			page 18


 669 0116 97000000 		call	reboot_BT
 669      E7800000 
 670              	.LVL62:
 232:main.c        ****     enter_command_mode();
 671              		.loc 1 232 5
 672 011e 97000000 		call	enter_command_mode
 672      E7800000 
 673              	.LVL63:
 233:main.c        ****     send_data_to_phone(finapressHandle_start_stop,0x00);
 674              		.loc 1 233 5
 675 0126 8145     		li	a1,0
 676 0128 13055007 		li	a0,117
 677 012c 97000000 		call	send_data_to_phone
 677      E7800000 
 678              	.LVL64:
 679              	.LBB6:
 234:main.c        ****     while(1){
 235:main.c        ****         switch (get_state()){
 236:main.c        ****             case START:
 237:main.c        ****                 eclic_global_interrupt_disable();    
 238:main.c        ****                 fr = f_mount(&fs, "test", 1); // Mount storage device
 239:main.c        ****                 f_sync(&fil);
 240:main.c        ****                 fr = f_open(&fil, FILENAME, FA_WRITE | FA_CREATE_ALWAYS);
 680              		.loc 1 240 22 is_stmt 0
 681 0134 B7090000 		lui	s3,%hi(.LANCHOR0)
 241:main.c        ****                 clear_queues();
 242:main.c        ****                 /* Write the header to the file */
 243:main.c        ****                 char header[] = "Time;A0;A1;A2;A3;A4;A5;A6;A7\n";
 244:main.c        ****                 //clear queue
 245:main.c        ****                 enqueue_string(header);
 246:main.c        ****             
 247:main.c        ****                 millisec = 0;
 248:main.c        ****                 seconds = 0;
 249:main.c        ****                 minutes = 0;
 250:main.c        ****                     
 251:main.c        ****                 //ENABLE interrupts for data collection
 252:main.c        ****                 set_state(RUNNING);
 253:main.c        ****                 write = 1;
 254:main.c        ****                 while(millis() < start_time);
 255:main.c        **** 
 256:main.c        ****                 timer_interrupt_config();
 257:main.c        ****                 
 258:main.c        ****                 //SKicka till telefon "JAg startar nu"
 259:main.c        ****                 eclic_global_interrupt_enable();  
 260:main.c        ****                 break;
 261:main.c        **** 
 262:main.c        ****             case STOP:
 263:main.c        ****                 //STOP CONTROL
 264:main.c        ****                 timer_interrupt_disable(TIMER1, TIMER_INT_CH0);
 265:main.c        ****                 eclic_global_interrupt_disable();
 266:main.c        ****                 //Skicka till telefon jag stoppar nu
 267:main.c        ****                 
 268:main.c        ****                 write_to_sd[0] = '\0';
 269:main.c        ****                 while(empty_string_queue(write_to_sd, 8)){
 270:main.c        ****                     f_write(&fil, write_to_sd, strlen(write_to_sd), &bw); // testa byt strlen till 
 682              		.loc 1 270 21
 683 0138 93070952 		addi	a5,s2,1312
GAS LISTING /var/folders/yy/83vjwp7d53j56dbzj8_jnpcr0000gn/T//ccFNxmd6.s 			page 19


 240:main.c        ****                 clear_queues();
 684              		.loc 1 240 22
 685 013c 93890900 		addi	s3,s3,%lo(.LANCHOR0)
 686              		.loc 1 270 21
 687 0140 930A44AE 		addi	s5,s0,-1308
 688 0144 8A97     		add	a5,a5,sp
 689              	.LBE6:
 224:main.c        ****     
 690              		.loc 1 224 9
 691 0146 814B     		li	s7,0
 223:main.c        ****     int onOff = 0;
 692              		.loc 1 223 9
 693 0148 014A     		li	s4,0
 694 014a 93840400 		addi	s1,s1,%lo(.LANCHOR5)
 695              	.LBB7:
 240:main.c        ****                 clear_queues();
 696              		.loc 1 240 22
 697 014e 138C8906 		addi	s8,s3,104
 247:main.c        ****                 seconds = 0;
 698              		.loc 1 247 26
 699 0152 B70C0000 		lui	s9,%hi(.LANCHOR2)
 700              		.loc 1 270 21
 701 0156 BE9A     		add	s5,a5,s5
 702              	.LVL65:
 703              	.L32:
 704              	.LBE7:
 234:main.c        ****         switch (get_state()){
 705              		.loc 1 234 5 is_stmt 1
 235:main.c        ****             case START:
 706              		.loc 1 235 9
 235:main.c        ****             case START:
 707              		.loc 1 235 17 is_stmt 0
 708 0158 97000000 		call	get_state
 708      E7800000 
 709              	.LVL66:
 235:main.c        ****             case START:
 710              		.loc 1 235 9
 711 0160 8547     		li	a5,1
 235:main.c        ****             case START:
 712              		.loc 1 235 17
 713 0162 2A89     		mv	s2,a0
 235:main.c        ****             case START:
 714              		.loc 1 235 9
 715 0164 6300F518 		beq	a0,a5,.L20
 716 0168 8947     		li	a5,2
 717 016a 6300F524 		beq	a0,a5,.L21
 718 016e 6DF5     		bne	a0,zero,.L32
 719              	.LBB8:
 271:main.c        ****                     f_sync(&fil);
 272:main.c        ****                     write_to_sd[0] = '\0';
 273:main.c        ****                 }    
 274:main.c        **** 
 275:main.c        ****                 f_close(&fil);
 276:main.c        ****                 write = 0;
 277:main.c        ****                 set_state(RUNNING);
 278:main.c        ****                 break;
 279:main.c        **** 
GAS LISTING /var/folders/yy/83vjwp7d53j56dbzj8_jnpcr0000gn/T//ccFNxmd6.s 			page 20


 280:main.c        ****             case RUNNING:
 281:main.c        ****                 //RUNNING CONTROL
 282:main.c        ****                 lio_read_bt(read_buf, 20);
 720              		.loc 1 282 17 is_stmt 1
 721 0170 856D     		li	s11,4096
 722 0172 93870D52 		addi	a5,s11,1312
 723 0176 8A97     		add	a5,a5,sp
 724 0178 130984B0 		addi	s2,s0,-1272
 725 017c 3E99     		add	s2,a5,s2
 726 017e D145     		li	a1,20
 727 0180 4A85     		mv	a0,s2
 728 0182 97000000 		call	lio_read_bt
 728      E7800000 
 729              	.LVL67:
 283:main.c        ****                 ind_ble = fuseStrings(read_buf_ble, read_buf);
 730              		.loc 1 283 17
 731              		.loc 1 283 27 is_stmt 0
 732 018a 93870D52 		addi	a5,s11,1312
 733 018e 8A97     		add	a5,a5,sp
 734 0190 130D84B5 		addi	s10,s0,-1192
 735 0194 3E9D     		add	s10,a5,s10
 736 0196 CA85     		mv	a1,s2
 737 0198 6A85     		mv	a0,s10
 738 019a 97000000 		call	fuseStrings
 738      E7800000 
 739              	.LVL68:
 284:main.c        ****                 memset(read_buf, '\0', sizeof(read_buf));
 740              		.loc 1 284 17 is_stmt 1
 741 01a2 13060005 		li	a2,80
 742 01a6 8145     		li	a1,0
 743 01a8 4A85     		mv	a0,s2
 744 01aa 97000000 		call	memset
 744      E7800000 
 745              	.LVL69:
 285:main.c        ****                 blink++;
 746              		.loc 1 285 17
 286:main.c        ****                 if (blink == 100000){
 747              		.loc 1 286 20 is_stmt 0
 748 01b2 E167     		li	a5,98304
 285:main.c        ****                 blink++;
 749              		.loc 1 285 22
 750 01b4 050A     		addi	s4,s4,1
 751              	.LVL70:
 752              		.loc 1 286 17 is_stmt 1
 753              		.loc 1 286 20 is_stmt 0
 754 01b6 9387076A 		addi	a5,a5,1696
 755 01ba 6312FA02 		bne	s4,a5,.L27
 287:main.c        ****                     blink = 0;
 756              		.loc 1 287 21 is_stmt 1
 757              	.LVL71:
 288:main.c        ****                     /* if(read_handle(finapressHandle_start_stop,read_buf_ble,1000)){
 289:main.c        ****                         led_on_b2();
 290:main.c        ****                     }else{
 291:main.c        ****                         led_off_b2();
 292:main.c        ****                     } */
 293:main.c        ****                     memset(read_buf_ble, '\0', sizeof(read_buf_ble));
 758              		.loc 1 293 21
GAS LISTING /var/folders/yy/83vjwp7d53j56dbzj8_jnpcr0000gn/T//ccFNxmd6.s 			page 21


 759 01be 13060005 		li	a2,80
 760 01c2 8145     		li	a1,0
 761 01c4 6A85     		mv	a0,s10
 762 01c6 97000000 		call	memset
 762      E7800000 
 763              	.LVL72:
 294:main.c        ****                     if(onOff){
 764              		.loc 1 294 21
 765              		.loc 1 294 23 is_stmt 0
 766 01ce 63860B26 		beq	s7,zero,.L28
 295:main.c        ****                         led_on_B0();
 767              		.loc 1 295 25 is_stmt 1
 768 01d2 97000000 		call	led_on_B0
 768      E7800000 
 769              	.LVL73:
 296:main.c        ****                         
 297:main.c        ****                         onOff = 0;
 770              		.loc 1 297 25
 771              		.loc 1 297 31 is_stmt 0
 772 01da 814B     		li	s7,0
 287:main.c        ****                     /* if(read_handle(finapressHandle_start_stop,read_buf_ble,1000)){
 773              		.loc 1 287 27
 774 01dc 014A     		li	s4,0
 775              	.LVL74:
 776              	.L27:
 298:main.c        ****                     }else{
 299:main.c        ****                         led_off_B0();
 300:main.c        ****                         onOff = 1;
 301:main.c        ****                     }
 302:main.c        ****                 }
 303:main.c        ****                 //printf("%s\r\n", read_buf_ble);
 304:main.c        ****                 if(!strcmp(read_buf_ble, BLUETOOTH_START_MESSAGE)){
 777              		.loc 1 304 17 is_stmt 1
 778              		.loc 1 304 21 is_stmt 0
 779 01de 8567     		li	a5,4096
 780 01e0 93870752 		addi	a5,a5,1312
 781 01e4 130984B5 		addi	s2,s0,-1192
 782 01e8 8A97     		add	a5,a5,sp
 783 01ea 3E99     		add	s2,a5,s2
 784 01ec 93854909 		addi	a1,s3,148
 785 01f0 4A85     		mv	a0,s2
 786 01f2 97000000 		call	strcmp
 786      E7800000 
 787              	.LVL75:
 788              		.loc 1 304 19
 789 01fa 63170524 		bne	a0,zero,.L29
 305:main.c        ****                     send_radio("empty",5);
 790              		.loc 1 305 21 is_stmt 1
 791 01fe 37050000 		lui	a0,%hi(.LC14)
 792 0202 9545     		li	a1,5
 793 0204 13050500 		addi	a0,a0,%lo(.LC14)
 794 0208 97000000 		call	send_radio
 794      E7800000 
 795              	.LVL76:
 306:main.c        ****                     delay_1ms(50);
 796              		.loc 1 306 21
 797 0210 13052003 		li	a0,50
GAS LISTING /var/folders/yy/83vjwp7d53j56dbzj8_jnpcr0000gn/T//ccFNxmd6.s 			page 22


 798 0214 97000000 		call	delay_1ms
 798      E7800000 
 799              	.LVL77:
 307:main.c        ****                     send_radio("start0", 6);
 800              		.loc 1 307 21
 801 021c 37050000 		lui	a0,%hi(.LC0)
 802 0220 9945     		li	a1,6
 803 0222 13050500 		addi	a0,a0,%lo(.LC0)
 804 0226 97000000 		call	send_radio
 804      E7800000 
 805              	.LVL78:
 308:main.c        ****                     memset(read_buf_ble, '\0', sizeof(read_buf_ble));
 806              		.loc 1 308 21
 807 022e 13060005 		li	a2,80
 808 0232 8145     		li	a1,0
 809 0234 4A85     		mv	a0,s2
 810 0236 97000000 		call	memset
 810      E7800000 
 811              	.LVL79:
 309:main.c        ****                     start_time = millis() + 1051;
 812              		.loc 1 309 21
 813              		.loc 1 309 34 is_stmt 0
 814 023e 97000000 		call	millis
 814      E7800000 
 815              	.LVL80:
 816              		.loc 1 309 32
 817 0246 B7070000 		lui	a5,%hi(.LANCHOR6)
 818              		.loc 1 309 43
 819 024a 1305B541 		addi	a0,a0,1051
 820              		.loc 1 309 32
 821 024e 23A0A700 		sw	a0,%lo(.LANCHOR6)(a5)
 310:main.c        ****                     led_on_B1();
 822              		.loc 1 310 21 is_stmt 1
 823 0252 97000000 		call	led_on_B1
 823      E7800000 
 824              	.LVL81:
 311:main.c        ****                     set_state(START);
 825              		.loc 1 311 21
 826 025a 0545     		li	a0,1
 827 025c 97000000 		call	set_state
 827      E7800000 
 828              	.LVL82:
 312:main.c        ****                     write = 1;
 829              		.loc 1 312 21
 830              		.loc 1 312 27 is_stmt 0
 831 0264 8547     		li	a5,1
 313:main.c        ****                     send_data_to_phone(finapressHandle_start_stop,0x01);
 832              		.loc 1 313 21
 833 0266 8545     		li	a1,1
 834 0268 13055007 		li	a0,117
 312:main.c        ****                     write = 1;
 835              		.loc 1 312 27
 836 026c 9CC0     		sw	a5,0(s1)
 837              		.loc 1 313 21 is_stmt 1
 838 026e 97000000 		call	send_data_to_phone
 838      E7800000 
 839              	.LVL83:
GAS LISTING /var/folders/yy/83vjwp7d53j56dbzj8_jnpcr0000gn/T//ccFNxmd6.s 			page 23


 314:main.c        ****                     led_on_B1();
 840              		.loc 1 314 21
 841 0276 97000000 		call	led_on_B1
 841      E7800000 
 842              	.LVL84:
 843              	.L30:
 315:main.c        ****                 }else if(!strcmp(read_buf_ble, BLUETOOTH_STOP_MESSAGE)){
 316:main.c        ****                     send_radio("empty",5);
 317:main.c        ****                     delay_1ms(50);
 318:main.c        ****                     send_radio("stopp0", 6);
 319:main.c        ****                     memset(read_buf_ble, '\0', sizeof(read_buf_ble));
 320:main.c        ****                     set_state(STOP);
 321:main.c        ****                     send_data_to_phone(finapressHandle_start_stop,0x00);
 322:main.c        ****                     write = 0;
 323:main.c        ****                     led_off_B1();
 324:main.c        ****                 }else if(!strcmp(read_buf_ble, RUNNING_MSG)){
 325:main.c        ****                     memset(read_buf_ble, '\0', sizeof(read_buf_ble));
 326:main.c        ****                 }//Vi kan koll vilket kommand vi får när vi connectar för att ta bort det. Just 
 327:main.c        **** 
 328:main.c        ****                 //BREAK IF PROGRAM SHOULDNT WRITE
 329:main.c        ****                 if(!write){
 844              		.loc 1 329 17
 845              		.loc 1 329 19 is_stmt 0
 846 027e 9C40     		lw	a5,0(s1)
 847 0280 E38C07EC 		beq	a5,zero,.L32
 330:main.c        ****                     break;
 331:main.c        ****                 }
 332:main.c        **** 
 333:main.c        ****                 //WRITE TO FILE
 334:main.c        ****                 if (queue_str_len() > 8){
 848              		.loc 1 334 17 is_stmt 1
 849              		.loc 1 334 21 is_stmt 0
 850 0284 97000000 		call	queue_str_len
 850      E7800000 
 851              	.LVL85:
 852              		.loc 1 334 20
 853 028c A147     		li	a5,8
 854 028e E3D5A7EC 		ble	a0,a5,.L32
 335:main.c        ****                     write_to_sd[0] = '\0';
 855              		.loc 1 335 21 is_stmt 1
 336:main.c        ****                     buf_size = dequeue_string(write_to_sd, 8);
 856              		.loc 1 336 32 is_stmt 0
 857 0292 A145     		li	a1,8
 858 0294 13050152 		addi	a0,sp,1312
 335:main.c        ****                     write_to_sd[0] = '\0';
 859              		.loc 1 335 36
 860 0298 23000152 		sb	zero,1312(sp)
 861              		.loc 1 336 21 is_stmt 1
 862              		.loc 1 336 32 is_stmt 0
 863 029c 97000000 		call	dequeue_string
 863      E7800000 
 864              	.LVL86:
 337:main.c        ****                     if(buf_size > 0){
 865              		.loc 1 337 21 is_stmt 1
 866              		.loc 1 337 23 is_stmt 0
 867 02a4 E35AA0EA 		ble	a0,zero,.L32
 338:main.c        ****                         //led_on();
GAS LISTING /var/folders/yy/83vjwp7d53j56dbzj8_jnpcr0000gn/T//ccFNxmd6.s 			page 24


 339:main.c        ****                         f_write(&fil, write_to_sd, strlen(write_to_sd), &bw); // testa byt strlen t
 868              		.loc 1 339 25 is_stmt 1
 869 02a8 13050152 		addi	a0,sp,1312
 870              	.LVL87:
 871 02ac 97000000 		call	strlen
 871      E7800000 
 872              	.LVL88:
 873 02b4 8567     		li	a5,4096
 874 02b6 93870752 		addi	a5,a5,1312
 875 02ba 8A97     		add	a5,a5,sp
 876 02bc 130984BA 		addi	s2,s0,-1112
 877 02c0 3E99     		add	s2,a5,s2
 878 02c2 2A86     		mv	a2,a0
 879 02c4 D686     		mv	a3,s5
 880 02c6 93050152 		addi	a1,sp,1312
 881 02ca 4A85     		mv	a0,s2
 882 02cc 97000000 		call	f_write
 882      E7800000 
 883              	.LVL89:
 340:main.c        ****                         f_sync(&fil);
 884              		.loc 1 340 25
 885 02d4 4A85     		mv	a0,s2
 886 02d6 97000000 		call	f_sync
 886      E7800000 
 887              	.LVL90:
 341:main.c        ****                         write_to_sd[0] = '\0';
 888              		.loc 1 341 25
 889              		.loc 1 341 40 is_stmt 0
 890 02de 23000152 		sb	zero,1312(sp)
 342:main.c        ****                         buf_size = 0;
 891              		.loc 1 342 25 is_stmt 1
 892              	.LVL91:
 893              	.LBE8:
 235:main.c        ****             case START:
 894              		.loc 1 235 9 is_stmt 0
 895 02e2 9DBD     		j	.L32
 896              	.LVL92:
 897              	.L20:
 898              	.LBB9:
 237:main.c        ****                 fr = f_mount(&fs, "test", 1); // Mount storage device
 899              		.loc 1 237 17 is_stmt 1
 900 02e4 97000000 		call	eclic_global_interrupt_disable
 900      E7800000 
 901              	.LVL93:
 238:main.c        ****                 f_sync(&fil);
 902              		.loc 1 238 17
 238:main.c        ****                 f_sync(&fil);
 903              		.loc 1 238 22 is_stmt 0
 904 02ec 856D     		li	s11,4096
 905 02ee 93870D52 		addi	a5,s11,1312
 906 02f2 8A97     		add	a5,a5,sp
 907 02f4 130504DD 		addi	a0,s0,-560
 908 02f8 0546     		li	a2,1
 909 02fa 93050B00 		addi	a1,s6,%lo(.LC10)
 910 02fe 3E95     		add	a0,a5,a0
 911 0300 97000000 		call	f_mount
 911      E7800000 
GAS LISTING /var/folders/yy/83vjwp7d53j56dbzj8_jnpcr0000gn/T//ccFNxmd6.s 			page 25


 912              	.LVL94:
 239:main.c        ****                 fr = f_open(&fil, FILENAME, FA_WRITE | FA_CREATE_ALWAYS);
 913              		.loc 1 239 17
 914 0308 93870D52 		addi	a5,s11,1312
 915 030c 8A97     		add	a5,a5,sp
 916 030e 130D84BA 		addi	s10,s0,-1112
 917 0312 3E9D     		add	s10,a5,s10
 238:main.c        ****                 f_sync(&fil);
 918              		.loc 1 238 20
 919 0314 2AC0     		sw	a0,0(sp)
 239:main.c        ****                 fr = f_open(&fil, FILENAME, FA_WRITE | FA_CREATE_ALWAYS);
 920              		.loc 1 239 17 is_stmt 1
 921 0316 6A85     		mv	a0,s10
 922 0318 97000000 		call	f_sync
 922      E7800000 
 923              	.LVL95:
 240:main.c        ****                 clear_queues();
 924              		.loc 1 240 17
 240:main.c        ****                 clear_queues();
 925              		.loc 1 240 22 is_stmt 0
 926 0320 2946     		li	a2,10
 927 0322 E285     		mv	a1,s8
 928 0324 6A85     		mv	a0,s10
 929 0326 97000000 		call	f_open
 929      E7800000 
 930              	.LVL96:
 240:main.c        ****                 clear_queues();
 931              		.loc 1 240 20
 932 032e 2AC0     		sw	a0,0(sp)
 241:main.c        ****                 /* Write the header to the file */
 933              		.loc 1 241 17 is_stmt 1
 934 0330 97000000 		call	clear_queues
 934      E7800000 
 935              	.LVL97:
 243:main.c        ****                 //clear queue
 936              		.loc 1 243 17
 243:main.c        ****                 //clear queue
 937              		.loc 1 243 22 is_stmt 0
 938 0338 7946     		li	a2,30
 939 033a 93854907 		addi	a1,s3,116
 940 033e 2800     		addi	a0,sp,8
 941 0340 97000000 		call	memcpy
 941      E7800000 
 942              	.LVL98:
 245:main.c        ****             
 943              		.loc 1 245 17 is_stmt 1
 944 0348 93870D52 		addi	a5,s11,1312
 945 034c 8A97     		add	a5,a5,sp
 946 034e 130584AE 		addi	a0,s0,-1304
 947 0352 3E95     		add	a0,a5,a0
 948 0354 97000000 		call	enqueue_string
 948      E7800000 
 949              	.LVL99:
 247:main.c        ****                 seconds = 0;
 950              		.loc 1 247 17
 247:main.c        ****                 seconds = 0;
 951              		.loc 1 247 26 is_stmt 0
GAS LISTING /var/folders/yy/83vjwp7d53j56dbzj8_jnpcr0000gn/T//ccFNxmd6.s 			page 26


 952 035c 93870C00 		addi	a5,s9,%lo(.LANCHOR2)
 953 0360 23A00700 		sw	zero,0(a5)
 248:main.c        ****                 minutes = 0;
 954              		.loc 1 248 17 is_stmt 1
 248:main.c        ****                 minutes = 0;
 955              		.loc 1 248 25 is_stmt 0
 956 0364 B7070000 		lui	a5,%hi(.LANCHOR3)
 957 0368 23A00700 		sw	zero,%lo(.LANCHOR3)(a5)
 249:main.c        ****                     
 958              		.loc 1 249 17 is_stmt 1
 252:main.c        ****                 write = 1;
 959              		.loc 1 252 17 is_stmt 0
 960 036c 0145     		li	a0,0
 249:main.c        ****                     
 961              		.loc 1 249 25
 962 036e B7070000 		lui	a5,%hi(.LANCHOR4)
 963 0372 23A00700 		sw	zero,%lo(.LANCHOR4)(a5)
 252:main.c        ****                 write = 1;
 964              		.loc 1 252 17 is_stmt 1
 965 0376 97000000 		call	set_state
 965      E7800000 
 966              	.LVL100:
 253:main.c        ****                 while(millis() < start_time);
 967              		.loc 1 253 17
 253:main.c        ****                 while(millis() < start_time);
 968              		.loc 1 253 23 is_stmt 0
 969 037e 23A02401 		sw	s2,0(s1)
 254:main.c        **** 
 970              		.loc 1 254 17 is_stmt 1
 254:main.c        **** 
 971              		.loc 1 254 32 is_stmt 0
 972 0382 37090000 		lui	s2,%hi(.LANCHOR6)
 973              	.L24:
 254:main.c        **** 
 974              		.loc 1 254 45 is_stmt 1 discriminator 1
 254:main.c        **** 
 975              		.loc 1 254 23 is_stmt 0 discriminator 1
 976 0386 97000000 		call	millis
 976      E7800000 
 977              	.LVL101:
 254:main.c        **** 
 978              		.loc 1 254 32 discriminator 1
 979 038e 93070900 		addi	a5,s2,%lo(.LANCHOR6)
 980 0392 9C43     		lw	a5,0(a5)
 254:main.c        **** 
 981              		.loc 1 254 22 discriminator 1
 982 0394 E349F5FE 		blt	a0,a5,.L24
 256:main.c        ****                 
 983              		.loc 1 256 17 is_stmt 1
 984 0398 97000000 		call	timer_interrupt_config
 984      E7800000 
 985              	.LVL102:
 259:main.c        ****                 break;
 986              		.loc 1 259 17
 987 03a0 97000000 		call	eclic_global_interrupt_enable
 987      E7800000 
 988              	.LVL103:
GAS LISTING /var/folders/yy/83vjwp7d53j56dbzj8_jnpcr0000gn/T//ccFNxmd6.s 			page 27


 260:main.c        **** 
 989              		.loc 1 260 17
 990 03a8 45BB     		j	.L32
 991              	.L21:
 264:main.c        ****                 eclic_global_interrupt_disable();
 992              		.loc 1 264 17
 993 03aa 8945     		li	a1,2
 994 03ac 37050040 		li	a0,1073741824
 995 03b0 97000000 		call	timer_interrupt_disable
 995      E7800000 
 996              	.LVL104:
 265:main.c        ****                 //Skicka till telefon jag stoppar nu
 997              		.loc 1 265 17
 998 03b8 97000000 		call	eclic_global_interrupt_disable
 998      E7800000 
 999              	.LVL105:
 268:main.c        ****                 while(empty_string_queue(write_to_sd, 8)){
 1000              		.loc 1 268 17
 268:main.c        ****                 while(empty_string_queue(write_to_sd, 8)){
 1001              		.loc 1 268 32 is_stmt 0
 1002 03c0 0567     		li	a4,4096
 1003 03c2 93070752 		addi	a5,a4,1312
 1004 03c6 8A97     		add	a5,a5,sp
 1005 03c8 33898700 		add	s2,a5,s0
 270:main.c        ****                     f_sync(&fil);
 1006              		.loc 1 270 21
 1007 03cc 93070752 		addi	a5,a4,1312
 1008 03d0 130D84BA 		addi	s10,s0,-1112
 1009 03d4 8A97     		add	a5,a5,sp
 268:main.c        ****                 while(empty_string_queue(write_to_sd, 8)){
 1010              		.loc 1 268 32
 1011 03d6 23000900 		sb	zero,0(s2)
 269:main.c        ****                     f_write(&fil, write_to_sd, strlen(write_to_sd), &bw); // testa byt strlen till 
 1012              		.loc 1 269 17 is_stmt 1
 270:main.c        ****                     f_sync(&fil);
 1013              		.loc 1 270 21 is_stmt 0
 1014 03da 3E9D     		add	s10,a5,s10
 1015              	.L25:
 269:main.c        ****                     f_write(&fil, write_to_sd, strlen(write_to_sd), &bw); // testa byt strlen till 
 1016              		.loc 1 269 23
 1017 03dc A145     		li	a1,8
 1018 03de 4A85     		mv	a0,s2
 1019 03e0 97000000 		call	empty_string_queue
 1019      E7800000 
 1020              	.LVL106:
 269:main.c        ****                     f_write(&fil, write_to_sd, strlen(write_to_sd), &bw); // testa byt strlen till 
 1021              		.loc 1 269 22
 1022 03e8 05E5     		bne	a0,zero,.L26
 275:main.c        ****                 write = 0;
 1023              		.loc 1 275 17 is_stmt 1
 1024 03ea 8567     		li	a5,4096
 1025 03ec 93870752 		addi	a5,a5,1312
 1026 03f0 8A97     		add	a5,a5,sp
 1027 03f2 130584BA 		addi	a0,s0,-1112
 1028 03f6 3E95     		add	a0,a5,a0
 1029 03f8 97000000 		call	f_close
 1029      E7800000 
GAS LISTING /var/folders/yy/83vjwp7d53j56dbzj8_jnpcr0000gn/T//ccFNxmd6.s 			page 28


 1030              	.LVL107:
 276:main.c        ****                 set_state(RUNNING);
 1031              		.loc 1 276 17
 277:main.c        ****                 break;
 1032              		.loc 1 277 17 is_stmt 0
 1033 0400 0145     		li	a0,0
 276:main.c        ****                 set_state(RUNNING);
 1034              		.loc 1 276 23
 1035 0402 23A00400 		sw	zero,0(s1)
 277:main.c        ****                 break;
 1036              		.loc 1 277 17 is_stmt 1
 1037 0406 97000000 		call	set_state
 1037      E7800000 
 1038              	.LVL108:
 278:main.c        **** 
 1039              		.loc 1 278 17
 1040 040e A9B3     		j	.L32
 1041              	.L26:
 270:main.c        ****                     f_sync(&fil);
 1042              		.loc 1 270 21
 1043 0410 4A85     		mv	a0,s2
 1044 0412 97000000 		call	strlen
 1044      E7800000 
 1045              	.LVL109:
 1046 041a 2A86     		mv	a2,a0
 1047 041c D686     		mv	a3,s5
 1048 041e CA85     		mv	a1,s2
 1049 0420 6A85     		mv	a0,s10
 1050 0422 97000000 		call	f_write
 1050      E7800000 
 1051              	.LVL110:
 271:main.c        ****                     write_to_sd[0] = '\0';
 1052              		.loc 1 271 21
 1053 042a 6A85     		mv	a0,s10
 1054 042c 97000000 		call	f_sync
 1054      E7800000 
 1055              	.LVL111:
 272:main.c        ****                 }    
 1056              		.loc 1 272 21
 272:main.c        ****                 }    
 1057              		.loc 1 272 36 is_stmt 0
 1058 0434 23000900 		sb	zero,0(s2)
 1059 0438 55B7     		j	.L25
 1060              	.LVL112:
 1061              	.L28:
 299:main.c        ****                         onOff = 1;
 1062              		.loc 1 299 25 is_stmt 1
 1063 043a 97000000 		call	led_off_B0
 1063      E7800000 
 1064              	.LVL113:
 300:main.c        ****                     }
 1065              		.loc 1 300 25
 287:main.c        ****                     /* if(read_handle(finapressHandle_start_stop,read_buf_ble,1000)){
 1066              		.loc 1 287 27 is_stmt 0
 1067 0442 014A     		li	s4,0
 300:main.c        ****                     }
 1068              		.loc 1 300 31
GAS LISTING /var/folders/yy/83vjwp7d53j56dbzj8_jnpcr0000gn/T//ccFNxmd6.s 			page 29


 1069 0444 854B     		li	s7,1
 1070 0446 61BB     		j	.L27
 1071              	.LVL114:
 1072              	.L29:
 315:main.c        ****                     send_radio("empty",5);
 1073              		.loc 1 315 23 is_stmt 1
 315:main.c        ****                     send_radio("empty",5);
 1074              		.loc 1 315 27 is_stmt 0
 1075 0448 9385C90A 		addi	a1,s3,172
 1076 044c 4A85     		mv	a0,s2
 1077 044e 97000000 		call	strcmp
 1077      E7800000 
 1078              	.LVL115:
 315:main.c        ****                     send_radio("empty",5);
 1079              		.loc 1 315 25
 1080 0456 25E5     		bne	a0,zero,.L31
 316:main.c        ****                     delay_1ms(50);
 1081              		.loc 1 316 21 is_stmt 1
 1082 0458 37050000 		lui	a0,%hi(.LC14)
 1083 045c 9545     		li	a1,5
 1084 045e 13050500 		addi	a0,a0,%lo(.LC14)
 1085 0462 97000000 		call	send_radio
 1085      E7800000 
 1086              	.LVL116:
 317:main.c        ****                     send_radio("stopp0", 6);
 1087              		.loc 1 317 21
 1088 046a 13052003 		li	a0,50
 1089 046e 97000000 		call	delay_1ms
 1089      E7800000 
 1090              	.LVL117:
 318:main.c        ****                     memset(read_buf_ble, '\0', sizeof(read_buf_ble));
 1091              		.loc 1 318 21
 1092 0476 37050000 		lui	a0,%hi(.LC3)
 1093 047a 9945     		li	a1,6
 1094 047c 13050500 		addi	a0,a0,%lo(.LC3)
 1095 0480 97000000 		call	send_radio
 1095      E7800000 
 1096              	.LVL118:
 319:main.c        ****                     set_state(STOP);
 1097              		.loc 1 319 21
 1098 0488 13060005 		li	a2,80
 1099 048c 8145     		li	a1,0
 1100 048e 4A85     		mv	a0,s2
 1101 0490 97000000 		call	memset
 1101      E7800000 
 1102              	.LVL119:
 320:main.c        ****                     send_data_to_phone(finapressHandle_start_stop,0x00);
 1103              		.loc 1 320 21
 1104 0498 0945     		li	a0,2
 1105 049a 97000000 		call	set_state
 1105      E7800000 
 1106              	.LVL120:
 321:main.c        ****                     write = 0;
 1107              		.loc 1 321 21
 1108 04a2 8145     		li	a1,0
 1109 04a4 13055007 		li	a0,117
 1110 04a8 97000000 		call	send_data_to_phone
GAS LISTING /var/folders/yy/83vjwp7d53j56dbzj8_jnpcr0000gn/T//ccFNxmd6.s 			page 30


 1110      E7800000 
 1111              	.LVL121:
 322:main.c        ****                     led_off_B1();
 1112              		.loc 1 322 21
 322:main.c        ****                     led_off_B1();
 1113              		.loc 1 322 27 is_stmt 0
 1114 04b0 23A00400 		sw	zero,0(s1)
 323:main.c        ****                 }else if(!strcmp(read_buf_ble, RUNNING_MSG)){
 1115              		.loc 1 323 21 is_stmt 1
 1116 04b4 97000000 		call	led_off_B1
 1116      E7800000 
 1117              	.LVL122:
 1118 04bc C9B3     		j	.L30
 1119              	.L31:
 324:main.c        ****                     memset(read_buf_ble, '\0', sizeof(read_buf_ble));
 1120              		.loc 1 324 23
 324:main.c        ****                     memset(read_buf_ble, '\0', sizeof(read_buf_ble));
 1121              		.loc 1 324 27 is_stmt 0
 1122 04be 9385C90B 		addi	a1,s3,188
 1123 04c2 4A85     		mv	a0,s2
 1124 04c4 97000000 		call	strcmp
 1124      E7800000 
 1125              	.LVL123:
 324:main.c        ****                     memset(read_buf_ble, '\0', sizeof(read_buf_ble));
 1126              		.loc 1 324 25
 1127 04cc E31905DA 		bne	a0,zero,.L30
 325:main.c        ****                 }//Vi kan koll vilket kommand vi får när vi connectar för att ta bort det. Just 
 1128              		.loc 1 325 21 is_stmt 1
 1129 04d0 13060005 		li	a2,80
 1130 04d4 8145     		li	a1,0
 1131 04d6 4A85     		mv	a0,s2
 1132 04d8 97000000 		call	memset
 1132      E7800000 
 1133              	.LVL124:
 1134 04e0 79BB     		j	.L30
 1135              	.LBE9:
 1136              		.cfi_endproc
 1137              	.LFE12:
 1139              		.section	.text.ledInit,"ax",@progbits
 1140              		.align	1
 1141              		.globl	ledInit
 1143              	ledInit:
 1144              	.LFB13:
 343:main.c        ****                         //led_off();
 344:main.c        ****                     }
 345:main.c        ****                 } 
 346:main.c        ****                 break;
 347:main.c        ****             default:
 348:main.c        ****                 break;
 349:main.c        ****         }
 350:main.c        ****     }
 351:main.c        **** }
 352:main.c        **** 
 353:main.c        **** void ledInit (void){
 1145              		.loc 1 353 20
 1146              		.cfi_startproc
 354:main.c        ****     rcu_periph_clock_enable(RCU_GPIOB);
GAS LISTING /var/folders/yy/83vjwp7d53j56dbzj8_jnpcr0000gn/T//ccFNxmd6.s 			page 31


 1147              		.loc 1 354 5
 353:main.c        ****     rcu_periph_clock_enable(RCU_GPIOB);
 1148              		.loc 1 353 20 is_stmt 0
 1149 0000 4111     		addi	sp,sp,-16
 1150              	.LCFI11:
 1151              		.cfi_def_cfa_offset 16
 1152              		.loc 1 354 5
 1153 0002 13053060 		li	a0,1539
 353:main.c        ****     rcu_periph_clock_enable(RCU_GPIOB);
 1154              		.loc 1 353 20
 1155 0006 06C6     		sw	ra,12(sp)
 1156              		.cfi_offset 1, -4
 1157              		.loc 1 354 5
 1158 0008 97000000 		call	rcu_periph_clock_enable
 1158      E7800000 
 1159              	.LVL125:
 355:main.c        **** 	gpio_init(GPIOB, GPIO_MODE_OUT_PP, GPIO_OSPEED_50MHZ, GPIO_PIN_0 | GPIO_PIN_1 | GPIO_PIN_2);
 1160              		.loc 1 355 2 is_stmt 1
 356:main.c        **** }
 1161              		.loc 1 356 1 is_stmt 0
 1162 0010 B240     		lw	ra,12(sp)
 1163              		.cfi_restore 1
 355:main.c        **** 	gpio_init(GPIOB, GPIO_MODE_OUT_PP, GPIO_OSPEED_50MHZ, GPIO_PIN_0 | GPIO_PIN_1 | GPIO_PIN_2);
 1164              		.loc 1 355 2
 1165 0012 37150140 		li	a0,1073811456
 1166              		.loc 1 356 1
 355:main.c        **** 	gpio_init(GPIOB, GPIO_MODE_OUT_PP, GPIO_OSPEED_50MHZ, GPIO_PIN_0 | GPIO_PIN_1 | GPIO_PIN_2);
 1167              		.loc 1 355 2
 1168 0016 9D46     		li	a3,7
 1169 0018 0D46     		li	a2,3
 1170 001a C145     		li	a1,16
 1171 001c 130505C0 		addi	a0,a0,-1024
 1172              		.loc 1 356 1
 1173 0020 4101     		addi	sp,sp,16
 1174              	.LCFI12:
 1175              		.cfi_def_cfa_offset 0
 355:main.c        **** 	gpio_init(GPIOB, GPIO_MODE_OUT_PP, GPIO_OSPEED_50MHZ, GPIO_PIN_0 | GPIO_PIN_1 | GPIO_PIN_2);
 1176              		.loc 1 355 2
 1177 0022 17030000 		tail	gpio_init
 1177      67000300 
 1178              	.LVL126:
 1179              		.cfi_endproc
 1180              	.LFE13:
 1182              		.section	.text.led_on_B1,"ax",@progbits
 1183              		.align	1
 1184              		.globl	led_on_B1
 1186              	led_on_B1:
 1187              	.LFB14:
 357:main.c        **** 
 358:main.c        **** void led_on_B1(){
 1188              		.loc 1 358 17 is_stmt 1
 1189              		.cfi_startproc
 359:main.c        ****     gpio_bit_write(GPIOB, GPIO_PIN_1, 1);
 1190              		.loc 1 359 5
 1191 0000 37150140 		li	a0,1073811456
 1192 0004 0546     		li	a2,1
 1193 0006 8945     		li	a1,2
GAS LISTING /var/folders/yy/83vjwp7d53j56dbzj8_jnpcr0000gn/T//ccFNxmd6.s 			page 32


 1194 0008 130505C0 		addi	a0,a0,-1024
 1195 000c 17030000 		tail	gpio_bit_write
 1195      67000300 
 1196              	.LVL127:
 1197              		.cfi_endproc
 1198              	.LFE14:
 1200              		.section	.text.led_off_B1,"ax",@progbits
 1201              		.align	1
 1202              		.globl	led_off_B1
 1204              	led_off_B1:
 1205              	.LFB15:
 360:main.c        **** }
 361:main.c        **** void led_off_B1(){
 1206              		.loc 1 361 18
 1207              		.cfi_startproc
 362:main.c        ****     gpio_bit_write(GPIOB, GPIO_PIN_1, 0);
 1208              		.loc 1 362 5
 1209 0000 37150140 		li	a0,1073811456
 1210 0004 0146     		li	a2,0
 1211 0006 8945     		li	a1,2
 1212 0008 130505C0 		addi	a0,a0,-1024
 1213 000c 17030000 		tail	gpio_bit_write
 1213      67000300 
 1214              	.LVL128:
 1215              		.cfi_endproc
 1216              	.LFE15:
 1218              		.section	.text.led_on_b2,"ax",@progbits
 1219              		.align	1
 1220              		.globl	led_on_b2
 1222              	led_on_b2:
 1223              	.LFB16:
 363:main.c        **** }
 364:main.c        **** void led_on_b2(){
 1224              		.loc 1 364 17
 1225              		.cfi_startproc
 365:main.c        ****     gpio_bit_write(GPIOB, GPIO_PIN_2, 1);
 1226              		.loc 1 365 5
 1227 0000 37150140 		li	a0,1073811456
 1228 0004 0546     		li	a2,1
 1229 0006 9145     		li	a1,4
 1230 0008 130505C0 		addi	a0,a0,-1024
 1231 000c 17030000 		tail	gpio_bit_write
 1231      67000300 
 1232              	.LVL129:
 1233              		.cfi_endproc
 1234              	.LFE16:
 1236              		.section	.text.led_off_b2,"ax",@progbits
 1237              		.align	1
 1238              		.globl	led_off_b2
 1240              	led_off_b2:
 1241              	.LFB17:
 366:main.c        **** }
 367:main.c        **** 
 368:main.c        **** void led_off_b2(){
 1242              		.loc 1 368 18
 1243              		.cfi_startproc
 369:main.c        ****     gpio_bit_write(GPIOB, GPIO_PIN_2, 0);
GAS LISTING /var/folders/yy/83vjwp7d53j56dbzj8_jnpcr0000gn/T//ccFNxmd6.s 			page 33


 1244              		.loc 1 369 5
 1245 0000 37150140 		li	a0,1073811456
 1246 0004 0146     		li	a2,0
 1247 0006 9145     		li	a1,4
 1248 0008 130505C0 		addi	a0,a0,-1024
 1249 000c 17030000 		tail	gpio_bit_write
 1249      67000300 
 1250              	.LVL130:
 1251              		.cfi_endproc
 1252              	.LFE17:
 1254              		.section	.text.led_on_B0,"ax",@progbits
 1255              		.align	1
 1256              		.globl	led_on_B0
 1258              	led_on_B0:
 1259              	.LFB18:
 370:main.c        **** }
 371:main.c        **** 
 372:main.c        **** void led_on_B0(){
 1260              		.loc 1 372 17
 1261              		.cfi_startproc
 373:main.c        ****     gpio_bit_write(GPIOB, GPIO_PIN_0, 1);
 1262              		.loc 1 373 5
 1263 0000 37150140 		li	a0,1073811456
 1264 0004 0546     		li	a2,1
 1265 0006 8545     		li	a1,1
 1266 0008 130505C0 		addi	a0,a0,-1024
 1267 000c 17030000 		tail	gpio_bit_write
 1267      67000300 
 1268              	.LVL131:
 1269              		.cfi_endproc
 1270              	.LFE18:
 1272              		.section	.text.led_off_B0,"ax",@progbits
 1273              		.align	1
 1274              		.globl	led_off_B0
 1276              	led_off_B0:
 1277              	.LFB19:
 374:main.c        **** }
 375:main.c        **** void led_off_B0(){
 1278              		.loc 1 375 18
 1279              		.cfi_startproc
 376:main.c        ****     gpio_bit_write(GPIOB, GPIO_PIN_0, 0);
 1280              		.loc 1 376 5
 1281 0000 37150140 		li	a0,1073811456
 1282 0004 0146     		li	a2,0
 1283 0006 8545     		li	a1,1
 1284 0008 130505C0 		addi	a0,a0,-1024
 1285 000c 17030000 		tail	gpio_bit_write
 1285      67000300 
 1286              	.LVL132:
 1287              		.cfi_endproc
 1288              	.LFE19:
 1290              		.section	.text.timer_interrupt_config,"ax",@progbits
 1291              		.align	1
 1292              		.globl	timer_interrupt_config
 1294              	timer_interrupt_config:
 1295              	.LFB20:
 377:main.c        **** }
GAS LISTING /var/folders/yy/83vjwp7d53j56dbzj8_jnpcr0000gn/T//ccFNxmd6.s 			page 34


 378:main.c        **** 
 379:main.c        **** void timer_interrupt_config(){
 1296              		.loc 1 379 30
 1297              		.cfi_startproc
 380:main.c        ****     timer_oc_parameter_struct timer_ocinitpara;
 1298              		.loc 1 380 5
 381:main.c        ****     timer_parameter_struct timer_initpara;
 1299              		.loc 1 381 5
 382:main.c        **** 
 383:main.c        ****     eclic_irq_enable(TIMER1_IRQn, 1, 0);
 1300              		.loc 1 383 5
 379:main.c        ****     timer_oc_parameter_struct timer_ocinitpara;
 1301              		.loc 1 379 30 is_stmt 0
 1302 0000 7971     		addi	sp,sp,-48
 1303              	.LCFI13:
 1304              		.cfi_def_cfa_offset 48
 1305              		.loc 1 383 5
 1306 0002 0146     		li	a2,0
 1307 0004 8545     		li	a1,1
 1308 0006 1305F002 		li	a0,47
 379:main.c        ****     timer_oc_parameter_struct timer_ocinitpara;
 1309              		.loc 1 379 30
 1310 000a 06D6     		sw	ra,44(sp)
 1311 000c 22D4     		sw	s0,40(sp)
 1312 000e 26D2     		sw	s1,36(sp)
 1313              		.cfi_offset 1, -4
 1314              		.cfi_offset 8, -8
 1315              		.cfi_offset 9, -12
 1316              		.loc 1 383 5
 1317 0010 97000000 		call	eclic_irq_enable
 1317      E7800000 
 1318              	.LVL133:
 384:main.c        **** 
 385:main.c        ****     rcu_periph_clock_enable(RCU_TIMER1);
 1319              		.loc 1 385 5 is_stmt 1
 1320 0018 13050070 		li	a0,1792
 1321 001c 97000000 		call	rcu_periph_clock_enable
 1321      E7800000 
 1322              	.LVL134:
 386:main.c        **** 
 387:main.c        ****     timer_deinit(TIMER1);
 1323              		.loc 1 387 5
 1324 0024 37050040 		li	a0,1073741824
 1325 0028 97000000 		call	timer_deinit
 1325      E7800000 
 1326              	.LVL135:
 388:main.c        **** 
 389:main.c        ****     timer_struct_para_init(&timer_initpara);
 1327              		.loc 1 389 5
 1328 0030 0808     		addi	a0,sp,16
 1329 0032 97000000 		call	timer_struct_para_init
 1329      E7800000 
 1330              	.LVL136:
 390:main.c        **** 
 391:main.c        ****     /* TIMER1 configuration */
 392:main.c        ****     /* Frequency = core clock / ((1+prescaler)*period) = 108MHz / (2*54000) = 1KHz */
 393:main.c        ****     timer_initpara.prescaler = 1;
GAS LISTING /var/folders/yy/83vjwp7d53j56dbzj8_jnpcr0000gn/T//ccFNxmd6.s 			page 35


 1331              		.loc 1 393 5
 394:main.c        ****     timer_initpara.alignedmode = TIMER_COUNTER_EDGE;
 1332              		.loc 1 394 5
 395:main.c        ****     timer_initpara.counterdirection = TIMER_COUNTER_UP;
 1333              		.loc 1 395 5
 396:main.c        ****     timer_initpara.period = SystemCoreClock/2000;
 1334              		.loc 1 396 44 is_stmt 0
 1335 003a 37040000 		lui	s0,%hi(SystemCoreClock)
 1336 003e 83270400 		lw	a5,%lo(SystemCoreClock)(s0)
 1337 0042 1307007D 		li	a4,2000
 397:main.c        ****     timer_initpara.clockdivision = TIMER_CKDIV_DIV1;
 398:main.c        ****     timer_init(TIMER1, &timer_initpara);
 1338              		.loc 1 398 5
 1339 0046 0C08     		addi	a1,sp,16
 396:main.c        ****     timer_initpara.period = SystemCoreClock/2000;
 1340              		.loc 1 396 44
 1341 0048 B3D7E702 		divu	a5,a5,a4
 393:main.c        ****     timer_initpara.alignedmode = TIMER_COUNTER_EDGE;
 1342              		.loc 1 393 30
 1343 004c 8544     		li	s1,1
 1344              		.loc 1 398 5
 1345 004e 37050040 		li	a0,1073741824
 393:main.c        ****     timer_initpara.alignedmode = TIMER_COUNTER_EDGE;
 1346              		.loc 1 393 30
 1347 0052 26C8     		sw	s1,16(sp)
 395:main.c        ****     timer_initpara.period = SystemCoreClock/2000;
 1348              		.loc 1 395 37
 1349 0054 231A0100 		sh	zero,20(sp)
 396:main.c        ****     timer_initpara.clockdivision = TIMER_CKDIV_DIV1;
 1350              		.loc 1 396 5 is_stmt 1
 397:main.c        ****     timer_init(TIMER1, &timer_initpara);
 1351              		.loc 1 397 34 is_stmt 0
 1352 0058 231E0100 		sh	zero,28(sp)
 396:main.c        ****     timer_initpara.clockdivision = TIMER_CKDIV_DIV1;
 1353              		.loc 1 396 27
 1354 005c 3ECC     		sw	a5,24(sp)
 397:main.c        ****     timer_init(TIMER1, &timer_initpara);
 1355              		.loc 1 397 5 is_stmt 1
 1356              		.loc 1 398 5
 1357 005e 97000000 		call	timer_init
 1357      E7800000 
 1358              	.LVL137:
 399:main.c        **** 
 400:main.c        ****     timer_channel_output_struct_para_init(&timer_ocinitpara);
 1359              		.loc 1 400 5
 1360 0066 4800     		addi	a0,sp,4
 1361 0068 97000000 		call	timer_channel_output_struct_para_init
 1361      E7800000 
 1362              	.LVL138:
 401:main.c        **** 
 402:main.c        ****     timer_ocinitpara.outputstate = TIMER_CCX_ENABLE;
 1363              		.loc 1 402 5
 403:main.c        ****     timer_ocinitpara.ocpolarity = TIMER_OC_POLARITY_HIGH;
 404:main.c        ****     timer_ocinitpara.ocidlestate = TIMER_OC_IDLE_STATE_LOW;
 405:main.c        ****     timer_channel_output_config(TIMER1, TIMER_CH_0, &timer_ocinitpara);
 1364              		.loc 1 405 5 is_stmt 0
 1365 0070 5000     		addi	a2,sp,4
GAS LISTING /var/folders/yy/83vjwp7d53j56dbzj8_jnpcr0000gn/T//ccFNxmd6.s 			page 36


 1366 0072 8145     		li	a1,0
 1367 0074 37050040 		li	a0,1073741824
 402:main.c        ****     timer_ocinitpara.ocpolarity = TIMER_OC_POLARITY_HIGH;
 1368              		.loc 1 402 34
 1369 0078 23129100 		sh	s1,4(sp)
 403:main.c        ****     timer_ocinitpara.ocpolarity = TIMER_OC_POLARITY_HIGH;
 1370              		.loc 1 403 5 is_stmt 1
 403:main.c        ****     timer_ocinitpara.ocpolarity = TIMER_OC_POLARITY_HIGH;
 1371              		.loc 1 403 33 is_stmt 0
 1372 007c 23140100 		sh	zero,8(sp)
 404:main.c        ****     timer_channel_output_config(TIMER1, TIMER_CH_0, &timer_ocinitpara);
 1373              		.loc 1 404 5 is_stmt 1
 404:main.c        ****     timer_channel_output_config(TIMER1, TIMER_CH_0, &timer_ocinitpara);
 1374              		.loc 1 404 34 is_stmt 0
 1375 0080 23160100 		sh	zero,12(sp)
 1376              		.loc 1 405 5 is_stmt 1
 1377 0084 97000000 		call	timer_channel_output_config
 1377      E7800000 
 1378              	.LVL139:
 406:main.c        **** 
 407:main.c        ****     timer_channel_output_pulse_value_config(TIMER1, TIMER_CH_0, SystemCoreClock / 4000);
 1379              		.loc 1 407 5
 1380 008c 03260400 		lw	a2,%lo(SystemCoreClock)(s0)
 1381 0090 8567     		li	a5,4096
 1382 0092 938707FA 		addi	a5,a5,-96
 1383 0096 3356F602 		divu	a2,a2,a5
 1384 009a 8145     		li	a1,0
 1385 009c 37050040 		li	a0,1073741824
 1386 00a0 97000000 		call	timer_channel_output_pulse_value_config
 1386      E7800000 
 1387              	.LVL140:
 408:main.c        ****     timer_channel_output_mode_config(TIMER1, TIMER_CH_0, TIMER_OC_MODE_TIMING);
 1388              		.loc 1 408 5
 1389 00a8 0146     		li	a2,0
 1390 00aa 8145     		li	a1,0
 1391 00ac 37050040 		li	a0,1073741824
 1392 00b0 97000000 		call	timer_channel_output_mode_config
 1392      E7800000 
 1393              	.LVL141:
 409:main.c        ****     timer_channel_output_shadow_config(TIMER1, TIMER_CH_0, TIMER_OC_SHADOW_DISABLE);
 1394              		.loc 1 409 5
 1395 00b8 0146     		li	a2,0
 1396 00ba 8145     		li	a1,0
 1397 00bc 37050040 		li	a0,1073741824
 1398 00c0 97000000 		call	timer_channel_output_shadow_config
 1398      E7800000 
 1399              	.LVL142:
 410:main.c        **** 
 411:main.c        ****     timer_interrupt_enable(TIMER1, TIMER_INT_CH0);
 1400              		.loc 1 411 5
 1401 00c8 8945     		li	a1,2
 1402 00ca 37050040 		li	a0,1073741824
 1403 00ce 97000000 		call	timer_interrupt_enable
 1403      E7800000 
 1404              	.LVL143:
 412:main.c        ****     /* Make sure interrupt flag is clear */
 413:main.c        ****     timer_interrupt_flag_clear(TIMER1, TIMER_INT_CH0);
GAS LISTING /var/folders/yy/83vjwp7d53j56dbzj8_jnpcr0000gn/T//ccFNxmd6.s 			page 37


 1405              		.loc 1 413 5
 1406 00d6 8945     		li	a1,2
 1407 00d8 37050040 		li	a0,1073741824
 1408 00dc 97000000 		call	timer_interrupt_flag_clear
 1408      E7800000 
 1409              	.LVL144:
 414:main.c        ****     timer_enable(TIMER1);
 1410              		.loc 1 414 5
 1411 00e4 37050040 		li	a0,1073741824
 1412 00e8 97000000 		call	timer_enable
 1412      E7800000 
 1413              	.LVL145:
 415:main.c        **** }
 1414              		.loc 1 415 1 is_stmt 0
 1415 00f0 B250     		lw	ra,44(sp)
 1416              		.cfi_restore 1
 1417 00f2 2254     		lw	s0,40(sp)
 1418              		.cfi_restore 8
 1419 00f4 9254     		lw	s1,36(sp)
 1420              		.cfi_restore 9
 1421 00f6 4561     		addi	sp,sp,48
 1422              	.LCFI14:
 1423              		.cfi_def_cfa_offset 0
 1424 00f8 8280     		jr	ra
 1425              		.cfi_endproc
 1426              	.LFE20:
 1428              		.section	.text.formatTime,"ax",@progbits
 1429              		.align	1
 1430              		.globl	formatTime
 1432              	formatTime:
 1433              	.LFB21:
 416:main.c        **** 
 417:main.c        **** void formatTime(char *output, int minutes, int seconds, int milliseconds) {
 1434              		.loc 1 417 75 is_stmt 1
 1435              		.cfi_startproc
 1436              	.LVL146:
 418:main.c        ****     // Format minutes
 419:main.c        ****     output[0] = (minutes / 10) + '0';
 1437              		.loc 1 419 5
 1438              		.loc 1 419 26 is_stmt 0
 1439 0000 A947     		li	a5,10
 1440 0002 33C7F502 		div	a4,a1,a5
 420:main.c        ****     output[1] = (minutes % 10) + '0';
 421:main.c        **** 
 422:main.c        ****     // Add a period
 423:main.c        ****     output[2] = '.';
 424:main.c        **** 
 425:main.c        ****     // Format seconds
 426:main.c        ****     output[3] = (seconds / 10) + '0';
 427:main.c        ****     output[4] = (seconds % 10) + '0';
 428:main.c        **** 
 429:main.c        ****     // Add a period
 430:main.c        ****     output[5] = '.';
 431:main.c        **** 
 432:main.c        ****     // Format milliseconds
 433:main.c        ****     output[6] = ((milliseconds / 100) % 10) + '0';
 434:main.c        ****     output[7] = ((milliseconds / 10) % 10) + '0';
GAS LISTING /var/folders/yy/83vjwp7d53j56dbzj8_jnpcr0000gn/T//ccFNxmd6.s 			page 38


 435:main.c        ****     output[8] = (milliseconds % 10) + '0';
 436:main.c        **** 
 437:main.c        ****     // Add a semicolon and null terminator
 438:main.c        ****     output[9] = ';';
 439:main.c        ****     output[10] = '\0';
 1441              		.loc 1 439 16
 1442 0006 23050500 		sb	zero,10(a0)
 419:main.c        ****     output[1] = (minutes % 10) + '0';
 1443              		.loc 1 419 32
 1444 000a 13070703 		addi	a4,a4,48
 419:main.c        ****     output[1] = (minutes % 10) + '0';
 1445              		.loc 1 419 15
 1446 000e 2300E500 		sb	a4,0(a0)
 420:main.c        ****     output[1] = (minutes % 10) + '0';
 1447              		.loc 1 420 5 is_stmt 1
 426:main.c        ****     output[4] = (seconds % 10) + '0';
 1448              		.loc 1 426 26 is_stmt 0
 1449 0012 3347F602 		div	a4,a2,a5
 426:main.c        ****     output[4] = (seconds % 10) + '0';
 1450              		.loc 1 426 32
 1451 0016 13070703 		addi	a4,a4,48
 426:main.c        ****     output[4] = (seconds % 10) + '0';
 1452              		.loc 1 426 15
 1453 001a A301E500 		sb	a4,3(a0)
 433:main.c        ****     output[7] = ((milliseconds / 10) % 10) + '0';
 1454              		.loc 1 433 32
 1455 001e 13074006 		li	a4,100
 1456 0022 33C7E602 		div	a4,a3,a4
 433:main.c        ****     output[7] = ((milliseconds / 10) % 10) + '0';
 1457              		.loc 1 433 39
 1458 0026 3367F702 		rem	a4,a4,a5
 433:main.c        ****     output[7] = ((milliseconds / 10) % 10) + '0';
 1459              		.loc 1 433 45
 1460 002a 13070703 		addi	a4,a4,48
 433:main.c        ****     output[7] = ((milliseconds / 10) % 10) + '0';
 1461              		.loc 1 433 15
 1462 002e 2303E500 		sb	a4,6(a0)
 434:main.c        ****     output[8] = (milliseconds % 10) + '0';
 1463              		.loc 1 434 32
 1464 0032 33C7F602 		div	a4,a3,a5
 420:main.c        **** 
 1465              		.loc 1 420 26
 1466 0036 B3E5F502 		rem	a1,a1,a5
 1467              	.LVL147:
 427:main.c        **** 
 1468              		.loc 1 427 26
 1469 003a 3366F602 		rem	a2,a2,a5
 1470              	.LVL148:
 420:main.c        **** 
 1471              		.loc 1 420 32
 1472 003e 93850503 		addi	a1,a1,48
 420:main.c        **** 
 1473              		.loc 1 420 15
 1474 0042 A300B500 		sb	a1,1(a0)
 423:main.c        **** 
 1475              		.loc 1 423 5 is_stmt 1
 423:main.c        **** 
GAS LISTING /var/folders/yy/83vjwp7d53j56dbzj8_jnpcr0000gn/T//ccFNxmd6.s 			page 39


 1476              		.loc 1 423 15 is_stmt 0
 1477 0046 9305E002 		li	a1,46
 1478 004a 2301B500 		sb	a1,2(a0)
 426:main.c        ****     output[4] = (seconds % 10) + '0';
 1479              		.loc 1 426 5 is_stmt 1
 427:main.c        **** 
 1480              		.loc 1 427 5
 430:main.c        **** 
 1481              		.loc 1 430 15 is_stmt 0
 1482 004e A302B500 		sb	a1,5(a0)
 434:main.c        ****     output[8] = (milliseconds % 10) + '0';
 1483              		.loc 1 434 38
 1484 0052 3367F702 		rem	a4,a4,a5
 427:main.c        **** 
 1485              		.loc 1 427 32
 1486 0056 13060603 		addi	a2,a2,48
 427:main.c        **** 
 1487              		.loc 1 427 15
 1488 005a 2302C500 		sb	a2,4(a0)
 430:main.c        **** 
 1489              		.loc 1 430 5 is_stmt 1
 433:main.c        ****     output[7] = ((milliseconds / 10) % 10) + '0';
 1490              		.loc 1 433 5
 434:main.c        ****     output[8] = (milliseconds % 10) + '0';
 1491              		.loc 1 434 5
 435:main.c        **** 
 1492              		.loc 1 435 31 is_stmt 0
 1493 005e B3E6F602 		rem	a3,a3,a5
 1494              	.LVL149:
 434:main.c        ****     output[8] = (milliseconds % 10) + '0';
 1495              		.loc 1 434 44
 1496 0062 13070703 		addi	a4,a4,48
 438:main.c        ****     output[10] = '\0';
 1497              		.loc 1 438 15
 1498 0066 9307B003 		li	a5,59
 434:main.c        ****     output[8] = (milliseconds % 10) + '0';
 1499              		.loc 1 434 15
 1500 006a A303E500 		sb	a4,7(a0)
 435:main.c        **** 
 1501              		.loc 1 435 5 is_stmt 1
 438:main.c        ****     output[10] = '\0';
 1502              		.loc 1 438 15 is_stmt 0
 1503 006e A304F500 		sb	a5,9(a0)
 435:main.c        **** 
 1504              		.loc 1 435 37
 1505 0072 93860603 		addi	a3,a3,48
 435:main.c        **** 
 1506              		.loc 1 435 15
 1507 0076 2304D500 		sb	a3,8(a0)
 438:main.c        ****     output[10] = '\0';
 1508              		.loc 1 438 5 is_stmt 1
 1509              		.loc 1 439 5
 440:main.c        **** }
 1510              		.loc 1 440 1 is_stmt 0
 1511 007a 8280     		ret
 1512              		.cfi_endproc
 1513              	.LFE21:
GAS LISTING /var/folders/yy/83vjwp7d53j56dbzj8_jnpcr0000gn/T//ccFNxmd6.s 			page 40


 1515              		.section	.text.int_to_string,"ax",@progbits
 1516              		.align	1
 1517              		.globl	int_to_string
 1519              	int_to_string:
 1520              	.LFB22:
 441:main.c        **** 
 442:main.c        **** int int_to_string(char *string, int integer){
 1521              		.loc 1 442 45 is_stmt 1
 1522              		.cfi_startproc
 1523              	.LVL150:
 443:main.c        ****     int i = 0;
 1524              		.loc 1 443 5
 444:main.c        ****     int divider = 1000;
 1525              		.loc 1 444 5
 445:main.c        ****     if(integer < 0){
 1526              		.loc 1 445 5
 442:main.c        ****     int i = 0;
 1527              		.loc 1 442 45 is_stmt 0
 1528 0000 AA87     		mv	a5,a0
 1529              		.loc 1 445 7
 1530 0002 63D30506 		bge	a1,zero,.L50
 446:main.c        ****         string[i++] = '-';
 1531              		.loc 1 446 9 is_stmt 1
 1532              	.LVL151:
 1533              		.loc 1 446 21 is_stmt 0
 1534 0006 1307D002 		li	a4,45
 1535 000a 2300E500 		sb	a4,0(a0)
 447:main.c        ****         integer = -integer;
 1536              		.loc 1 447 9 is_stmt 1
 1537              		.loc 1 447 17 is_stmt 0
 1538 000e B305B040 		neg	a1,a1
 1539              	.LVL152:
 446:main.c        ****         string[i++] = '-';
 1540              		.loc 1 446 17
 1541 0012 0547     		li	a4,1
 1542              	.LVL153:
 1543              	.L51:
 448:main.c        ****     }else if(integer == 0){
 449:main.c        ****         string[i++] = '0';
 450:main.c        ****         string[i++] = ';';
 451:main.c        ****         string[i] = '\0';
 452:main.c        ****         return i;
 453:main.c        ****     }
 454:main.c        ****     int og_num = integer;
 1544              		.loc 1 454 5 is_stmt 1
 455:main.c        ****     while (integer >= divider * 10) {
 1545              		.loc 1 455 5
 444:main.c        ****     if(integer < 0){
 1546              		.loc 1 444 9 is_stmt 0
 1547 0014 9306803E 		li	a3,1000
 1548              		.loc 1 455 31
 1549 0018 2945     		li	a0,10
 1550              	.LVL154:
 1551              	.L53:
 1552 001a 3386A602 		mul	a2,a3,a0
 1553              		.loc 1 455 11
 1554 001e 63D3C506 		ble	a2,a1,.L58
GAS LISTING /var/folders/yy/83vjwp7d53j56dbzj8_jnpcr0000gn/T//ccFNxmd6.s 			page 41


 1555 0022 2E85     		mv	a0,a1
 1556              	.LBB10:
 456:main.c        ****         divider *= 10; 
 457:main.c        ****     }
 458:main.c        **** 
 459:main.c        ****     while(divider){
 460:main.c        ****         char digit = (integer/divider)+ '0';
 461:main.c        ****         if(digit != '0' || og_num > integer){
 1557              		.loc 1 461 11
 1558 0024 93080003 		li	a7,48
 462:main.c        ****             string[i++] = digit; 
 463:main.c        ****         }
 464:main.c        ****         
 465:main.c        ****         integer %= divider;
 466:main.c        ****         divider /= 10;
 1559              		.loc 1 466 17
 1560 0028 2948     		li	a6,10
 1561              	.LVL155:
 1562              	.L56:
 460:main.c        ****         if(digit != '0' || og_num > integer){
 1563              		.loc 1 460 9 is_stmt 1
 460:main.c        ****         if(digit != '0' || og_num > integer){
 1564              		.loc 1 460 30 is_stmt 0
 1565 002a 3346D502 		div	a2,a0,a3
 460:main.c        ****         if(digit != '0' || og_num > integer){
 1566              		.loc 1 460 14
 1567 002e 13060603 		addi	a2,a2,48
 1568 0032 1376F60F 		andi	a2,a2,0xff
 1569              	.LVL156:
 461:main.c        ****             string[i++] = digit; 
 1570              		.loc 1 461 9 is_stmt 1
 461:main.c        ****             string[i++] = digit; 
 1571              		.loc 1 461 11 is_stmt 0
 1572 0036 63141601 		bne	a2,a7,.L54
 461:main.c        ****             string[i++] = digit; 
 1573              		.loc 1 461 25 discriminator 1
 1574 003a 6357B500 		ble	a1,a0,.L55
 1575              	.L54:
 462:main.c        ****             string[i++] = digit; 
 1576              		.loc 1 462 13 is_stmt 1
 1577              	.LVL157:
 462:main.c        ****             string[i++] = digit; 
 1578              		.loc 1 462 25 is_stmt 0
 1579 003e 3383E700 		add	t1,a5,a4
 1580 0042 2300C300 		sb	a2,0(t1)
 462:main.c        ****             string[i++] = digit; 
 1581              		.loc 1 462 21
 1582 0046 0507     		addi	a4,a4,1
 1583              	.LVL158:
 1584              	.L55:
 465:main.c        ****         divider /= 10;
 1585              		.loc 1 465 9 is_stmt 1
 465:main.c        ****         divider /= 10;
 1586              		.loc 1 465 17 is_stmt 0
 1587 0048 3365D502 		rem	a0,a0,a3
 1588              	.LVL159:
 1589              		.loc 1 466 9 is_stmt 1
GAS LISTING /var/folders/yy/83vjwp7d53j56dbzj8_jnpcr0000gn/T//ccFNxmd6.s 			page 42


 1590              		.loc 1 466 17 is_stmt 0
 1591 004c B3C60603 		div	a3,a3,a6
 1592              	.LVL160:
 1593              	.LBE10:
 459:main.c        ****         char digit = (integer/divider)+ '0';
 1594              		.loc 1 459 10
 1595 0050 E9FE     		bne	a3,zero,.L56
 467:main.c        ****     }
 468:main.c        ****     string[i++] = ';';
 1596              		.loc 1 468 5 is_stmt 1
 1597              		.loc 1 468 13 is_stmt 0
 1598 0052 13051700 		addi	a0,a4,1
 1599              	.LVL161:
 1600              		.loc 1 468 17
 1601 0056 9306B003 		li	a3,59
 1602              	.LVL162:
 1603 005a 3E97     		add	a4,a5,a4
 1604 005c 2300D700 		sb	a3,0(a4)
 469:main.c        ****     string[i] = '\0';
 1605              		.loc 1 469 5 is_stmt 1
 1606              		.loc 1 469 15 is_stmt 0
 1607 0060 AA97     		add	a5,a5,a0
 1608              	.LVL163:
 1609 0062 23800700 		sb	zero,0(a5)
 470:main.c        ****     return i;
 1610              		.loc 1 470 5 is_stmt 1
 471:main.c        **** }
 1611              		.loc 1 471 1 is_stmt 0
 1612 0066 8280     		ret
 1613              	.LVL164:
 1614              	.L50:
 448:main.c        ****         string[i++] = '0';
 1615              		.loc 1 448 11 is_stmt 1
 443:main.c        ****     int divider = 1000;
 1616              		.loc 1 443 9 is_stmt 0
 1617 0068 0147     		li	a4,0
 448:main.c        ****         string[i++] = '0';
 1618              		.loc 1 448 13
 1619 006a CDF5     		bne	a1,zero,.L51
 449:main.c        ****         string[i++] = ';';
 1620              		.loc 1 449 9 is_stmt 1
 1621              	.LVL165:
 449:main.c        ****         string[i++] = ';';
 1622              		.loc 1 449 21 is_stmt 0
 1623 006c 13070003 		li	a4,48
 1624 0070 2300E500 		sb	a4,0(a0)
 450:main.c        ****         string[i] = '\0';
 1625              		.loc 1 450 9 is_stmt 1
 1626              	.LVL166:
 450:main.c        ****         string[i] = '\0';
 1627              		.loc 1 450 21 is_stmt 0
 1628 0074 1307B003 		li	a4,59
 1629 0078 A300E500 		sb	a4,1(a0)
 451:main.c        ****         return i;
 1630              		.loc 1 451 9 is_stmt 1
 451:main.c        ****         return i;
 1631              		.loc 1 451 19 is_stmt 0
GAS LISTING /var/folders/yy/83vjwp7d53j56dbzj8_jnpcr0000gn/T//ccFNxmd6.s 			page 43


 1632 007c 23010500 		sb	zero,2(a0)
 452:main.c        ****     }
 1633              		.loc 1 452 9 is_stmt 1
 452:main.c        ****     }
 1634              		.loc 1 452 16 is_stmt 0
 1635 0080 0945     		li	a0,2
 1636              	.LVL167:
 1637 0082 8280     		ret
 1638              	.LVL168:
 1639              	.L58:
 1640 0084 B286     		mv	a3,a2
 1641              	.LVL169:
 1642 0086 51BF     		j	.L53
 1643              		.cfi_endproc
 1644              	.LFE22:
 1646              		.section	.text.append_int_to_string,"ax",@progbits
 1647              		.align	1
 1648              		.globl	append_int_to_string
 1650              	append_int_to_string:
 1651              	.LFB23:
 472:main.c        **** 
 473:main.c        **** int append_int_to_string(char *string, int integer){
 1652              		.loc 1 473 52 is_stmt 1
 1653              		.cfi_startproc
 1654              	.LVL170:
 474:main.c        ****     char temp[20] = {'\0'};
 1655              		.loc 1 474 5
 473:main.c        ****     char temp[20] = {'\0'};
 1656              		.loc 1 473 52 is_stmt 0
 1657 0000 7971     		addi	sp,sp,-48
 1658              	.LCFI15:
 1659              		.cfi_def_cfa_offset 48
 1660 0002 22D4     		sw	s0,40(sp)
 1661              		.cfi_offset 8, -8
 1662 0004 2A84     		mv	s0,a0
 475:main.c        ****     int_to_string(temp, integer);
 1663              		.loc 1 475 5
 1664 0006 6800     		addi	a0,sp,12
 1665              	.LVL171:
 473:main.c        ****     char temp[20] = {'\0'};
 1666              		.loc 1 473 52
 1667 0008 06D6     		sw	ra,44(sp)
 1668              		.cfi_offset 1, -4
 474:main.c        ****     char temp[20] = {'\0'};
 1669              		.loc 1 474 10
 1670 000a 02C6     		sw	zero,12(sp)
 1671 000c 02C8     		sw	zero,16(sp)
 1672 000e 02CA     		sw	zero,20(sp)
 1673 0010 02CC     		sw	zero,24(sp)
 1674 0012 02CE     		sw	zero,28(sp)
 1675              		.loc 1 475 5 is_stmt 1
 1676 0014 97000000 		call	int_to_string
 1676      E7800000 
 1677              	.LVL172:
 476:main.c        ****     int len = fuseStrings(string, temp);
 1678              		.loc 1 476 5
 1679              		.loc 1 476 15 is_stmt 0
GAS LISTING /var/folders/yy/83vjwp7d53j56dbzj8_jnpcr0000gn/T//ccFNxmd6.s 			page 44


 1680 001c 6C00     		addi	a1,sp,12
 1681 001e 2285     		mv	a0,s0
 1682 0020 97000000 		call	fuseStrings
 1682      E7800000 
 1683              	.LVL173:
 477:main.c        ****     return len;
 1684              		.loc 1 477 5 is_stmt 1
 478:main.c        **** }
 1685              		.loc 1 478 1 is_stmt 0
 1686 0028 B250     		lw	ra,44(sp)
 1687              		.cfi_restore 1
 1688 002a 2254     		lw	s0,40(sp)
 1689              		.cfi_restore 8
 1690              	.LVL174:
 1691 002c 4561     		addi	sp,sp,48
 1692              	.LCFI16:
 1693              		.cfi_def_cfa_offset 0
 1694 002e 8280     		jr	ra
 1695              		.cfi_endproc
 1696              	.LFE23:
 1698              		.section	.text.append_newLine,"ax",@progbits
 1699              		.align	1
 1700              		.globl	append_newLine
 1702              	append_newLine:
 1703              	.LFB24:
 479:main.c        **** 
 480:main.c        **** void append_newLine(char *string, int length) {
 1704              		.loc 1 480 47 is_stmt 1
 1705              		.cfi_startproc
 1706              	.LVL175:
 481:main.c        ****     string[length-1] = '\n';
 1707              		.loc 1 481 5
 1708              		.loc 1 481 22 is_stmt 0
 1709 0000 AA95     		add	a1,a0,a1
 1710              	.LVL176:
 1711 0002 A947     		li	a5,10
 1712 0004 A38FF5FE 		sb	a5,-1(a1)
 482:main.c        ****     string[length] = '\0'; // Add a null terminator at the new end
 1713              		.loc 1 482 5 is_stmt 1
 1714              		.loc 1 482 20 is_stmt 0
 1715 0008 23800500 		sb	zero,0(a1)
 483:main.c        **** }
 1716              		.loc 1 483 1
 1717 000c 8280     		ret
 1718              		.cfi_endproc
 1719              	.LFE24:
 1721              		.globl	__floatundidf
 1722              		.globl	__muldf3
 1723              		.globl	__floatunsidf
 1724              		.globl	__divdf3
 1725              		.globl	__fixdfsi
 1726              		.section	.text.millis,"ax",@progbits
 1727              		.align	1
 1728              		.globl	millis
 1730              	millis:
 1731              	.LFB25:
 484:main.c        **** 
GAS LISTING /var/folders/yy/83vjwp7d53j56dbzj8_jnpcr0000gn/T//ccFNxmd6.s 			page 45


 485:main.c        **** int millis(void) {
 1732              		.loc 1 485 18 is_stmt 1
 1733              		.cfi_startproc
 486:main.c        ****     uint64_t mtime = get_timer_value();
 1734              		.loc 1 486 5
 485:main.c        ****     uint64_t mtime = get_timer_value();
 1735              		.loc 1 485 18 is_stmt 0
 1736 0000 4111     		addi	sp,sp,-16
 1737              	.LCFI17:
 1738              		.cfi_def_cfa_offset 16
 1739 0002 06C6     		sw	ra,12(sp)
 1740 0004 22C4     		sw	s0,8(sp)
 1741 0006 26C2     		sw	s1,4(sp)
 1742              		.cfi_offset 1, -4
 1743              		.cfi_offset 8, -8
 1744              		.cfi_offset 9, -12
 1745              		.loc 1 486 22
 1746 0008 97000000 		call	get_timer_value
 1746      E7800000 
 1747              	.LVL177:
 487:main.c        ****     return ((mtime * 4000.0) / SystemCoreClock); // Adjusted for seconds and milliseconds
 1748              		.loc 1 487 5 is_stmt 1
 1749              		.loc 1 487 20 is_stmt 0
 1750 0010 97000000 		call	__floatundidf
 1750      E7800000 
 1751              	.LVL178:
 1752 0018 B7070000 		lui	a5,%hi(.LANCHOR0+208)
 1753 001c 03A6070D 		lw	a2,%lo(.LANCHOR0+208)(a5)
 1754 0020 83A6470D 		lw	a3,%lo(.LANCHOR0+212)(a5)
 1755 0024 97000000 		call	__muldf3
 1755      E7800000 
 1756              	.LVL179:
 1757              		.loc 1 487 30
 1758 002c B7070000 		lui	a5,%hi(SystemCoreClock)
 1759              		.loc 1 487 20
 1760 0030 2A84     		mv	s0,a0
 1761              		.loc 1 487 30
 1762 0032 03A50700 		lw	a0,%lo(SystemCoreClock)(a5)
 1763              		.loc 1 487 20
 1764 0036 AE84     		mv	s1,a1
 1765              		.loc 1 487 30
 1766 0038 97000000 		call	__floatunsidf
 1766      E7800000 
 1767              	.LVL180:
 1768 0040 2A86     		mv	a2,a0
 1769 0042 AE86     		mv	a3,a1
 1770 0044 2285     		mv	a0,s0
 1771 0046 A685     		mv	a1,s1
 1772 0048 97000000 		call	__divdf3
 1772      E7800000 
 1773              	.LVL181:
 1774 0050 97000000 		call	__fixdfsi
 1774      E7800000 
 1775              	.LVL182:
 488:main.c        **** }...
 1776              		.loc 1 488 1
 1777 0058 B240     		lw	ra,12(sp)
GAS LISTING /var/folders/yy/83vjwp7d53j56dbzj8_jnpcr0000gn/T//ccFNxmd6.s 			page 46


 1778              		.cfi_restore 1
 1779 005a 2244     		lw	s0,8(sp)
 1780              		.cfi_restore 8
 1781 005c 9244     		lw	s1,4(sp)
 1782              		.cfi_restore 9
 1783 005e 4101     		addi	sp,sp,16
 1784              	.LCFI18:
 1785              		.cfi_def_cfa_offset 0
 1786 0060 8280     		jr	ra
 1787              		.cfi_endproc
 1788              	.LFE25:
 1790              		.section	.rodata
 1791              		.align	3
 1792              		.set	.LANCHOR0,. + 0
 1793              	.LC0:
 1794 0000 73746172 		.string	"start0"
 1794      743000
 1795 0007 00       		.zero	1
 1796              	.LC1:
 1797 0008 73746172 		.string	"start1"
 1797      743100
 1798 000f 00       		.zero	1
 1799              	.LC2:
 1800 0010 73746172 		.string	"start2"
 1800      743200
 1801 0017 00       		.zero	1
 1802              	.LC3:
 1803 0018 73746F70 		.string	"stopp0"
 1803      703000
 1804 001f 00       		.zero	1
 1805              	.LC4:
 1806 0020 73746F70 		.string	"stopp1"
 1806      703100
 1807 0027 00       		.zero	1
 1808              	.LC5:
 1809 0028 73746F70 		.string	"stopp2"
 1809      703200
 1810 002f 00       		.zero	1
 1811              	.LC6:
 1812 0030 30313233 		.string	"0123456789ABCDEF"
 1812      34353637 
 1812      38394142 
 1812      43444546 
 1812      00
 1813 0041 000000   		.zero	3
 1814              	.LC7:
 1815 0044 5348572C 		.string	"SHW,"
 1815      00
 1816 0049 000000   		.zero	3
 1817              	.LC8:
 1818 004c 2573252E 		.string	"%s%.4x,%s\r\n"
 1818      34782C25 
 1818      730D0A00 
 1819              	.LC9:
 1820 0058 522C310D 		.string	"R,1\r"
 1820      00
 1821 005d 000000   		.zero	3
GAS LISTING /var/folders/yy/83vjwp7d53j56dbzj8_jnpcr0000gn/T//ccFNxmd6.s 			page 47


 1822              	.LC10:
 1823 0060 74657374 		.string	"test"
 1823      00
 1824 0065 000000   		.zero	3
 1825              	.LC11:
 1826 0068 46494E41 		.string	"FINAP.CSV"
 1826      502E4353 
 1826      5600
 1827 0072 0000     		.zero	2
 1828              	.LC12:
 1829 0074 54696D65 		.string	"Time;A0;A1;A2;A3;A4;A5;A6;A7\n"
 1829      3B41303B 
 1829      41313B41 
 1829      323B4133 
 1829      3B41343B 
 1830 0092 0000     		.zero	2
 1831              	.LC13:
 1832 0094 2557562C 		.string	"%WV,0072,01%"
 1832      30303732 
 1832      2C303125 
 1832      00
 1833 00a1 000000   		.zero	3
 1834              	.LC14:
 1835 00a4 656D7074 		.string	"empty"
 1835      7900
 1836 00aa 0000     		.zero	2
 1837              	.LC15:
 1838 00ac 2557562C 		.string	"%WV,0072,00%"
 1838      30303732 
 1838      2C303025 
 1838      00
 1839 00b9 000000   		.zero	3
 1840              	.LC16:
 1841 00bc 2557562C 		.string	"%WV,0072,02%"
 1841      30303732 
 1841      2C303225 
 1841      00
 1842 00c9 00000000 		.zero	7
 1842      000000
 1843              	.LC17:
 1844 00d0 00000000 		.word	0
 1845 00d4 0040AF40 		.word	1085227008
 1846              		.section	.data.commands,"aw"
 1847              		.align	2
 1850              	commands:
 1851 0000 00000000 		.word	.LC0
 1852 0004 00000000 		.word	.LC1
 1853 0008 00000000 		.word	.LC2
 1854 000c 00000000 		.word	.LC3
 1855 0010 00000000 		.word	.LC4
 1856 0014 00000000 		.word	.LC5
 1857              		.section	.data.finapressHandles,"aw"
 1858              		.align	2
 1859              		.set	.LANCHOR1,. + 0
 1862              	finapressHandles:
 1863 0000 9200     		.half	146
 1864 0002 9500     		.half	149
GAS LISTING /var/folders/yy/83vjwp7d53j56dbzj8_jnpcr0000gn/T//ccFNxmd6.s 			page 48


 1865 0004 9800     		.half	152
 1866 0006 9B00     		.half	155
 1867 0008 9E00     		.half	158
 1868 000a A100     		.half	161
 1869 000c A400     		.half	164
 1870 000e A700     		.half	167
 1871              		.section	.rodata.delays,"a"
 1872              		.align	2
 1875              	delays:
 1876 0000 2C010000 		.word	300
 1877 0004 C8000000 		.word	200
 1878 0008 64000000 		.word	100
 1879 000c 2C010000 		.word	300
 1880 0010 C8000000 		.word	200
 1881 0014 64000000 		.word	100
 1882              		.section	.rodata.states,"a"
 1883              		.align	2
 1886              	states:
 1887 0000 01000000 		.word	1
 1888 0004 01000000 		.word	1
 1889 0008 01000000 		.word	1
 1890 000c 02000000 		.word	2
 1891 0010 02000000 		.word	2
 1892 0014 02000000 		.word	2
 1893              		.section	.sbss.millisec,"aw",@nobits
 1894              		.align	2
 1895              		.set	.LANCHOR2,. + 0
 1898              	millisec:
 1899 0000 00000000 		.zero	4
 1900              		.section	.sbss.minutes,"aw",@nobits
 1901              		.align	2
 1902              		.set	.LANCHOR4,. + 0
 1905              	minutes:
 1906 0000 00000000 		.zero	4
 1907              		.section	.sbss.seconds,"aw",@nobits
 1908              		.align	2
 1909              		.set	.LANCHOR3,. + 0
 1912              	seconds:
 1913 0000 00000000 		.zero	4
 1914              		.section	.sbss.start_time,"aw",@nobits
 1915              		.align	2
 1916              		.set	.LANCHOR6,. + 0
 1919              	start_time:
 1920 0000 00000000 		.zero	4
 1921              		.section	.sbss.write,"aw",@nobits
 1922              		.align	2
 1923              		.set	.LANCHOR5,. + 0
 1926              	write:
 1927 0000 00000000 		.zero	4
 1928              		.text
 1929              	.Letext0:
 1930              		.file 2 "/Users/gulda/Documents/risc-v/toolchain-gd32v-v200-osx/compiler/riscv64-unknown-elf/inclu
 1931              		.file 3 "/Users/gulda/Documents/risc-v/toolchain-gd32v-v200-osx/compiler/riscv64-unknown-elf/inclu
 1932              		.file 4 "../../firmware/GD32VF103_standard_peripheral/gd32vf103.h"
 1933              		.file 5 "../../firmware/GD32VF103_standard_peripheral/Include/gd32vf103_rcu.h"
 1934              		.file 6 "../../firmware/GD32VF103_standard_peripheral/Include/gd32vf103_timer.h"
 1935              		.file 7 "lib/usbcdc/include/drv_usb_regs.h"
GAS LISTING /var/folders/yy/83vjwp7d53j56dbzj8_jnpcr0000gn/T//ccFNxmd6.s 			page 49


 1936              		.file 8 "../../firmware/GD32VF103_standard_peripheral/system_gd32vf103.h"
 1937              		.file 9 "lib/usbcdc/include/usb_ch9_std.h"
 1938              		.file 10 "lib/usbcdc/include/drv_usb_core.h"
 1939              		.file 11 "lib/usbcdc/include/drv_usb_dev.h"
 1940              		.file 12 "/Users/gulda/Documents/risc-v/toolchain-gd32v-v200-osx/compiler/lib/gcc/riscv64-unknown-
 1941              		.file 13 "/Users/gulda/Documents/risc-v/toolchain-gd32v-v200-osx/compiler/riscv64-unknown-elf/incl
 1942              		.file 14 "/Users/gulda/Documents/risc-v/toolchain-gd32v-v200-osx/compiler/riscv64-unknown-elf/incl
 1943              		.file 15 "/Users/gulda/Documents/risc-v/toolchain-gd32v-v200-osx/compiler/riscv64-unknown-elf/incl
 1944              		.file 16 "lib/usbcdc/include/cdc_acm_core.h"
 1945              		.file 17 "/Users/gulda/Documents/risc-v/toolchain-gd32v-v200-osx/compiler/riscv64-unknown-elf/incl
 1946              		.file 18 "lib/usbcdc/include/usb_serial_if.h"
 1947              		.file 19 "lib/fatfs/include/ff.h"
 1948              		.file 20 "lib/dma/include/dma.h"
 1949              		.file 21 "state.h"
 1950              		.file 22 "../../firmware/RISCV/drivers/n200_func.h"
 1951              		.file 23 "queue.h"
 1952              		.file 24 "../../firmware/GD32VF103_standard_peripheral/Include/gd32vf103_eclic.h"
 1953              		.file 25 "../../firmware/GD32VF103_standard_peripheral/Include/gd32vf103_gpio.h"
 1954              		.file 26 "rn4871.h"
 1955              		.file 27 "/Users/gulda/Documents/risc-v/toolchain-gd32v-v200-osx/compiler/riscv64-unknown-elf/incl
 1956              		.file 28 "radioHead.h"
 1957              		.file 29 "lib/systick/include/systick.h"
 1958              		.file 30 "<built-in>"
 1959              		.file 31 "lib/fatfs/include/gd32v_tf_card_if.h"
 1960              		.file 32 "adc.h"
 1961              		.file 33 "lib/usbcdc/include/usb_delay.h"
 1962              		.file 34 "../../firmware/GD32VF103_standard_peripheral/Include/gd32vf103_adc.h"
 1963              		.file 35 "/Users/gulda/Documents/risc-v/toolchain-gd32v-v200-osx/compiler/riscv64-unknown-elf/incl
GAS LISTING /var/folders/yy/83vjwp7d53j56dbzj8_jnpcr0000gn/T//ccFNxmd6.s 			page 50

