GAS LISTING /var/folders/yy/83vjwp7d53j56dbzj8_jnpcr0000gn/T//ccN2uQTj.s 			page 1


   1              		.file	"main.c"
   2              		.option nopic
   3              		.attribute arch, "rv32i2p0_m2p0_a2p0_c2p0"
   4              		.attribute unaligned_access, 0
   5              		.attribute stack_align, 16
   6              		.text
   7              	.Ltext0:
   8              		.cfi_sections	.debug_frame
   9              		.comm	sample_buffer,16,4
  10              		.globl	start_time
  11              		.globl	millisec
  12              		.globl	seconds
  13              		.globl	minutes
  14              		.globl	commands
  15              		.globl	delays
  16              		.globl	states
  17              		.globl	write
  18              		.comm	txbuffer,8,4
  19              		.comm	txCount,1,1
  20              		.section	.text.formatTime,"ax",@progbits
  21              		.align	1
  22              		.globl	formatTime
  24              	formatTime:
  25              	.LFB7:
  26              		.file 1 "main.c"
   1:main.c        **** #include "gd32vf103.h"
   2:main.c        **** #include "usb_serial_if.h"
   3:main.c        **** #include "usb_delay.h"
   4:main.c        **** #include "usart.h"
   5:main.c        **** #include <stdlib.h>
   6:main.c        **** #include <string.h>
   7:main.c        **** #include "rn4871.h"
   8:main.c        **** #include "radioHead.h"
   9:main.c        **** #include "systick.h"
  10:main.c        **** #include "gd32v_tf_card_if.h"
  11:main.c        **** #include "ff.h"
  12:main.c        **** #include "dma.h"
  13:main.c        **** #include "queue.h"
  14:main.c        **** #include "tf_card.h"
  15:main.c        **** #include "state.h"
  16:main.c        **** #include "adc.h"
  17:main.c        **** 
  18:main.c        **** #define BUFFER_SIZE 512
  19:main.c        **** 
  20:main.c        **** #define BLUETOOTH_START_MESSAGE "%WV,0072,7374617274%"      //phone send string "start"
  21:main.c        **** #define BLUETOOTH_STOP_MESSAGE  "%WV,0072,73746F70%"        //phone send string "stop"
  22:main.c        **** 
  23:main.c        **** void ledInit (void);
  24:main.c        **** void led_on_B1();
  25:main.c        **** void led_off_B1();
  26:main.c        **** void led_on_B0();
  27:main.c        **** void led_off_B0();
  28:main.c        **** void timer_interrupt_config();
  29:main.c        **** void led_on_b2();
  30:main.c        **** void led_off_b2();
  31:main.c        **** 
  32:main.c        **** volatile int start_time = 0;
GAS LISTING /var/folders/yy/83vjwp7d53j56dbzj8_jnpcr0000gn/T//ccN2uQTj.s 			page 2


  33:main.c        **** volatile int millisec = 0;
  34:main.c        **** volatile int seconds = 0;
  35:main.c        **** volatile int minutes = 0;    
  36:main.c        **** 
  37:main.c        **** const char *commands[] = {
  38:main.c        ****     "start0",
  39:main.c        ****     "start1",
  40:main.c        ****     "start2",
  41:main.c        ****     "stopp0",
  42:main.c        ****     "stopp1",
  43:main.c        ****     "stopp2"
  44:main.c        **** };
  45:main.c        **** 
  46:main.c        **** const int delays[] = {
  47:main.c        ****     300,
  48:main.c        ****     200,
  49:main.c        ****     100,
  50:main.c        ****     300,
  51:main.c        ****     200,
  52:main.c        ****     100
  53:main.c        **** };
  54:main.c        **** 
  55:main.c        **** const int states[] = {
  56:main.c        ****     START,
  57:main.c        ****     START,
  58:main.c        ****     START,
  59:main.c        ****     STOP,
  60:main.c        ****     STOP,
  61:main.c        ****     STOP
  62:main.c        **** };
  63:main.c        **** 
  64:main.c        **** int write = 0;
  65:main.c        **** uint8_t txbuffer[8];
  66:main.c        **** uint8_t txCount;
  67:main.c        **** 
  68:main.c        **** void formatTime(char *output, int minutes, int seconds, int milliseconds) {
  27              		.loc 1 68 75
  28              		.cfi_startproc
  29              	.LVL0:
  69:main.c        ****     // Format minutes
  70:main.c        ****     output[0] = (minutes / 10) + '0';
  30              		.loc 1 70 5
  31              		.loc 1 70 26 is_stmt 0
  32 0000 A947     		li	a5,10
  33 0002 33C7F502 		div	a4,a1,a5
  71:main.c        ****     output[1] = (minutes % 10) + '0';
  72:main.c        **** 
  73:main.c        ****     // Add a period
  74:main.c        ****     output[2] = '.';
  75:main.c        **** 
  76:main.c        ****     // Format seconds
  77:main.c        ****     output[3] = (seconds / 10) + '0';
  78:main.c        ****     output[4] = (seconds % 10) + '0';
  79:main.c        **** 
  80:main.c        ****     // Add a period
  81:main.c        ****     output[5] = '.';
  82:main.c        **** 
GAS LISTING /var/folders/yy/83vjwp7d53j56dbzj8_jnpcr0000gn/T//ccN2uQTj.s 			page 3


  83:main.c        ****     // Format milliseconds
  84:main.c        ****     output[6] = ((milliseconds / 100) % 10) + '0';
  85:main.c        ****     output[7] = ((milliseconds / 10) % 10) + '0';
  86:main.c        ****     output[8] = (milliseconds % 10) + '0';
  87:main.c        **** 
  88:main.c        ****     // Add a semicolon and null terminator
  89:main.c        ****     output[9] = ';';
  90:main.c        ****     output[10] = '\0';
  34              		.loc 1 90 16
  35 0006 23050500 		sb	zero,10(a0)
  70:main.c        ****     output[1] = (minutes % 10) + '0';
  36              		.loc 1 70 32
  37 000a 13070703 		addi	a4,a4,48
  70:main.c        ****     output[1] = (minutes % 10) + '0';
  38              		.loc 1 70 15
  39 000e 2300E500 		sb	a4,0(a0)
  71:main.c        ****     output[1] = (minutes % 10) + '0';
  40              		.loc 1 71 5 is_stmt 1
  77:main.c        ****     output[4] = (seconds % 10) + '0';
  41              		.loc 1 77 26 is_stmt 0
  42 0012 3347F602 		div	a4,a2,a5
  77:main.c        ****     output[4] = (seconds % 10) + '0';
  43              		.loc 1 77 32
  44 0016 13070703 		addi	a4,a4,48
  77:main.c        ****     output[4] = (seconds % 10) + '0';
  45              		.loc 1 77 15
  46 001a A301E500 		sb	a4,3(a0)
  84:main.c        ****     output[7] = ((milliseconds / 10) % 10) + '0';
  47              		.loc 1 84 32
  48 001e 13074006 		li	a4,100
  49 0022 33C7E602 		div	a4,a3,a4
  84:main.c        ****     output[7] = ((milliseconds / 10) % 10) + '0';
  50              		.loc 1 84 39
  51 0026 3367F702 		rem	a4,a4,a5
  84:main.c        ****     output[7] = ((milliseconds / 10) % 10) + '0';
  52              		.loc 1 84 45
  53 002a 13070703 		addi	a4,a4,48
  84:main.c        ****     output[7] = ((milliseconds / 10) % 10) + '0';
  54              		.loc 1 84 15
  55 002e 2303E500 		sb	a4,6(a0)
  85:main.c        ****     output[8] = (milliseconds % 10) + '0';
  56              		.loc 1 85 32
  57 0032 33C7F602 		div	a4,a3,a5
  71:main.c        **** 
  58              		.loc 1 71 26
  59 0036 B3E5F502 		rem	a1,a1,a5
  60              	.LVL1:
  78:main.c        **** 
  61              		.loc 1 78 26
  62 003a 3366F602 		rem	a2,a2,a5
  63              	.LVL2:
  71:main.c        **** 
  64              		.loc 1 71 32
  65 003e 93850503 		addi	a1,a1,48
  71:main.c        **** 
  66              		.loc 1 71 15
  67 0042 A300B500 		sb	a1,1(a0)
GAS LISTING /var/folders/yy/83vjwp7d53j56dbzj8_jnpcr0000gn/T//ccN2uQTj.s 			page 4


  74:main.c        **** 
  68              		.loc 1 74 5 is_stmt 1
  74:main.c        **** 
  69              		.loc 1 74 15 is_stmt 0
  70 0046 9305E002 		li	a1,46
  71 004a 2301B500 		sb	a1,2(a0)
  77:main.c        ****     output[4] = (seconds % 10) + '0';
  72              		.loc 1 77 5 is_stmt 1
  78:main.c        **** 
  73              		.loc 1 78 5
  81:main.c        **** 
  74              		.loc 1 81 15 is_stmt 0
  75 004e A302B500 		sb	a1,5(a0)
  85:main.c        ****     output[8] = (milliseconds % 10) + '0';
  76              		.loc 1 85 38
  77 0052 3367F702 		rem	a4,a4,a5
  78:main.c        **** 
  78              		.loc 1 78 32
  79 0056 13060603 		addi	a2,a2,48
  78:main.c        **** 
  80              		.loc 1 78 15
  81 005a 2302C500 		sb	a2,4(a0)
  81:main.c        **** 
  82              		.loc 1 81 5 is_stmt 1
  84:main.c        ****     output[7] = ((milliseconds / 10) % 10) + '0';
  83              		.loc 1 84 5
  85:main.c        ****     output[8] = (milliseconds % 10) + '0';
  84              		.loc 1 85 5
  86:main.c        **** 
  85              		.loc 1 86 31 is_stmt 0
  86 005e B3E6F602 		rem	a3,a3,a5
  87              	.LVL3:
  85:main.c        ****     output[8] = (milliseconds % 10) + '0';
  88              		.loc 1 85 44
  89 0062 13070703 		addi	a4,a4,48
  89:main.c        ****     output[10] = '\0';
  90              		.loc 1 89 15
  91 0066 9307B003 		li	a5,59
  85:main.c        ****     output[8] = (milliseconds % 10) + '0';
  92              		.loc 1 85 15
  93 006a A303E500 		sb	a4,7(a0)
  86:main.c        **** 
  94              		.loc 1 86 5 is_stmt 1
  89:main.c        ****     output[10] = '\0';
  95              		.loc 1 89 15 is_stmt 0
  96 006e A304F500 		sb	a5,9(a0)
  86:main.c        **** 
  97              		.loc 1 86 37
  98 0072 93860603 		addi	a3,a3,48
  86:main.c        **** 
  99              		.loc 1 86 15
 100 0076 2304D500 		sb	a3,8(a0)
  89:main.c        ****     output[10] = '\0';
 101              		.loc 1 89 5 is_stmt 1
 102              		.loc 1 90 5
  91:main.c        **** }
 103              		.loc 1 91 1 is_stmt 0
GAS LISTING /var/folders/yy/83vjwp7d53j56dbzj8_jnpcr0000gn/T//ccN2uQTj.s 			page 5


 104 007a 8280     		ret
 105              		.cfi_endproc
 106              	.LFE7:
 108              		.section	.text.int_to_string,"ax",@progbits
 109              		.align	1
 110              		.globl	int_to_string
 112              	int_to_string:
 113              	.LFB8:
  92:main.c        **** 
  93:main.c        **** int int_to_string(char *string, int integer){
 114              		.loc 1 93 45 is_stmt 1
 115              		.cfi_startproc
 116              	.LVL4:
  94:main.c        ****     int i = 0;
 117              		.loc 1 94 5
  95:main.c        ****     int divider = 1000;
 118              		.loc 1 95 5
  96:main.c        ****     if(integer < 0){
 119              		.loc 1 96 5
  93:main.c        ****     int i = 0;
 120              		.loc 1 93 45 is_stmt 0
 121 0000 AA87     		mv	a5,a0
 122              		.loc 1 96 7
 123 0002 63D30506 		bge	a1,zero,.L3
  97:main.c        ****         string[i++] = '-';
 124              		.loc 1 97 9 is_stmt 1
 125              	.LVL5:
 126              		.loc 1 97 21 is_stmt 0
 127 0006 1307D002 		li	a4,45
 128 000a 2300E500 		sb	a4,0(a0)
  98:main.c        ****         integer = -integer;
 129              		.loc 1 98 9 is_stmt 1
 130              		.loc 1 98 17 is_stmt 0
 131 000e B305B040 		neg	a1,a1
 132              	.LVL6:
  97:main.c        ****         string[i++] = '-';
 133              		.loc 1 97 17
 134 0012 0547     		li	a4,1
 135              	.LVL7:
 136              	.L4:
  99:main.c        ****     }else if(integer == 0){
 100:main.c        ****         string[i++] = '0';
 101:main.c        ****         string[i++] = ';';
 102:main.c        ****         string[i] = '\0';
 103:main.c        ****         return i;
 104:main.c        ****     }
 105:main.c        ****     int og_num = integer;
 137              		.loc 1 105 5 is_stmt 1
 106:main.c        ****     while (integer >= divider * 10) {
 138              		.loc 1 106 5
  95:main.c        ****     if(integer < 0){
 139              		.loc 1 95 9 is_stmt 0
 140 0014 9306803E 		li	a3,1000
 141              		.loc 1 106 31
 142 0018 2945     		li	a0,10
 143              	.LVL8:
 144              	.L6:
GAS LISTING /var/folders/yy/83vjwp7d53j56dbzj8_jnpcr0000gn/T//ccN2uQTj.s 			page 6


 145 001a 3386A602 		mul	a2,a3,a0
 146              		.loc 1 106 11
 147 001e 63D3C506 		ble	a2,a1,.L11
 148 0022 2E85     		mv	a0,a1
 149              	.LBB2:
 107:main.c        ****         divider *= 10; 
 108:main.c        ****     }
 109:main.c        **** 
 110:main.c        ****     while(divider){
 111:main.c        ****         char digit = (integer/divider)+ '0';
 112:main.c        ****         if(digit != '0' || og_num > integer){
 150              		.loc 1 112 11
 151 0024 93080003 		li	a7,48
 113:main.c        ****             string[i++] = digit; 
 114:main.c        ****         }
 115:main.c        ****         
 116:main.c        ****         integer %= divider;
 117:main.c        ****         divider /= 10;
 152              		.loc 1 117 17
 153 0028 2948     		li	a6,10
 154              	.LVL9:
 155              	.L9:
 111:main.c        ****         if(digit != '0' || og_num > integer){
 156              		.loc 1 111 9 is_stmt 1
 111:main.c        ****         if(digit != '0' || og_num > integer){
 157              		.loc 1 111 30 is_stmt 0
 158 002a 3346D502 		div	a2,a0,a3
 111:main.c        ****         if(digit != '0' || og_num > integer){
 159              		.loc 1 111 14
 160 002e 13060603 		addi	a2,a2,48
 161 0032 1376F60F 		andi	a2,a2,0xff
 162              	.LVL10:
 112:main.c        ****             string[i++] = digit; 
 163              		.loc 1 112 9 is_stmt 1
 112:main.c        ****             string[i++] = digit; 
 164              		.loc 1 112 11 is_stmt 0
 165 0036 63141601 		bne	a2,a7,.L7
 112:main.c        ****             string[i++] = digit; 
 166              		.loc 1 112 25 discriminator 1
 167 003a 6357B500 		ble	a1,a0,.L8
 168              	.L7:
 113:main.c        ****             string[i++] = digit; 
 169              		.loc 1 113 13 is_stmt 1
 170              	.LVL11:
 113:main.c        ****             string[i++] = digit; 
 171              		.loc 1 113 25 is_stmt 0
 172 003e 3383E700 		add	t1,a5,a4
 173 0042 2300C300 		sb	a2,0(t1)
 113:main.c        ****             string[i++] = digit; 
 174              		.loc 1 113 21
 175 0046 0507     		addi	a4,a4,1
 176              	.LVL12:
 177              	.L8:
 116:main.c        ****         divider /= 10;
 178              		.loc 1 116 9 is_stmt 1
 116:main.c        ****         divider /= 10;
 179              		.loc 1 116 17 is_stmt 0
GAS LISTING /var/folders/yy/83vjwp7d53j56dbzj8_jnpcr0000gn/T//ccN2uQTj.s 			page 7


 180 0048 3365D502 		rem	a0,a0,a3
 181              	.LVL13:
 182              		.loc 1 117 9 is_stmt 1
 183              		.loc 1 117 17 is_stmt 0
 184 004c B3C60603 		div	a3,a3,a6
 185              	.LVL14:
 186              	.LBE2:
 110:main.c        ****         char digit = (integer/divider)+ '0';
 187              		.loc 1 110 10
 188 0050 E9FE     		bne	a3,zero,.L9
 118:main.c        ****     }
 119:main.c        ****     string[i++] = ';';
 189              		.loc 1 119 5 is_stmt 1
 190              		.loc 1 119 13 is_stmt 0
 191 0052 13051700 		addi	a0,a4,1
 192              	.LVL15:
 193              		.loc 1 119 17
 194 0056 9306B003 		li	a3,59
 195              	.LVL16:
 196 005a 3E97     		add	a4,a5,a4
 197 005c 2300D700 		sb	a3,0(a4)
 120:main.c        ****     string[i] = '\0';
 198              		.loc 1 120 5 is_stmt 1
 199              		.loc 1 120 15 is_stmt 0
 200 0060 AA97     		add	a5,a5,a0
 201              	.LVL17:
 202 0062 23800700 		sb	zero,0(a5)
 121:main.c        ****     return i;
 203              		.loc 1 121 5 is_stmt 1
 122:main.c        **** }
 204              		.loc 1 122 1 is_stmt 0
 205 0066 8280     		ret
 206              	.LVL18:
 207              	.L3:
  99:main.c        ****         string[i++] = '0';
 208              		.loc 1 99 11 is_stmt 1
  94:main.c        ****     int divider = 1000;
 209              		.loc 1 94 9 is_stmt 0
 210 0068 0147     		li	a4,0
  99:main.c        ****         string[i++] = '0';
 211              		.loc 1 99 13
 212 006a CDF5     		bne	a1,zero,.L4
 100:main.c        ****         string[i++] = ';';
 213              		.loc 1 100 9 is_stmt 1
 214              	.LVL19:
 100:main.c        ****         string[i++] = ';';
 215              		.loc 1 100 21 is_stmt 0
 216 006c 13070003 		li	a4,48
 217 0070 2300E500 		sb	a4,0(a0)
 101:main.c        ****         string[i] = '\0';
 218              		.loc 1 101 9 is_stmt 1
 219              	.LVL20:
 101:main.c        ****         string[i] = '\0';
 220              		.loc 1 101 21 is_stmt 0
 221 0074 1307B003 		li	a4,59
 222 0078 A300E500 		sb	a4,1(a0)
 102:main.c        ****         return i;
GAS LISTING /var/folders/yy/83vjwp7d53j56dbzj8_jnpcr0000gn/T//ccN2uQTj.s 			page 8


 223              		.loc 1 102 9 is_stmt 1
 102:main.c        ****         return i;
 224              		.loc 1 102 19 is_stmt 0
 225 007c 23010500 		sb	zero,2(a0)
 103:main.c        ****     }
 226              		.loc 1 103 9 is_stmt 1
 103:main.c        ****     }
 227              		.loc 1 103 16 is_stmt 0
 228 0080 0945     		li	a0,2
 229              	.LVL21:
 230 0082 8280     		ret
 231              	.LVL22:
 232              	.L11:
 233 0084 B286     		mv	a3,a2
 234              	.LVL23:
 235 0086 51BF     		j	.L6
 236              		.cfi_endproc
 237              	.LFE8:
 239              		.section	.text.append_int_to_string,"ax",@progbits
 240              		.align	1
 241              		.globl	append_int_to_string
 243              	append_int_to_string:
 244              	.LFB9:
 123:main.c        **** 
 124:main.c        **** int append_int_to_string(char *string, int integer){
 245              		.loc 1 124 52 is_stmt 1
 246              		.cfi_startproc
 247              	.LVL24:
 125:main.c        ****     char temp[20] = {'\0'};
 248              		.loc 1 125 5
 124:main.c        ****     char temp[20] = {'\0'};
 249              		.loc 1 124 52 is_stmt 0
 250 0000 7971     		addi	sp,sp,-48
 251              	.LCFI0:
 252              		.cfi_def_cfa_offset 48
 253 0002 22D4     		sw	s0,40(sp)
 254              		.cfi_offset 8, -8
 255 0004 2A84     		mv	s0,a0
 126:main.c        ****     int_to_string(temp, integer);
 256              		.loc 1 126 5
 257 0006 6800     		addi	a0,sp,12
 258              	.LVL25:
 124:main.c        ****     char temp[20] = {'\0'};
 259              		.loc 1 124 52
 260 0008 06D6     		sw	ra,44(sp)
 261              		.cfi_offset 1, -4
 125:main.c        ****     char temp[20] = {'\0'};
 262              		.loc 1 125 10
 263 000a 02C6     		sw	zero,12(sp)
 264 000c 02C8     		sw	zero,16(sp)
 265 000e 02CA     		sw	zero,20(sp)
 266 0010 02CC     		sw	zero,24(sp)
 267 0012 02CE     		sw	zero,28(sp)
 268              		.loc 1 126 5 is_stmt 1
 269 0014 97000000 		call	int_to_string
 269      E7800000 
 270              	.LVL26:
GAS LISTING /var/folders/yy/83vjwp7d53j56dbzj8_jnpcr0000gn/T//ccN2uQTj.s 			page 9


 127:main.c        ****     int len = fuseStrings(string, temp);
 271              		.loc 1 127 5
 272              		.loc 1 127 15 is_stmt 0
 273 001c 6C00     		addi	a1,sp,12
 274 001e 2285     		mv	a0,s0
 275 0020 97000000 		call	fuseStrings
 275      E7800000 
 276              	.LVL27:
 128:main.c        ****     return len;
 277              		.loc 1 128 5 is_stmt 1
 129:main.c        **** }
 278              		.loc 1 129 1 is_stmt 0
 279 0028 B250     		lw	ra,44(sp)
 280              		.cfi_restore 1
 281 002a 2254     		lw	s0,40(sp)
 282              		.cfi_restore 8
 283              	.LVL28:
 284 002c 4561     		addi	sp,sp,48
 285              	.LCFI1:
 286              		.cfi_def_cfa_offset 0
 287 002e 8280     		jr	ra
 288              		.cfi_endproc
 289              	.LFE9:
 291              		.section	.text.append_newLine,"ax",@progbits
 292              		.align	1
 293              		.globl	append_newLine
 295              	append_newLine:
 296              	.LFB10:
 130:main.c        **** 
 131:main.c        **** void append_newLine(char *string, int length) {
 297              		.loc 1 131 47 is_stmt 1
 298              		.cfi_startproc
 299              	.LVL29:
 132:main.c        ****     string[length-1] = '\n';
 300              		.loc 1 132 5
 301              		.loc 1 132 22 is_stmt 0
 302 0000 AA95     		add	a1,a0,a1
 303              	.LVL30:
 304 0002 A947     		li	a5,10
 305 0004 A38FF5FE 		sb	a5,-1(a1)
 133:main.c        ****     string[length] = '\0'; // Add a null terminator at the new end
 306              		.loc 1 133 5 is_stmt 1
 307              		.loc 1 133 20 is_stmt 0
 308 0008 23800500 		sb	zero,0(a1)
 134:main.c        **** }
 309              		.loc 1 134 1
 310 000c 8280     		ret
 311              		.cfi_endproc
 312              	.LFE10:
 314              		.globl	__floatundidf
 315              		.globl	__muldf3
 316              		.globl	__floatunsidf
 317              		.globl	__divdf3
 318              		.globl	__fixdfsi
 319              		.section	.text.millis,"ax",@progbits
 320              		.align	1
 321              		.globl	millis
GAS LISTING /var/folders/yy/83vjwp7d53j56dbzj8_jnpcr0000gn/T//ccN2uQTj.s 			page 10


 323              	millis:
 324              	.LFB11:
 135:main.c        **** 
 136:main.c        **** int millis(void) {
 325              		.loc 1 136 18 is_stmt 1
 326              		.cfi_startproc
 137:main.c        ****     uint64_t mtime = get_timer_value();
 327              		.loc 1 137 5
 136:main.c        ****     uint64_t mtime = get_timer_value();
 328              		.loc 1 136 18 is_stmt 0
 329 0000 4111     		addi	sp,sp,-16
 330              	.LCFI2:
 331              		.cfi_def_cfa_offset 16
 332 0002 06C6     		sw	ra,12(sp)
 333 0004 22C4     		sw	s0,8(sp)
 334 0006 26C2     		sw	s1,4(sp)
 335              		.cfi_offset 1, -4
 336              		.cfi_offset 8, -8
 337              		.cfi_offset 9, -12
 338              		.loc 1 137 22
 339 0008 97000000 		call	get_timer_value
 339      E7800000 
 340              	.LVL31:
 138:main.c        ****     return ((mtime * 4000.0) / SystemCoreClock); // Adjusted for seconds and milliseconds
 341              		.loc 1 138 5 is_stmt 1
 342              		.loc 1 138 20 is_stmt 0
 343 0010 97000000 		call	__floatundidf
 343      E7800000 
 344              	.LVL32:
 345 0018 B7070000 		lui	a5,%hi(.LANCHOR0+48)
 346 001c 03A60703 		lw	a2,%lo(.LANCHOR0+48)(a5)
 347 0020 83A64703 		lw	a3,%lo(.LANCHOR0+52)(a5)
 348 0024 97000000 		call	__muldf3
 348      E7800000 
 349              	.LVL33:
 350              		.loc 1 138 30
 351 002c B7070000 		lui	a5,%hi(SystemCoreClock)
 352              		.loc 1 138 20
 353 0030 2A84     		mv	s0,a0
 354              		.loc 1 138 30
 355 0032 03A50700 		lw	a0,%lo(SystemCoreClock)(a5)
 356              		.loc 1 138 20
 357 0036 AE84     		mv	s1,a1
 358              		.loc 1 138 30
 359 0038 97000000 		call	__floatunsidf
 359      E7800000 
 360              	.LVL34:
 361 0040 2A86     		mv	a2,a0
 362 0042 AE86     		mv	a3,a1
 363 0044 2285     		mv	a0,s0
 364 0046 A685     		mv	a1,s1
 365 0048 97000000 		call	__divdf3
 365      E7800000 
 366              	.LVL35:
 367 0050 97000000 		call	__fixdfsi
 367      E7800000 
 368              	.LVL36:
GAS LISTING /var/folders/yy/83vjwp7d53j56dbzj8_jnpcr0000gn/T//ccN2uQTj.s 			page 11


 139:main.c        **** }
 369              		.loc 1 139 1
 370 0058 B240     		lw	ra,12(sp)
 371              		.cfi_restore 1
 372 005a 2244     		lw	s0,8(sp)
 373              		.cfi_restore 8
 374 005c 9244     		lw	s1,4(sp)
 375              		.cfi_restore 9
 376 005e 4101     		addi	sp,sp,16
 377              	.LCFI3:
 378              		.cfi_def_cfa_offset 0
 379 0060 8280     		jr	ra
 380              		.cfi_endproc
 381              	.LFE11:
 383              		.section	.text.TIMER1_IRQHandler,"ax",@progbits
 384              		.align	1
 385              		.globl	TIMER1_IRQHandler
 387              	TIMER1_IRQHandler:
 388              	.LFB12:
 140:main.c        **** 
 141:main.c        **** void TIMER1_IRQHandler(void){
 389              		.loc 1 141 29 is_stmt 1
 390              		.cfi_startproc
 142:main.c        ****     //led_on();
 143:main.c        ****     if(!adc_flag_get(ADC0,ADC_FLAG_EOC)){
 391              		.loc 1 143 5
 392              		.loc 1 143 9 is_stmt 0
 393 0000 37250140 		li	a0,1073815552
 141:main.c        ****     //led_on();
 394              		.loc 1 141 29
 395 0004 2D71     		addi	sp,sp,-288
 396              	.LCFI4:
 397              		.cfi_def_cfa_offset 288
 398              		.loc 1 143 9
 399 0006 8945     		li	a1,2
 400 0008 13050540 		addi	a0,a0,1024
 141:main.c        ****     //led_on();
 401              		.loc 1 141 29
 402 000c 232E1110 		sw	ra,284(sp)
 403 0010 232C8110 		sw	s0,280(sp)
 404              		.cfi_offset 1, -4
 405              		.cfi_offset 8, -8
 406              		.loc 1 143 9
 407 0014 97000000 		call	adc_flag_get
 407      E7800000 
 408              	.LVL37:
 409              		.loc 1 143 7
 410 001c 63150516 		bne	a0,zero,.L18
 411 0020 2A84     		mv	s0,a0
 412              	.LBB3:
 144:main.c        ****         uint16_t data_Buffer[8] = {0};
 413              		.loc 1 144 9 is_stmt 1
 145:main.c        ****         char str_buf[256] = {'\0'};
 414              		.loc 1 145 14 is_stmt 0
 415 0022 13060010 		li	a2,256
 416 0026 8145     		li	a1,0
 417 0028 0808     		addi	a0,sp,16
GAS LISTING /var/folders/yy/83vjwp7d53j56dbzj8_jnpcr0000gn/T//ccN2uQTj.s 			page 12


 144:main.c        ****         uint16_t data_Buffer[8] = {0};
 418              		.loc 1 144 18
 419 002a 02C0     		sw	zero,0(sp)
 420 002c 02C2     		sw	zero,4(sp)
 421 002e 02C4     		sw	zero,8(sp)
 422 0030 02C6     		sw	zero,12(sp)
 423              		.loc 1 145 9 is_stmt 1
 424              		.loc 1 145 14 is_stmt 0
 425 0032 97000000 		call	memset
 425      E7800000 
 426              	.LVL38:
 146:main.c        ****         for (int i = 0; i < 8; i++){
 427              		.loc 1 146 9 is_stmt 1
 428              	.LBB4:
 429              		.loc 1 146 14
 147:main.c        ****             data_Buffer[i] = sample_buffer[i];
 430              		.loc 1 147 43 is_stmt 0
 431 003a B7070000 		lui	a5,%hi(sample_buffer)
 432 003e 93870700 		addi	a5,a5,%lo(sample_buffer)
 146:main.c        ****         for (int i = 0; i < 8; i++){
 433              		.loc 1 146 9
 434 0042 4147     		li	a4,16
 435              	.LVL39:
 436              	.L20:
 437              		.loc 1 147 13 is_stmt 1 discriminator 3
 438              		.loc 1 147 43 is_stmt 0 discriminator 3
 439 0044 3306F400 		add	a2,s0,a5
 440              		.loc 1 147 28 discriminator 3
 441 0048 03560600 		lhu	a2,0(a2)
 442 004c B3068100 		add	a3,sp,s0
 443 0050 0904     		addi	s0,s0,2
 444 0052 2390C600 		sh	a2,0(a3)
 146:main.c        ****         for (int i = 0; i < 8; i++){
 445              		.loc 1 146 9 discriminator 3
 446 0056 E317E4FE 		bne	s0,a4,.L20
 447              	.LBE4:
 148:main.c        ****         }
 149:main.c        ****         adc_flag_clear(ADC0, ADC_FLAG_EOC); 
 448              		.loc 1 149 9 is_stmt 1
 449 005a 37240140 		li	s0,1073815552
 450 005e 8945     		li	a1,2
 451 0060 13050440 		addi	a0,s0,1024
 452 0064 97000000 		call	adc_flag_clear
 452      E7800000 
 453              	.LVL40:
 150:main.c        ****         adc_software_trigger_enable(ADC0, ADC_REGULAR_CHANNEL);
 454              		.loc 1 150 9
 455 006c 8545     		li	a1,1
 456 006e 13050440 		addi	a0,s0,1024
 457 0072 97000000 		call	adc_software_trigger_enable
 457      E7800000 
 458              	.LVL41:
 151:main.c        ****         /* Check which channel triggered the interrupt */
 152:main.c        ****         if (SET == timer_interrupt_flag_get(TIMER1, TIMER_INT_CH0)){
 459              		.loc 1 152 9
 460              		.loc 1 152 20 is_stmt 0
 461 007a 8945     		li	a1,2
GAS LISTING /var/folders/yy/83vjwp7d53j56dbzj8_jnpcr0000gn/T//ccN2uQTj.s 			page 13


 462 007c 37050040 		li	a0,1073741824
 463 0080 97000000 		call	timer_interrupt_flag_get
 463      E7800000 
 464              	.LVL42:
 465              		.loc 1 152 12
 466 0088 8547     		li	a5,1
 467 008a 631EF50E 		bne	a0,a5,.L18
 153:main.c        ****             millisec++; // Add one each time an interrupt happens
 468              		.loc 1 153 13 is_stmt 1
 469              		.loc 1 153 21 is_stmt 0
 470 008e 37070000 		lui	a4,%hi(.LANCHOR1)
 471 0092 93070700 		addi	a5,a4,%lo(.LANCHOR1)
 472 0096 9443     		lw	a3,0(a5)
 473 0098 13070700 		addi	a4,a4,%lo(.LANCHOR1)
 474 009c 8506     		addi	a3,a3,1
 475 009e 94C3     		sw	a3,0(a5)
 154:main.c        ****             if (millisec == 1000){
 476              		.loc 1 154 13 is_stmt 1
 477              		.loc 1 154 26 is_stmt 0
 478 00a0 9043     		lw	a2,0(a5)
 479              		.loc 1 154 16
 480 00a2 9306803E 		li	a3,1000
 481 00a6 B7070000 		lui	a5,%hi(.LANCHOR2)
 482 00aa 93870700 		addi	a5,a5,%lo(.LANCHOR2)
 483 00ae 6317D600 		bne	a2,a3,.L22
 155:main.c        ****                 millisec = 0;
 484              		.loc 1 155 17 is_stmt 1
 485              		.loc 1 155 26 is_stmt 0
 486 00b2 23200700 		sw	zero,0(a4)
 156:main.c        ****                 seconds++;
 487              		.loc 1 156 17 is_stmt 1
 488              		.loc 1 156 24 is_stmt 0
 489 00b6 9443     		lw	a3,0(a5)
 490 00b8 8506     		addi	a3,a3,1
 491 00ba 94C3     		sw	a3,0(a5)
 492              	.L22:
 157:main.c        ****             }
 158:main.c        **** 
 159:main.c        ****             if (seconds == 60){
 493              		.loc 1 159 13 is_stmt 1
 494              		.loc 1 159 25 is_stmt 0
 495 00bc 8C43     		lw	a1,0(a5)
 496 00be B7060000 		lui	a3,%hi(.LANCHOR3)
 497              		.loc 1 159 16
 498 00c2 1306C003 		li	a2,60
 499 00c6 93860600 		addi	a3,a3,%lo(.LANCHOR3)
 500 00ca 6397C500 		bne	a1,a2,.L23
 160:main.c        ****                 seconds = 0;
 501              		.loc 1 160 17 is_stmt 1
 502              		.loc 1 160 25 is_stmt 0
 503 00ce 23A00700 		sw	zero,0(a5)
 161:main.c        ****                 minutes++;
 504              		.loc 1 161 17 is_stmt 1
 505              		.loc 1 161 24 is_stmt 0
 506 00d2 9042     		lw	a2,0(a3)
 507 00d4 0506     		addi	a2,a2,1
 508 00d6 90C2     		sw	a2,0(a3)
GAS LISTING /var/folders/yy/83vjwp7d53j56dbzj8_jnpcr0000gn/T//ccN2uQTj.s 			page 14


 509              	.L23:
 162:main.c        ****             }
 163:main.c        **** 
 164:main.c        ****             formatTime(str_buf, minutes, seconds, millisec);
 510              		.loc 1 164 13 is_stmt 1
 511 00d8 8C42     		lw	a1,0(a3)
 512 00da 9043     		lw	a2,0(a5)
 513 00dc 1443     		lw	a3,0(a4)
 514 00de 0808     		addi	a0,sp,16
 515 00e0 97000000 		call	formatTime
 515      E7800000 
 516              	.LVL43:
 165:main.c        ****             append_int_to_string(str_buf, data_Buffer[0]);
 517              		.loc 1 165 13
 518 00e8 83550100 		lhu	a1,0(sp)
 519 00ec 0808     		addi	a0,sp,16
 520 00ee 97000000 		call	append_int_to_string
 520      E7800000 
 521              	.LVL44:
 166:main.c        ****             append_int_to_string(str_buf, data_Buffer[1]);
 522              		.loc 1 166 13
 523 00f6 83552100 		lhu	a1,2(sp)
 524 00fa 0808     		addi	a0,sp,16
 525 00fc 97000000 		call	append_int_to_string
 525      E7800000 
 526              	.LVL45:
 167:main.c        ****             append_int_to_string(str_buf, data_Buffer[2]);
 527              		.loc 1 167 13
 528 0104 83554100 		lhu	a1,4(sp)
 529 0108 0808     		addi	a0,sp,16
 530 010a 97000000 		call	append_int_to_string
 530      E7800000 
 531              	.LVL46:
 168:main.c        ****             append_int_to_string(str_buf, data_Buffer[3]);
 532              		.loc 1 168 13
 533 0112 83556100 		lhu	a1,6(sp)
 534 0116 0808     		addi	a0,sp,16
 535 0118 97000000 		call	append_int_to_string
 535      E7800000 
 536              	.LVL47:
 169:main.c        ****             append_int_to_string(str_buf, data_Buffer[4]);
 537              		.loc 1 169 13
 538 0120 83558100 		lhu	a1,8(sp)
 539 0124 0808     		addi	a0,sp,16
 540 0126 97000000 		call	append_int_to_string
 540      E7800000 
 541              	.LVL48:
 170:main.c        ****             append_int_to_string(str_buf, data_Buffer[5]);
 542              		.loc 1 170 13
 543 012e 8355A100 		lhu	a1,10(sp)
 544 0132 0808     		addi	a0,sp,16
 545 0134 97000000 		call	append_int_to_string
 545      E7800000 
 546              	.LVL49:
 171:main.c        ****             append_int_to_string(str_buf, data_Buffer[6]);
 547              		.loc 1 171 13
 548 013c 8355C100 		lhu	a1,12(sp)
GAS LISTING /var/folders/yy/83vjwp7d53j56dbzj8_jnpcr0000gn/T//ccN2uQTj.s 			page 15


 549 0140 0808     		addi	a0,sp,16
 550 0142 97000000 		call	append_int_to_string
 550      E7800000 
 551              	.LVL50:
 172:main.c        ****             append_int_to_string(str_buf, data_Buffer[7]);
 552              		.loc 1 172 13
 553 014a 8355E100 		lhu	a1,14(sp)
 554 014e 0808     		addi	a0,sp,16
 555 0150 97000000 		call	append_int_to_string
 555      E7800000 
 556              	.LVL51:
 173:main.c        ****             append_newLine(str_buf, strlen(str_buf));
 557              		.loc 1 173 13
 558              		.loc 1 173 37 is_stmt 0
 559 0158 0808     		addi	a0,sp,16
 560 015a 97000000 		call	strlen
 560      E7800000 
 561              	.LVL52:
 562              		.loc 1 173 13
 563 0162 AA85     		mv	a1,a0
 564 0164 0808     		addi	a0,sp,16
 565 0166 97000000 		call	append_newLine
 565      E7800000 
 566              	.LVL53:
 174:main.c        **** 
 175:main.c        ****             enqueue_string(str_buf);
 567              		.loc 1 175 13 is_stmt 1
 568 016e 0808     		addi	a0,sp,16
 569 0170 97000000 		call	enqueue_string
 569      E7800000 
 570              	.LVL54:
 176:main.c        ****             timer_interrupt_flag_clear(TIMER1, TIMER_INT_CH0);
 571              		.loc 1 176 13
 572 0178 8945     		li	a1,2
 573 017a 37050040 		li	a0,1073741824
 574 017e 97000000 		call	timer_interrupt_flag_clear
 574      E7800000 
 575              	.LVL55:
 576              	.L18:
 577              	.LBE3:
 177:main.c        ****         }
 178:main.c        ****     }
 179:main.c        ****     //led_off();
 180:main.c        **** }
 578              		.loc 1 180 1 is_stmt 0
 579 0186 8320C111 		lw	ra,284(sp)
 580              		.cfi_restore 1
 581 018a 03248111 		lw	s0,280(sp)
 582              		.cfi_restore 8
 583 018e 1561     		addi	sp,sp,288
 584              	.LCFI5:
 585              		.cfi_def_cfa_offset 0
 586 0190 8280     		jr	ra
 587              		.cfi_endproc
 588              	.LFE12:
 590              		.section	.text.write_handle_raw,"ax",@progbits
 591              		.align	1
GAS LISTING /var/folders/yy/83vjwp7d53j56dbzj8_jnpcr0000gn/T//ccN2uQTj.s 			page 16


 592              		.globl	write_handle_raw
 594              	write_handle_raw:
 595              	.LFB13:
 181:main.c        **** 
 182:main.c        **** 
 183:main.c        **** 
 184:main.c        **** void write_handle_raw(uint16_t handle, uint8_t* byte_data, uint8_t size){
 596              		.loc 1 184 73 is_stmt 1
 597              		.cfi_startproc
 598              	.LVL56:
 185:main.c        **** 	uint8_t string_buffer[128] = {'\0'};
 599              		.loc 1 185 2
 184:main.c        **** 	uint8_t string_buffer[128] = {'\0'};
 600              		.loc 1 184 73 is_stmt 0
 601 0000 5171     		addi	sp,sp,-240
 602              	.LCFI6:
 603              		.cfi_def_cfa_offset 240
 604 0002 A2D5     		sw	s0,232(sp)
 605 0004 CAD1     		sw	s2,224(sp)
 606 0006 2AC6     		sw	a0,12(sp)
 607              		.cfi_offset 8, -8
 608              		.cfi_offset 18, -16
 609 0008 2E89     		mv	s2,a1
 610 000a 3284     		mv	s0,a2
 611              		.loc 1 185 10
 612 000c 8145     		li	a1,0
 613              	.LVL57:
 614 000e 13060008 		li	a2,128
 615              	.LVL58:
 616 0012 8810     		addi	a0,sp,96
 617              	.LVL59:
 184:main.c        **** 	uint8_t string_buffer[128] = {'\0'};
 618              		.loc 1 184 73
 619 0014 86D7     		sw	ra,236(sp)
 620 0016 A6D3     		sw	s1,228(sp)
 621              		.cfi_offset 1, -4
 622              		.cfi_offset 9, -12
 623              		.loc 1 185 10
 624 0018 97000000 		call	memset
 624      E7800000 
 625              	.LVL60:
 186:main.c        **** 	uint8_t data_buffer[(20*2)+15] = {'\0'};
 626              		.loc 1 186 2 is_stmt 1
 627              		.loc 1 186 10 is_stmt 0
 628 0020 13067003 		li	a2,55
 629 0024 8145     		li	a1,0
 630 0026 2810     		addi	a0,sp,40
 631 0028 97000000 		call	memset
 631      E7800000 
 632              	.LVL61:
 187:main.c        **** 	const uint8_t lut_hex[] = "0123456789ABCDEF";
 633              		.loc 1 187 2 is_stmt 1
 634              		.loc 1 187 16 is_stmt 0
 635 0030 B7040000 		lui	s1,%hi(.LANCHOR0)
 636 0034 93850400 		addi	a1,s1,%lo(.LANCHOR0)
 637 0038 4546     		li	a2,17
 638 003a 93858503 		addi	a1,a1,56
GAS LISTING /var/folders/yy/83vjwp7d53j56dbzj8_jnpcr0000gn/T//ccN2uQTj.s 			page 17


 639 003e 4808     		addi	a0,sp,20
 640 0040 97000000 		call	memcpy
 640      E7800000 
 641              	.LVL62:
 188:main.c        **** 	for(int i = 0; i < size; i++){
 642              		.loc 1 188 2 is_stmt 1
 643              	.LBB5:
 644              		.loc 1 188 6
 645              		.loc 1 188 2 is_stmt 0
 646 0048 B246     		lw	a3,12(sp)
 647 004a 3010     		addi	a2,sp,40
 648              		.loc 1 188 10
 649 004c 0147     		li	a4,0
 650 004e 93850400 		addi	a1,s1,%lo(.LANCHOR0)
 651              	.LVL63:
 652              	.L27:
 653              		.loc 1 188 2 discriminator 1
 654 0052 63448704 		bgt	s0,a4,.L28
 655              	.LBE5:
 189:main.c        **** 		data_buffer[i*2] = lut_hex[byte_data[i] / 16];
 190:main.c        **** 		data_buffer[(i*2)+1] = lut_hex[byte_data[i] % 16];
 191:main.c        **** 	}
 192:main.c        **** 	data_buffer[size*2] = '\0';
 656              		.loc 1 192 2 is_stmt 1
 657              		.loc 1 192 22 is_stmt 0
 658 0056 9C11     		addi	a5,sp,224
 659 0058 0604     		slli	s0,s0,1
 193:main.c        **** 	sprintf(string_buffer, "%s%.4x,%s\r\n", "SHW,", handle, data_buffer);
 660              		.loc 1 193 2
 661 005a 37060000 		lui	a2,%hi(.LC8)
 192:main.c        **** 	sprintf(string_buffer, "%s%.4x,%s\r\n", "SHW,", handle, data_buffer);
 662              		.loc 1 192 22
 663 005e 3E94     		add	s0,a5,s0
 664              		.loc 1 193 2
 665 0060 3810     		addi	a4,sp,40
 666              	.LVL64:
 667 0062 13060600 		addi	a2,a2,%lo(.LC8)
 668 0066 93854505 		addi	a1,a1,84
 669 006a 8810     		addi	a0,sp,96
 192:main.c        **** 	sprintf(string_buffer, "%s%.4x,%s\r\n", "SHW,", handle, data_buffer);
 670              		.loc 1 192 22
 671 006c 230404F4 		sb	zero,-184(s0)
 672              		.loc 1 193 2 is_stmt 1
 673 0070 97000000 		call	sprintf
 673      E7800000 
 674              	.LVL65:
 194:main.c        **** 	lio_send_bt(string_buffer, strlen(string_buffer));
 675              		.loc 1 194 2
 676              		.loc 1 194 29 is_stmt 0
 677 0078 8810     		addi	a0,sp,96
 678 007a 97000000 		call	strlen
 678      E7800000 
 679              	.LVL66:
 680              		.loc 1 194 2
 681 0082 AA85     		mv	a1,a0
 682 0084 8810     		addi	a0,sp,96
 683 0086 97000000 		call	lio_send_bt
GAS LISTING /var/folders/yy/83vjwp7d53j56dbzj8_jnpcr0000gn/T//ccN2uQTj.s 			page 18


 683      E7800000 
 684              	.LVL67:
 195:main.c        **** }
 685              		.loc 1 195 1
 686 008e BE50     		lw	ra,236(sp)
 687              		.cfi_remember_state
 688              		.cfi_restore 1
 689 0090 2E54     		lw	s0,232(sp)
 690              		.cfi_restore 8
 691 0092 9E54     		lw	s1,228(sp)
 692              		.cfi_restore 9
 693 0094 0E59     		lw	s2,224(sp)
 694              		.cfi_restore 18
 695              	.LVL68:
 696 0096 6D61     		addi	sp,sp,240
 697              	.LCFI7:
 698              		.cfi_def_cfa_offset 0
 699 0098 8280     		jr	ra
 700              	.LVL69:
 701              	.L28:
 702              	.LCFI8:
 703              		.cfi_restore_state
 704              	.LBB6:
 189:main.c        **** 		data_buffer[(i*2)+1] = lut_hex[byte_data[i] % 16];
 705              		.loc 1 189 3 is_stmt 1 discriminator 3
 189:main.c        **** 		data_buffer[(i*2)+1] = lut_hex[byte_data[i] % 16];
 706              		.loc 1 189 39 is_stmt 0 discriminator 3
 707 009a B307E900 		add	a5,s2,a4
 708 009e 83C70700 		lbu	a5,0(a5)
 189:main.c        **** 		data_buffer[(i*2)+1] = lut_hex[byte_data[i] % 16];
 709              		.loc 1 189 29 discriminator 3
 710 00a2 8411     		addi	s1,sp,224
 188:main.c        **** 		data_buffer[i*2] = lut_hex[byte_data[i] / 16];
 711              		.loc 1 188 28 discriminator 3
 712 00a4 0507     		addi	a4,a4,1
 713              	.LVL70:
 189:main.c        **** 		data_buffer[(i*2)+1] = lut_hex[byte_data[i] % 16];
 714              		.loc 1 189 43 discriminator 3
 715 00a6 13D54700 		srli	a0,a5,4
 190:main.c        **** 	}
 716              		.loc 1 190 47 discriminator 3
 717 00aa BD8B     		andi	a5,a5,15
 189:main.c        **** 		data_buffer[(i*2)+1] = lut_hex[byte_data[i] % 16];
 718              		.loc 1 189 29 discriminator 3
 719 00ac 2695     		add	a0,s1,a0
 190:main.c        **** 	}
 720              		.loc 1 190 33 discriminator 3
 721 00ae A697     		add	a5,s1,a5
 189:main.c        **** 		data_buffer[(i*2)+1] = lut_hex[byte_data[i] % 16];
 722              		.loc 1 189 20 discriminator 3
 723 00b0 034545F3 		lbu	a0,-204(a0)
 190:main.c        **** 	}
 724              		.loc 1 190 24 discriminator 3
 725 00b4 83C747F3 		lbu	a5,-204(a5)
 726 00b8 0906     		addi	a2,a2,2
 189:main.c        **** 		data_buffer[(i*2)+1] = lut_hex[byte_data[i] % 16];
 727              		.loc 1 189 20 discriminator 3
GAS LISTING /var/folders/yy/83vjwp7d53j56dbzj8_jnpcr0000gn/T//ccN2uQTj.s 			page 19


 728 00ba 230FA6FE 		sb	a0,-2(a2)
 190:main.c        **** 	}
 729              		.loc 1 190 3 is_stmt 1 discriminator 3
 730              	.LVL71:
 190:main.c        **** 	}
 731              		.loc 1 190 24 is_stmt 0 discriminator 3
 732 00be A30FF6FE 		sb	a5,-1(a2)
 733 00c2 41BF     		j	.L27
 734              	.LBE6:
 735              		.cfi_endproc
 736              	.LFE13:
 738              		.section	.text.startup.main,"ax",@progbits
 739              		.align	1
 740              		.globl	main
 742              	main:
 743              	.LFB14:
 196:main.c        **** 
 197:main.c        **** 
 198:main.c        **** 
 199:main.c        **** int main(void){
 744              		.loc 1 199 15 is_stmt 1
 745              		.cfi_startproc
 200:main.c        ****     init_q();
 746              		.loc 1 200 5
 199:main.c        ****     init_q();
 747              		.loc 1 199 15 is_stmt 0
 748 0000 7D73     		li	t1,-4096
 749 0002 130101AA 		addi	sp,sp,-1376
 750              	.LCFI9:
 751              		.cfi_def_cfa_offset 1376
 752 0006 232E1154 		sw	ra,1372(sp)
 753 000a 232C8154 		sw	s0,1368(sp)
 754 000e 232A9154 		sw	s1,1364(sp)
 755 0012 23282155 		sw	s2,1360(sp)
 756 0016 23263155 		sw	s3,1356(sp)
 757 001a 23244155 		sw	s4,1352(sp)
 758 001e 23225155 		sw	s5,1348(sp)
 759 0022 23206155 		sw	s6,1344(sp)
 760 0026 232E7153 		sw	s7,1340(sp)
 761 002a 232C8153 		sw	s8,1336(sp)
 762 002e 232A9153 		sw	s9,1332(sp)
 763 0032 2328A153 		sw	s10,1328(sp)
 764 0036 2326B153 		sw	s11,1324(sp)
 765 003a 1A91     		add	sp,sp,t1
 766              	.LCFI10:
 767              		.cfi_def_cfa_offset 5472
 768              		.cfi_offset 1, -4
 769              		.cfi_offset 8, -8
 770              		.cfi_offset 9, -12
 771              		.cfi_offset 18, -16
 772              		.cfi_offset 19, -20
 773              		.cfi_offset 20, -24
 774              		.cfi_offset 21, -28
 775              		.cfi_offset 22, -32
 776              		.cfi_offset 23, -36
 777              		.cfi_offset 24, -40
 778              		.cfi_offset 25, -44
GAS LISTING /var/folders/yy/83vjwp7d53j56dbzj8_jnpcr0000gn/T//ccN2uQTj.s 			page 20


 779              		.cfi_offset 26, -48
 780              		.cfi_offset 27, -52
 781              		.loc 1 200 5
 782 003c 97000000 		call	init_q
 782      E7800000 
 783              	.LVL72:
 201:main.c        ****     
 202:main.c        **** 
 203:main.c        ****     /* Handle for the mounted filesystem */
 204:main.c        ****     FATFS fs;
 784              		.loc 1 204 5 is_stmt 1
 205:main.c        **** 
 206:main.c        ****     /* FatFs return code */
 207:main.c        ****     volatile FRESULT fr;
 785              		.loc 1 207 5
 208:main.c        **** 
 209:main.c        ****     /* File handle */
 210:main.c        ****     FIL fil;
 786              		.loc 1 210 5
 211:main.c        **** 
 212:main.c        ****     /* Used for bytes written */
 213:main.c        ****     UINT bw = 0;
 787              		.loc 1 213 5
 214:main.c        ****     
 215:main.c        ****     /* Sets a valid date for when writing to file */
 216:main.c        ****     set_fattime(1980, 1, 1, 0, 0, 0); // 1980 Jan 1st, 00:00:00
 788              		.loc 1 216 5 is_stmt 0
 789 0044 0147     		li	a4,0
 790 0046 8146     		li	a3,0
 791 0048 8147     		li	a5,0
 792 004a 0546     		li	a2,1
 793 004c 8545     		li	a1,1
 794 004e 1305C07B 		li	a0,1980
 213:main.c        ****     
 795              		.loc 1 213 10
 796 0052 02C2     		sw	zero,4(sp)
 797              		.loc 1 216 5 is_stmt 1
 798 0054 97000000 		call	set_fattime
 798      E7800000 
 799              	.LVL73:
 217:main.c        ****     delay_1ms(100);
 800              		.loc 1 217 5
 801 005c 13054006 		li	a0,100
 802 0060 97000000 		call	delay_1ms
 802      E7800000 
 803              	.LVL74:
 218:main.c        **** 
 219:main.c        ****     /* This function "mounts" the SD-card which makes the filesystem available */
 220:main.c        ****     fr = f_mount(&fs, "test", 1); // Mount storage device
 804              		.loc 1 220 5
 805              		.loc 1 220 10 is_stmt 0
 806 0068 0569     		li	s2,4096
 213:main.c        ****     
 807              		.loc 1 213 10
 808 006a 7D74     		li	s0,-4096
 809              		.loc 1 220 10
 810 006c 93070952 		addi	a5,s2,1312
GAS LISTING /var/folders/yy/83vjwp7d53j56dbzj8_jnpcr0000gn/T//ccN2uQTj.s 			page 21


 811 0070 8A97     		add	a5,a5,sp
 812 0072 130504DD 		addi	a0,s0,-560
 813 0076 370B0000 		lui	s6,%hi(.LC10)
 814 007a 0546     		li	a2,1
 815 007c 93050B00 		addi	a1,s6,%lo(.LC10)
 816 0080 3E95     		add	a0,a5,a0
 817 0082 97000000 		call	f_mount
 817      E7800000 
 818              	.LVL75:
 221:main.c        ****     f_sync(&fil);
 819              		.loc 1 221 5
 820 008a 93070952 		addi	a5,s2,1312
 821 008e 8A97     		add	a5,a5,sp
 220:main.c        ****     f_sync(&fil);
 822              		.loc 1 220 8
 823 0090 2AC0     		sw	a0,0(sp)
 824              		.loc 1 221 5 is_stmt 1
 825 0092 130584BA 		addi	a0,s0,-1112
 826 0096 3E95     		add	a0,a5,a0
 827 0098 97000000 		call	f_sync
 827      E7800000 
 828              	.LVL76:
 222:main.c        **** 
 223:main.c        ****     /* This function opens a file. In this case, we are creating a file which we want to write to *
 224:main.c        ****     /* Filename should be at most 8 chars long and the extension should be at most 3 */
 225:main.c        ****     
 226:main.c        ****     delay_1ms(400);
 829              		.loc 1 226 5
 830 00a0 13050019 		li	a0,400
 831 00a4 97000000 		call	delay_1ms
 831      E7800000 
 832              	.LVL77:
 227:main.c        **** 
 228:main.c        ****     int ind_ble = 0;
 833              		.loc 1 228 5
 229:main.c        ****     char read_buf[80] = {'\0'};
 834              		.loc 1 229 5
 835              		.loc 1 229 10 is_stmt 0
 836 00ac 13060005 		li	a2,80
 837 00b0 8145     		li	a1,0
 838 00b2 2810     		addi	a0,sp,40
 839 00b4 97000000 		call	memset
 839      E7800000 
 840              	.LVL78:
 230:main.c        ****     char read_buf_ble[80] = {'\0'};
 841              		.loc 1 230 5 is_stmt 1
 842              		.loc 1 230 10 is_stmt 0
 843 00bc 13060005 		li	a2,80
 844 00c0 8145     		li	a1,0
 845 00c2 A818     		addi	a0,sp,120
 846 00c4 97000000 		call	memset
 846      E7800000 
 847              	.LVL79:
 231:main.c        ****     //configure_usb_serial(); //måste vara före lio_init_bt
 232:main.c        ****     lio_init_bt();
 848              		.loc 1 232 5 is_stmt 1
 849 00cc 97000000 		call	lio_init_bt
GAS LISTING /var/folders/yy/83vjwp7d53j56dbzj8_jnpcr0000gn/T//ccN2uQTj.s 			page 22


 849      E7800000 
 850              	.LVL80:
 233:main.c        ****     init_radio();
 851              		.loc 1 233 5
 852 00d4 97000000 		call	init_radio
 852      E7800000 
 853              	.LVL81:
 234:main.c        ****     dma_config();
 854              		.loc 1 234 5
 855 00dc 97000000 		call	dma_config
 855      E7800000 
 856              	.LVL82:
 235:main.c        ****     init_ADC_A0_A7();
 857              		.loc 1 235 5
 858 00e4 97000000 		call	init_ADC_A0_A7
 858      E7800000 
 859              	.LVL83:
 236:main.c        ****     ledInit();
 860              		.loc 1 236 5
 861 00ec 97000000 		call	ledInit
 861      E7800000 
 862              	.LVL84:
 237:main.c        ****     usb_delay_1ms(1);
 863              		.loc 1 237 5
 864 00f4 0545     		li	a0,1
 865 00f6 97000000 		call	usb_delay_1ms
 865      E7800000 
 866              	.LVL85:
 238:main.c        **** 
 239:main.c        ****     char write_to_sd[4096] = {'\0'};
 867              		.loc 1 239 5
 868              		.loc 1 239 10 is_stmt 0
 869 00fe 0566     		li	a2,4096
 870 0100 8145     		li	a1,0
 871 0102 13050152 		addi	a0,sp,1312
 872 0106 97000000 		call	memset
 872      E7800000 
 873              	.LVL86:
 240:main.c        ****     char buf[BUFFER_SIZE] = {'\0'};
 874              		.loc 1 240 5 is_stmt 1
 241:main.c        ****     int buf_size = 0;
 875              		.loc 1 241 5
 242:main.c        ****     char usb_data_buffer[4096] = {'\0'};
 876              		.loc 1 242 5
 243:main.c        ****     int dequeued_str_len = 0;
 877              		.loc 1 243 5
 244:main.c        **** 
 245:main.c        ****     write = 0;
 878              		.loc 1 245 5
 879              	.LBB7:
 246:main.c        **** 
 247:main.c        ****     int blink = 0;
 248:main.c        ****     int onOff = 0;
 249:main.c        ****     
 250:main.c        ****     int file_Nr = 0;
 251:main.c        ****     
 252:main.c        ****     while(1){
GAS LISTING /var/folders/yy/83vjwp7d53j56dbzj8_jnpcr0000gn/T//ccN2uQTj.s 			page 23


 253:main.c        ****         switch (get_state()){
 254:main.c        ****             case START:
 255:main.c        ****                 eclic_global_interrupt_disable();    
 256:main.c        ****                 fr = f_mount(&fs, "test", 1); // Mount storage device
 257:main.c        ****                 f_sync(&fil);
 258:main.c        ****                 fr = f_open(&fil, "FINAP.CSV", FA_WRITE | FA_CREATE_ALWAYS);
 880              		.loc 1 258 22 is_stmt 0
 881 010e B7090000 		lui	s3,%hi(.LANCHOR0)
 259:main.c        ****                 clear_queues();
 260:main.c        ****                 /* Write the header to the file */
 261:main.c        ****                 char header[] = "Time;A0;A1;A2;A3;A4;A5;A6;A7\n";
 262:main.c        ****                 //clear queue
 263:main.c        ****                 enqueue_string(header);
 264:main.c        ****             
 265:main.c        ****                 millisec = 0;
 266:main.c        ****                 seconds = 0;
 267:main.c        ****                 minutes = 0;
 268:main.c        ****                     
 269:main.c        ****                 //ENABLE interrupts for data collection
 270:main.c        ****                 set_state(RUNNING);
 271:main.c        ****                 write = 1;
 272:main.c        ****                 while(millis() < start_time);
 273:main.c        **** 
 274:main.c        ****                 timer_interrupt_config();
 275:main.c        ****                 //SKicka till telefon "JAg startar nu"
 276:main.c        ****                 eclic_global_interrupt_enable();  
 277:main.c        ****                 break;
 278:main.c        **** 
 279:main.c        ****             case STOP:
 280:main.c        ****                 //STOP CONTROL
 281:main.c        ****                 timer_interrupt_disable(TIMER1, TIMER_INT_CH0);
 282:main.c        ****                 eclic_global_interrupt_disable();
 283:main.c        ****                 //Skicka till telefon jag stoppar nu
 284:main.c        ****                 write_to_sd[0] = '\0';
 285:main.c        ****                 while(empty_string_queue(write_to_sd, 8)){
 286:main.c        ****                     f_write(&fil, write_to_sd, strlen(write_to_sd), &bw); // testa byt strlen till 
 882              		.loc 1 286 21
 883 0112 93070952 		addi	a5,s2,1312
 884              	.LBE7:
 245:main.c        **** 
 885              		.loc 1 245 11
 886 0116 B7040000 		lui	s1,%hi(.LANCHOR4)
 887              	.LBB8:
 258:main.c        ****                 clear_queues();
 888              		.loc 1 258 22
 889 011a 93890900 		addi	s3,s3,%lo(.LANCHOR0)
 890              		.loc 1 286 21
 891 011e 930A44AE 		addi	s5,s0,-1308
 892 0122 8A97     		add	a5,a5,sp
 893              	.LBE8:
 245:main.c        **** 
 894              		.loc 1 245 11
 895 0124 23A00400 		sw	zero,%lo(.LANCHOR4)(s1)
 247:main.c        ****     int onOff = 0;
 896              		.loc 1 247 5 is_stmt 1
 897              	.LVL87:
 248:main.c        ****     
GAS LISTING /var/folders/yy/83vjwp7d53j56dbzj8_jnpcr0000gn/T//ccN2uQTj.s 			page 24


 898              		.loc 1 248 5
 250:main.c        ****     
 899              		.loc 1 250 5
 248:main.c        ****     
 900              		.loc 1 248 9 is_stmt 0
 901 0128 814B     		li	s7,0
 247:main.c        ****     int onOff = 0;
 902              		.loc 1 247 9
 903 012a 014A     		li	s4,0
 904 012c 93840400 		addi	s1,s1,%lo(.LANCHOR4)
 905              	.LBB9:
 258:main.c        ****                 clear_queues();
 906              		.loc 1 258 22
 907 0130 138C8906 		addi	s8,s3,104
 265:main.c        ****                 seconds = 0;
 908              		.loc 1 265 26
 909 0134 B70C0000 		lui	s9,%hi(.LANCHOR1)
 910              		.loc 1 286 21
 911 0138 BE9A     		add	s5,a5,s5
 912              	.LVL88:
 913              	.L42:
 914              	.LBE9:
 252:main.c        ****         switch (get_state()){
 915              		.loc 1 252 5 is_stmt 1
 253:main.c        ****             case START:
 916              		.loc 1 253 9
 253:main.c        ****             case START:
 917              		.loc 1 253 17 is_stmt 0
 918 013a 97000000 		call	get_state
 918      E7800000 
 919              	.LVL89:
 253:main.c        ****             case START:
 920              		.loc 1 253 9
 921 0142 8547     		li	a5,1
 253:main.c        ****             case START:
 922              		.loc 1 253 17
 923 0144 2A89     		mv	s2,a0
 253:main.c        ****             case START:
 924              		.loc 1 253 9
 925 0146 6300F516 		beq	a0,a5,.L31
 926 014a 8947     		li	a5,2
 927 014c 6300F522 		beq	a0,a5,.L32
 928 0150 6DF5     		bne	a0,zero,.L42
 929              	.LBB10:
 287:main.c        ****                     f_sync(&fil);
 288:main.c        ****                     write_to_sd[0] = '\0';
 289:main.c        ****                 }    
 290:main.c        **** 
 291:main.c        ****                 f_close(&fil);
 292:main.c        ****                 write = 0;
 293:main.c        ****                 set_state(RUNNING);
 294:main.c        ****                 break;
 295:main.c        **** 
 296:main.c        ****             case RUNNING:
 297:main.c        ****                 //RUNNING CONTROL
 298:main.c        ****                 lio_read_bt(read_buf, 20);
 930              		.loc 1 298 17 is_stmt 1
GAS LISTING /var/folders/yy/83vjwp7d53j56dbzj8_jnpcr0000gn/T//ccN2uQTj.s 			page 25


 931 0152 056D     		li	s10,4096
 932 0154 93070D52 		addi	a5,s10,1312
 933 0158 8A97     		add	a5,a5,sp
 934 015a 130984B0 		addi	s2,s0,-1272
 935 015e 3E99     		add	s2,a5,s2
 936 0160 D145     		li	a1,20
 937 0162 4A85     		mv	a0,s2
 938 0164 97000000 		call	lio_read_bt
 938      E7800000 
 939              	.LVL90:
 299:main.c        ****                 ind_ble = fuseStrings(read_buf_ble, read_buf);
 940              		.loc 1 299 17
 941              		.loc 1 299 27 is_stmt 0
 942 016c 93070D52 		addi	a5,s10,1312
 943 0170 8A97     		add	a5,a5,sp
 944 0172 130584B5 		addi	a0,s0,-1192
 945 0176 3E95     		add	a0,a5,a0
 946 0178 CA85     		mv	a1,s2
 947 017a 97000000 		call	fuseStrings
 947      E7800000 
 948              	.LVL91:
 300:main.c        ****                 memset(read_buf, '\0', sizeof(read_buf));
 949              		.loc 1 300 17 is_stmt 1
 950 0182 13060005 		li	a2,80
 951 0186 8145     		li	a1,0
 952 0188 4A85     		mv	a0,s2
 953 018a 97000000 		call	memset
 953      E7800000 
 954              	.LVL92:
 301:main.c        ****                 //me no likey code below
 302:main.c        ****                 blink++;
 955              		.loc 1 302 17
 303:main.c        ****                 if (blink == 100000){
 956              		.loc 1 303 20 is_stmt 0
 957 0192 E167     		li	a5,98304
 302:main.c        ****                 if (blink == 100000){
 958              		.loc 1 302 22
 959 0194 050A     		addi	s4,s4,1
 960              	.LVL93:
 961              		.loc 1 303 17 is_stmt 1
 962              		.loc 1 303 20 is_stmt 0
 963 0196 9387076A 		addi	a5,a5,1696
 964 019a 631AFA00 		bne	s4,a5,.L38
 304:main.c        ****                     blink = 0;
 965              		.loc 1 304 21 is_stmt 1
 966              	.LVL94:
 305:main.c        ****                     
 306:main.c        ****                     if(onOff){
 967              		.loc 1 306 21
 968              		.loc 1 306 23 is_stmt 0
 969 019e 638F0B24 		beq	s7,zero,.L39
 307:main.c        ****                         led_on_B0();
 970              		.loc 1 307 25 is_stmt 1
 971 01a2 97000000 		call	led_on_B0
 971      E7800000 
 972              	.LVL95:
 308:main.c        ****                         onOff = 0;
GAS LISTING /var/folders/yy/83vjwp7d53j56dbzj8_jnpcr0000gn/T//ccN2uQTj.s 			page 26


 973              		.loc 1 308 25
 974              		.loc 1 308 31 is_stmt 0
 975 01aa 814B     		li	s7,0
 304:main.c        ****                     
 976              		.loc 1 304 27
 977 01ac 014A     		li	s4,0
 978              	.LVL96:
 979              	.L38:
 309:main.c        ****                     }else{
 310:main.c        ****                         led_off_B0();
 311:main.c        ****                         onOff = 1;
 312:main.c        ****                     }
 313:main.c        ****                 }
 314:main.c        ****   
 315:main.c        ****                 if(!strcmp(read_buf_ble, BLUETOOTH_START_MESSAGE)){
 980              		.loc 1 315 17 is_stmt 1
 981              		.loc 1 315 21 is_stmt 0
 982 01ae 8567     		li	a5,4096
 983 01b0 93870752 		addi	a5,a5,1312
 984 01b4 130984B5 		addi	s2,s0,-1192
 985 01b8 8A97     		add	a5,a5,sp
 986 01ba 3E99     		add	s2,a5,s2
 987 01bc 93854909 		addi	a1,s3,148
 988 01c0 4A85     		mv	a0,s2
 989 01c2 97000000 		call	strcmp
 989      E7800000 
 990              	.LVL97:
 991              		.loc 1 315 19
 992 01ca 63100524 		bne	a0,zero,.L40
 316:main.c        ****                     send_radio("empty",5);
 993              		.loc 1 316 21 is_stmt 1
 994 01ce 37050000 		lui	a0,%hi(.LC14)
 995 01d2 9545     		li	a1,5
 996 01d4 13050500 		addi	a0,a0,%lo(.LC14)
 997 01d8 97000000 		call	send_radio
 997      E7800000 
 998              	.LVL98:
 317:main.c        ****                     delay_1ms(50);
 999              		.loc 1 317 21
 1000 01e0 13052003 		li	a0,50
 1001 01e4 97000000 		call	delay_1ms
 1001      E7800000 
 1002              	.LVL99:
 318:main.c        ****                     send_radio("start0", 6);
 1003              		.loc 1 318 21
 1004 01ec 37050000 		lui	a0,%hi(.LC0)
 1005 01f0 9945     		li	a1,6
 1006 01f2 13050500 		addi	a0,a0,%lo(.LC0)
 1007 01f6 97000000 		call	send_radio
 1007      E7800000 
 1008              	.LVL100:
 319:main.c        ****                     memset(read_buf_ble, '\0', sizeof(read_buf_ble));
 1009              		.loc 1 319 21
 1010 01fe 13060005 		li	a2,80
 1011 0202 8145     		li	a1,0
 1012 0204 4A85     		mv	a0,s2
 1013 0206 97000000 		call	memset
GAS LISTING /var/folders/yy/83vjwp7d53j56dbzj8_jnpcr0000gn/T//ccN2uQTj.s 			page 27


 1013      E7800000 
 1014              	.LVL101:
 320:main.c        ****                     start_time = millis() + 1051;
 1015              		.loc 1 320 21
 1016              		.loc 1 320 34 is_stmt 0
 1017 020e 97000000 		call	millis
 1017      E7800000 
 1018              	.LVL102:
 1019              		.loc 1 320 32
 1020 0216 B7070000 		lui	a5,%hi(.LANCHOR5)
 1021              		.loc 1 320 43
 1022 021a 1305B541 		addi	a0,a0,1051
 1023              		.loc 1 320 32
 1024 021e 23A0A700 		sw	a0,%lo(.LANCHOR5)(a5)
 321:main.c        ****                     led_on_B1();
 1025              		.loc 1 321 21 is_stmt 1
 1026 0222 97000000 		call	led_on_B1
 1026      E7800000 
 1027              	.LVL103:
 322:main.c        ****                     set_state(START);
 1028              		.loc 1 322 21
 1029 022a 0545     		li	a0,1
 1030 022c 97000000 		call	set_state
 1030      E7800000 
 1031              	.LVL104:
 323:main.c        ****                     write = 1;
 1032              		.loc 1 323 21
 1033              		.loc 1 323 27 is_stmt 0
 1034 0234 8547     		li	a5,1
 1035 0236 9CC0     		sw	a5,0(s1)
 324:main.c        ****                     led_on_B1();
 1036              		.loc 1 324 21 is_stmt 1
 1037 0238 97000000 		call	led_on_B1
 1037      E7800000 
 1038              	.LVL105:
 1039              	.L41:
 325:main.c        ****                 }else if(!strcmp(read_buf_ble, BLUETOOTH_STOP_MESSAGE)){
 326:main.c        ****                     send_radio("empty",5);
 327:main.c        ****                     delay_1ms(50);
 328:main.c        ****                     send_radio("stopp0", 6);
 329:main.c        ****                     memset(read_buf_ble, '\0', sizeof(read_buf_ble));
 330:main.c        ****                     set_state(STOP);
 331:main.c        ****                     write = 0;
 332:main.c        ****                     led_off_B1();
 333:main.c        ****                 }//Vi kan koll vilket kommand vi får när vi connectar för att ta bort det. Just 
 334:main.c        **** 
 335:main.c        ****                 //BREAK IF PROGRAM SHOULDNT WRITE
 336:main.c        ****                 if(!write){
 1040              		.loc 1 336 17
 1041              		.loc 1 336 19 is_stmt 0
 1042 0240 9C40     		lw	a5,0(s1)
 1043 0242 E38C07EE 		beq	a5,zero,.L42
 337:main.c        ****                     break;
 338:main.c        ****                 }
 339:main.c        **** 
 340:main.c        ****                 //WRITE TO FILE
 341:main.c        ****                 if (queue_str_len() > 8){
GAS LISTING /var/folders/yy/83vjwp7d53j56dbzj8_jnpcr0000gn/T//ccN2uQTj.s 			page 28


 1044              		.loc 1 341 17 is_stmt 1
 1045              		.loc 1 341 21 is_stmt 0
 1046 0246 97000000 		call	queue_str_len
 1046      E7800000 
 1047              	.LVL106:
 1048              		.loc 1 341 20
 1049 024e A147     		li	a5,8
 1050 0250 E3D5A7EE 		ble	a0,a5,.L42
 342:main.c        ****                     write_to_sd[0] = '\0';
 1051              		.loc 1 342 21 is_stmt 1
 343:main.c        ****                     buf_size = dequeue_string(write_to_sd, 8);
 1052              		.loc 1 343 32 is_stmt 0
 1053 0254 A145     		li	a1,8
 1054 0256 13050152 		addi	a0,sp,1312
 342:main.c        ****                     write_to_sd[0] = '\0';
 1055              		.loc 1 342 36
 1056 025a 23000152 		sb	zero,1312(sp)
 1057              		.loc 1 343 21 is_stmt 1
 1058              		.loc 1 343 32 is_stmt 0
 1059 025e 97000000 		call	dequeue_string
 1059      E7800000 
 1060              	.LVL107:
 344:main.c        ****                     if(buf_size > 0){
 1061              		.loc 1 344 21 is_stmt 1
 1062              		.loc 1 344 23 is_stmt 0
 1063 0266 E35AA0EC 		ble	a0,zero,.L42
 345:main.c        ****                         //led_on();
 346:main.c        ****                         f_write(&fil, write_to_sd, strlen(write_to_sd), &bw); // testa byt strlen t
 1064              		.loc 1 346 25 is_stmt 1
 1065 026a 13050152 		addi	a0,sp,1312
 1066              	.LVL108:
 1067 026e 97000000 		call	strlen
 1067      E7800000 
 1068              	.LVL109:
 1069 0276 8567     		li	a5,4096
 1070 0278 93870752 		addi	a5,a5,1312
 1071 027c 8A97     		add	a5,a5,sp
 1072 027e 130984BA 		addi	s2,s0,-1112
 1073 0282 3E99     		add	s2,a5,s2
 1074 0284 2A86     		mv	a2,a0
 1075 0286 D686     		mv	a3,s5
 1076 0288 93050152 		addi	a1,sp,1312
 1077 028c 4A85     		mv	a0,s2
 1078 028e 97000000 		call	f_write
 1078      E7800000 
 1079              	.LVL110:
 347:main.c        ****                         f_sync(&fil);
 1080              		.loc 1 347 25
 1081 0296 4A85     		mv	a0,s2
 1082 0298 97000000 		call	f_sync
 1082      E7800000 
 1083              	.LVL111:
 348:main.c        ****                         write_to_sd[0] = '\0';
 1084              		.loc 1 348 25
 1085              		.loc 1 348 40 is_stmt 0
 1086 02a0 23000152 		sb	zero,1312(sp)
 349:main.c        ****                         buf_size = 0;
GAS LISTING /var/folders/yy/83vjwp7d53j56dbzj8_jnpcr0000gn/T//ccN2uQTj.s 			page 29


 1087              		.loc 1 349 25 is_stmt 1
 1088              	.LVL112:
 1089              	.LBE10:
 253:main.c        ****             case START:
 1090              		.loc 1 253 9 is_stmt 0
 1091 02a4 59BD     		j	.L42
 1092              	.LVL113:
 1093              	.L31:
 1094              	.LBB11:
 255:main.c        ****                 fr = f_mount(&fs, "test", 1); // Mount storage device
 1095              		.loc 1 255 17 is_stmt 1
 1096 02a6 97000000 		call	eclic_global_interrupt_disable
 1096      E7800000 
 1097              	.LVL114:
 256:main.c        ****                 f_sync(&fil);
 1098              		.loc 1 256 17
 256:main.c        ****                 f_sync(&fil);
 1099              		.loc 1 256 22 is_stmt 0
 1100 02ae 856D     		li	s11,4096
 1101 02b0 93870D52 		addi	a5,s11,1312
 1102 02b4 8A97     		add	a5,a5,sp
 1103 02b6 130504DD 		addi	a0,s0,-560
 1104 02ba 0546     		li	a2,1
 1105 02bc 93050B00 		addi	a1,s6,%lo(.LC10)
 1106 02c0 3E95     		add	a0,a5,a0
 1107 02c2 97000000 		call	f_mount
 1107      E7800000 
 1108              	.LVL115:
 257:main.c        ****                 fr = f_open(&fil, "FINAP.CSV", FA_WRITE | FA_CREATE_ALWAYS);
 1109              		.loc 1 257 17
 1110 02ca 93870D52 		addi	a5,s11,1312
 1111 02ce 8A97     		add	a5,a5,sp
 1112 02d0 130D84BA 		addi	s10,s0,-1112
 1113 02d4 3E9D     		add	s10,a5,s10
 256:main.c        ****                 f_sync(&fil);
 1114              		.loc 1 256 20
 1115 02d6 2AC0     		sw	a0,0(sp)
 257:main.c        ****                 fr = f_open(&fil, "FINAP.CSV", FA_WRITE | FA_CREATE_ALWAYS);
 1116              		.loc 1 257 17 is_stmt 1
 1117 02d8 6A85     		mv	a0,s10
 1118 02da 97000000 		call	f_sync
 1118      E7800000 
 1119              	.LVL116:
 258:main.c        ****                 clear_queues();
 1120              		.loc 1 258 17
 258:main.c        ****                 clear_queues();
 1121              		.loc 1 258 22 is_stmt 0
 1122 02e2 2946     		li	a2,10
 1123 02e4 E285     		mv	a1,s8
 1124 02e6 6A85     		mv	a0,s10
 1125 02e8 97000000 		call	f_open
 1125      E7800000 
 1126              	.LVL117:
 258:main.c        ****                 clear_queues();
 1127              		.loc 1 258 20
 1128 02f0 2AC0     		sw	a0,0(sp)
 259:main.c        ****                 /* Write the header to the file */
GAS LISTING /var/folders/yy/83vjwp7d53j56dbzj8_jnpcr0000gn/T//ccN2uQTj.s 			page 30


 1129              		.loc 1 259 17 is_stmt 1
 1130 02f2 97000000 		call	clear_queues
 1130      E7800000 
 1131              	.LVL118:
 261:main.c        ****                 //clear queue
 1132              		.loc 1 261 17
 261:main.c        ****                 //clear queue
 1133              		.loc 1 261 22 is_stmt 0
 1134 02fa 7946     		li	a2,30
 1135 02fc 93854907 		addi	a1,s3,116
 1136 0300 2800     		addi	a0,sp,8
 1137 0302 97000000 		call	memcpy
 1137      E7800000 
 1138              	.LVL119:
 263:main.c        ****             
 1139              		.loc 1 263 17 is_stmt 1
 1140 030a 93870D52 		addi	a5,s11,1312
 1141 030e 8A97     		add	a5,a5,sp
 1142 0310 130584AE 		addi	a0,s0,-1304
 1143 0314 3E95     		add	a0,a5,a0
 1144 0316 97000000 		call	enqueue_string
 1144      E7800000 
 1145              	.LVL120:
 265:main.c        ****                 seconds = 0;
 1146              		.loc 1 265 17
 265:main.c        ****                 seconds = 0;
 1147              		.loc 1 265 26 is_stmt 0
 1148 031e 93870C00 		addi	a5,s9,%lo(.LANCHOR1)
 1149 0322 23A00700 		sw	zero,0(a5)
 266:main.c        ****                 minutes = 0;
 1150              		.loc 1 266 17 is_stmt 1
 266:main.c        ****                 minutes = 0;
 1151              		.loc 1 266 25 is_stmt 0
 1152 0326 B7070000 		lui	a5,%hi(.LANCHOR2)
 1153 032a 23A00700 		sw	zero,%lo(.LANCHOR2)(a5)
 267:main.c        ****                     
 1154              		.loc 1 267 17 is_stmt 1
 270:main.c        ****                 write = 1;
 1155              		.loc 1 270 17 is_stmt 0
 1156 032e 0145     		li	a0,0
 267:main.c        ****                     
 1157              		.loc 1 267 25
 1158 0330 B7070000 		lui	a5,%hi(.LANCHOR3)
 1159 0334 23A00700 		sw	zero,%lo(.LANCHOR3)(a5)
 270:main.c        ****                 write = 1;
 1160              		.loc 1 270 17 is_stmt 1
 1161 0338 97000000 		call	set_state
 1161      E7800000 
 1162              	.LVL121:
 271:main.c        ****                 while(millis() < start_time);
 1163              		.loc 1 271 17
 271:main.c        ****                 while(millis() < start_time);
 1164              		.loc 1 271 23 is_stmt 0
 1165 0340 23A02401 		sw	s2,0(s1)
 272:main.c        **** 
 1166              		.loc 1 272 17 is_stmt 1
 272:main.c        **** 
GAS LISTING /var/folders/yy/83vjwp7d53j56dbzj8_jnpcr0000gn/T//ccN2uQTj.s 			page 31


 1167              		.loc 1 272 32 is_stmt 0
 1168 0344 37090000 		lui	s2,%hi(.LANCHOR5)
 1169              	.L35:
 272:main.c        **** 
 1170              		.loc 1 272 45 is_stmt 1 discriminator 1
 272:main.c        **** 
 1171              		.loc 1 272 23 is_stmt 0 discriminator 1
 1172 0348 97000000 		call	millis
 1172      E7800000 
 1173              	.LVL122:
 272:main.c        **** 
 1174              		.loc 1 272 32 discriminator 1
 1175 0350 93070900 		addi	a5,s2,%lo(.LANCHOR5)
 1176 0354 9C43     		lw	a5,0(a5)
 272:main.c        **** 
 1177              		.loc 1 272 22 discriminator 1
 1178 0356 E349F5FE 		blt	a0,a5,.L35
 274:main.c        ****                 //SKicka till telefon "JAg startar nu"
 1179              		.loc 1 274 17 is_stmt 1
 1180 035a 97000000 		call	timer_interrupt_config
 1180      E7800000 
 1181              	.LVL123:
 276:main.c        ****                 break;
 1182              		.loc 1 276 17
 1183 0362 97000000 		call	eclic_global_interrupt_enable
 1183      E7800000 
 1184              	.LVL124:
 277:main.c        **** 
 1185              		.loc 1 277 17
 1186 036a C1BB     		j	.L42
 1187              	.L32:
 281:main.c        ****                 eclic_global_interrupt_disable();
 1188              		.loc 1 281 17
 1189 036c 8945     		li	a1,2
 1190 036e 37050040 		li	a0,1073741824
 1191 0372 97000000 		call	timer_interrupt_disable
 1191      E7800000 
 1192              	.LVL125:
 282:main.c        ****                 //Skicka till telefon jag stoppar nu
 1193              		.loc 1 282 17
 1194 037a 97000000 		call	eclic_global_interrupt_disable
 1194      E7800000 
 1195              	.LVL126:
 284:main.c        ****                 while(empty_string_queue(write_to_sd, 8)){
 1196              		.loc 1 284 17
 284:main.c        ****                 while(empty_string_queue(write_to_sd, 8)){
 1197              		.loc 1 284 32 is_stmt 0
 1198 0382 0567     		li	a4,4096
 1199 0384 93070752 		addi	a5,a4,1312
 1200 0388 8A97     		add	a5,a5,sp
 1201 038a 33898700 		add	s2,a5,s0
 286:main.c        ****                     f_sync(&fil);
 1202              		.loc 1 286 21
 1203 038e 93070752 		addi	a5,a4,1312
 1204 0392 130D84BA 		addi	s10,s0,-1112
 1205 0396 8A97     		add	a5,a5,sp
 284:main.c        ****                 while(empty_string_queue(write_to_sd, 8)){
GAS LISTING /var/folders/yy/83vjwp7d53j56dbzj8_jnpcr0000gn/T//ccN2uQTj.s 			page 32


 1206              		.loc 1 284 32
 1207 0398 23000900 		sb	zero,0(s2)
 285:main.c        ****                     f_write(&fil, write_to_sd, strlen(write_to_sd), &bw); // testa byt strlen till 
 1208              		.loc 1 285 17 is_stmt 1
 286:main.c        ****                     f_sync(&fil);
 1209              		.loc 1 286 21 is_stmt 0
 1210 039c 3E9D     		add	s10,a5,s10
 1211              	.L36:
 285:main.c        ****                     f_write(&fil, write_to_sd, strlen(write_to_sd), &bw); // testa byt strlen till 
 1212              		.loc 1 285 23
 1213 039e A145     		li	a1,8
 1214 03a0 4A85     		mv	a0,s2
 1215 03a2 97000000 		call	empty_string_queue
 1215      E7800000 
 1216              	.LVL127:
 285:main.c        ****                     f_write(&fil, write_to_sd, strlen(write_to_sd), &bw); // testa byt strlen till 
 1217              		.loc 1 285 22
 1218 03aa 05E5     		bne	a0,zero,.L37
 291:main.c        ****                 write = 0;
 1219              		.loc 1 291 17 is_stmt 1
 1220 03ac 8567     		li	a5,4096
 1221 03ae 93870752 		addi	a5,a5,1312
 1222 03b2 8A97     		add	a5,a5,sp
 1223 03b4 130584BA 		addi	a0,s0,-1112
 1224 03b8 3E95     		add	a0,a5,a0
 1225 03ba 97000000 		call	f_close
 1225      E7800000 
 1226              	.LVL128:
 292:main.c        ****                 set_state(RUNNING);
 1227              		.loc 1 292 17
 293:main.c        ****                 break;
 1228              		.loc 1 293 17 is_stmt 0
 1229 03c2 0145     		li	a0,0
 292:main.c        ****                 set_state(RUNNING);
 1230              		.loc 1 292 23
 1231 03c4 23A00400 		sw	zero,0(s1)
 293:main.c        ****                 break;
 1232              		.loc 1 293 17 is_stmt 1
 1233 03c8 97000000 		call	set_state
 1233      E7800000 
 1234              	.LVL129:
 294:main.c        **** 
 1235              		.loc 1 294 17
 1236 03d0 ADB3     		j	.L42
 1237              	.L37:
 286:main.c        ****                     f_sync(&fil);
 1238              		.loc 1 286 21
 1239 03d2 4A85     		mv	a0,s2
 1240 03d4 97000000 		call	strlen
 1240      E7800000 
 1241              	.LVL130:
 1242 03dc 2A86     		mv	a2,a0
 1243 03de D686     		mv	a3,s5
 1244 03e0 CA85     		mv	a1,s2
 1245 03e2 6A85     		mv	a0,s10
 1246 03e4 97000000 		call	f_write
 1246      E7800000 
GAS LISTING /var/folders/yy/83vjwp7d53j56dbzj8_jnpcr0000gn/T//ccN2uQTj.s 			page 33


 1247              	.LVL131:
 287:main.c        ****                     write_to_sd[0] = '\0';
 1248              		.loc 1 287 21
 1249 03ec 6A85     		mv	a0,s10
 1250 03ee 97000000 		call	f_sync
 1250      E7800000 
 1251              	.LVL132:
 288:main.c        ****                 }    
 1252              		.loc 1 288 21
 288:main.c        ****                 }    
 1253              		.loc 1 288 36 is_stmt 0
 1254 03f6 23000900 		sb	zero,0(s2)
 1255 03fa 55B7     		j	.L36
 1256              	.LVL133:
 1257              	.L39:
 310:main.c        ****                         onOff = 1;
 1258              		.loc 1 310 25 is_stmt 1
 1259 03fc 97000000 		call	led_off_B0
 1259      E7800000 
 1260              	.LVL134:
 311:main.c        ****                     }
 1261              		.loc 1 311 25
 304:main.c        ****                     
 1262              		.loc 1 304 27 is_stmt 0
 1263 0404 014A     		li	s4,0
 311:main.c        ****                     }
 1264              		.loc 1 311 31
 1265 0406 854B     		li	s7,1
 1266 0408 5DB3     		j	.L38
 1267              	.LVL135:
 1268              	.L40:
 325:main.c        ****                     send_radio("empty",5);
 1269              		.loc 1 325 23 is_stmt 1
 325:main.c        ****                     send_radio("empty",5);
 1270              		.loc 1 325 27 is_stmt 0
 1271 040a 9385490B 		addi	a1,s3,180
 1272 040e 4A85     		mv	a0,s2
 1273 0410 97000000 		call	strcmp
 1273      E7800000 
 1274              	.LVL136:
 325:main.c        ****                     send_radio("empty",5);
 1275              		.loc 1 325 25
 1276 0418 E31405E2 		bne	a0,zero,.L41
 326:main.c        ****                     delay_1ms(50);
 1277              		.loc 1 326 21 is_stmt 1
 1278 041c 37050000 		lui	a0,%hi(.LC14)
 1279 0420 9545     		li	a1,5
 1280 0422 13050500 		addi	a0,a0,%lo(.LC14)
 1281 0426 97000000 		call	send_radio
 1281      E7800000 
 1282              	.LVL137:
 327:main.c        ****                     send_radio("stopp0", 6);
 1283              		.loc 1 327 21
 1284 042e 13052003 		li	a0,50
 1285 0432 97000000 		call	delay_1ms
 1285      E7800000 
 1286              	.LVL138:
GAS LISTING /var/folders/yy/83vjwp7d53j56dbzj8_jnpcr0000gn/T//ccN2uQTj.s 			page 34


 328:main.c        ****                     memset(read_buf_ble, '\0', sizeof(read_buf_ble));
 1287              		.loc 1 328 21
 1288 043a 37050000 		lui	a0,%hi(.LC3)
 1289 043e 9945     		li	a1,6
 1290 0440 13050500 		addi	a0,a0,%lo(.LC3)
 1291 0444 97000000 		call	send_radio
 1291      E7800000 
 1292              	.LVL139:
 329:main.c        ****                     set_state(STOP);
 1293              		.loc 1 329 21
 1294 044c 13060005 		li	a2,80
 1295 0450 8145     		li	a1,0
 1296 0452 4A85     		mv	a0,s2
 1297 0454 97000000 		call	memset
 1297      E7800000 
 1298              	.LVL140:
 330:main.c        ****                     write = 0;
 1299              		.loc 1 330 21
 1300 045c 0945     		li	a0,2
 1301 045e 97000000 		call	set_state
 1301      E7800000 
 1302              	.LVL141:
 331:main.c        ****                     led_off_B1();
 1303              		.loc 1 331 21
 331:main.c        ****                     led_off_B1();
 1304              		.loc 1 331 27 is_stmt 0
 1305 0466 23A00400 		sw	zero,0(s1)
 332:main.c        ****                 }//Vi kan koll vilket kommand vi får när vi connectar för att ta bort det. Just 
 1306              		.loc 1 332 21 is_stmt 1
 1307 046a 97000000 		call	led_off_B1
 1307      E7800000 
 1308              	.LVL142:
 1309 0472 F9B3     		j	.L41
 1310              	.LBE11:
 1311              		.cfi_endproc
 1312              	.LFE14:
 1314              		.section	.text.ledInit,"ax",@progbits
 1315              		.align	1
 1316              		.globl	ledInit
 1318              	ledInit:
 1319              	.LFB15:
 350:main.c        ****                         //led_off();
 351:main.c        ****                     }
 352:main.c        ****                 } 
 353:main.c        ****                 break;
 354:main.c        ****             default:
 355:main.c        ****                 break;
 356:main.c        ****         }
 357:main.c        ****     }
 358:main.c        **** }
 359:main.c        **** 
 360:main.c        **** void ledInit (void){
 1320              		.loc 1 360 20
 1321              		.cfi_startproc
 361:main.c        ****     rcu_periph_clock_enable(RCU_GPIOB);
 1322              		.loc 1 361 5
 360:main.c        ****     rcu_periph_clock_enable(RCU_GPIOB);
GAS LISTING /var/folders/yy/83vjwp7d53j56dbzj8_jnpcr0000gn/T//ccN2uQTj.s 			page 35


 1323              		.loc 1 360 20 is_stmt 0
 1324 0000 4111     		addi	sp,sp,-16
 1325              	.LCFI11:
 1326              		.cfi_def_cfa_offset 16
 1327              		.loc 1 361 5
 1328 0002 13053060 		li	a0,1539
 360:main.c        ****     rcu_periph_clock_enable(RCU_GPIOB);
 1329              		.loc 1 360 20
 1330 0006 06C6     		sw	ra,12(sp)
 1331              		.cfi_offset 1, -4
 1332              		.loc 1 361 5
 1333 0008 97000000 		call	rcu_periph_clock_enable
 1333      E7800000 
 1334              	.LVL143:
 362:main.c        **** 	gpio_init(GPIOB, GPIO_MODE_OUT_PP, GPIO_OSPEED_50MHZ, GPIO_PIN_0 | GPIO_PIN_1 | GPIO_PIN_2);
 1335              		.loc 1 362 2 is_stmt 1
 363:main.c        **** }
 1336              		.loc 1 363 1 is_stmt 0
 1337 0010 B240     		lw	ra,12(sp)
 1338              		.cfi_restore 1
 362:main.c        **** 	gpio_init(GPIOB, GPIO_MODE_OUT_PP, GPIO_OSPEED_50MHZ, GPIO_PIN_0 | GPIO_PIN_1 | GPIO_PIN_2);
 1339              		.loc 1 362 2
 1340 0012 37150140 		li	a0,1073811456
 1341              		.loc 1 363 1
 362:main.c        **** 	gpio_init(GPIOB, GPIO_MODE_OUT_PP, GPIO_OSPEED_50MHZ, GPIO_PIN_0 | GPIO_PIN_1 | GPIO_PIN_2);
 1342              		.loc 1 362 2
 1343 0016 9D46     		li	a3,7
 1344 0018 0D46     		li	a2,3
 1345 001a C145     		li	a1,16
 1346 001c 130505C0 		addi	a0,a0,-1024
 1347              		.loc 1 363 1
 1348 0020 4101     		addi	sp,sp,16
 1349              	.LCFI12:
 1350              		.cfi_def_cfa_offset 0
 362:main.c        **** 	gpio_init(GPIOB, GPIO_MODE_OUT_PP, GPIO_OSPEED_50MHZ, GPIO_PIN_0 | GPIO_PIN_1 | GPIO_PIN_2);
 1351              		.loc 1 362 2
 1352 0022 17030000 		tail	gpio_init
 1352      67000300 
 1353              	.LVL144:
 1354              		.cfi_endproc
 1355              	.LFE15:
 1357              		.section	.text.led_on_B1,"ax",@progbits
 1358              		.align	1
 1359              		.globl	led_on_B1
 1361              	led_on_B1:
 1362              	.LFB16:
 364:main.c        **** 
 365:main.c        **** void led_on_B1(){
 1363              		.loc 1 365 17 is_stmt 1
 1364              		.cfi_startproc
 366:main.c        ****     gpio_bit_write(GPIOB, GPIO_PIN_1, 1);
 1365              		.loc 1 366 5
 1366 0000 37150140 		li	a0,1073811456
 1367 0004 0546     		li	a2,1
 1368 0006 8945     		li	a1,2
 1369 0008 130505C0 		addi	a0,a0,-1024
 1370 000c 17030000 		tail	gpio_bit_write
GAS LISTING /var/folders/yy/83vjwp7d53j56dbzj8_jnpcr0000gn/T//ccN2uQTj.s 			page 36


 1370      67000300 
 1371              	.LVL145:
 1372              		.cfi_endproc
 1373              	.LFE16:
 1375              		.section	.text.led_off_B1,"ax",@progbits
 1376              		.align	1
 1377              		.globl	led_off_B1
 1379              	led_off_B1:
 1380              	.LFB17:
 367:main.c        **** }
 368:main.c        **** void led_off_B1(){
 1381              		.loc 1 368 18
 1382              		.cfi_startproc
 369:main.c        ****     gpio_bit_write(GPIOB, GPIO_PIN_1, 0);
 1383              		.loc 1 369 5
 1384 0000 37150140 		li	a0,1073811456
 1385 0004 0146     		li	a2,0
 1386 0006 8945     		li	a1,2
 1387 0008 130505C0 		addi	a0,a0,-1024
 1388 000c 17030000 		tail	gpio_bit_write
 1388      67000300 
 1389              	.LVL146:
 1390              		.cfi_endproc
 1391              	.LFE17:
 1393              		.section	.text.led_on_b2,"ax",@progbits
 1394              		.align	1
 1395              		.globl	led_on_b2
 1397              	led_on_b2:
 1398              	.LFB18:
 370:main.c        **** }
 371:main.c        **** void led_on_b2(){
 1399              		.loc 1 371 17
 1400              		.cfi_startproc
 372:main.c        ****     gpio_bit_write(GPIOB, GPIO_PIN_2, 1);
 1401              		.loc 1 372 5
 1402 0000 37150140 		li	a0,1073811456
 1403 0004 0546     		li	a2,1
 1404 0006 9145     		li	a1,4
 1405 0008 130505C0 		addi	a0,a0,-1024
 1406 000c 17030000 		tail	gpio_bit_write
 1406      67000300 
 1407              	.LVL147:
 1408              		.cfi_endproc
 1409              	.LFE18:
 1411              		.section	.text.led_off_b2,"ax",@progbits
 1412              		.align	1
 1413              		.globl	led_off_b2
 1415              	led_off_b2:
 1416              	.LFB19:
 373:main.c        **** }
 374:main.c        **** 
 375:main.c        **** void led_off_b2(){
 1417              		.loc 1 375 18
 1418              		.cfi_startproc
 376:main.c        ****     gpio_bit_write(GPIOB, GPIO_PIN_2, 0);
 1419              		.loc 1 376 5
 1420 0000 37150140 		li	a0,1073811456
GAS LISTING /var/folders/yy/83vjwp7d53j56dbzj8_jnpcr0000gn/T//ccN2uQTj.s 			page 37


 1421 0004 0146     		li	a2,0
 1422 0006 9145     		li	a1,4
 1423 0008 130505C0 		addi	a0,a0,-1024
 1424 000c 17030000 		tail	gpio_bit_write
 1424      67000300 
 1425              	.LVL148:
 1426              		.cfi_endproc
 1427              	.LFE19:
 1429              		.section	.text.led_on_B0,"ax",@progbits
 1430              		.align	1
 1431              		.globl	led_on_B0
 1433              	led_on_B0:
 1434              	.LFB20:
 377:main.c        **** }
 378:main.c        **** 
 379:main.c        **** void led_on_B0(){
 1435              		.loc 1 379 17
 1436              		.cfi_startproc
 380:main.c        ****     gpio_bit_write(GPIOB, GPIO_PIN_0, 1);
 1437              		.loc 1 380 5
 1438 0000 37150140 		li	a0,1073811456
 1439 0004 0546     		li	a2,1
 1440 0006 8545     		li	a1,1
 1441 0008 130505C0 		addi	a0,a0,-1024
 1442 000c 17030000 		tail	gpio_bit_write
 1442      67000300 
 1443              	.LVL149:
 1444              		.cfi_endproc
 1445              	.LFE20:
 1447              		.section	.text.led_off_B0,"ax",@progbits
 1448              		.align	1
 1449              		.globl	led_off_B0
 1451              	led_off_B0:
 1452              	.LFB21:
 381:main.c        **** }
 382:main.c        **** void led_off_B0(){
 1453              		.loc 1 382 18
 1454              		.cfi_startproc
 383:main.c        ****     gpio_bit_write(GPIOB, GPIO_PIN_0, 0);
 1455              		.loc 1 383 5
 1456 0000 37150140 		li	a0,1073811456
 1457 0004 0146     		li	a2,0
 1458 0006 8545     		li	a1,1
 1459 0008 130505C0 		addi	a0,a0,-1024
 1460 000c 17030000 		tail	gpio_bit_write
 1460      67000300 
 1461              	.LVL150:
 1462              		.cfi_endproc
 1463              	.LFE21:
 1465              		.section	.text.timer_interrupt_config,"ax",@progbits
 1466              		.align	1
 1467              		.globl	timer_interrupt_config
 1469              	timer_interrupt_config:
 1470              	.LFB22:
 384:main.c        **** }
 385:main.c        **** 
 386:main.c        **** void timer_interrupt_config(){
GAS LISTING /var/folders/yy/83vjwp7d53j56dbzj8_jnpcr0000gn/T//ccN2uQTj.s 			page 38


 1471              		.loc 1 386 30
 1472              		.cfi_startproc
 387:main.c        ****     timer_oc_parameter_struct timer_ocinitpara;
 1473              		.loc 1 387 5
 388:main.c        ****     timer_parameter_struct timer_initpara;
 1474              		.loc 1 388 5
 389:main.c        **** 
 390:main.c        ****     eclic_irq_enable(TIMER1_IRQn, 1, 0);
 1475              		.loc 1 390 5
 386:main.c        ****     timer_oc_parameter_struct timer_ocinitpara;
 1476              		.loc 1 386 30 is_stmt 0
 1477 0000 7971     		addi	sp,sp,-48
 1478              	.LCFI13:
 1479              		.cfi_def_cfa_offset 48
 1480              		.loc 1 390 5
 1481 0002 0146     		li	a2,0
 1482 0004 8545     		li	a1,1
 1483 0006 1305F002 		li	a0,47
 386:main.c        ****     timer_oc_parameter_struct timer_ocinitpara;
 1484              		.loc 1 386 30
 1485 000a 06D6     		sw	ra,44(sp)
 1486 000c 22D4     		sw	s0,40(sp)
 1487 000e 26D2     		sw	s1,36(sp)
 1488              		.cfi_offset 1, -4
 1489              		.cfi_offset 8, -8
 1490              		.cfi_offset 9, -12
 1491              		.loc 1 390 5
 1492 0010 97000000 		call	eclic_irq_enable
 1492      E7800000 
 1493              	.LVL151:
 391:main.c        **** 
 392:main.c        ****     rcu_periph_clock_enable(RCU_TIMER1);
 1494              		.loc 1 392 5 is_stmt 1
 1495 0018 13050070 		li	a0,1792
 1496 001c 97000000 		call	rcu_periph_clock_enable
 1496      E7800000 
 1497              	.LVL152:
 393:main.c        **** 
 394:main.c        ****     timer_deinit(TIMER1);
 1498              		.loc 1 394 5
 1499 0024 37050040 		li	a0,1073741824
 1500 0028 97000000 		call	timer_deinit
 1500      E7800000 
 1501              	.LVL153:
 395:main.c        **** 
 396:main.c        ****     timer_struct_para_init(&timer_initpara);
 1502              		.loc 1 396 5
 1503 0030 0808     		addi	a0,sp,16
 1504 0032 97000000 		call	timer_struct_para_init
 1504      E7800000 
 1505              	.LVL154:
 397:main.c        **** 
 398:main.c        ****     /* TIMER1 configuration */
 399:main.c        ****     /* Frequency = core clock / ((1+prescaler)*period) = 108MHz / (2*54000) = 1KHz */
 400:main.c        ****     timer_initpara.prescaler = 1;
 1506              		.loc 1 400 5
 401:main.c        ****     timer_initpara.alignedmode = TIMER_COUNTER_EDGE;
GAS LISTING /var/folders/yy/83vjwp7d53j56dbzj8_jnpcr0000gn/T//ccN2uQTj.s 			page 39


 1507              		.loc 1 401 5
 402:main.c        ****     timer_initpara.counterdirection = TIMER_COUNTER_UP;
 1508              		.loc 1 402 5
 403:main.c        ****     timer_initpara.period = SystemCoreClock/2000;
 1509              		.loc 1 403 44 is_stmt 0
 1510 003a 37040000 		lui	s0,%hi(SystemCoreClock)
 1511 003e 83270400 		lw	a5,%lo(SystemCoreClock)(s0)
 1512 0042 1307007D 		li	a4,2000
 404:main.c        ****     timer_initpara.clockdivision = TIMER_CKDIV_DIV1;
 405:main.c        ****     timer_init(TIMER1, &timer_initpara);
 1513              		.loc 1 405 5
 1514 0046 0C08     		addi	a1,sp,16
 403:main.c        ****     timer_initpara.period = SystemCoreClock/2000;
 1515              		.loc 1 403 44
 1516 0048 B3D7E702 		divu	a5,a5,a4
 400:main.c        ****     timer_initpara.alignedmode = TIMER_COUNTER_EDGE;
 1517              		.loc 1 400 30
 1518 004c 8544     		li	s1,1
 1519              		.loc 1 405 5
 1520 004e 37050040 		li	a0,1073741824
 400:main.c        ****     timer_initpara.alignedmode = TIMER_COUNTER_EDGE;
 1521              		.loc 1 400 30
 1522 0052 26C8     		sw	s1,16(sp)
 402:main.c        ****     timer_initpara.period = SystemCoreClock/2000;
 1523              		.loc 1 402 37
 1524 0054 231A0100 		sh	zero,20(sp)
 403:main.c        ****     timer_initpara.clockdivision = TIMER_CKDIV_DIV1;
 1525              		.loc 1 403 5 is_stmt 1
 404:main.c        ****     timer_init(TIMER1, &timer_initpara);
 1526              		.loc 1 404 34 is_stmt 0
 1527 0058 231E0100 		sh	zero,28(sp)
 403:main.c        ****     timer_initpara.clockdivision = TIMER_CKDIV_DIV1;
 1528              		.loc 1 403 27
 1529 005c 3ECC     		sw	a5,24(sp)
 404:main.c        ****     timer_init(TIMER1, &timer_initpara);
 1530              		.loc 1 404 5 is_stmt 1
 1531              		.loc 1 405 5
 1532 005e 97000000 		call	timer_init
 1532      E7800000 
 1533              	.LVL155:
 406:main.c        **** 
 407:main.c        ****     timer_channel_output_struct_para_init(&timer_ocinitpara);
 1534              		.loc 1 407 5
 1535 0066 4800     		addi	a0,sp,4
 1536 0068 97000000 		call	timer_channel_output_struct_para_init
 1536      E7800000 
 1537              	.LVL156:
 408:main.c        **** 
 409:main.c        ****     timer_ocinitpara.outputstate = TIMER_CCX_ENABLE;
 1538              		.loc 1 409 5
 410:main.c        ****     timer_ocinitpara.ocpolarity = TIMER_OC_POLARITY_HIGH;
 411:main.c        ****     timer_ocinitpara.ocidlestate = TIMER_OC_IDLE_STATE_LOW;
 412:main.c        ****     timer_channel_output_config(TIMER1, TIMER_CH_0, &timer_ocinitpara);
 1539              		.loc 1 412 5 is_stmt 0
 1540 0070 5000     		addi	a2,sp,4
 1541 0072 8145     		li	a1,0
 1542 0074 37050040 		li	a0,1073741824
GAS LISTING /var/folders/yy/83vjwp7d53j56dbzj8_jnpcr0000gn/T//ccN2uQTj.s 			page 40


 409:main.c        ****     timer_ocinitpara.ocpolarity = TIMER_OC_POLARITY_HIGH;
 1543              		.loc 1 409 34
 1544 0078 23129100 		sh	s1,4(sp)
 410:main.c        ****     timer_ocinitpara.ocpolarity = TIMER_OC_POLARITY_HIGH;
 1545              		.loc 1 410 5 is_stmt 1
 410:main.c        ****     timer_ocinitpara.ocpolarity = TIMER_OC_POLARITY_HIGH;
 1546              		.loc 1 410 33 is_stmt 0
 1547 007c 23140100 		sh	zero,8(sp)
 411:main.c        ****     timer_channel_output_config(TIMER1, TIMER_CH_0, &timer_ocinitpara);
 1548              		.loc 1 411 5 is_stmt 1
 411:main.c        ****     timer_channel_output_config(TIMER1, TIMER_CH_0, &timer_ocinitpara);
 1549              		.loc 1 411 34 is_stmt 0
 1550 0080 23160100 		sh	zero,12(sp)
 1551              		.loc 1 412 5 is_stmt 1
 1552 0084 97000000 		call	timer_channel_output_config
 1552      E7800000 
 1553              	.LVL157:
 413:main.c        **** 
 414:main.c        ****     timer_channel_output_pulse_value_config(TIMER1, TIMER_CH_0, SystemCoreClock / 4000);
 1554              		.loc 1 414 5
 1555 008c 03260400 		lw	a2,%lo(SystemCoreClock)(s0)
 1556 0090 8567     		li	a5,4096
 1557 0092 938707FA 		addi	a5,a5,-96
 1558 0096 3356F602 		divu	a2,a2,a5
 1559 009a 8145     		li	a1,0
 1560 009c 37050040 		li	a0,1073741824
 1561 00a0 97000000 		call	timer_channel_output_pulse_value_config
 1561      E7800000 
 1562              	.LVL158:
 415:main.c        ****     timer_channel_output_mode_config(TIMER1, TIMER_CH_0, TIMER_OC_MODE_TIMING);
 1563              		.loc 1 415 5
 1564 00a8 0146     		li	a2,0
 1565 00aa 8145     		li	a1,0
 1566 00ac 37050040 		li	a0,1073741824
 1567 00b0 97000000 		call	timer_channel_output_mode_config
 1567      E7800000 
 1568              	.LVL159:
 416:main.c        ****     timer_channel_output_shadow_config(TIMER1, TIMER_CH_0, TIMER_OC_SHADOW_DISABLE);
 1569              		.loc 1 416 5
 1570 00b8 0146     		li	a2,0
 1571 00ba 8145     		li	a1,0
 1572 00bc 37050040 		li	a0,1073741824
 1573 00c0 97000000 		call	timer_channel_output_shadow_config
 1573      E7800000 
 1574              	.LVL160:
 417:main.c        **** 
 418:main.c        ****     timer_interrupt_enable(TIMER1, TIMER_INT_CH0);
 1575              		.loc 1 418 5
 1576 00c8 8945     		li	a1,2
 1577 00ca 37050040 		li	a0,1073741824
 1578 00ce 97000000 		call	timer_interrupt_enable
 1578      E7800000 
 1579              	.LVL161:
 419:main.c        ****     /* Make sure interrupt flag is clear */
 420:main.c        ****     timer_interrupt_flag_clear(TIMER1, TIMER_INT_CH0);
 1580              		.loc 1 420 5
 1581 00d6 8945     		li	a1,2
GAS LISTING /var/folders/yy/83vjwp7d53j56dbzj8_jnpcr0000gn/T//ccN2uQTj.s 			page 41


 1582 00d8 37050040 		li	a0,1073741824
 1583 00dc 97000000 		call	timer_interrupt_flag_clear
 1583      E7800000 
 1584              	.LVL162:
 421:main.c        ****     timer_enable(TIMER1);
 1585              		.loc 1 421 5
 1586 00e4 37050040 		li	a0,1073741824
 1587 00e8 97000000 		call	timer_enable
 1587      E7800000 
 1588              	.LVL163:
 422:main.c        **** }...
 1589              		.loc 1 422 1 is_stmt 0
 1590 00f0 B250     		lw	ra,44(sp)
 1591              		.cfi_restore 1
 1592 00f2 2254     		lw	s0,40(sp)
 1593              		.cfi_restore 8
 1594 00f4 9254     		lw	s1,36(sp)
 1595              		.cfi_restore 9
 1596 00f6 4561     		addi	sp,sp,48
 1597              	.LCFI14:
 1598              		.cfi_def_cfa_offset 0
 1599 00f8 8280     		jr	ra
 1600              		.cfi_endproc
 1601              	.LFE22:
 1603              		.section	.rodata
 1604              		.align	3
 1605              		.set	.LANCHOR0,. + 0
 1606              	.LC0:
 1607 0000 73746172 		.string	"start0"
 1607      743000
 1608 0007 00       		.zero	1
 1609              	.LC1:
 1610 0008 73746172 		.string	"start1"
 1610      743100
 1611 000f 00       		.zero	1
 1612              	.LC2:
 1613 0010 73746172 		.string	"start2"
 1613      743200
 1614 0017 00       		.zero	1
 1615              	.LC3:
 1616 0018 73746F70 		.string	"stopp0"
 1616      703000
 1617 001f 00       		.zero	1
 1618              	.LC4:
 1619 0020 73746F70 		.string	"stopp1"
 1619      703100
 1620 0027 00       		.zero	1
 1621              	.LC5:
 1622 0028 73746F70 		.string	"stopp2"
 1622      703200
 1623 002f 00       		.zero	1
 1624              	.LC6:
 1625 0030 00000000 		.word	0
 1626 0034 0040AF40 		.word	1085227008
 1627              	.LC7:
 1628 0038 30313233 		.string	"0123456789ABCDEF"
 1628      34353637 
GAS LISTING /var/folders/yy/83vjwp7d53j56dbzj8_jnpcr0000gn/T//ccN2uQTj.s 			page 42


 1628      38394142 
 1628      43444546 
 1628      00
 1629 0049 000000   		.zero	3
 1630              	.LC8:
 1631 004c 5348572C 		.string	"SHW,"
 1631      00
 1632 0051 000000   		.zero	3
 1633              	.LC9:
 1634 0054 2573252E 		.string	"%s%.4x,%s\r\n"
 1634      34782C25 
 1634      730D0A00 
 1635              	.LC10:
 1636 0060 74657374 		.string	"test"
 1636      00
 1637 0065 000000   		.zero	3
 1638              	.LC11:
 1639 0068 46494E41 		.string	"FINAP.CSV"
 1639      502E4353 
 1639      5600
 1640 0072 0000     		.zero	2
 1641              	.LC12:
 1642 0074 54696D65 		.string	"Time;A0;A1;A2;A3;A4;A5;A6;A7\n"
 1642      3B41303B 
 1642      41313B41 
 1642      323B4133 
 1642      3B41343B 
 1643 0092 0000     		.zero	2
 1644              	.LC13:
 1645 0094 2557562C 		.string	"%WV,0072,7374617274%"
 1645      30303732 
 1645      2C373337 
 1645      34363137 
 1645      32373425 
 1646 00a9 000000   		.zero	3
 1647              	.LC14:
 1648 00ac 656D7074 		.string	"empty"
 1648      7900
 1649 00b2 0000     		.zero	2
 1650              	.LC15:
 1651 00b4 2557562C 		.string	"%WV,0072,73746F70%"
 1651      30303732 
 1651      2C373337 
 1651      34364637 
 1651      302500
 1652              		.section	.data.commands,"aw"
 1653              		.align	2
 1656              	commands:
 1657 0000 00000000 		.word	.LC0
 1658 0004 00000000 		.word	.LC1
 1659 0008 00000000 		.word	.LC2
 1660 000c 00000000 		.word	.LC3
 1661 0010 00000000 		.word	.LC4
 1662 0014 00000000 		.word	.LC5
 1663              		.section	.rodata.delays,"a"
 1664              		.align	2
 1667              	delays:
GAS LISTING /var/folders/yy/83vjwp7d53j56dbzj8_jnpcr0000gn/T//ccN2uQTj.s 			page 43


 1668 0000 2C010000 		.word	300
 1669 0004 C8000000 		.word	200
 1670 0008 64000000 		.word	100
 1671 000c 2C010000 		.word	300
 1672 0010 C8000000 		.word	200
 1673 0014 64000000 		.word	100
 1674              		.section	.rodata.states,"a"
 1675              		.align	2
 1678              	states:
 1679 0000 01000000 		.word	1
 1680 0004 01000000 		.word	1
 1681 0008 01000000 		.word	1
 1682 000c 02000000 		.word	2
 1683 0010 02000000 		.word	2
 1684 0014 02000000 		.word	2
 1685              		.section	.sbss.millisec,"aw",@nobits
 1686              		.align	2
 1687              		.set	.LANCHOR1,. + 0
 1690              	millisec:
 1691 0000 00000000 		.zero	4
 1692              		.section	.sbss.minutes,"aw",@nobits
 1693              		.align	2
 1694              		.set	.LANCHOR3,. + 0
 1697              	minutes:
 1698 0000 00000000 		.zero	4
 1699              		.section	.sbss.seconds,"aw",@nobits
 1700              		.align	2
 1701              		.set	.LANCHOR2,. + 0
 1704              	seconds:
 1705 0000 00000000 		.zero	4
 1706              		.section	.sbss.start_time,"aw",@nobits
 1707              		.align	2
 1708              		.set	.LANCHOR5,. + 0
 1711              	start_time:
 1712 0000 00000000 		.zero	4
 1713              		.section	.sbss.write,"aw",@nobits
 1714              		.align	2
 1715              		.set	.LANCHOR4,. + 0
 1718              	write:
 1719 0000 00000000 		.zero	4
 1720              		.text
 1721              	.Letext0:
 1722              		.file 2 "/Users/gulda/Documents/risc-v/toolchain-gd32v-v200-osx/compiler/riscv64-unknown-elf/inclu
 1723              		.file 3 "/Users/gulda/Documents/risc-v/toolchain-gd32v-v200-osx/compiler/riscv64-unknown-elf/inclu
 1724              		.file 4 "../../firmware/GD32VF103_standard_peripheral/gd32vf103.h"
 1725              		.file 5 "../../firmware/GD32VF103_standard_peripheral/Include/gd32vf103_rcu.h"
 1726              		.file 6 "../../firmware/GD32VF103_standard_peripheral/Include/gd32vf103_timer.h"
 1727              		.file 7 "lib/usbcdc/include/drv_usb_regs.h"
 1728              		.file 8 "../../firmware/GD32VF103_standard_peripheral/system_gd32vf103.h"
 1729              		.file 9 "lib/usbcdc/include/usb_ch9_std.h"
 1730              		.file 10 "lib/usbcdc/include/drv_usb_core.h"
 1731              		.file 11 "lib/usbcdc/include/drv_usb_dev.h"
 1732              		.file 12 "/Users/gulda/Documents/risc-v/toolchain-gd32v-v200-osx/compiler/lib/gcc/riscv64-unknown-
 1733              		.file 13 "/Users/gulda/Documents/risc-v/toolchain-gd32v-v200-osx/compiler/riscv64-unknown-elf/incl
 1734              		.file 14 "/Users/gulda/Documents/risc-v/toolchain-gd32v-v200-osx/compiler/riscv64-unknown-elf/incl
 1735              		.file 15 "/Users/gulda/Documents/risc-v/toolchain-gd32v-v200-osx/compiler/riscv64-unknown-elf/incl
 1736              		.file 16 "lib/usbcdc/include/cdc_acm_core.h"
GAS LISTING /var/folders/yy/83vjwp7d53j56dbzj8_jnpcr0000gn/T//ccN2uQTj.s 			page 44


 1737              		.file 17 "/Users/gulda/Documents/risc-v/toolchain-gd32v-v200-osx/compiler/riscv64-unknown-elf/incl
 1738              		.file 18 "lib/usbcdc/include/usb_serial_if.h"
 1739              		.file 19 "lib/fatfs/include/ff.h"
 1740              		.file 20 "lib/dma/include/dma.h"
 1741              		.file 21 "state.h"
 1742              		.file 22 "../../firmware/GD32VF103_standard_peripheral/Include/gd32vf103_eclic.h"
 1743              		.file 23 "../../firmware/GD32VF103_standard_peripheral/Include/gd32vf103_gpio.h"
 1744              		.file 24 "rn4871.h"
 1745              		.file 25 "queue.h"
 1746              		.file 26 "/Users/gulda/Documents/risc-v/toolchain-gd32v-v200-osx/compiler/riscv64-unknown-elf/incl
 1747              		.file 27 "radioHead.h"
 1748              		.file 28 "lib/systick/include/systick.h"
 1749              		.file 29 "<built-in>"
 1750              		.file 30 "lib/fatfs/include/gd32v_tf_card_if.h"
 1751              		.file 31 "adc.h"
 1752              		.file 32 "lib/usbcdc/include/usb_delay.h"
 1753              		.file 33 "/Users/gulda/Documents/risc-v/toolchain-gd32v-v200-osx/compiler/riscv64-unknown-elf/incl
 1754              		.file 34 "../../firmware/GD32VF103_standard_peripheral/Include/gd32vf103_adc.h"
 1755              		.file 35 "../../firmware/RISCV/drivers/n200_func.h"
GAS LISTING /var/folders/yy/83vjwp7d53j56dbzj8_jnpcr0000gn/T//ccN2uQTj.s 			page 45

