GAS LISTING /var/folders/yy/83vjwp7d53j56dbzj8_jnpcr0000gn/T//ccGymk7Z.s 			page 1


   1              		.file	"mpu6500_driver.c"
   2              		.option nopic
   3              		.attribute arch, "rv32i2p0_m2p0_a2p0_c2p0"
   4              		.attribute unaligned_access, 0
   5              		.attribute stack_align, 16
   6              		.text
   7              	.Ltext0:
   8              		.cfi_sections	.debug_frame
   9              		.section	.text.read_mpu,"ax",@progbits
  10              		.align	1
  11              		.globl	read_mpu
  13              	read_mpu:
  14              	.LFB3:
  15              		.file 1 "lib/mpu/src/mpu6500_driver.c"
   1:lib/mpu/src/mpu6500_driver.c **** #include "mpu6500_driver.h"
   2:lib/mpu/src/mpu6500_driver.c **** #include "stdint.h"
   3:lib/mpu/src/mpu6500_driver.c **** 
   4:lib/mpu/src/mpu6500_driver.c **** typedef struct{
   5:lib/mpu/src/mpu6500_driver.c **** 	void (*read)(void* pHandle, uint8_t addr, uint8_t reg, uint8_t size, uint8_t* pData);
   6:lib/mpu/src/mpu6500_driver.c **** 	void (*write)(void* pHandle, uint8_t addr, uint8_t reg, uint8_t size, uint8_t* pData);
   7:lib/mpu/src/mpu6500_driver.c **** 	void (*delay)(int millis);
   8:lib/mpu/src/mpu6500_driver.c **** 	void* pHandle;
   9:lib/mpu/src/mpu6500_driver.c **** }mpu6500_comms_t;
  10:lib/mpu/src/mpu6500_driver.c **** 
  11:lib/mpu/src/mpu6500_driver.c **** mpu6500_comms_t cb;
  12:lib/mpu/src/mpu6500_driver.c **** 
  13:lib/mpu/src/mpu6500_driver.c **** void read_mpu(uint8_t reg, uint8_t size, uint8_t* data){
  16              		.loc 1 13 56
  17              		.cfi_startproc
  18              	.LVL0:
  14:lib/mpu/src/mpu6500_driver.c **** 	cb.read(cb.pHandle, MPU6500_ADDR, reg, size, data);
  19              		.loc 1 14 2
  20 0000 B7070000 		lui	a5,%hi(cb)
  21 0004 93870700 		addi	a5,a5,%lo(cb)
  22 0008 3287     		mv	a4,a2
  23 000a 03A30700 		lw	t1,0(a5)
  24 000e 2A86     		mv	a2,a0
  25              	.LVL1:
  26 0010 C847     		lw	a0,12(a5)
  27              	.LVL2:
  28 0012 AE86     		mv	a3,a1
  29 0014 93059006 		li	a1,105
  30              	.LVL3:
  31 0018 0283     		jr	t1
  32              	.LVL4:
  33              		.cfi_endproc
  34              	.LFE3:
  36              		.section	.text.write_mpu,"ax",@progbits
  37              		.align	1
  38              		.globl	write_mpu
  40              	write_mpu:
  41              	.LFB4:
  15:lib/mpu/src/mpu6500_driver.c **** }
  16:lib/mpu/src/mpu6500_driver.c **** 
  17:lib/mpu/src/mpu6500_driver.c **** void write_mpu(uint8_t reg, uint8_t size, uint8_t* data){
  42              		.loc 1 17 57
  43              		.cfi_startproc
GAS LISTING /var/folders/yy/83vjwp7d53j56dbzj8_jnpcr0000gn/T//ccGymk7Z.s 			page 2


  44              	.LVL5:
  18:lib/mpu/src/mpu6500_driver.c **** 	cb.write(cb.pHandle, MPU6500_ADDR, reg, size, data);
  45              		.loc 1 18 2
  46 0000 B7070000 		lui	a5,%hi(cb)
  47 0004 93870700 		addi	a5,a5,%lo(cb)
  48 0008 3287     		mv	a4,a2
  49 000a 03A34700 		lw	t1,4(a5)
  50 000e 2A86     		mv	a2,a0
  51              	.LVL6:
  52 0010 C847     		lw	a0,12(a5)
  53              	.LVL7:
  54 0012 AE86     		mv	a3,a1
  55 0014 93059006 		li	a1,105
  56              	.LVL8:
  57 0018 0283     		jr	t1
  58              	.LVL9:
  59              		.cfi_endproc
  60              	.LFE4:
  62              		.section	.text.flip_bytes,"ax",@progbits
  63              		.align	1
  64              		.globl	flip_bytes
  66              	flip_bytes:
  67              	.LFB5:
  19:lib/mpu/src/mpu6500_driver.c **** }
  20:lib/mpu/src/mpu6500_driver.c **** 
  21:lib/mpu/src/mpu6500_driver.c **** int16_t flip_bytes(int16_t bt){
  68              		.loc 1 21 31
  69              		.cfi_startproc
  70              	.LVL10:
  22:lib/mpu/src/mpu6500_driver.c **** 	uint8_t* pByte = (uint8_t*)&bt;
  71              		.loc 1 22 2
  23:lib/mpu/src/mpu6500_driver.c **** 	uint8_t temp = pByte[1];
  24:lib/mpu/src/mpu6500_driver.c **** 	pByte[1] = pByte[0];
  25:lib/mpu/src/mpu6500_driver.c **** 	pByte[0] = temp;
  72              		.loc 1 25 11 is_stmt 0
  73 0000 93178500 		slli	a5,a0,8
  74 0004 4205     		slli	a0,a0,16
  75              	.LVL11:
  76 0006 4181     		srli	a0,a0,16
  77 0008 2181     		srli	a0,a0,8
  78 000a 5D8D     		or	a0,a5,a0
  21:lib/mpu/src/mpu6500_driver.c **** 	uint8_t* pByte = (uint8_t*)&bt;
  79              		.loc 1 21 31
  80 000c 4111     		addi	sp,sp,-16
  81              	.LCFI0:
  82              		.cfi_def_cfa_offset 16
  83              	.LVL12:
  23:lib/mpu/src/mpu6500_driver.c **** 	uint8_t temp = pByte[1];
  84              		.loc 1 23 2 is_stmt 1
  24:lib/mpu/src/mpu6500_driver.c **** 	pByte[0] = temp;
  85              		.loc 1 24 2
  86              		.loc 1 25 2
  26:lib/mpu/src/mpu6500_driver.c **** 	return bt; 
  87              		.loc 1 26 2
  27:lib/mpu/src/mpu6500_driver.c **** }
  88              		.loc 1 27 1 is_stmt 0
  89 000e 4205     		slli	a0,a0,16
GAS LISTING /var/folders/yy/83vjwp7d53j56dbzj8_jnpcr0000gn/T//ccGymk7Z.s 			page 3


  90 0010 4185     		srai	a0,a0,16
  91 0012 4101     		addi	sp,sp,16
  92              	.LCFI1:
  93              		.cfi_def_cfa_offset 0
  94              	.LVL13:
  95 0014 8280     		jr	ra
  96              		.cfi_endproc
  97              	.LFE5:
  99              		.section	.text.mpu6500_init,"ax",@progbits
 100              		.align	1
 101              		.globl	mpu6500_init
 103              	mpu6500_init:
 104              	.LFB6:
  28:lib/mpu/src/mpu6500_driver.c **** 
  29:lib/mpu/src/mpu6500_driver.c **** int mpu6500_init(void (*read_cb)(void* pHandle, uint8_t addr, uint8_t reg, uint8_t size, uint8_t* p
  30:lib/mpu/src/mpu6500_driver.c **** 				 void (*write_cb)(void* pHandle, uint8_t addr, uint8_t reg, uint8_t size, uint8_t* pData),
  31:lib/mpu/src/mpu6500_driver.c **** 				 void (*delay_cb)(int millis),
  32:lib/mpu/src/mpu6500_driver.c **** 				 void* pHandle){
 105              		.loc 1 32 20 is_stmt 1
 106              		.cfi_startproc
 107              	.LVL14:
  33:lib/mpu/src/mpu6500_driver.c **** 	uint8_t read_buffer[4];
 108              		.loc 1 33 2
  34:lib/mpu/src/mpu6500_driver.c **** 	uint8_t write_buffer[4];
 109              		.loc 1 34 2
  35:lib/mpu/src/mpu6500_driver.c **** 	cb.read = read_cb;
 110              		.loc 1 35 2
  32:lib/mpu/src/mpu6500_driver.c **** 	uint8_t read_buffer[4];
 111              		.loc 1 32 20 is_stmt 0
 112 0000 0111     		addi	sp,sp,-32
 113              	.LCFI2:
 114              		.cfi_def_cfa_offset 32
 115 0002 22CC     		sw	s0,24(sp)
 116              		.cfi_offset 8, -8
 117              		.loc 1 35 10
 118 0004 37040000 		lui	s0,%hi(cb)
 119 0008 93070400 		addi	a5,s0,%lo(cb)
  32:lib/mpu/src/mpu6500_driver.c **** 	uint8_t read_buffer[4];
 120              		.loc 1 32 20
 121 000c 06CE     		sw	ra,28(sp)
 122              		.cfi_offset 1, -4
 123              		.loc 1 35 10
 124 000e 88C3     		sw	a0,0(a5)
  36:lib/mpu/src/mpu6500_driver.c **** 	cb.write = write_cb;
 125              		.loc 1 36 2 is_stmt 1
 126              		.loc 1 36 11 is_stmt 0
 127 0010 CCC3     		sw	a1,4(a5)
  37:lib/mpu/src/mpu6500_driver.c **** 	cb.delay = delay_cb;
 128              		.loc 1 37 2 is_stmt 1
 129              		.loc 1 37 11 is_stmt 0
 130 0012 90C7     		sw	a2,8(a5)
  38:lib/mpu/src/mpu6500_driver.c **** 	cb.pHandle = pHandle;
 131              		.loc 1 38 2 is_stmt 1
  39:lib/mpu/src/mpu6500_driver.c **** 
  40:lib/mpu/src/mpu6500_driver.c **** 
  41:lib/mpu/src/mpu6500_driver.c **** 
  42:lib/mpu/src/mpu6500_driver.c **** 	read_mpu(MPU6500_WHO_AM_I, 1, read_buffer);
GAS LISTING /var/folders/yy/83vjwp7d53j56dbzj8_jnpcr0000gn/T//ccGymk7Z.s 			page 4


 132              		.loc 1 42 2 is_stmt 0
 133 0014 13055007 		li	a0,117
 134              	.LVL15:
 135 0018 3000     		addi	a2,sp,8
 136              	.LVL16:
 137 001a 8545     		li	a1,1
 138              	.LVL17:
  38:lib/mpu/src/mpu6500_driver.c **** 	cb.pHandle = pHandle;
 139              		.loc 1 38 13
 140 001c D4C7     		sw	a3,12(a5)
 141              		.loc 1 42 2 is_stmt 1
 142 001e 97000000 		call	read_mpu
 142      E7800000 
 143              	.LVL18:
  43:lib/mpu/src/mpu6500_driver.c **** 	if(read_buffer[0] != MPU6500_WHO_AM_I_ID) return -1;
 144              		.loc 1 43 2
 145              		.loc 1 43 4 is_stmt 0
 146 0026 03478100 		lbu	a4,8(sp)
 147 002a C547     		li	a5,17
 148              		.loc 1 43 51
 149 002c 7D55     		li	a0,-1
 150              		.loc 1 43 4
 151 002e 631FF70C 		bne	a4,a5,.L5
  44:lib/mpu/src/mpu6500_driver.c **** 
  45:lib/mpu/src/mpu6500_driver.c **** 	write_buffer[0] = MPU6500_DEVICE_RESET;
 152              		.loc 1 45 18
 153 0032 930700F8 		li	a5,-128
  46:lib/mpu/src/mpu6500_driver.c **** 	write_mpu(MPU6500_PWR_MGMT_1, 1, write_buffer);
 154              		.loc 1 46 2
 155 0036 1305B006 		li	a0,107
 156 003a 7000     		addi	a2,sp,12
 157 003c 8545     		li	a1,1
  45:lib/mpu/src/mpu6500_driver.c **** 	write_mpu(MPU6500_PWR_MGMT_1, 1, write_buffer);
 158              		.loc 1 45 18
 159 003e 2306F100 		sb	a5,12(sp)
 160 0042 13040400 		addi	s0,s0,%lo(cb)
  45:lib/mpu/src/mpu6500_driver.c **** 	write_mpu(MPU6500_PWR_MGMT_1, 1, write_buffer);
 161              		.loc 1 45 2 is_stmt 1
 162              		.loc 1 46 2
 163 0046 97000000 		call	write_mpu
 163      E7800000 
 164              	.LVL19:
  47:lib/mpu/src/mpu6500_driver.c **** 
  48:lib/mpu/src/mpu6500_driver.c **** 	cb.delay(100);
 165              		.loc 1 48 2
 166 004e 1C44     		lw	a5,8(s0)
 167 0050 13054006 		li	a0,100
 168 0054 8297     		jalr	a5
 169              	.LVL20:
  49:lib/mpu/src/mpu6500_driver.c **** 
  50:lib/mpu/src/mpu6500_driver.c **** 	while(read_buffer[0] & MPU6500_DEVICE_RESET) read_mpu(MPU6500_PWR_MGMT_1, 1, read_buffer);
 170              		.loc 1 50 2
 171              	.L7:
 172              		.loc 1 50 7 is_stmt 0 discriminator 1
 173 0056 83078100 		lb	a5,8(sp)
 174 005a 63CD070A 		blt	a5,zero,.L8
  51:lib/mpu/src/mpu6500_driver.c **** 
GAS LISTING /var/folders/yy/83vjwp7d53j56dbzj8_jnpcr0000gn/T//ccGymk7Z.s 			page 5


  52:lib/mpu/src/mpu6500_driver.c **** 	cb.delay(100);
 175              		.loc 1 52 2 is_stmt 1
 176 005e 1C44     		lw	a5,8(s0)
 177 0060 13054006 		li	a0,100
  53:lib/mpu/src/mpu6500_driver.c **** 
  54:lib/mpu/src/mpu6500_driver.c **** 	write_buffer[0] = MPU6500_TEMP_DIS | 0x01; //select PLL
  55:lib/mpu/src/mpu6500_driver.c **** 	write_mpu(MPU6500_PWR_MGMT_1, 1, write_buffer);
  56:lib/mpu/src/mpu6500_driver.c **** 
  57:lib/mpu/src/mpu6500_driver.c **** 	write_buffer[0] = 0x00;
  58:lib/mpu/src/mpu6500_driver.c **** 	write_mpu(MPU6500_SMPLRT_DIV, 1, write_buffer);
  59:lib/mpu/src/mpu6500_driver.c **** 
  60:lib/mpu/src/mpu6500_driver.c **** 	write_buffer[0] = MPU6500_G_DLPF_92HZ;
 178              		.loc 1 60 18 is_stmt 0
 179 0064 0944     		li	s0,2
  52:lib/mpu/src/mpu6500_driver.c **** 
 180              		.loc 1 52 2
 181 0066 8297     		jalr	a5
 182              	.LVL21:
  54:lib/mpu/src/mpu6500_driver.c **** 	write_mpu(MPU6500_PWR_MGMT_1, 1, write_buffer);
 183              		.loc 1 54 2 is_stmt 1
  54:lib/mpu/src/mpu6500_driver.c **** 	write_mpu(MPU6500_PWR_MGMT_1, 1, write_buffer);
 184              		.loc 1 54 18 is_stmt 0
 185 0068 A547     		li	a5,9
  55:lib/mpu/src/mpu6500_driver.c **** 
 186              		.loc 1 55 2
 187 006a 7000     		addi	a2,sp,12
 188 006c 8545     		li	a1,1
 189 006e 1305B006 		li	a0,107
  54:lib/mpu/src/mpu6500_driver.c **** 	write_mpu(MPU6500_PWR_MGMT_1, 1, write_buffer);
 190              		.loc 1 54 18
 191 0072 2306F100 		sb	a5,12(sp)
  55:lib/mpu/src/mpu6500_driver.c **** 
 192              		.loc 1 55 2 is_stmt 1
 193 0076 97000000 		call	write_mpu
 193      E7800000 
 194              	.LVL22:
  57:lib/mpu/src/mpu6500_driver.c **** 	write_mpu(MPU6500_SMPLRT_DIV, 1, write_buffer);
 195              		.loc 1 57 2
  58:lib/mpu/src/mpu6500_driver.c **** 
 196              		.loc 1 58 2 is_stmt 0
 197 007e 7000     		addi	a2,sp,12
 198 0080 8545     		li	a1,1
 199 0082 6545     		li	a0,25
  57:lib/mpu/src/mpu6500_driver.c **** 	write_mpu(MPU6500_SMPLRT_DIV, 1, write_buffer);
 200              		.loc 1 57 18
 201 0084 23060100 		sb	zero,12(sp)
  58:lib/mpu/src/mpu6500_driver.c **** 
 202              		.loc 1 58 2 is_stmt 1
 203 0088 97000000 		call	write_mpu
 203      E7800000 
 204              	.LVL23:
 205              		.loc 1 60 2
  61:lib/mpu/src/mpu6500_driver.c **** 	write_mpu(MPU6500_CONFIG, 1, write_buffer);
 206              		.loc 1 61 2 is_stmt 0
 207 0090 7000     		addi	a2,sp,12
 208 0092 8545     		li	a1,1
 209 0094 6945     		li	a0,26
GAS LISTING /var/folders/yy/83vjwp7d53j56dbzj8_jnpcr0000gn/T//ccGymk7Z.s 			page 6


  60:lib/mpu/src/mpu6500_driver.c **** 	write_mpu(MPU6500_CONFIG, 1, write_buffer);
 210              		.loc 1 60 18
 211 0096 23068100 		sb	s0,12(sp)
 212              		.loc 1 61 2 is_stmt 1
 213 009a 97000000 		call	write_mpu
 213      E7800000 
 214              	.LVL24:
  62:lib/mpu/src/mpu6500_driver.c **** 
  63:lib/mpu/src/mpu6500_driver.c **** 	write_buffer[0] = MPU6500_GYRO_FS_2000DPS;
 215              		.loc 1 63 2
 216              		.loc 1 63 18 is_stmt 0
 217 00a2 E147     		li	a5,24
  64:lib/mpu/src/mpu6500_driver.c **** 	write_mpu(MPU6500_GYRO_CONFIG, 1, write_buffer);
 218              		.loc 1 64 2
 219 00a4 7000     		addi	a2,sp,12
 220 00a6 8545     		li	a1,1
 221 00a8 6D45     		li	a0,27
  63:lib/mpu/src/mpu6500_driver.c **** 	write_mpu(MPU6500_GYRO_CONFIG, 1, write_buffer);
 222              		.loc 1 63 18
 223 00aa 2306F100 		sb	a5,12(sp)
 224              		.loc 1 64 2 is_stmt 1
 225 00ae 97000000 		call	write_mpu
 225      E7800000 
 226              	.LVL25:
  65:lib/mpu/src/mpu6500_driver.c **** 
  66:lib/mpu/src/mpu6500_driver.c **** 	write_buffer[0] = MPU6500_ACCEL_FS_8G;
 227              		.loc 1 66 2
 228              		.loc 1 66 18 is_stmt 0
 229 00b6 C147     		li	a5,16
  67:lib/mpu/src/mpu6500_driver.c **** 	write_mpu(MPU6500_ACCEL_CONFIG, 1, write_buffer);
 230              		.loc 1 67 2
 231 00b8 7000     		addi	a2,sp,12
 232 00ba 8545     		li	a1,1
 233 00bc 7145     		li	a0,28
  66:lib/mpu/src/mpu6500_driver.c **** 	write_mpu(MPU6500_ACCEL_CONFIG, 1, write_buffer);
 234              		.loc 1 66 18
 235 00be 2306F100 		sb	a5,12(sp)
 236              		.loc 1 67 2 is_stmt 1
 237 00c2 97000000 		call	write_mpu
 237      E7800000 
 238              	.LVL26:
  68:lib/mpu/src/mpu6500_driver.c **** 	
  69:lib/mpu/src/mpu6500_driver.c **** 	write_buffer[0] = MPU6500_A_DPLF_92HZ;
 239              		.loc 1 69 2
  70:lib/mpu/src/mpu6500_driver.c **** 	write_mpu(MPU6500_ACCEL_CONFIG2, 1, write_buffer);
 240              		.loc 1 70 2 is_stmt 0
 241 00ca 7000     		addi	a2,sp,12
 242 00cc 8545     		li	a1,1
 243 00ce 7545     		li	a0,29
  69:lib/mpu/src/mpu6500_driver.c **** 	write_mpu(MPU6500_ACCEL_CONFIG2, 1, write_buffer);
 244              		.loc 1 69 18
 245 00d0 23068100 		sb	s0,12(sp)
 246              		.loc 1 70 2 is_stmt 1
 247 00d4 97000000 		call	write_mpu
 247      E7800000 
 248              	.LVL27:
  71:lib/mpu/src/mpu6500_driver.c **** 	
GAS LISTING /var/folders/yy/83vjwp7d53j56dbzj8_jnpcr0000gn/T//ccGymk7Z.s 			page 7


  72:lib/mpu/src/mpu6500_driver.c **** 	write_buffer[0] = MPU6500_LATCH_INT_EN | MPU6500_INT_ANYRD_2CLEAR | MPU6500_INT_BYPASS_EN;
 249              		.loc 1 72 2
 250              		.loc 1 72 18 is_stmt 0
 251 00dc 93072003 		li	a5,50
  73:lib/mpu/src/mpu6500_driver.c **** 	write_mpu(MPU6500_INT_PIN_CFG, 1, write_buffer);
 252              		.loc 1 73 2
 253 00e0 7000     		addi	a2,sp,12
 254 00e2 8545     		li	a1,1
 255 00e4 13057003 		li	a0,55
  72:lib/mpu/src/mpu6500_driver.c **** 	write_mpu(MPU6500_INT_PIN_CFG, 1, write_buffer);
 256              		.loc 1 72 18
 257 00e8 2306F100 		sb	a5,12(sp)
 258              		.loc 1 73 2 is_stmt 1
 259 00ec 97000000 		call	write_mpu
 259      E7800000 
 260              	.LVL28:
  74:lib/mpu/src/mpu6500_driver.c **** 	
  75:lib/mpu/src/mpu6500_driver.c **** 	write_buffer[0] = MPU6500_INT_RAW_RDY_EN;
 261              		.loc 1 75 2
 262              		.loc 1 75 18 is_stmt 0
 263 00f4 8547     		li	a5,1
  76:lib/mpu/src/mpu6500_driver.c **** 	write_mpu(MPU6500_INT_ENABLE, 1, write_buffer);
 264              		.loc 1 76 2
 265 00f6 13058003 		li	a0,56
 266 00fa 7000     		addi	a2,sp,12
 267 00fc 8545     		li	a1,1
  75:lib/mpu/src/mpu6500_driver.c **** 	write_mpu(MPU6500_INT_ENABLE, 1, write_buffer);
 268              		.loc 1 75 18
 269 00fe 2306F100 		sb	a5,12(sp)
 270              		.loc 1 76 2 is_stmt 1
 271 0102 97000000 		call	write_mpu
 271      E7800000 
 272              	.LVL29:
  77:lib/mpu/src/mpu6500_driver.c **** 
  78:lib/mpu/src/mpu6500_driver.c **** 	return 1;
 273              		.loc 1 78 2
 274              		.loc 1 78 9 is_stmt 0
 275 010a 0545     		li	a0,1
 276              	.L5:
  79:lib/mpu/src/mpu6500_driver.c **** 
  80:lib/mpu/src/mpu6500_driver.c **** }
 277              		.loc 1 80 1
 278 010c F240     		lw	ra,28(sp)
 279              		.cfi_remember_state
 280              		.cfi_restore 1
 281 010e 6244     		lw	s0,24(sp)
 282              		.cfi_restore 8
 283 0110 0561     		addi	sp,sp,32
 284              	.LCFI3:
 285              		.cfi_def_cfa_offset 0
 286 0112 8280     		jr	ra
 287              	.L8:
 288              	.LCFI4:
 289              		.cfi_restore_state
  50:lib/mpu/src/mpu6500_driver.c **** 
 290              		.loc 1 50 47 is_stmt 1 discriminator 2
 291 0114 3000     		addi	a2,sp,8
GAS LISTING /var/folders/yy/83vjwp7d53j56dbzj8_jnpcr0000gn/T//ccGymk7Z.s 			page 8


 292 0116 8545     		li	a1,1
 293 0118 1305B006 		li	a0,107
 294 011c 97000000 		call	read_mpu
 294      E7800000 
 295              	.LVL30:
 296 0124 0DBF     		j	.L7
 297              		.cfi_endproc
 298              	.LFE6:
 300              		.globl	__floatsisf
 301              		.section	.text.mpu6500_getAccel,"ax",@progbits
 302              		.align	1
 303              		.globl	mpu6500_getAccel
 305              	mpu6500_getAccel:
 306              	.LFB7:
  81:lib/mpu/src/mpu6500_driver.c **** 
  82:lib/mpu/src/mpu6500_driver.c **** int mpu6500_getAccel(mpu_vector_t* pAccel){
 307              		.loc 1 82 43
 308              		.cfi_startproc
 309              	.LVL31:
  83:lib/mpu/src/mpu6500_driver.c **** 	mpu_raw_vector_t accel;
 310              		.loc 1 83 2
  84:lib/mpu/src/mpu6500_driver.c **** 	read_mpu(MPU6500_ACCEL_XOUT_H, 6, (uint8_t*) &accel);
 311              		.loc 1 84 2
  82:lib/mpu/src/mpu6500_driver.c **** 	mpu_raw_vector_t accel;
 312              		.loc 1 82 43 is_stmt 0
 313 0000 0111     		addi	sp,sp,-32
 314              	.LCFI5:
 315              		.cfi_def_cfa_offset 32
 316 0002 22CC     		sw	s0,24(sp)
 317              		.loc 1 84 2
 318 0004 3000     		addi	a2,sp,8
 319              		.cfi_offset 8, -8
  82:lib/mpu/src/mpu6500_driver.c **** 	mpu_raw_vector_t accel;
 320              		.loc 1 82 43
 321 0006 2A84     		mv	s0,a0
 322              		.loc 1 84 2
 323 0008 9945     		li	a1,6
 324 000a 1305B003 		li	a0,59
 325              	.LVL32:
  82:lib/mpu/src/mpu6500_driver.c **** 	mpu_raw_vector_t accel;
 326              		.loc 1 82 43
 327 000e 06CE     		sw	ra,28(sp)
 328              		.cfi_offset 1, -4
 329              		.loc 1 84 2
 330 0010 97000000 		call	read_mpu
 330      E7800000 
 331              	.LVL33:
  85:lib/mpu/src/mpu6500_driver.c **** 	pAccel->x = (float) flip_bytes(accel.x);
 332              		.loc 1 85 2 is_stmt 1
 333              		.loc 1 85 22 is_stmt 0
 334 0018 83178100 		lh	a5,8(sp)
 335              	.LVL34:
 336              	.LBB14:
 337              	.LBB15:
  22:lib/mpu/src/mpu6500_driver.c **** 	uint8_t temp = pByte[1];
 338              		.loc 1 22 2 is_stmt 1
  23:lib/mpu/src/mpu6500_driver.c **** 	pByte[1] = pByte[0];
GAS LISTING /var/folders/yy/83vjwp7d53j56dbzj8_jnpcr0000gn/T//ccGymk7Z.s 			page 9


 339              		.loc 1 23 2
  24:lib/mpu/src/mpu6500_driver.c **** 	pByte[0] = temp;
 340              		.loc 1 24 2
  24:lib/mpu/src/mpu6500_driver.c **** 	pByte[0] = temp;
 341              		.loc 1 24 11 is_stmt 0
 342 001c A303F100 		sb	a5,7(sp)
 343              	.LVL35:
  25:lib/mpu/src/mpu6500_driver.c **** 	return bt; 
 344              		.loc 1 25 2 is_stmt 1
  25:lib/mpu/src/mpu6500_driver.c **** 	return bt; 
 345              		.loc 1 25 11 is_stmt 0
 346 0020 A183     		srli	a5,a5,8
 347              	.LVL36:
 348 0022 2303F100 		sb	a5,6(sp)
  26:lib/mpu/src/mpu6500_driver.c **** }
 349              		.loc 1 26 2 is_stmt 1
 350              	.LVL37:
 351              	.LBE15:
 352              	.LBE14:
 353              		.loc 1 85 14 is_stmt 0
 354 0026 03156100 		lh	a0,6(sp)
 355 002a 97000000 		call	__floatsisf
 355      E7800000 
 356              	.LVL38:
  86:lib/mpu/src/mpu6500_driver.c **** 	pAccel->y = (float) flip_bytes(accel.y);
 357              		.loc 1 86 22
 358 0032 8317A100 		lh	a5,10(sp)
  85:lib/mpu/src/mpu6500_driver.c **** 	pAccel->y = (float) flip_bytes(accel.y);
 359              		.loc 1 85 14
 360 0036 08C0     		sw	a0,0(s0)
 361              		.loc 1 86 2 is_stmt 1
 362              	.LVL39:
 363              	.LBB16:
 364              	.LBB17:
  22:lib/mpu/src/mpu6500_driver.c **** 	uint8_t temp = pByte[1];
 365              		.loc 1 22 2
  23:lib/mpu/src/mpu6500_driver.c **** 	pByte[1] = pByte[0];
 366              		.loc 1 23 2
  24:lib/mpu/src/mpu6500_driver.c **** 	pByte[0] = temp;
 367              		.loc 1 24 2
  24:lib/mpu/src/mpu6500_driver.c **** 	pByte[0] = temp;
 368              		.loc 1 24 11 is_stmt 0
 369 0038 A303F100 		sb	a5,7(sp)
  25:lib/mpu/src/mpu6500_driver.c **** 	return bt; 
 370              		.loc 1 25 2 is_stmt 1
  25:lib/mpu/src/mpu6500_driver.c **** 	return bt; 
 371              		.loc 1 25 11 is_stmt 0
 372 003c A183     		srli	a5,a5,8
 373              	.LVL40:
 374 003e 2303F100 		sb	a5,6(sp)
  26:lib/mpu/src/mpu6500_driver.c **** }
 375              		.loc 1 26 2 is_stmt 1
 376              	.LVL41:
 377              	.LBE17:
 378              	.LBE16:
 379              		.loc 1 86 14 is_stmt 0
 380 0042 03156100 		lh	a0,6(sp)
GAS LISTING /var/folders/yy/83vjwp7d53j56dbzj8_jnpcr0000gn/T//ccGymk7Z.s 			page 10


 381 0046 97000000 		call	__floatsisf
 381      E7800000 
 382              	.LVL42:
  87:lib/mpu/src/mpu6500_driver.c **** 	pAccel->z = (float) flip_bytes(accel.z);
 383              		.loc 1 87 22
 384 004e 8317C100 		lh	a5,12(sp)
  86:lib/mpu/src/mpu6500_driver.c **** 	pAccel->z = (float) flip_bytes(accel.z);
 385              		.loc 1 86 14
 386 0052 48C0     		sw	a0,4(s0)
 387              		.loc 1 87 2 is_stmt 1
 388              	.LVL43:
 389              	.LBB18:
 390              	.LBB19:
  22:lib/mpu/src/mpu6500_driver.c **** 	uint8_t temp = pByte[1];
 391              		.loc 1 22 2
  23:lib/mpu/src/mpu6500_driver.c **** 	pByte[1] = pByte[0];
 392              		.loc 1 23 2
  24:lib/mpu/src/mpu6500_driver.c **** 	pByte[0] = temp;
 393              		.loc 1 24 2
  24:lib/mpu/src/mpu6500_driver.c **** 	pByte[0] = temp;
 394              		.loc 1 24 11 is_stmt 0
 395 0054 A303F100 		sb	a5,7(sp)
  25:lib/mpu/src/mpu6500_driver.c **** 	return bt; 
 396              		.loc 1 25 2 is_stmt 1
  25:lib/mpu/src/mpu6500_driver.c **** 	return bt; 
 397              		.loc 1 25 11 is_stmt 0
 398 0058 A183     		srli	a5,a5,8
 399              	.LVL44:
 400 005a 2303F100 		sb	a5,6(sp)
  26:lib/mpu/src/mpu6500_driver.c **** }
 401              		.loc 1 26 2 is_stmt 1
 402              	.LVL45:
 403              	.LBE19:
 404              	.LBE18:
 405              		.loc 1 87 14 is_stmt 0
 406 005e 03156100 		lh	a0,6(sp)
 407 0062 97000000 		call	__floatsisf
 407      E7800000 
 408              	.LVL46:
 409 006a 08C4     		sw	a0,8(s0)
  88:lib/mpu/src/mpu6500_driver.c **** 	return 1;
 410              		.loc 1 88 2 is_stmt 1
  89:lib/mpu/src/mpu6500_driver.c **** }
 411              		.loc 1 89 1 is_stmt 0
 412 006c F240     		lw	ra,28(sp)
 413              		.cfi_restore 1
 414 006e 6244     		lw	s0,24(sp)
 415              		.cfi_restore 8
 416              	.LVL47:
 417 0070 0545     		li	a0,1
 418 0072 0561     		addi	sp,sp,32
 419              	.LCFI6:
 420              		.cfi_def_cfa_offset 0
 421              	.LVL48:
 422 0074 8280     		jr	ra
 423              		.cfi_endproc
 424              	.LFE7:
GAS LISTING /var/folders/yy/83vjwp7d53j56dbzj8_jnpcr0000gn/T//ccGymk7Z.s 			page 11


 426              		.section	.text.mpu6500_getGyro,"ax",@progbits
 427              		.align	1
 428              		.globl	mpu6500_getGyro
 430              	mpu6500_getGyro:
 431              	.LFB8:
  90:lib/mpu/src/mpu6500_driver.c **** 
  91:lib/mpu/src/mpu6500_driver.c **** int mpu6500_getGyro(mpu_vector_t* pGyro){
 432              		.loc 1 91 41 is_stmt 1
 433              		.cfi_startproc
 434              	.LVL49:
  92:lib/mpu/src/mpu6500_driver.c **** 	mpu_raw_vector_t gyro;
 435              		.loc 1 92 2
  93:lib/mpu/src/mpu6500_driver.c **** 	read_mpu(MPU6500_GYRO_XOUT_H, 6, (uint8_t*) &gyro);
 436              		.loc 1 93 2
  91:lib/mpu/src/mpu6500_driver.c **** 	mpu_raw_vector_t gyro;
 437              		.loc 1 91 41 is_stmt 0
 438 0000 0111     		addi	sp,sp,-32
 439              	.LCFI7:
 440              		.cfi_def_cfa_offset 32
 441 0002 22CC     		sw	s0,24(sp)
 442              		.loc 1 93 2
 443 0004 3000     		addi	a2,sp,8
 444              		.cfi_offset 8, -8
  91:lib/mpu/src/mpu6500_driver.c **** 	mpu_raw_vector_t gyro;
 445              		.loc 1 91 41
 446 0006 2A84     		mv	s0,a0
 447              		.loc 1 93 2
 448 0008 9945     		li	a1,6
 449 000a 13053004 		li	a0,67
 450              	.LVL50:
  91:lib/mpu/src/mpu6500_driver.c **** 	mpu_raw_vector_t gyro;
 451              		.loc 1 91 41
 452 000e 06CE     		sw	ra,28(sp)
 453              		.cfi_offset 1, -4
 454              		.loc 1 93 2
 455 0010 97000000 		call	read_mpu
 455      E7800000 
 456              	.LVL51:
  94:lib/mpu/src/mpu6500_driver.c **** 	pGyro->x = (float) flip_bytes(gyro.x);
 457              		.loc 1 94 2 is_stmt 1
 458              		.loc 1 94 21 is_stmt 0
 459 0018 83178100 		lh	a5,8(sp)
 460              	.LVL52:
 461              	.LBB20:
 462              	.LBB21:
  22:lib/mpu/src/mpu6500_driver.c **** 	uint8_t temp = pByte[1];
 463              		.loc 1 22 2 is_stmt 1
  23:lib/mpu/src/mpu6500_driver.c **** 	pByte[1] = pByte[0];
 464              		.loc 1 23 2
  24:lib/mpu/src/mpu6500_driver.c **** 	pByte[0] = temp;
 465              		.loc 1 24 2
  24:lib/mpu/src/mpu6500_driver.c **** 	pByte[0] = temp;
 466              		.loc 1 24 11 is_stmt 0
 467 001c A303F100 		sb	a5,7(sp)
 468              	.LVL53:
  25:lib/mpu/src/mpu6500_driver.c **** 	return bt; 
 469              		.loc 1 25 2 is_stmt 1
GAS LISTING /var/folders/yy/83vjwp7d53j56dbzj8_jnpcr0000gn/T//ccGymk7Z.s 			page 12


  25:lib/mpu/src/mpu6500_driver.c **** 	return bt; 
 470              		.loc 1 25 11 is_stmt 0
 471 0020 A183     		srli	a5,a5,8
 472              	.LVL54:
 473 0022 2303F100 		sb	a5,6(sp)
  26:lib/mpu/src/mpu6500_driver.c **** }
 474              		.loc 1 26 2 is_stmt 1
 475              	.LVL55:
 476              	.LBE21:
 477              	.LBE20:
 478              		.loc 1 94 13 is_stmt 0
 479 0026 03156100 		lh	a0,6(sp)
 480 002a 97000000 		call	__floatsisf
 480      E7800000 
 481              	.LVL56:
  95:lib/mpu/src/mpu6500_driver.c **** 	pGyro->y = (float) flip_bytes(gyro.y);
 482              		.loc 1 95 21
 483 0032 8317A100 		lh	a5,10(sp)
  94:lib/mpu/src/mpu6500_driver.c **** 	pGyro->y = (float) flip_bytes(gyro.y);
 484              		.loc 1 94 13
 485 0036 08C0     		sw	a0,0(s0)
 486              		.loc 1 95 2 is_stmt 1
 487              	.LVL57:
 488              	.LBB22:
 489              	.LBB23:
  22:lib/mpu/src/mpu6500_driver.c **** 	uint8_t temp = pByte[1];
 490              		.loc 1 22 2
  23:lib/mpu/src/mpu6500_driver.c **** 	pByte[1] = pByte[0];
 491              		.loc 1 23 2
  24:lib/mpu/src/mpu6500_driver.c **** 	pByte[0] = temp;
 492              		.loc 1 24 2
  24:lib/mpu/src/mpu6500_driver.c **** 	pByte[0] = temp;
 493              		.loc 1 24 11 is_stmt 0
 494 0038 A303F100 		sb	a5,7(sp)
  25:lib/mpu/src/mpu6500_driver.c **** 	return bt; 
 495              		.loc 1 25 2 is_stmt 1
  25:lib/mpu/src/mpu6500_driver.c **** 	return bt; 
 496              		.loc 1 25 11 is_stmt 0
 497 003c A183     		srli	a5,a5,8
 498              	.LVL58:
 499 003e 2303F100 		sb	a5,6(sp)
  26:lib/mpu/src/mpu6500_driver.c **** }
 500              		.loc 1 26 2 is_stmt 1
 501              	.LVL59:
 502              	.LBE23:
 503              	.LBE22:
 504              		.loc 1 95 13 is_stmt 0
 505 0042 03156100 		lh	a0,6(sp)
 506 0046 97000000 		call	__floatsisf
 506      E7800000 
 507              	.LVL60:
  96:lib/mpu/src/mpu6500_driver.c **** 	pGyro->z = (float) flip_bytes(gyro.z);
 508              		.loc 1 96 21
 509 004e 8317C100 		lh	a5,12(sp)
  95:lib/mpu/src/mpu6500_driver.c **** 	pGyro->z = (float) flip_bytes(gyro.z);
 510              		.loc 1 95 13
 511 0052 48C0     		sw	a0,4(s0)
GAS LISTING /var/folders/yy/83vjwp7d53j56dbzj8_jnpcr0000gn/T//ccGymk7Z.s 			page 13


 512              		.loc 1 96 2 is_stmt 1
 513              	.LVL61:
 514              	.LBB24:
 515              	.LBB25:
  22:lib/mpu/src/mpu6500_driver.c **** 	uint8_t temp = pByte[1];
 516              		.loc 1 22 2
  23:lib/mpu/src/mpu6500_driver.c **** 	pByte[1] = pByte[0];
 517              		.loc 1 23 2
  24:lib/mpu/src/mpu6500_driver.c **** 	pByte[0] = temp;
 518              		.loc 1 24 2
  24:lib/mpu/src/mpu6500_driver.c **** 	pByte[0] = temp;
 519              		.loc 1 24 11 is_stmt 0
 520 0054 A303F100 		sb	a5,7(sp)
  25:lib/mpu/src/mpu6500_driver.c **** 	return bt; 
 521              		.loc 1 25 2 is_stmt 1
  25:lib/mpu/src/mpu6500_driver.c **** 	return bt; 
 522              		.loc 1 25 11 is_stmt 0
 523 0058 A183     		srli	a5,a5,8
 524              	.LVL62:
 525 005a 2303F100 		sb	a5,6(sp)
  26:lib/mpu/src/mpu6500_driver.c **** }
 526              		.loc 1 26 2 is_stmt 1
 527              	.LVL63:
 528              	.LBE25:
 529              	.LBE24:
 530              		.loc 1 96 13 is_stmt 0
 531 005e 03156100 		lh	a0,6(sp)
 532 0062 97000000 		call	__floatsisf
 532      E7800000 
 533              	.LVL64:
 534 006a 08C4     		sw	a0,8(s0)
  97:lib/mpu/src/mpu6500_driver.c **** 	return 1;
 535              		.loc 1 97 2 is_stmt 1
  98:lib/mpu/src/mpu6500_driver.c **** }
 536              		.loc 1 98 1 is_stmt 0
 537 006c F240     		lw	ra,28(sp)
 538              		.cfi_restore 1
 539 006e 6244     		lw	s0,24(sp)
 540              		.cfi_restore 8
 541              	.LVL65:
 542 0070 0545     		li	a0,1
 543 0072 0561     		addi	sp,sp,32
 544              	.LCFI8:
 545              		.cfi_def_cfa_offset 0
 546              	.LVL66:
 547 0074 8280     		jr	ra
 548              		.cfi_endproc
 549              	.LFE8:
 551              		.section	.text.mpu6500_getGyroAccel,"ax",@progbits
 552              		.align	1
 553              		.globl	mpu6500_getGyroAccel
 555              	mpu6500_getGyroAccel:
 556              	.LFB9:
  99:lib/mpu/src/mpu6500_driver.c **** 
 100:lib/mpu/src/mpu6500_driver.c **** int mpu6500_getGyroAccel(mpu_vector_t* pGyro, mpu_vector_t* pAccel){
 557              		.loc 1 100 68 is_stmt 1
 558              		.cfi_startproc
GAS LISTING /var/folders/yy/83vjwp7d53j56dbzj8_jnpcr0000gn/T//ccGymk7Z.s 			page 14


 559              	.LVL67:
 101:lib/mpu/src/mpu6500_driver.c **** 	mpu6500_getAccel(pAccel);
 560              		.loc 1 101 2
 100:lib/mpu/src/mpu6500_driver.c **** 	mpu6500_getAccel(pAccel);
 561              		.loc 1 100 68 is_stmt 0
 562 0000 4111     		addi	sp,sp,-16
 563              	.LCFI9:
 564              		.cfi_def_cfa_offset 16
 565 0002 22C4     		sw	s0,8(sp)
 566              		.cfi_offset 8, -8
 567 0004 2A84     		mv	s0,a0
 568              		.loc 1 101 2
 569 0006 2E85     		mv	a0,a1
 570              	.LVL68:
 100:lib/mpu/src/mpu6500_driver.c **** 	mpu6500_getAccel(pAccel);
 571              		.loc 1 100 68
 572 0008 06C6     		sw	ra,12(sp)
 573              		.cfi_offset 1, -4
 574              		.loc 1 101 2
 575 000a 97000000 		call	mpu6500_getAccel
 575      E7800000 
 576              	.LVL69:
 102:lib/mpu/src/mpu6500_driver.c **** 	mpu6500_getGyro(pGyro);
 577              		.loc 1 102 2 is_stmt 1
 578 0012 2285     		mv	a0,s0
 579 0014 97000000 		call	mpu6500_getGyro
 579      E7800000 
 580              	.LVL70:
 103:lib/mpu/src/mpu6500_driver.c **** 	return 1;
 581              		.loc 1 103 2
 104:lib/mpu/src/mpu6500_driver.c **** }...
 582              		.loc 1 104 1 is_stmt 0
 583 001c B240     		lw	ra,12(sp)
 584              		.cfi_restore 1
 585 001e 2244     		lw	s0,8(sp)
 586              		.cfi_restore 8
 587              	.LVL71:
 588 0020 0545     		li	a0,1
 589 0022 4101     		addi	sp,sp,16
 590              	.LCFI10:
 591              		.cfi_def_cfa_offset 0
 592 0024 8280     		jr	ra
 593              		.cfi_endproc
 594              	.LFE9:
 596              		.comm	cb,16,4
 597              		.text
 598              	.Letext0:
 599              		.file 2 "/Users/gulda/Documents/risc-v/toolchain-gd32v-v200-osx/compiler/riscv64-unknown-elf/inclu
 600              		.file 3 "/Users/gulda/Documents/risc-v/toolchain-gd32v-v200-osx/compiler/lib/gcc/riscv64-unknown-e
 601              		.file 4 "/Users/gulda/Documents/risc-v/toolchain-gd32v-v200-osx/compiler/riscv64-unknown-elf/inclu
 602              		.file 5 "/Users/gulda/Documents/risc-v/toolchain-gd32v-v200-osx/compiler/riscv64-unknown-elf/inclu
 603              		.file 6 "/Users/gulda/Documents/risc-v/toolchain-gd32v-v200-osx/compiler/riscv64-unknown-elf/inclu
 604              		.file 7 "/Users/gulda/Documents/risc-v/toolchain-gd32v-v200-osx/compiler/riscv64-unknown-elf/inclu
 605              		.file 8 "lib/mpu/include/mpu6500_driver.h"
GAS LISTING /var/folders/yy/83vjwp7d53j56dbzj8_jnpcr0000gn/T//ccGymk7Z.s 			page 15


DEFINED SYMBOLS
                            *ABS*:0000000000000000 mpu6500_driver.c
/var/folders/yy/83vjwp7d53j56dbzj8_jnpcr0000gn/T//ccGymk7Z.s:13     .text.read_mpu:0000000000000000 read_mpu
/var/folders/yy/83vjwp7d53j56dbzj8_jnpcr0000gn/T//ccGymk7Z.s:17     .text.read_mpu:0000000000000000 .L0 
/var/folders/yy/83vjwp7d53j56dbzj8_jnpcr0000gn/T//ccGymk7Z.s:19     .text.read_mpu:0000000000000000 .L0 
                            *COM*:0000000000000010 cb
/var/folders/yy/83vjwp7d53j56dbzj8_jnpcr0000gn/T//ccGymk7Z.s:20     .text.read_mpu:0000000000000000 .L0 
/var/folders/yy/83vjwp7d53j56dbzj8_jnpcr0000gn/T//ccGymk7Z.s:33     .text.read_mpu:000000000000001a .L0 
/var/folders/yy/83vjwp7d53j56dbzj8_jnpcr0000gn/T//ccGymk7Z.s:40     .text.write_mpu:0000000000000000 write_mpu
/var/folders/yy/83vjwp7d53j56dbzj8_jnpcr0000gn/T//ccGymk7Z.s:43     .text.write_mpu:0000000000000000 .L0 
/var/folders/yy/83vjwp7d53j56dbzj8_jnpcr0000gn/T//ccGymk7Z.s:45     .text.write_mpu:0000000000000000 .L0 
/var/folders/yy/83vjwp7d53j56dbzj8_jnpcr0000gn/T//ccGymk7Z.s:46     .text.write_mpu:0000000000000000 .L0 
/var/folders/yy/83vjwp7d53j56dbzj8_jnpcr0000gn/T//ccGymk7Z.s:59     .text.write_mpu:000000000000001a .L0 
/var/folders/yy/83vjwp7d53j56dbzj8_jnpcr0000gn/T//ccGymk7Z.s:66     .text.flip_bytes:0000000000000000 flip_bytes
/var/folders/yy/83vjwp7d53j56dbzj8_jnpcr0000gn/T//ccGymk7Z.s:69     .text.flip_bytes:0000000000000000 .L0 
/var/folders/yy/83vjwp7d53j56dbzj8_jnpcr0000gn/T//ccGymk7Z.s:71     .text.flip_bytes:0000000000000000 .L0 
/var/folders/yy/83vjwp7d53j56dbzj8_jnpcr0000gn/T//ccGymk7Z.s:72     .text.flip_bytes:0000000000000000 .L0 
/var/folders/yy/83vjwp7d53j56dbzj8_jnpcr0000gn/T//ccGymk7Z.s:73     .text.flip_bytes:0000000000000000 .L0 
/var/folders/yy/83vjwp7d53j56dbzj8_jnpcr0000gn/T//ccGymk7Z.s:80     .text.flip_bytes:000000000000000c .L0 
/var/folders/yy/83vjwp7d53j56dbzj8_jnpcr0000gn/T//ccGymk7Z.s:82     .text.flip_bytes:000000000000000e .L0 
/var/folders/yy/83vjwp7d53j56dbzj8_jnpcr0000gn/T//ccGymk7Z.s:85     .text.flip_bytes:000000000000000e .L0 
/var/folders/yy/83vjwp7d53j56dbzj8_jnpcr0000gn/T//ccGymk7Z.s:86     .text.flip_bytes:000000000000000e .L0 
/var/folders/yy/83vjwp7d53j56dbzj8_jnpcr0000gn/T//ccGymk7Z.s:87     .text.flip_bytes:000000000000000e .L0 
/var/folders/yy/83vjwp7d53j56dbzj8_jnpcr0000gn/T//ccGymk7Z.s:88     .text.flip_bytes:000000000000000e .L0 
/var/folders/yy/83vjwp7d53j56dbzj8_jnpcr0000gn/T//ccGymk7Z.s:89     .text.flip_bytes:000000000000000e .L0 
/var/folders/yy/83vjwp7d53j56dbzj8_jnpcr0000gn/T//ccGymk7Z.s:93     .text.flip_bytes:0000000000000014 .L0 
/var/folders/yy/83vjwp7d53j56dbzj8_jnpcr0000gn/T//ccGymk7Z.s:96     .text.flip_bytes:0000000000000016 .L0 
/var/folders/yy/83vjwp7d53j56dbzj8_jnpcr0000gn/T//ccGymk7Z.s:103    .text.mpu6500_init:0000000000000000 mpu6500_init
/var/folders/yy/83vjwp7d53j56dbzj8_jnpcr0000gn/T//ccGymk7Z.s:106    .text.mpu6500_init:0000000000000000 .L0 
/var/folders/yy/83vjwp7d53j56dbzj8_jnpcr0000gn/T//ccGymk7Z.s:108    .text.mpu6500_init:0000000000000000 .L0 
/var/folders/yy/83vjwp7d53j56dbzj8_jnpcr0000gn/T//ccGymk7Z.s:109    .text.mpu6500_init:0000000000000000 .L0 
/var/folders/yy/83vjwp7d53j56dbzj8_jnpcr0000gn/T//ccGymk7Z.s:110    .text.mpu6500_init:0000000000000000 .L0 
/var/folders/yy/83vjwp7d53j56dbzj8_jnpcr0000gn/T//ccGymk7Z.s:111    .text.mpu6500_init:0000000000000000 .L0 
/var/folders/yy/83vjwp7d53j56dbzj8_jnpcr0000gn/T//ccGymk7Z.s:112    .text.mpu6500_init:0000000000000000 .L0 
/var/folders/yy/83vjwp7d53j56dbzj8_jnpcr0000gn/T//ccGymk7Z.s:114    .text.mpu6500_init:0000000000000002 .L0 
/var/folders/yy/83vjwp7d53j56dbzj8_jnpcr0000gn/T//ccGymk7Z.s:116    .text.mpu6500_init:0000000000000004 .L0 
/var/folders/yy/83vjwp7d53j56dbzj8_jnpcr0000gn/T//ccGymk7Z.s:118    .text.mpu6500_init:0000000000000004 .L0 
/var/folders/yy/83vjwp7d53j56dbzj8_jnpcr0000gn/T//ccGymk7Z.s:121    .text.mpu6500_init:000000000000000c .L0 
/var/folders/yy/83vjwp7d53j56dbzj8_jnpcr0000gn/T//ccGymk7Z.s:122    .text.mpu6500_init:000000000000000e .L0 
/var/folders/yy/83vjwp7d53j56dbzj8_jnpcr0000gn/T//ccGymk7Z.s:124    .text.mpu6500_init:000000000000000e .L0 
/var/folders/yy/83vjwp7d53j56dbzj8_jnpcr0000gn/T//ccGymk7Z.s:126    .text.mpu6500_init:0000000000000010 .L0 
/var/folders/yy/83vjwp7d53j56dbzj8_jnpcr0000gn/T//ccGymk7Z.s:127    .text.mpu6500_init:0000000000000010 .L0 
/var/folders/yy/83vjwp7d53j56dbzj8_jnpcr0000gn/T//ccGymk7Z.s:129    .text.mpu6500_init:0000000000000012 .L0 
/var/folders/yy/83vjwp7d53j56dbzj8_jnpcr0000gn/T//ccGymk7Z.s:130    .text.mpu6500_init:0000000000000012 .L0 
/var/folders/yy/83vjwp7d53j56dbzj8_jnpcr0000gn/T//ccGymk7Z.s:132    .text.mpu6500_init:0000000000000014 .L0 
/var/folders/yy/83vjwp7d53j56dbzj8_jnpcr0000gn/T//ccGymk7Z.s:133    .text.mpu6500_init:0000000000000014 .L0 
/var/folders/yy/83vjwp7d53j56dbzj8_jnpcr0000gn/T//ccGymk7Z.s:140    .text.mpu6500_init:000000000000001c .L0 
/var/folders/yy/83vjwp7d53j56dbzj8_jnpcr0000gn/T//ccGymk7Z.s:142    .text.mpu6500_init:000000000000001e .L0 
/var/folders/yy/83vjwp7d53j56dbzj8_jnpcr0000gn/T//ccGymk7Z.s:145    .text.mpu6500_init:0000000000000026 .L0 
/var/folders/yy/83vjwp7d53j56dbzj8_jnpcr0000gn/T//ccGymk7Z.s:146    .text.mpu6500_init:0000000000000026 .L0 
/var/folders/yy/83vjwp7d53j56dbzj8_jnpcr0000gn/T//ccGymk7Z.s:149    .text.mpu6500_init:000000000000002c .L0 
/var/folders/yy/83vjwp7d53j56dbzj8_jnpcr0000gn/T//ccGymk7Z.s:151    .text.mpu6500_init:000000000000002e .L0 
/var/folders/yy/83vjwp7d53j56dbzj8_jnpcr0000gn/T//ccGymk7Z.s:153    .text.mpu6500_init:0000000000000032 .L0 
/var/folders/yy/83vjwp7d53j56dbzj8_jnpcr0000gn/T//ccGymk7Z.s:155    .text.mpu6500_init:0000000000000036 .L0 
/var/folders/yy/83vjwp7d53j56dbzj8_jnpcr0000gn/T//ccGymk7Z.s:159    .text.mpu6500_init:000000000000003e .L0 
/var/folders/yy/83vjwp7d53j56dbzj8_jnpcr0000gn/T//ccGymk7Z.s:162    .text.mpu6500_init:0000000000000046 .L0 
/var/folders/yy/83vjwp7d53j56dbzj8_jnpcr0000gn/T//ccGymk7Z.s:163    .text.mpu6500_init:0000000000000046 .L0 
GAS LISTING /var/folders/yy/83vjwp7d53j56dbzj8_jnpcr0000gn/T//ccGymk7Z.s 			page 16


/var/folders/yy/83vjwp7d53j56dbzj8_jnpcr0000gn/T//ccGymk7Z.s:166    .text.mpu6500_init:000000000000004e .L0 
/var/folders/yy/83vjwp7d53j56dbzj8_jnpcr0000gn/T//ccGymk7Z.s:172    .text.mpu6500_init:0000000000000056 .L0 
/var/folders/yy/83vjwp7d53j56dbzj8_jnpcr0000gn/T//ccGymk7Z.s:173    .text.mpu6500_init:0000000000000056 .L0 
/var/folders/yy/83vjwp7d53j56dbzj8_jnpcr0000gn/T//ccGymk7Z.s:176    .text.mpu6500_init:000000000000005e .L0 
/var/folders/yy/83vjwp7d53j56dbzj8_jnpcr0000gn/T//ccGymk7Z.s:179    .text.mpu6500_init:0000000000000064 .L0 
/var/folders/yy/83vjwp7d53j56dbzj8_jnpcr0000gn/T//ccGymk7Z.s:181    .text.mpu6500_init:0000000000000066 .L0 
/var/folders/yy/83vjwp7d53j56dbzj8_jnpcr0000gn/T//ccGymk7Z.s:184    .text.mpu6500_init:0000000000000068 .L0 
/var/folders/yy/83vjwp7d53j56dbzj8_jnpcr0000gn/T//ccGymk7Z.s:185    .text.mpu6500_init:0000000000000068 .L0 
/var/folders/yy/83vjwp7d53j56dbzj8_jnpcr0000gn/T//ccGymk7Z.s:187    .text.mpu6500_init:000000000000006a .L0 
/var/folders/yy/83vjwp7d53j56dbzj8_jnpcr0000gn/T//ccGymk7Z.s:191    .text.mpu6500_init:0000000000000072 .L0 
/var/folders/yy/83vjwp7d53j56dbzj8_jnpcr0000gn/T//ccGymk7Z.s:193    .text.mpu6500_init:0000000000000076 .L0 
/var/folders/yy/83vjwp7d53j56dbzj8_jnpcr0000gn/T//ccGymk7Z.s:196    .text.mpu6500_init:000000000000007e .L0 
/var/folders/yy/83vjwp7d53j56dbzj8_jnpcr0000gn/T//ccGymk7Z.s:197    .text.mpu6500_init:000000000000007e .L0 
/var/folders/yy/83vjwp7d53j56dbzj8_jnpcr0000gn/T//ccGymk7Z.s:201    .text.mpu6500_init:0000000000000084 .L0 
/var/folders/yy/83vjwp7d53j56dbzj8_jnpcr0000gn/T//ccGymk7Z.s:203    .text.mpu6500_init:0000000000000088 .L0 
/var/folders/yy/83vjwp7d53j56dbzj8_jnpcr0000gn/T//ccGymk7Z.s:206    .text.mpu6500_init:0000000000000090 .L0 
/var/folders/yy/83vjwp7d53j56dbzj8_jnpcr0000gn/T//ccGymk7Z.s:207    .text.mpu6500_init:0000000000000090 .L0 
/var/folders/yy/83vjwp7d53j56dbzj8_jnpcr0000gn/T//ccGymk7Z.s:211    .text.mpu6500_init:0000000000000096 .L0 
/var/folders/yy/83vjwp7d53j56dbzj8_jnpcr0000gn/T//ccGymk7Z.s:213    .text.mpu6500_init:000000000000009a .L0 
/var/folders/yy/83vjwp7d53j56dbzj8_jnpcr0000gn/T//ccGymk7Z.s:216    .text.mpu6500_init:00000000000000a2 .L0 
/var/folders/yy/83vjwp7d53j56dbzj8_jnpcr0000gn/T//ccGymk7Z.s:217    .text.mpu6500_init:00000000000000a2 .L0 
/var/folders/yy/83vjwp7d53j56dbzj8_jnpcr0000gn/T//ccGymk7Z.s:219    .text.mpu6500_init:00000000000000a4 .L0 
/var/folders/yy/83vjwp7d53j56dbzj8_jnpcr0000gn/T//ccGymk7Z.s:223    .text.mpu6500_init:00000000000000aa .L0 
/var/folders/yy/83vjwp7d53j56dbzj8_jnpcr0000gn/T//ccGymk7Z.s:225    .text.mpu6500_init:00000000000000ae .L0 
/var/folders/yy/83vjwp7d53j56dbzj8_jnpcr0000gn/T//ccGymk7Z.s:228    .text.mpu6500_init:00000000000000b6 .L0 
/var/folders/yy/83vjwp7d53j56dbzj8_jnpcr0000gn/T//ccGymk7Z.s:229    .text.mpu6500_init:00000000000000b6 .L0 
/var/folders/yy/83vjwp7d53j56dbzj8_jnpcr0000gn/T//ccGymk7Z.s:231    .text.mpu6500_init:00000000000000b8 .L0 
/var/folders/yy/83vjwp7d53j56dbzj8_jnpcr0000gn/T//ccGymk7Z.s:235    .text.mpu6500_init:00000000000000be .L0 
/var/folders/yy/83vjwp7d53j56dbzj8_jnpcr0000gn/T//ccGymk7Z.s:237    .text.mpu6500_init:00000000000000c2 .L0 
/var/folders/yy/83vjwp7d53j56dbzj8_jnpcr0000gn/T//ccGymk7Z.s:240    .text.mpu6500_init:00000000000000ca .L0 
/var/folders/yy/83vjwp7d53j56dbzj8_jnpcr0000gn/T//ccGymk7Z.s:241    .text.mpu6500_init:00000000000000ca .L0 
/var/folders/yy/83vjwp7d53j56dbzj8_jnpcr0000gn/T//ccGymk7Z.s:245    .text.mpu6500_init:00000000000000d0 .L0 
/var/folders/yy/83vjwp7d53j56dbzj8_jnpcr0000gn/T//ccGymk7Z.s:247    .text.mpu6500_init:00000000000000d4 .L0 
/var/folders/yy/83vjwp7d53j56dbzj8_jnpcr0000gn/T//ccGymk7Z.s:250    .text.mpu6500_init:00000000000000dc .L0 
/var/folders/yy/83vjwp7d53j56dbzj8_jnpcr0000gn/T//ccGymk7Z.s:251    .text.mpu6500_init:00000000000000dc .L0 
/var/folders/yy/83vjwp7d53j56dbzj8_jnpcr0000gn/T//ccGymk7Z.s:253    .text.mpu6500_init:00000000000000e0 .L0 
/var/folders/yy/83vjwp7d53j56dbzj8_jnpcr0000gn/T//ccGymk7Z.s:257    .text.mpu6500_init:00000000000000e8 .L0 
/var/folders/yy/83vjwp7d53j56dbzj8_jnpcr0000gn/T//ccGymk7Z.s:259    .text.mpu6500_init:00000000000000ec .L0 
/var/folders/yy/83vjwp7d53j56dbzj8_jnpcr0000gn/T//ccGymk7Z.s:262    .text.mpu6500_init:00000000000000f4 .L0 
/var/folders/yy/83vjwp7d53j56dbzj8_jnpcr0000gn/T//ccGymk7Z.s:263    .text.mpu6500_init:00000000000000f4 .L0 
/var/folders/yy/83vjwp7d53j56dbzj8_jnpcr0000gn/T//ccGymk7Z.s:265    .text.mpu6500_init:00000000000000f6 .L0 
/var/folders/yy/83vjwp7d53j56dbzj8_jnpcr0000gn/T//ccGymk7Z.s:269    .text.mpu6500_init:00000000000000fe .L0 
/var/folders/yy/83vjwp7d53j56dbzj8_jnpcr0000gn/T//ccGymk7Z.s:271    .text.mpu6500_init:0000000000000102 .L0 
/var/folders/yy/83vjwp7d53j56dbzj8_jnpcr0000gn/T//ccGymk7Z.s:274    .text.mpu6500_init:000000000000010a .L0 
/var/folders/yy/83vjwp7d53j56dbzj8_jnpcr0000gn/T//ccGymk7Z.s:275    .text.mpu6500_init:000000000000010a .L0 
/var/folders/yy/83vjwp7d53j56dbzj8_jnpcr0000gn/T//ccGymk7Z.s:278    .text.mpu6500_init:000000000000010c .L0 
/var/folders/yy/83vjwp7d53j56dbzj8_jnpcr0000gn/T//ccGymk7Z.s:279    .text.mpu6500_init:000000000000010e .L0 
/var/folders/yy/83vjwp7d53j56dbzj8_jnpcr0000gn/T//ccGymk7Z.s:280    .text.mpu6500_init:000000000000010e .L0 
/var/folders/yy/83vjwp7d53j56dbzj8_jnpcr0000gn/T//ccGymk7Z.s:282    .text.mpu6500_init:0000000000000110 .L0 
/var/folders/yy/83vjwp7d53j56dbzj8_jnpcr0000gn/T//ccGymk7Z.s:285    .text.mpu6500_init:0000000000000112 .L0 
/var/folders/yy/83vjwp7d53j56dbzj8_jnpcr0000gn/T//ccGymk7Z.s:289    .text.mpu6500_init:0000000000000114 .L0 
/var/folders/yy/83vjwp7d53j56dbzj8_jnpcr0000gn/T//ccGymk7Z.s:291    .text.mpu6500_init:0000000000000114 .L0 
/var/folders/yy/83vjwp7d53j56dbzj8_jnpcr0000gn/T//ccGymk7Z.s:297    .text.mpu6500_init:0000000000000126 .L0 
/var/folders/yy/83vjwp7d53j56dbzj8_jnpcr0000gn/T//ccGymk7Z.s:305    .text.mpu6500_getAccel:0000000000000000 mpu6500_getAccel
/var/folders/yy/83vjwp7d53j56dbzj8_jnpcr0000gn/T//ccGymk7Z.s:308    .text.mpu6500_getAccel:0000000000000000 .L0 
/var/folders/yy/83vjwp7d53j56dbzj8_jnpcr0000gn/T//ccGymk7Z.s:310    .text.mpu6500_getAccel:0000000000000000 .L0 
/var/folders/yy/83vjwp7d53j56dbzj8_jnpcr0000gn/T//ccGymk7Z.s:311    .text.mpu6500_getAccel:0000000000000000 .L0 
GAS LISTING /var/folders/yy/83vjwp7d53j56dbzj8_jnpcr0000gn/T//ccGymk7Z.s 			page 17


/var/folders/yy/83vjwp7d53j56dbzj8_jnpcr0000gn/T//ccGymk7Z.s:312    .text.mpu6500_getAccel:0000000000000000 .L0 
/var/folders/yy/83vjwp7d53j56dbzj8_jnpcr0000gn/T//ccGymk7Z.s:313    .text.mpu6500_getAccel:0000000000000000 .L0 
/var/folders/yy/83vjwp7d53j56dbzj8_jnpcr0000gn/T//ccGymk7Z.s:315    .text.mpu6500_getAccel:0000000000000002 .L0 
/var/folders/yy/83vjwp7d53j56dbzj8_jnpcr0000gn/T//ccGymk7Z.s:318    .text.mpu6500_getAccel:0000000000000004 .L0 
/var/folders/yy/83vjwp7d53j56dbzj8_jnpcr0000gn/T//ccGymk7Z.s:319    .text.mpu6500_getAccel:0000000000000006 .L0 
/var/folders/yy/83vjwp7d53j56dbzj8_jnpcr0000gn/T//ccGymk7Z.s:321    .text.mpu6500_getAccel:0000000000000006 .L0 
/var/folders/yy/83vjwp7d53j56dbzj8_jnpcr0000gn/T//ccGymk7Z.s:323    .text.mpu6500_getAccel:0000000000000008 .L0 
/var/folders/yy/83vjwp7d53j56dbzj8_jnpcr0000gn/T//ccGymk7Z.s:327    .text.mpu6500_getAccel:000000000000000e .L0 
/var/folders/yy/83vjwp7d53j56dbzj8_jnpcr0000gn/T//ccGymk7Z.s:328    .text.mpu6500_getAccel:0000000000000010 .L0 
/var/folders/yy/83vjwp7d53j56dbzj8_jnpcr0000gn/T//ccGymk7Z.s:330    .text.mpu6500_getAccel:0000000000000010 .L0 
/var/folders/yy/83vjwp7d53j56dbzj8_jnpcr0000gn/T//ccGymk7Z.s:333    .text.mpu6500_getAccel:0000000000000018 .L0 
/var/folders/yy/83vjwp7d53j56dbzj8_jnpcr0000gn/T//ccGymk7Z.s:334    .text.mpu6500_getAccel:0000000000000018 .L0 
/var/folders/yy/83vjwp7d53j56dbzj8_jnpcr0000gn/T//ccGymk7Z.s:339    .text.mpu6500_getAccel:000000000000001c .L0 
/var/folders/yy/83vjwp7d53j56dbzj8_jnpcr0000gn/T//ccGymk7Z.s:340    .text.mpu6500_getAccel:000000000000001c .L0 
/var/folders/yy/83vjwp7d53j56dbzj8_jnpcr0000gn/T//ccGymk7Z.s:341    .text.mpu6500_getAccel:000000000000001c .L0 
/var/folders/yy/83vjwp7d53j56dbzj8_jnpcr0000gn/T//ccGymk7Z.s:342    .text.mpu6500_getAccel:000000000000001c .L0 
/var/folders/yy/83vjwp7d53j56dbzj8_jnpcr0000gn/T//ccGymk7Z.s:345    .text.mpu6500_getAccel:0000000000000020 .L0 
/var/folders/yy/83vjwp7d53j56dbzj8_jnpcr0000gn/T//ccGymk7Z.s:346    .text.mpu6500_getAccel:0000000000000020 .L0 
/var/folders/yy/83vjwp7d53j56dbzj8_jnpcr0000gn/T//ccGymk7Z.s:353    .text.mpu6500_getAccel:0000000000000026 .L0 
/var/folders/yy/83vjwp7d53j56dbzj8_jnpcr0000gn/T//ccGymk7Z.s:354    .text.mpu6500_getAccel:0000000000000026 .L0 
/var/folders/yy/83vjwp7d53j56dbzj8_jnpcr0000gn/T//ccGymk7Z.s:358    .text.mpu6500_getAccel:0000000000000032 .L0 
/var/folders/yy/83vjwp7d53j56dbzj8_jnpcr0000gn/T//ccGymk7Z.s:360    .text.mpu6500_getAccel:0000000000000036 .L0 
/var/folders/yy/83vjwp7d53j56dbzj8_jnpcr0000gn/T//ccGymk7Z.s:365    .text.mpu6500_getAccel:0000000000000038 .L0 
/var/folders/yy/83vjwp7d53j56dbzj8_jnpcr0000gn/T//ccGymk7Z.s:366    .text.mpu6500_getAccel:0000000000000038 .L0 
/var/folders/yy/83vjwp7d53j56dbzj8_jnpcr0000gn/T//ccGymk7Z.s:367    .text.mpu6500_getAccel:0000000000000038 .L0 
/var/folders/yy/83vjwp7d53j56dbzj8_jnpcr0000gn/T//ccGymk7Z.s:368    .text.mpu6500_getAccel:0000000000000038 .L0 
/var/folders/yy/83vjwp7d53j56dbzj8_jnpcr0000gn/T//ccGymk7Z.s:369    .text.mpu6500_getAccel:0000000000000038 .L0 
/var/folders/yy/83vjwp7d53j56dbzj8_jnpcr0000gn/T//ccGymk7Z.s:371    .text.mpu6500_getAccel:000000000000003c .L0 
/var/folders/yy/83vjwp7d53j56dbzj8_jnpcr0000gn/T//ccGymk7Z.s:372    .text.mpu6500_getAccel:000000000000003c .L0 
/var/folders/yy/83vjwp7d53j56dbzj8_jnpcr0000gn/T//ccGymk7Z.s:379    .text.mpu6500_getAccel:0000000000000042 .L0 
/var/folders/yy/83vjwp7d53j56dbzj8_jnpcr0000gn/T//ccGymk7Z.s:380    .text.mpu6500_getAccel:0000000000000042 .L0 
/var/folders/yy/83vjwp7d53j56dbzj8_jnpcr0000gn/T//ccGymk7Z.s:384    .text.mpu6500_getAccel:000000000000004e .L0 
/var/folders/yy/83vjwp7d53j56dbzj8_jnpcr0000gn/T//ccGymk7Z.s:386    .text.mpu6500_getAccel:0000000000000052 .L0 
/var/folders/yy/83vjwp7d53j56dbzj8_jnpcr0000gn/T//ccGymk7Z.s:391    .text.mpu6500_getAccel:0000000000000054 .L0 
/var/folders/yy/83vjwp7d53j56dbzj8_jnpcr0000gn/T//ccGymk7Z.s:392    .text.mpu6500_getAccel:0000000000000054 .L0 
/var/folders/yy/83vjwp7d53j56dbzj8_jnpcr0000gn/T//ccGymk7Z.s:393    .text.mpu6500_getAccel:0000000000000054 .L0 
/var/folders/yy/83vjwp7d53j56dbzj8_jnpcr0000gn/T//ccGymk7Z.s:394    .text.mpu6500_getAccel:0000000000000054 .L0 
/var/folders/yy/83vjwp7d53j56dbzj8_jnpcr0000gn/T//ccGymk7Z.s:395    .text.mpu6500_getAccel:0000000000000054 .L0 
/var/folders/yy/83vjwp7d53j56dbzj8_jnpcr0000gn/T//ccGymk7Z.s:397    .text.mpu6500_getAccel:0000000000000058 .L0 
/var/folders/yy/83vjwp7d53j56dbzj8_jnpcr0000gn/T//ccGymk7Z.s:398    .text.mpu6500_getAccel:0000000000000058 .L0 
/var/folders/yy/83vjwp7d53j56dbzj8_jnpcr0000gn/T//ccGymk7Z.s:405    .text.mpu6500_getAccel:000000000000005e .L0 
/var/folders/yy/83vjwp7d53j56dbzj8_jnpcr0000gn/T//ccGymk7Z.s:406    .text.mpu6500_getAccel:000000000000005e .L0 
/var/folders/yy/83vjwp7d53j56dbzj8_jnpcr0000gn/T//ccGymk7Z.s:411    .text.mpu6500_getAccel:000000000000006c .L0 
/var/folders/yy/83vjwp7d53j56dbzj8_jnpcr0000gn/T//ccGymk7Z.s:412    .text.mpu6500_getAccel:000000000000006c .L0 
/var/folders/yy/83vjwp7d53j56dbzj8_jnpcr0000gn/T//ccGymk7Z.s:413    .text.mpu6500_getAccel:000000000000006e .L0 
/var/folders/yy/83vjwp7d53j56dbzj8_jnpcr0000gn/T//ccGymk7Z.s:415    .text.mpu6500_getAccel:0000000000000070 .L0 
/var/folders/yy/83vjwp7d53j56dbzj8_jnpcr0000gn/T//ccGymk7Z.s:420    .text.mpu6500_getAccel:0000000000000074 .L0 
/var/folders/yy/83vjwp7d53j56dbzj8_jnpcr0000gn/T//ccGymk7Z.s:423    .text.mpu6500_getAccel:0000000000000076 .L0 
/var/folders/yy/83vjwp7d53j56dbzj8_jnpcr0000gn/T//ccGymk7Z.s:430    .text.mpu6500_getGyro:0000000000000000 mpu6500_getGyro
/var/folders/yy/83vjwp7d53j56dbzj8_jnpcr0000gn/T//ccGymk7Z.s:433    .text.mpu6500_getGyro:0000000000000000 .L0 
/var/folders/yy/83vjwp7d53j56dbzj8_jnpcr0000gn/T//ccGymk7Z.s:435    .text.mpu6500_getGyro:0000000000000000 .L0 
/var/folders/yy/83vjwp7d53j56dbzj8_jnpcr0000gn/T//ccGymk7Z.s:436    .text.mpu6500_getGyro:0000000000000000 .L0 
/var/folders/yy/83vjwp7d53j56dbzj8_jnpcr0000gn/T//ccGymk7Z.s:437    .text.mpu6500_getGyro:0000000000000000 .L0 
/var/folders/yy/83vjwp7d53j56dbzj8_jnpcr0000gn/T//ccGymk7Z.s:438    .text.mpu6500_getGyro:0000000000000000 .L0 
/var/folders/yy/83vjwp7d53j56dbzj8_jnpcr0000gn/T//ccGymk7Z.s:440    .text.mpu6500_getGyro:0000000000000002 .L0 
/var/folders/yy/83vjwp7d53j56dbzj8_jnpcr0000gn/T//ccGymk7Z.s:443    .text.mpu6500_getGyro:0000000000000004 .L0 
/var/folders/yy/83vjwp7d53j56dbzj8_jnpcr0000gn/T//ccGymk7Z.s:444    .text.mpu6500_getGyro:0000000000000006 .L0 
GAS LISTING /var/folders/yy/83vjwp7d53j56dbzj8_jnpcr0000gn/T//ccGymk7Z.s 			page 18


/var/folders/yy/83vjwp7d53j56dbzj8_jnpcr0000gn/T//ccGymk7Z.s:446    .text.mpu6500_getGyro:0000000000000006 .L0 
/var/folders/yy/83vjwp7d53j56dbzj8_jnpcr0000gn/T//ccGymk7Z.s:448    .text.mpu6500_getGyro:0000000000000008 .L0 
/var/folders/yy/83vjwp7d53j56dbzj8_jnpcr0000gn/T//ccGymk7Z.s:452    .text.mpu6500_getGyro:000000000000000e .L0 
/var/folders/yy/83vjwp7d53j56dbzj8_jnpcr0000gn/T//ccGymk7Z.s:453    .text.mpu6500_getGyro:0000000000000010 .L0 
/var/folders/yy/83vjwp7d53j56dbzj8_jnpcr0000gn/T//ccGymk7Z.s:455    .text.mpu6500_getGyro:0000000000000010 .L0 
/var/folders/yy/83vjwp7d53j56dbzj8_jnpcr0000gn/T//ccGymk7Z.s:458    .text.mpu6500_getGyro:0000000000000018 .L0 
/var/folders/yy/83vjwp7d53j56dbzj8_jnpcr0000gn/T//ccGymk7Z.s:459    .text.mpu6500_getGyro:0000000000000018 .L0 
/var/folders/yy/83vjwp7d53j56dbzj8_jnpcr0000gn/T//ccGymk7Z.s:464    .text.mpu6500_getGyro:000000000000001c .L0 
/var/folders/yy/83vjwp7d53j56dbzj8_jnpcr0000gn/T//ccGymk7Z.s:465    .text.mpu6500_getGyro:000000000000001c .L0 
/var/folders/yy/83vjwp7d53j56dbzj8_jnpcr0000gn/T//ccGymk7Z.s:466    .text.mpu6500_getGyro:000000000000001c .L0 
/var/folders/yy/83vjwp7d53j56dbzj8_jnpcr0000gn/T//ccGymk7Z.s:467    .text.mpu6500_getGyro:000000000000001c .L0 
/var/folders/yy/83vjwp7d53j56dbzj8_jnpcr0000gn/T//ccGymk7Z.s:470    .text.mpu6500_getGyro:0000000000000020 .L0 
/var/folders/yy/83vjwp7d53j56dbzj8_jnpcr0000gn/T//ccGymk7Z.s:471    .text.mpu6500_getGyro:0000000000000020 .L0 
/var/folders/yy/83vjwp7d53j56dbzj8_jnpcr0000gn/T//ccGymk7Z.s:478    .text.mpu6500_getGyro:0000000000000026 .L0 
/var/folders/yy/83vjwp7d53j56dbzj8_jnpcr0000gn/T//ccGymk7Z.s:479    .text.mpu6500_getGyro:0000000000000026 .L0 
/var/folders/yy/83vjwp7d53j56dbzj8_jnpcr0000gn/T//ccGymk7Z.s:483    .text.mpu6500_getGyro:0000000000000032 .L0 
/var/folders/yy/83vjwp7d53j56dbzj8_jnpcr0000gn/T//ccGymk7Z.s:485    .text.mpu6500_getGyro:0000000000000036 .L0 
/var/folders/yy/83vjwp7d53j56dbzj8_jnpcr0000gn/T//ccGymk7Z.s:490    .text.mpu6500_getGyro:0000000000000038 .L0 
/var/folders/yy/83vjwp7d53j56dbzj8_jnpcr0000gn/T//ccGymk7Z.s:491    .text.mpu6500_getGyro:0000000000000038 .L0 
/var/folders/yy/83vjwp7d53j56dbzj8_jnpcr0000gn/T//ccGymk7Z.s:492    .text.mpu6500_getGyro:0000000000000038 .L0 
/var/folders/yy/83vjwp7d53j56dbzj8_jnpcr0000gn/T//ccGymk7Z.s:493    .text.mpu6500_getGyro:0000000000000038 .L0 
/var/folders/yy/83vjwp7d53j56dbzj8_jnpcr0000gn/T//ccGymk7Z.s:494    .text.mpu6500_getGyro:0000000000000038 .L0 
/var/folders/yy/83vjwp7d53j56dbzj8_jnpcr0000gn/T//ccGymk7Z.s:496    .text.mpu6500_getGyro:000000000000003c .L0 
/var/folders/yy/83vjwp7d53j56dbzj8_jnpcr0000gn/T//ccGymk7Z.s:497    .text.mpu6500_getGyro:000000000000003c .L0 
/var/folders/yy/83vjwp7d53j56dbzj8_jnpcr0000gn/T//ccGymk7Z.s:504    .text.mpu6500_getGyro:0000000000000042 .L0 
/var/folders/yy/83vjwp7d53j56dbzj8_jnpcr0000gn/T//ccGymk7Z.s:505    .text.mpu6500_getGyro:0000000000000042 .L0 
/var/folders/yy/83vjwp7d53j56dbzj8_jnpcr0000gn/T//ccGymk7Z.s:509    .text.mpu6500_getGyro:000000000000004e .L0 
/var/folders/yy/83vjwp7d53j56dbzj8_jnpcr0000gn/T//ccGymk7Z.s:511    .text.mpu6500_getGyro:0000000000000052 .L0 
/var/folders/yy/83vjwp7d53j56dbzj8_jnpcr0000gn/T//ccGymk7Z.s:516    .text.mpu6500_getGyro:0000000000000054 .L0 
/var/folders/yy/83vjwp7d53j56dbzj8_jnpcr0000gn/T//ccGymk7Z.s:517    .text.mpu6500_getGyro:0000000000000054 .L0 
/var/folders/yy/83vjwp7d53j56dbzj8_jnpcr0000gn/T//ccGymk7Z.s:518    .text.mpu6500_getGyro:0000000000000054 .L0 
/var/folders/yy/83vjwp7d53j56dbzj8_jnpcr0000gn/T//ccGymk7Z.s:519    .text.mpu6500_getGyro:0000000000000054 .L0 
/var/folders/yy/83vjwp7d53j56dbzj8_jnpcr0000gn/T//ccGymk7Z.s:520    .text.mpu6500_getGyro:0000000000000054 .L0 
/var/folders/yy/83vjwp7d53j56dbzj8_jnpcr0000gn/T//ccGymk7Z.s:522    .text.mpu6500_getGyro:0000000000000058 .L0 
/var/folders/yy/83vjwp7d53j56dbzj8_jnpcr0000gn/T//ccGymk7Z.s:523    .text.mpu6500_getGyro:0000000000000058 .L0 
/var/folders/yy/83vjwp7d53j56dbzj8_jnpcr0000gn/T//ccGymk7Z.s:530    .text.mpu6500_getGyro:000000000000005e .L0 
/var/folders/yy/83vjwp7d53j56dbzj8_jnpcr0000gn/T//ccGymk7Z.s:531    .text.mpu6500_getGyro:000000000000005e .L0 
/var/folders/yy/83vjwp7d53j56dbzj8_jnpcr0000gn/T//ccGymk7Z.s:536    .text.mpu6500_getGyro:000000000000006c .L0 
/var/folders/yy/83vjwp7d53j56dbzj8_jnpcr0000gn/T//ccGymk7Z.s:537    .text.mpu6500_getGyro:000000000000006c .L0 
/var/folders/yy/83vjwp7d53j56dbzj8_jnpcr0000gn/T//ccGymk7Z.s:538    .text.mpu6500_getGyro:000000000000006e .L0 
/var/folders/yy/83vjwp7d53j56dbzj8_jnpcr0000gn/T//ccGymk7Z.s:540    .text.mpu6500_getGyro:0000000000000070 .L0 
/var/folders/yy/83vjwp7d53j56dbzj8_jnpcr0000gn/T//ccGymk7Z.s:545    .text.mpu6500_getGyro:0000000000000074 .L0 
/var/folders/yy/83vjwp7d53j56dbzj8_jnpcr0000gn/T//ccGymk7Z.s:548    .text.mpu6500_getGyro:0000000000000076 .L0 
/var/folders/yy/83vjwp7d53j56dbzj8_jnpcr0000gn/T//ccGymk7Z.s:555    .text.mpu6500_getGyroAccel:0000000000000000 mpu6500_getGyroAccel
/var/folders/yy/83vjwp7d53j56dbzj8_jnpcr0000gn/T//ccGymk7Z.s:558    .text.mpu6500_getGyroAccel:0000000000000000 .L0 
/var/folders/yy/83vjwp7d53j56dbzj8_jnpcr0000gn/T//ccGymk7Z.s:560    .text.mpu6500_getGyroAccel:0000000000000000 .L0 
/var/folders/yy/83vjwp7d53j56dbzj8_jnpcr0000gn/T//ccGymk7Z.s:561    .text.mpu6500_getGyroAccel:0000000000000000 .L0 
/var/folders/yy/83vjwp7d53j56dbzj8_jnpcr0000gn/T//ccGymk7Z.s:562    .text.mpu6500_getGyroAccel:0000000000000000 .L0 
/var/folders/yy/83vjwp7d53j56dbzj8_jnpcr0000gn/T//ccGymk7Z.s:564    .text.mpu6500_getGyroAccel:0000000000000002 .L0 
/var/folders/yy/83vjwp7d53j56dbzj8_jnpcr0000gn/T//ccGymk7Z.s:566    .text.mpu6500_getGyroAccel:0000000000000004 .L0 
/var/folders/yy/83vjwp7d53j56dbzj8_jnpcr0000gn/T//ccGymk7Z.s:569    .text.mpu6500_getGyroAccel:0000000000000006 .L0 
/var/folders/yy/83vjwp7d53j56dbzj8_jnpcr0000gn/T//ccGymk7Z.s:572    .text.mpu6500_getGyroAccel:0000000000000008 .L0 
/var/folders/yy/83vjwp7d53j56dbzj8_jnpcr0000gn/T//ccGymk7Z.s:573    .text.mpu6500_getGyroAccel:000000000000000a .L0 
/var/folders/yy/83vjwp7d53j56dbzj8_jnpcr0000gn/T//ccGymk7Z.s:575    .text.mpu6500_getGyroAccel:000000000000000a .L0 
/var/folders/yy/83vjwp7d53j56dbzj8_jnpcr0000gn/T//ccGymk7Z.s:578    .text.mpu6500_getGyroAccel:0000000000000012 .L0 
/var/folders/yy/83vjwp7d53j56dbzj8_jnpcr0000gn/T//ccGymk7Z.s:582    .text.mpu6500_getGyroAccel:000000000000001c .L0 
/var/folders/yy/83vjwp7d53j56dbzj8_jnpcr0000gn/T//ccGymk7Z.s:583    .text.mpu6500_getGyroAccel:000000000000001c .L0 
GAS LISTING /var/folders/yy/83vjwp7d53j56dbzj8_jnpcr0000gn/T//ccGymk7Z.s 			page 19


/var/folders/yy/83vjwp7d53j56dbzj8_jnpcr0000gn/T//ccGymk7Z.s:584    .text.mpu6500_getGyroAccel:000000000000001e .L0 
/var/folders/yy/83vjwp7d53j56dbzj8_jnpcr0000gn/T//ccGymk7Z.s:586    .text.mpu6500_getGyroAccel:0000000000000020 .L0 
/var/folders/yy/83vjwp7d53j56dbzj8_jnpcr0000gn/T//ccGymk7Z.s:591    .text.mpu6500_getGyroAccel:0000000000000024 .L0 
/var/folders/yy/83vjwp7d53j56dbzj8_jnpcr0000gn/T//ccGymk7Z.s:593    .text.mpu6500_getGyroAccel:0000000000000026 .L0 
/var/folders/yy/83vjwp7d53j56dbzj8_jnpcr0000gn/T//ccGymk7Z.s:36     .text.read_mpu:000000000000001a .L0 
/var/folders/yy/83vjwp7d53j56dbzj8_jnpcr0000gn/T//ccGymk7Z.s:62     .text.write_mpu:000000000000001a .L0 
/var/folders/yy/83vjwp7d53j56dbzj8_jnpcr0000gn/T//ccGymk7Z.s:99     .text.flip_bytes:0000000000000016 .L0 
/var/folders/yy/83vjwp7d53j56dbzj8_jnpcr0000gn/T//ccGymk7Z.s:301    .text.mpu6500_init:0000000000000126 .L0 
/var/folders/yy/83vjwp7d53j56dbzj8_jnpcr0000gn/T//ccGymk7Z.s:426    .text.mpu6500_getAccel:0000000000000076 .L0 
/var/folders/yy/83vjwp7d53j56dbzj8_jnpcr0000gn/T//ccGymk7Z.s:551    .text.mpu6500_getGyro:0000000000000076 .L0 
/var/folders/yy/83vjwp7d53j56dbzj8_jnpcr0000gn/T//ccGymk7Z.s:597    .text.mpu6500_getGyroAccel:0000000000000026 .L0 
                     .debug_frame:0000000000000000 .L0 
/var/folders/yy/83vjwp7d53j56dbzj8_jnpcr0000gn/T//ccGymk7Z.s:276    .text.mpu6500_init:000000000000010c .L5
/var/folders/yy/83vjwp7d53j56dbzj8_jnpcr0000gn/T//ccGymk7Z.s:287    .text.mpu6500_init:0000000000000114 .L8
/var/folders/yy/83vjwp7d53j56dbzj8_jnpcr0000gn/T//ccGymk7Z.s:171    .text.mpu6500_init:0000000000000056 .L7
/var/folders/yy/83vjwp7d53j56dbzj8_jnpcr0000gn/T//ccGymk7Z.s:2933   .debug_abbrev:0000000000000000 .Ldebug_abbrev0
/var/folders/yy/83vjwp7d53j56dbzj8_jnpcr0000gn/T//ccGymk7Z.s:4427   .debug_str:000000000000051a .LASF151
/var/folders/yy/83vjwp7d53j56dbzj8_jnpcr0000gn/T//ccGymk7Z.s:4181   .debug_str:000000000000002b .LASF152
/var/folders/yy/83vjwp7d53j56dbzj8_jnpcr0000gn/T//ccGymk7Z.s:4353   .debug_str:000000000000038a .LASF153
/var/folders/yy/83vjwp7d53j56dbzj8_jnpcr0000gn/T//ccGymk7Z.s:4151   .debug_ranges:0000000000000000 .Ldebug_ranges0
/var/folders/yy/83vjwp7d53j56dbzj8_jnpcr0000gn/T//ccGymk7Z.s:4169   .debug_line:0000000000000000 .Ldebug_line0
/var/folders/yy/83vjwp7d53j56dbzj8_jnpcr0000gn/T//ccGymk7Z.s:4213   .debug_str:00000000000000fe .LASF0
/var/folders/yy/83vjwp7d53j56dbzj8_jnpcr0000gn/T//ccGymk7Z.s:4183   .debug_str:0000000000000048 .LASF2
/var/folders/yy/83vjwp7d53j56dbzj8_jnpcr0000gn/T//ccGymk7Z.s:4355   .debug_str:00000000000003d4 .LASF1
/var/folders/yy/83vjwp7d53j56dbzj8_jnpcr0000gn/T//ccGymk7Z.s:4259   .debug_str:00000000000001c9 .LASF3
/var/folders/yy/83vjwp7d53j56dbzj8_jnpcr0000gn/T//ccGymk7Z.s:4363   .debug_str:00000000000003f6 .LASF4
/var/folders/yy/83vjwp7d53j56dbzj8_jnpcr0000gn/T//ccGymk7Z.s:4297   .debug_str:0000000000000273 .LASF5
/var/folders/yy/83vjwp7d53j56dbzj8_jnpcr0000gn/T//ccGymk7Z.s:4233   .debug_str:000000000000014e .LASF6
/var/folders/yy/83vjwp7d53j56dbzj8_jnpcr0000gn/T//ccGymk7Z.s:4281   .debug_str:000000000000022b .LASF7
/var/folders/yy/83vjwp7d53j56dbzj8_jnpcr0000gn/T//ccGymk7Z.s:4211   .debug_str:00000000000000f0 .LASF8
/var/folders/yy/83vjwp7d53j56dbzj8_jnpcr0000gn/T//ccGymk7Z.s:4193   .debug_str:0000000000000085 .LASF9
/var/folders/yy/83vjwp7d53j56dbzj8_jnpcr0000gn/T//ccGymk7Z.s:4273   .debug_str:0000000000000207 .LASF10
/var/folders/yy/83vjwp7d53j56dbzj8_jnpcr0000gn/T//ccGymk7Z.s:4327   .debug_str:0000000000000313 .LASF11
/var/folders/yy/83vjwp7d53j56dbzj8_jnpcr0000gn/T//ccGymk7Z.s:4309   .debug_str:00000000000002b6 .LASF12
/var/folders/yy/83vjwp7d53j56dbzj8_jnpcr0000gn/T//ccGymk7Z.s:4339   .debug_str:0000000000000348 .LASF13
/var/folders/yy/83vjwp7d53j56dbzj8_jnpcr0000gn/T//ccGymk7Z.s:4411   .debug_str:00000000000004dc .LASF14
/var/folders/yy/83vjwp7d53j56dbzj8_jnpcr0000gn/T//ccGymk7Z.s:4451   .debug_str:000000000000060b .LASF15
/var/folders/yy/83vjwp7d53j56dbzj8_jnpcr0000gn/T//ccGymk7Z.s:4307   .debug_str:00000000000002b0 .LASF16
/var/folders/yy/83vjwp7d53j56dbzj8_jnpcr0000gn/T//ccGymk7Z.s:4275   .debug_str:0000000000000214 .LASF17
/var/folders/yy/83vjwp7d53j56dbzj8_jnpcr0000gn/T//ccGymk7Z.s:4403   .debug_str:00000000000004ba .LASF18
/var/folders/yy/83vjwp7d53j56dbzj8_jnpcr0000gn/T//ccGymk7Z.s:4405   .debug_str:00000000000004c2 .LASF19
/var/folders/yy/83vjwp7d53j56dbzj8_jnpcr0000gn/T//ccGymk7Z.s:4375   .debug_str:0000000000000433 .LASF20
/var/folders/yy/83vjwp7d53j56dbzj8_jnpcr0000gn/T//ccGymk7Z.s:4433   .debug_str:00000000000005b0 .LASF21
/var/folders/yy/83vjwp7d53j56dbzj8_jnpcr0000gn/T//ccGymk7Z.s:4351   .debug_str:0000000000000378 .LASF22
/var/folders/yy/83vjwp7d53j56dbzj8_jnpcr0000gn/T//ccGymk7Z.s:4459   .debug_str:0000000000000633 .LASF23
/var/folders/yy/83vjwp7d53j56dbzj8_jnpcr0000gn/T//ccGymk7Z.s:4263   .debug_str:00000000000001db .LASF28
/var/folders/yy/83vjwp7d53j56dbzj8_jnpcr0000gn/T//ccGymk7Z.s:4423   .debug_str:0000000000000507 .LASF24
/var/folders/yy/83vjwp7d53j56dbzj8_jnpcr0000gn/T//ccGymk7Z.s:4397   .debug_str:00000000000004a5 .LASF25
/var/folders/yy/83vjwp7d53j56dbzj8_jnpcr0000gn/T//ccGymk7Z.s:4257   .debug_str:00000000000001c3 .LASF26
/var/folders/yy/83vjwp7d53j56dbzj8_jnpcr0000gn/T//ccGymk7Z.s:4445   .debug_str:00000000000005f6 .LASF27
/var/folders/yy/83vjwp7d53j56dbzj8_jnpcr0000gn/T//ccGymk7Z.s:4271   .debug_str:0000000000000202 .LASF29
/var/folders/yy/83vjwp7d53j56dbzj8_jnpcr0000gn/T//ccGymk7Z.s:4205   .debug_str:00000000000000d2 .LASF30
/var/folders/yy/83vjwp7d53j56dbzj8_jnpcr0000gn/T//ccGymk7Z.s:4417   .debug_str:00000000000004f0 .LASF31
/var/folders/yy/83vjwp7d53j56dbzj8_jnpcr0000gn/T//ccGymk7Z.s:4221   .debug_str:000000000000011c .LASF32
/var/folders/yy/83vjwp7d53j56dbzj8_jnpcr0000gn/T//ccGymk7Z.s:4481   .debug_str:0000000000000694 .LASF33
/var/folders/yy/83vjwp7d53j56dbzj8_jnpcr0000gn/T//ccGymk7Z.s:4333   .debug_str:000000000000032c .LASF34
/var/folders/yy/83vjwp7d53j56dbzj8_jnpcr0000gn/T//ccGymk7Z.s:4323   .debug_str:0000000000000300 .LASF35
GAS LISTING /var/folders/yy/83vjwp7d53j56dbzj8_jnpcr0000gn/T//ccGymk7Z.s 			page 20


/var/folders/yy/83vjwp7d53j56dbzj8_jnpcr0000gn/T//ccGymk7Z.s:4447   .debug_str:00000000000005fb .LASF36
/var/folders/yy/83vjwp7d53j56dbzj8_jnpcr0000gn/T//ccGymk7Z.s:4365   .debug_str:0000000000000400 .LASF37
/var/folders/yy/83vjwp7d53j56dbzj8_jnpcr0000gn/T//ccGymk7Z.s:4469   .debug_str:000000000000065b .LASF38
/var/folders/yy/83vjwp7d53j56dbzj8_jnpcr0000gn/T//ccGymk7Z.s:4225   .debug_str:000000000000012b .LASF39
/var/folders/yy/83vjwp7d53j56dbzj8_jnpcr0000gn/T//ccGymk7Z.s:4253   .debug_str:00000000000001b6 .LASF40
/var/folders/yy/83vjwp7d53j56dbzj8_jnpcr0000gn/T//ccGymk7Z.s:4171   .debug_str:0000000000000000 .LASF41
/var/folders/yy/83vjwp7d53j56dbzj8_jnpcr0000gn/T//ccGymk7Z.s:4429   .debug_str:00000000000005a2 .LASF42
/var/folders/yy/83vjwp7d53j56dbzj8_jnpcr0000gn/T//ccGymk7Z.s:4239   .debug_str:000000000000016f .LASF43
/var/folders/yy/83vjwp7d53j56dbzj8_jnpcr0000gn/T//ccGymk7Z.s:4335   .debug_str:0000000000000335 .LASF44
/var/folders/yy/83vjwp7d53j56dbzj8_jnpcr0000gn/T//ccGymk7Z.s:4387   .debug_str:000000000000046c .LASF45
/var/folders/yy/83vjwp7d53j56dbzj8_jnpcr0000gn/T//ccGymk7Z.s:4255   .debug_str:00000000000001be .LASF46
/var/folders/yy/83vjwp7d53j56dbzj8_jnpcr0000gn/T//ccGymk7Z.s:4369   .debug_str:000000000000041f .LASF47
/var/folders/yy/83vjwp7d53j56dbzj8_jnpcr0000gn/T//ccGymk7Z.s:4217   .debug_str:0000000000000110 .LASF48
/var/folders/yy/83vjwp7d53j56dbzj8_jnpcr0000gn/T//ccGymk7Z.s:4173   .debug_str:000000000000000c .LASF49
/var/folders/yy/83vjwp7d53j56dbzj8_jnpcr0000gn/T//ccGymk7Z.s:4377   .debug_str:000000000000043e .LASF50
/var/folders/yy/83vjwp7d53j56dbzj8_jnpcr0000gn/T//ccGymk7Z.s:4237   .debug_str:0000000000000168 .LASF51
/var/folders/yy/83vjwp7d53j56dbzj8_jnpcr0000gn/T//ccGymk7Z.s:4283   .debug_str:000000000000023d .LASF52
/var/folders/yy/83vjwp7d53j56dbzj8_jnpcr0000gn/T//ccGymk7Z.s:4195   .debug_str:000000000000009c .LASF53
/var/folders/yy/83vjwp7d53j56dbzj8_jnpcr0000gn/T//ccGymk7Z.s:4227   .debug_str:0000000000000139 .LASF54
/var/folders/yy/83vjwp7d53j56dbzj8_jnpcr0000gn/T//ccGymk7Z.s:4267   .debug_str:00000000000001f2 .LASF55
/var/folders/yy/83vjwp7d53j56dbzj8_jnpcr0000gn/T//ccGymk7Z.s:4321   .debug_str:00000000000002f9 .LASF56
/var/folders/yy/83vjwp7d53j56dbzj8_jnpcr0000gn/T//ccGymk7Z.s:4407   .debug_str:00000000000004ca .LASF57
/var/folders/yy/83vjwp7d53j56dbzj8_jnpcr0000gn/T//ccGymk7Z.s:4473   .debug_str:0000000000000675 .LASF58
/var/folders/yy/83vjwp7d53j56dbzj8_jnpcr0000gn/T//ccGymk7Z.s:4215   .debug_str:000000000000010a .LASF59
/var/folders/yy/83vjwp7d53j56dbzj8_jnpcr0000gn/T//ccGymk7Z.s:4463   .debug_str:0000000000000644 .LASF60
/var/folders/yy/83vjwp7d53j56dbzj8_jnpcr0000gn/T//ccGymk7Z.s:4243   .debug_str:000000000000017e .LASF61
/var/folders/yy/83vjwp7d53j56dbzj8_jnpcr0000gn/T//ccGymk7Z.s:4247   .debug_str:000000000000018f .LASF62
/var/folders/yy/83vjwp7d53j56dbzj8_jnpcr0000gn/T//ccGymk7Z.s:4185   .debug_str:0000000000000052 .LASF63
/var/folders/yy/83vjwp7d53j56dbzj8_jnpcr0000gn/T//ccGymk7Z.s:4311   .debug_str:00000000000002bd .LASF64
/var/folders/yy/83vjwp7d53j56dbzj8_jnpcr0000gn/T//ccGymk7Z.s:4379   .debug_str:0000000000000446 .LASF65
/var/folders/yy/83vjwp7d53j56dbzj8_jnpcr0000gn/T//ccGymk7Z.s:4315   .debug_str:00000000000002d3 .LASF66
/var/folders/yy/83vjwp7d53j56dbzj8_jnpcr0000gn/T//ccGymk7Z.s:4399   .debug_str:00000000000004ad .LASF67
/var/folders/yy/83vjwp7d53j56dbzj8_jnpcr0000gn/T//ccGymk7Z.s:4413   .debug_str:00000000000004e4 .LASF68
/var/folders/yy/83vjwp7d53j56dbzj8_jnpcr0000gn/T//ccGymk7Z.s:4241   .debug_str:0000000000000177 .LASF69
/var/folders/yy/83vjwp7d53j56dbzj8_jnpcr0000gn/T//ccGymk7Z.s:4277   .debug_str:000000000000021b .LASF70
/var/folders/yy/83vjwp7d53j56dbzj8_jnpcr0000gn/T//ccGymk7Z.s:4261   .debug_str:00000000000001d3 .LASF71
/var/folders/yy/83vjwp7d53j56dbzj8_jnpcr0000gn/T//ccGymk7Z.s:4385   .debug_str:0000000000000467 .LASF72
/var/folders/yy/83vjwp7d53j56dbzj8_jnpcr0000gn/T//ccGymk7Z.s:4177   .debug_str:000000000000001a .LASF73
/var/folders/yy/83vjwp7d53j56dbzj8_jnpcr0000gn/T//ccGymk7Z.s:4395   .debug_str:000000000000048c .LASF74
/var/folders/yy/83vjwp7d53j56dbzj8_jnpcr0000gn/T//ccGymk7Z.s:4391   .debug_str:000000000000047a .LASF75
/var/folders/yy/83vjwp7d53j56dbzj8_jnpcr0000gn/T//ccGymk7Z.s:4337   .debug_str:000000000000033d .LASF76
/var/folders/yy/83vjwp7d53j56dbzj8_jnpcr0000gn/T//ccGymk7Z.s:4393   .debug_str:0000000000000482 .LASF77
/var/folders/yy/83vjwp7d53j56dbzj8_jnpcr0000gn/T//ccGymk7Z.s:4305   .debug_str:00000000000002a8 .LASF78
/var/folders/yy/83vjwp7d53j56dbzj8_jnpcr0000gn/T//ccGymk7Z.s:4269   .debug_str:00000000000001f8 .LASF79
/var/folders/yy/83vjwp7d53j56dbzj8_jnpcr0000gn/T//ccGymk7Z.s:4479   .debug_str:000000000000068f .LASF80
/var/folders/yy/83vjwp7d53j56dbzj8_jnpcr0000gn/T//ccGymk7Z.s:4347   .debug_str:0000000000000362 .LASF81
/var/folders/yy/83vjwp7d53j56dbzj8_jnpcr0000gn/T//ccGymk7Z.s:4279   .debug_str:0000000000000223 .LASF82
/var/folders/yy/83vjwp7d53j56dbzj8_jnpcr0000gn/T//ccGymk7Z.s:4245   .debug_str:0000000000000187 .LASF83
/var/folders/yy/83vjwp7d53j56dbzj8_jnpcr0000gn/T//ccGymk7Z.s:4357   .debug_str:00000000000003e2 .LASF84
/var/folders/yy/83vjwp7d53j56dbzj8_jnpcr0000gn/T//ccGymk7Z.s:4299   .debug_str:0000000000000286 .LASF85
/var/folders/yy/83vjwp7d53j56dbzj8_jnpcr0000gn/T//ccGymk7Z.s:4457   .debug_str:0000000000000629 .LASF86
/var/folders/yy/83vjwp7d53j56dbzj8_jnpcr0000gn/T//ccGymk7Z.s:4229   .debug_str:0000000000000141 .LASF87
/var/folders/yy/83vjwp7d53j56dbzj8_jnpcr0000gn/T//ccGymk7Z.s:4223   .debug_str:0000000000000126 .LASF88
/var/folders/yy/83vjwp7d53j56dbzj8_jnpcr0000gn/T//ccGymk7Z.s:4415   .debug_str:00000000000004eb .LASF89
/var/folders/yy/83vjwp7d53j56dbzj8_jnpcr0000gn/T//ccGymk7Z.s:4373   .debug_str:000000000000042c .LASF90
/var/folders/yy/83vjwp7d53j56dbzj8_jnpcr0000gn/T//ccGymk7Z.s:4449   .debug_str:0000000000000605 .LASF91
/var/folders/yy/83vjwp7d53j56dbzj8_jnpcr0000gn/T//ccGymk7Z.s:4289   .debug_str:0000000000000259 .LASF92
GAS LISTING /var/folders/yy/83vjwp7d53j56dbzj8_jnpcr0000gn/T//ccGymk7Z.s 			page 21


/var/folders/yy/83vjwp7d53j56dbzj8_jnpcr0000gn/T//ccGymk7Z.s:4371   .debug_str:0000000000000426 .LASF93
/var/folders/yy/83vjwp7d53j56dbzj8_jnpcr0000gn/T//ccGymk7Z.s:4175   .debug_str:0000000000000012 .LASF94
/var/folders/yy/83vjwp7d53j56dbzj8_jnpcr0000gn/T//ccGymk7Z.s:4401   .debug_str:00000000000004b4 .LASF95
/var/folders/yy/83vjwp7d53j56dbzj8_jnpcr0000gn/T//ccGymk7Z.s:4421   .debug_str:0000000000000501 .LASF96
/var/folders/yy/83vjwp7d53j56dbzj8_jnpcr0000gn/T//ccGymk7Z.s:4431   .debug_str:00000000000005ab .LASF97
/var/folders/yy/83vjwp7d53j56dbzj8_jnpcr0000gn/T//ccGymk7Z.s:4439   .debug_str:00000000000005d8 .LASF98
/var/folders/yy/83vjwp7d53j56dbzj8_jnpcr0000gn/T//ccGymk7Z.s:4425   .debug_str:000000000000050d .LASF99
/var/folders/yy/83vjwp7d53j56dbzj8_jnpcr0000gn/T//ccGymk7Z.s:4303   .debug_str:000000000000029b .LASF100
/var/folders/yy/83vjwp7d53j56dbzj8_jnpcr0000gn/T//ccGymk7Z.s:4471   .debug_str:0000000000000666 .LASF101
/var/folders/yy/83vjwp7d53j56dbzj8_jnpcr0000gn/T//ccGymk7Z.s:4265   .debug_str:00000000000001e3 .LASF102
/var/folders/yy/83vjwp7d53j56dbzj8_jnpcr0000gn/T//ccGymk7Z.s:4381   .debug_str:000000000000044f .LASF103
/var/folders/yy/83vjwp7d53j56dbzj8_jnpcr0000gn/T//ccGymk7Z.s:4475   .debug_str:000000000000067c .LASF104
/var/folders/yy/83vjwp7d53j56dbzj8_jnpcr0000gn/T//ccGymk7Z.s:4383   .debug_str:000000000000045a .LASF105
/var/folders/yy/83vjwp7d53j56dbzj8_jnpcr0000gn/T//ccGymk7Z.s:4477   .debug_str:0000000000000681 .LASF106
/var/folders/yy/83vjwp7d53j56dbzj8_jnpcr0000gn/T//ccGymk7Z.s:4203   .debug_str:00000000000000c4 .LASF107
/var/folders/yy/83vjwp7d53j56dbzj8_jnpcr0000gn/T//ccGymk7Z.s:4453   .debug_str:0000000000000614 .LASF108
/var/folders/yy/83vjwp7d53j56dbzj8_jnpcr0000gn/T//ccGymk7Z.s:4301   .debug_str:000000000000028f .LASF109
/var/folders/yy/83vjwp7d53j56dbzj8_jnpcr0000gn/T//ccGymk7Z.s:4435   .debug_str:00000000000005b8 .LASF110
/var/folders/yy/83vjwp7d53j56dbzj8_jnpcr0000gn/T//ccGymk7Z.s:4251   .debug_str:00000000000001a8 .LASF111
/var/folders/yy/83vjwp7d53j56dbzj8_jnpcr0000gn/T//ccGymk7Z.s:4201   .debug_str:00000000000000b5 .LASF112
/var/folders/yy/83vjwp7d53j56dbzj8_jnpcr0000gn/T//ccGymk7Z.s:4249   .debug_str:0000000000000197 .LASF113
/var/folders/yy/83vjwp7d53j56dbzj8_jnpcr0000gn/T//ccGymk7Z.s:4189   .debug_str:0000000000000065 .LASF114
/var/folders/yy/83vjwp7d53j56dbzj8_jnpcr0000gn/T//ccGymk7Z.s:4191   .debug_str:0000000000000074 .LASF115
/var/folders/yy/83vjwp7d53j56dbzj8_jnpcr0000gn/T//ccGymk7Z.s:4361   .debug_str:00000000000003ed .LASF116
/var/folders/yy/83vjwp7d53j56dbzj8_jnpcr0000gn/T//ccGymk7Z.s:4329   .debug_str:000000000000031f .LASF117
/var/folders/yy/83vjwp7d53j56dbzj8_jnpcr0000gn/T//ccGymk7Z.s:4325   .debug_str:000000000000030a .LASF118
/var/folders/yy/83vjwp7d53j56dbzj8_jnpcr0000gn/T//ccGymk7Z.s:4465   .debug_str:000000000000064a .LASF119
/var/folders/yy/83vjwp7d53j56dbzj8_jnpcr0000gn/T//ccGymk7Z.s:4197   .debug_str:00000000000000a5 .LASF154
/var/folders/yy/83vjwp7d53j56dbzj8_jnpcr0000gn/T//ccGymk7Z.s:4409   .debug_str:00000000000004d0 .LASF120
/var/folders/yy/83vjwp7d53j56dbzj8_jnpcr0000gn/T//ccGymk7Z.s:4437   .debug_str:00000000000005c5 .LASF121
/var/folders/yy/83vjwp7d53j56dbzj8_jnpcr0000gn/T//ccGymk7Z.s:4419   .debug_str:00000000000004f9 .LASF122
/var/folders/yy/83vjwp7d53j56dbzj8_jnpcr0000gn/T//ccGymk7Z.s:4207   .debug_str:00000000000000db .LASF123
/var/folders/yy/83vjwp7d53j56dbzj8_jnpcr0000gn/T//ccGymk7Z.s:4343   .debug_str:0000000000000354 .LASF124
/var/folders/yy/83vjwp7d53j56dbzj8_jnpcr0000gn/T//ccGymk7Z.s:4187   .debug_str:0000000000000058 .LASF125
/var/folders/yy/83vjwp7d53j56dbzj8_jnpcr0000gn/T//ccGymk7Z.s:4235   .debug_str:0000000000000157 .LASF126
/var/folders/yy/83vjwp7d53j56dbzj8_jnpcr0000gn/T//ccGymk7Z.s:4341   .debug_str:000000000000034f .LASF127
/var/folders/yy/83vjwp7d53j56dbzj8_jnpcr0000gn/T//ccGymk7Z.s:4179   .debug_str:0000000000000025 .LASF128
/var/folders/yy/83vjwp7d53j56dbzj8_jnpcr0000gn/T//ccGymk7Z.s:4359   .debug_str:00000000000003e7 .LASF129
/var/folders/yy/83vjwp7d53j56dbzj8_jnpcr0000gn/T//ccGymk7Z.s:4461   .debug_str:000000000000063c .LASF130
/var/folders/yy/83vjwp7d53j56dbzj8_jnpcr0000gn/T//ccGymk7Z.s:4313   .debug_str:00000000000002c3 .LASF131
/var/folders/yy/83vjwp7d53j56dbzj8_jnpcr0000gn/T//ccGymk7Z.s:4367   .debug_str:000000000000040a .LASF134
/var/folders/yy/83vjwp7d53j56dbzj8_jnpcr0000gn/T//ccGymk7Z.s:556    .text.mpu6500_getGyroAccel:0000000000000000 .LFB9
/var/folders/yy/83vjwp7d53j56dbzj8_jnpcr0000gn/T//ccGymk7Z.s:594    .text.mpu6500_getGyroAccel:0000000000000026 .LFE9
/var/folders/yy/83vjwp7d53j56dbzj8_jnpcr0000gn/T//ccGymk7Z.s:3652   .debug_loc:0000000000000000 .LLST27
/var/folders/yy/83vjwp7d53j56dbzj8_jnpcr0000gn/T//ccGymk7Z.s:4287   .debug_str:0000000000000253 .LASF132
/var/folders/yy/83vjwp7d53j56dbzj8_jnpcr0000gn/T//ccGymk7Z.s:3670   .debug_loc:000000000000002c .LLST28
/var/folders/yy/83vjwp7d53j56dbzj8_jnpcr0000gn/T//ccGymk7Z.s:4443   .debug_str:00000000000005ef .LASF133
/var/folders/yy/83vjwp7d53j56dbzj8_jnpcr0000gn/T//ccGymk7Z.s:3688   .debug_loc:0000000000000058 .LLST29
/var/folders/yy/83vjwp7d53j56dbzj8_jnpcr0000gn/T//ccGymk7Z.s:576    .text.mpu6500_getGyroAccel:0000000000000012 .LVL69
/var/folders/yy/83vjwp7d53j56dbzj8_jnpcr0000gn/T//ccGymk7Z.s:580    .text.mpu6500_getGyroAccel:000000000000001c .LVL70
/var/folders/yy/83vjwp7d53j56dbzj8_jnpcr0000gn/T//ccGymk7Z.s:4285   .debug_str:0000000000000243 .LASF135
/var/folders/yy/83vjwp7d53j56dbzj8_jnpcr0000gn/T//ccGymk7Z.s:431    .text.mpu6500_getGyro:0000000000000000 .LFB8
/var/folders/yy/83vjwp7d53j56dbzj8_jnpcr0000gn/T//ccGymk7Z.s:549    .text.mpu6500_getGyro:0000000000000076 .LFE8
/var/folders/yy/83vjwp7d53j56dbzj8_jnpcr0000gn/T//ccGymk7Z.s:3702   .debug_loc:0000000000000079 .LLST21
/var/folders/yy/83vjwp7d53j56dbzj8_jnpcr0000gn/T//ccGymk7Z.s:3720   .debug_loc:00000000000000a5 .LLST22
/var/folders/yy/83vjwp7d53j56dbzj8_jnpcr0000gn/T//ccGymk7Z.s:4199   .debug_str:00000000000000b0 .LASF137
/var/folders/yy/83vjwp7d53j56dbzj8_jnpcr0000gn/T//ccGymk7Z.s:461    .text.mpu6500_getGyro:000000000000001c .LBB20
GAS LISTING /var/folders/yy/83vjwp7d53j56dbzj8_jnpcr0000gn/T//ccGymk7Z.s 			page 22


/var/folders/yy/83vjwp7d53j56dbzj8_jnpcr0000gn/T//ccGymk7Z.s:477    .text.mpu6500_getGyro:0000000000000026 .LBE20
/var/folders/yy/83vjwp7d53j56dbzj8_jnpcr0000gn/T//ccGymk7Z.s:3738   .debug_loc:00000000000000d1 .LLST23
/var/folders/yy/83vjwp7d53j56dbzj8_jnpcr0000gn/T//ccGymk7Z.s:462    .text.mpu6500_getGyro:000000000000001c .LBB21
/var/folders/yy/83vjwp7d53j56dbzj8_jnpcr0000gn/T//ccGymk7Z.s:476    .text.mpu6500_getGyro:0000000000000026 .LBE21
/var/folders/yy/83vjwp7d53j56dbzj8_jnpcr0000gn/T//ccGymk7Z.s:3746   .debug_loc:00000000000000e5 .LLST24
/var/folders/yy/83vjwp7d53j56dbzj8_jnpcr0000gn/T//ccGymk7Z.s:488    .text.mpu6500_getGyro:0000000000000038 .LBB22
/var/folders/yy/83vjwp7d53j56dbzj8_jnpcr0000gn/T//ccGymk7Z.s:503    .text.mpu6500_getGyro:0000000000000042 .LBE22
/var/folders/yy/83vjwp7d53j56dbzj8_jnpcr0000gn/T//ccGymk7Z.s:489    .text.mpu6500_getGyro:0000000000000038 .LBB23
/var/folders/yy/83vjwp7d53j56dbzj8_jnpcr0000gn/T//ccGymk7Z.s:502    .text.mpu6500_getGyro:0000000000000042 .LBE23
/var/folders/yy/83vjwp7d53j56dbzj8_jnpcr0000gn/T//ccGymk7Z.s:3761   .debug_loc:0000000000000107 .LLST25
/var/folders/yy/83vjwp7d53j56dbzj8_jnpcr0000gn/T//ccGymk7Z.s:514    .text.mpu6500_getGyro:0000000000000054 .LBB24
/var/folders/yy/83vjwp7d53j56dbzj8_jnpcr0000gn/T//ccGymk7Z.s:529    .text.mpu6500_getGyro:000000000000005e .LBE24
/var/folders/yy/83vjwp7d53j56dbzj8_jnpcr0000gn/T//ccGymk7Z.s:515    .text.mpu6500_getGyro:0000000000000054 .LBB25
/var/folders/yy/83vjwp7d53j56dbzj8_jnpcr0000gn/T//ccGymk7Z.s:528    .text.mpu6500_getGyro:000000000000005e .LBE25
/var/folders/yy/83vjwp7d53j56dbzj8_jnpcr0000gn/T//ccGymk7Z.s:3776   .debug_loc:0000000000000129 .LLST26
/var/folders/yy/83vjwp7d53j56dbzj8_jnpcr0000gn/T//ccGymk7Z.s:456    .text.mpu6500_getGyro:0000000000000018 .LVL51
/var/folders/yy/83vjwp7d53j56dbzj8_jnpcr0000gn/T//ccGymk7Z.s:4319   .debug_str:00000000000002e8 .LASF136
/var/folders/yy/83vjwp7d53j56dbzj8_jnpcr0000gn/T//ccGymk7Z.s:306    .text.mpu6500_getAccel:0000000000000000 .LFB7
/var/folders/yy/83vjwp7d53j56dbzj8_jnpcr0000gn/T//ccGymk7Z.s:424    .text.mpu6500_getAccel:0000000000000076 .LFE7
/var/folders/yy/83vjwp7d53j56dbzj8_jnpcr0000gn/T//ccGymk7Z.s:3791   .debug_loc:000000000000014b .LLST15
/var/folders/yy/83vjwp7d53j56dbzj8_jnpcr0000gn/T//ccGymk7Z.s:3809   .debug_loc:0000000000000177 .LLST16
/var/folders/yy/83vjwp7d53j56dbzj8_jnpcr0000gn/T//ccGymk7Z.s:4331   .debug_str:0000000000000326 .LASF138
/var/folders/yy/83vjwp7d53j56dbzj8_jnpcr0000gn/T//ccGymk7Z.s:336    .text.mpu6500_getAccel:000000000000001c .LBB14
/var/folders/yy/83vjwp7d53j56dbzj8_jnpcr0000gn/T//ccGymk7Z.s:352    .text.mpu6500_getAccel:0000000000000026 .LBE14
/var/folders/yy/83vjwp7d53j56dbzj8_jnpcr0000gn/T//ccGymk7Z.s:3827   .debug_loc:00000000000001a3 .LLST17
/var/folders/yy/83vjwp7d53j56dbzj8_jnpcr0000gn/T//ccGymk7Z.s:337    .text.mpu6500_getAccel:000000000000001c .LBB15
/var/folders/yy/83vjwp7d53j56dbzj8_jnpcr0000gn/T//ccGymk7Z.s:351    .text.mpu6500_getAccel:0000000000000026 .LBE15
/var/folders/yy/83vjwp7d53j56dbzj8_jnpcr0000gn/T//ccGymk7Z.s:3835   .debug_loc:00000000000001b7 .LLST18
/var/folders/yy/83vjwp7d53j56dbzj8_jnpcr0000gn/T//ccGymk7Z.s:363    .text.mpu6500_getAccel:0000000000000038 .LBB16
/var/folders/yy/83vjwp7d53j56dbzj8_jnpcr0000gn/T//ccGymk7Z.s:378    .text.mpu6500_getAccel:0000000000000042 .LBE16
/var/folders/yy/83vjwp7d53j56dbzj8_jnpcr0000gn/T//ccGymk7Z.s:364    .text.mpu6500_getAccel:0000000000000038 .LBB17
/var/folders/yy/83vjwp7d53j56dbzj8_jnpcr0000gn/T//ccGymk7Z.s:377    .text.mpu6500_getAccel:0000000000000042 .LBE17
/var/folders/yy/83vjwp7d53j56dbzj8_jnpcr0000gn/T//ccGymk7Z.s:3850   .debug_loc:00000000000001d9 .LLST19
/var/folders/yy/83vjwp7d53j56dbzj8_jnpcr0000gn/T//ccGymk7Z.s:389    .text.mpu6500_getAccel:0000000000000054 .LBB18
/var/folders/yy/83vjwp7d53j56dbzj8_jnpcr0000gn/T//ccGymk7Z.s:404    .text.mpu6500_getAccel:000000000000005e .LBE18
/var/folders/yy/83vjwp7d53j56dbzj8_jnpcr0000gn/T//ccGymk7Z.s:390    .text.mpu6500_getAccel:0000000000000054 .LBB19
/var/folders/yy/83vjwp7d53j56dbzj8_jnpcr0000gn/T//ccGymk7Z.s:403    .text.mpu6500_getAccel:000000000000005e .LBE19
/var/folders/yy/83vjwp7d53j56dbzj8_jnpcr0000gn/T//ccGymk7Z.s:3865   .debug_loc:00000000000001fb .LLST20
/var/folders/yy/83vjwp7d53j56dbzj8_jnpcr0000gn/T//ccGymk7Z.s:331    .text.mpu6500_getAccel:0000000000000018 .LVL33
/var/folders/yy/83vjwp7d53j56dbzj8_jnpcr0000gn/T//ccGymk7Z.s:4317   .debug_str:00000000000002db .LASF139
/var/folders/yy/83vjwp7d53j56dbzj8_jnpcr0000gn/T//ccGymk7Z.s:104    .text.mpu6500_init:0000000000000000 .LFB6
/var/folders/yy/83vjwp7d53j56dbzj8_jnpcr0000gn/T//ccGymk7Z.s:298    .text.mpu6500_init:0000000000000126 .LFE6
/var/folders/yy/83vjwp7d53j56dbzj8_jnpcr0000gn/T//ccGymk7Z.s:3880   .debug_loc:000000000000021d .LLST10
/var/folders/yy/83vjwp7d53j56dbzj8_jnpcr0000gn/T//ccGymk7Z.s:4345   .debug_str:000000000000035a .LASF140
/var/folders/yy/83vjwp7d53j56dbzj8_jnpcr0000gn/T//ccGymk7Z.s:3903   .debug_loc:0000000000000255 .LLST11
/var/folders/yy/83vjwp7d53j56dbzj8_jnpcr0000gn/T//ccGymk7Z.s:4389   .debug_str:0000000000000471 .LASF141
/var/folders/yy/83vjwp7d53j56dbzj8_jnpcr0000gn/T//ccGymk7Z.s:3922   .debug_loc:0000000000000285 .LLST12
/var/folders/yy/83vjwp7d53j56dbzj8_jnpcr0000gn/T//ccGymk7Z.s:4291   .debug_str:0000000000000260 .LASF142
/var/folders/yy/83vjwp7d53j56dbzj8_jnpcr0000gn/T//ccGymk7Z.s:3941   .debug_loc:00000000000002b5 .LLST13
/var/folders/yy/83vjwp7d53j56dbzj8_jnpcr0000gn/T//ccGymk7Z.s:3960   .debug_loc:00000000000002e5 .LLST14
/var/folders/yy/83vjwp7d53j56dbzj8_jnpcr0000gn/T//ccGymk7Z.s:4349   .debug_str:000000000000036c .LASF143
/var/folders/yy/83vjwp7d53j56dbzj8_jnpcr0000gn/T//ccGymk7Z.s:4209   .debug_str:00000000000000e3 .LASF144
/var/folders/yy/83vjwp7d53j56dbzj8_jnpcr0000gn/T//ccGymk7Z.s:143    .text.mpu6500_init:0000000000000026 .LVL18
/var/folders/yy/83vjwp7d53j56dbzj8_jnpcr0000gn/T//ccGymk7Z.s:164    .text.mpu6500_init:000000000000004e .LVL19
/var/folders/yy/83vjwp7d53j56dbzj8_jnpcr0000gn/T//ccGymk7Z.s:169    .text.mpu6500_init:0000000000000056 .LVL20
/var/folders/yy/83vjwp7d53j56dbzj8_jnpcr0000gn/T//ccGymk7Z.s:182    .text.mpu6500_init:0000000000000068 .LVL21
/var/folders/yy/83vjwp7d53j56dbzj8_jnpcr0000gn/T//ccGymk7Z.s:194    .text.mpu6500_init:000000000000007e .LVL22
GAS LISTING /var/folders/yy/83vjwp7d53j56dbzj8_jnpcr0000gn/T//ccGymk7Z.s 			page 23


/var/folders/yy/83vjwp7d53j56dbzj8_jnpcr0000gn/T//ccGymk7Z.s:204    .text.mpu6500_init:0000000000000090 .LVL23
/var/folders/yy/83vjwp7d53j56dbzj8_jnpcr0000gn/T//ccGymk7Z.s:214    .text.mpu6500_init:00000000000000a2 .LVL24
/var/folders/yy/83vjwp7d53j56dbzj8_jnpcr0000gn/T//ccGymk7Z.s:226    .text.mpu6500_init:00000000000000b6 .LVL25
/var/folders/yy/83vjwp7d53j56dbzj8_jnpcr0000gn/T//ccGymk7Z.s:238    .text.mpu6500_init:00000000000000ca .LVL26
/var/folders/yy/83vjwp7d53j56dbzj8_jnpcr0000gn/T//ccGymk7Z.s:248    .text.mpu6500_init:00000000000000dc .LVL27
/var/folders/yy/83vjwp7d53j56dbzj8_jnpcr0000gn/T//ccGymk7Z.s:260    .text.mpu6500_init:00000000000000f4 .LVL28
/var/folders/yy/83vjwp7d53j56dbzj8_jnpcr0000gn/T//ccGymk7Z.s:272    .text.mpu6500_init:000000000000010a .LVL29
/var/folders/yy/83vjwp7d53j56dbzj8_jnpcr0000gn/T//ccGymk7Z.s:295    .text.mpu6500_init:0000000000000124 .LVL30
/var/folders/yy/83vjwp7d53j56dbzj8_jnpcr0000gn/T//ccGymk7Z.s:4455   .debug_str:000000000000061e .LASF155
/var/folders/yy/83vjwp7d53j56dbzj8_jnpcr0000gn/T//ccGymk7Z.s:4219   .debug_str:0000000000000116 .LASF145
/var/folders/yy/83vjwp7d53j56dbzj8_jnpcr0000gn/T//ccGymk7Z.s:4231   .debug_str:0000000000000149 .LASF146
/var/folders/yy/83vjwp7d53j56dbzj8_jnpcr0000gn/T//ccGymk7Z.s:4441   .debug_str:00000000000005e5 .LASF149
/var/folders/yy/83vjwp7d53j56dbzj8_jnpcr0000gn/T//ccGymk7Z.s:41     .text.write_mpu:0000000000000000 .LFB4
/var/folders/yy/83vjwp7d53j56dbzj8_jnpcr0000gn/T//ccGymk7Z.s:60     .text.write_mpu:000000000000001a .LFE4
/var/folders/yy/83vjwp7d53j56dbzj8_jnpcr0000gn/T//ccGymk7Z.s:3974   .debug_loc:0000000000000306 .LLST3
/var/folders/yy/83vjwp7d53j56dbzj8_jnpcr0000gn/T//ccGymk7Z.s:4295   .debug_str:000000000000026e .LASF147
/var/folders/yy/83vjwp7d53j56dbzj8_jnpcr0000gn/T//ccGymk7Z.s:3988   .debug_loc:0000000000000327 .LLST4
/var/folders/yy/83vjwp7d53j56dbzj8_jnpcr0000gn/T//ccGymk7Z.s:4293   .debug_str:0000000000000269 .LASF148
/var/folders/yy/83vjwp7d53j56dbzj8_jnpcr0000gn/T//ccGymk7Z.s:4002   .debug_loc:0000000000000348 .LLST5
/var/folders/yy/83vjwp7d53j56dbzj8_jnpcr0000gn/T//ccGymk7Z.s:58     .text.write_mpu:000000000000001a .LVL9
/var/folders/yy/83vjwp7d53j56dbzj8_jnpcr0000gn/T//ccGymk7Z.s:4467   .debug_str:0000000000000652 .LASF150
/var/folders/yy/83vjwp7d53j56dbzj8_jnpcr0000gn/T//ccGymk7Z.s:14     .text.read_mpu:0000000000000000 .LFB3
/var/folders/yy/83vjwp7d53j56dbzj8_jnpcr0000gn/T//ccGymk7Z.s:34     .text.read_mpu:000000000000001a .LFE3
/var/folders/yy/83vjwp7d53j56dbzj8_jnpcr0000gn/T//ccGymk7Z.s:4020   .debug_loc:0000000000000374 .LLST0
/var/folders/yy/83vjwp7d53j56dbzj8_jnpcr0000gn/T//ccGymk7Z.s:4034   .debug_loc:0000000000000395 .LLST1
/var/folders/yy/83vjwp7d53j56dbzj8_jnpcr0000gn/T//ccGymk7Z.s:4048   .debug_loc:00000000000003b6 .LLST2
/var/folders/yy/83vjwp7d53j56dbzj8_jnpcr0000gn/T//ccGymk7Z.s:32     .text.read_mpu:000000000000001a .LVL4
/var/folders/yy/83vjwp7d53j56dbzj8_jnpcr0000gn/T//ccGymk7Z.s:67     .text.flip_bytes:0000000000000000 .LFB5
/var/folders/yy/83vjwp7d53j56dbzj8_jnpcr0000gn/T//ccGymk7Z.s:97     .text.flip_bytes:0000000000000016 .LFE5
/var/folders/yy/83vjwp7d53j56dbzj8_jnpcr0000gn/T//ccGymk7Z.s:4066   .debug_loc:00000000000003e2 .LLST6
/var/folders/yy/83vjwp7d53j56dbzj8_jnpcr0000gn/T//ccGymk7Z.s:4084   .debug_loc:000000000000040e .LLST7
/var/folders/yy/83vjwp7d53j56dbzj8_jnpcr0000gn/T//ccGymk7Z.s:4098   .debug_loc:000000000000042f .LLST8
/var/folders/yy/83vjwp7d53j56dbzj8_jnpcr0000gn/T//ccGymk7Z.s:4113   .debug_loc:0000000000000451 .LLST9
/var/folders/yy/83vjwp7d53j56dbzj8_jnpcr0000gn/T//ccGymk7Z.s:563    .text.mpu6500_getGyroAccel:0000000000000002 .LCFI9
/var/folders/yy/83vjwp7d53j56dbzj8_jnpcr0000gn/T//ccGymk7Z.s:590    .text.mpu6500_getGyroAccel:0000000000000024 .LCFI10
/var/folders/yy/83vjwp7d53j56dbzj8_jnpcr0000gn/T//ccGymk7Z.s:559    .text.mpu6500_getGyroAccel:0000000000000000 .LVL67
/var/folders/yy/83vjwp7d53j56dbzj8_jnpcr0000gn/T//ccGymk7Z.s:570    .text.mpu6500_getGyroAccel:0000000000000008 .LVL68
/var/folders/yy/83vjwp7d53j56dbzj8_jnpcr0000gn/T//ccGymk7Z.s:587    .text.mpu6500_getGyroAccel:0000000000000020 .LVL71
/var/folders/yy/83vjwp7d53j56dbzj8_jnpcr0000gn/T//ccGymk7Z.s:439    .text.mpu6500_getGyro:0000000000000002 .LCFI7
/var/folders/yy/83vjwp7d53j56dbzj8_jnpcr0000gn/T//ccGymk7Z.s:544    .text.mpu6500_getGyro:0000000000000074 .LCFI8
/var/folders/yy/83vjwp7d53j56dbzj8_jnpcr0000gn/T//ccGymk7Z.s:434    .text.mpu6500_getGyro:0000000000000000 .LVL49
/var/folders/yy/83vjwp7d53j56dbzj8_jnpcr0000gn/T//ccGymk7Z.s:450    .text.mpu6500_getGyro:000000000000000e .LVL50
/var/folders/yy/83vjwp7d53j56dbzj8_jnpcr0000gn/T//ccGymk7Z.s:541    .text.mpu6500_getGyro:0000000000000070 .LVL65
/var/folders/yy/83vjwp7d53j56dbzj8_jnpcr0000gn/T//ccGymk7Z.s:460    .text.mpu6500_getGyro:000000000000001c .LVL52
/var/folders/yy/83vjwp7d53j56dbzj8_jnpcr0000gn/T//ccGymk7Z.s:468    .text.mpu6500_getGyro:0000000000000020 .LVL53
/var/folders/yy/83vjwp7d53j56dbzj8_jnpcr0000gn/T//ccGymk7Z.s:546    .text.mpu6500_getGyro:0000000000000074 .LVL66
/var/folders/yy/83vjwp7d53j56dbzj8_jnpcr0000gn/T//ccGymk7Z.s:487    .text.mpu6500_getGyro:0000000000000038 .LVL57
/var/folders/yy/83vjwp7d53j56dbzj8_jnpcr0000gn/T//ccGymk7Z.s:513    .text.mpu6500_getGyro:0000000000000054 .LVL61
/var/folders/yy/83vjwp7d53j56dbzj8_jnpcr0000gn/T//ccGymk7Z.s:314    .text.mpu6500_getAccel:0000000000000002 .LCFI5
/var/folders/yy/83vjwp7d53j56dbzj8_jnpcr0000gn/T//ccGymk7Z.s:419    .text.mpu6500_getAccel:0000000000000074 .LCFI6
/var/folders/yy/83vjwp7d53j56dbzj8_jnpcr0000gn/T//ccGymk7Z.s:309    .text.mpu6500_getAccel:0000000000000000 .LVL31
/var/folders/yy/83vjwp7d53j56dbzj8_jnpcr0000gn/T//ccGymk7Z.s:325    .text.mpu6500_getAccel:000000000000000e .LVL32
/var/folders/yy/83vjwp7d53j56dbzj8_jnpcr0000gn/T//ccGymk7Z.s:416    .text.mpu6500_getAccel:0000000000000070 .LVL47
/var/folders/yy/83vjwp7d53j56dbzj8_jnpcr0000gn/T//ccGymk7Z.s:335    .text.mpu6500_getAccel:000000000000001c .LVL34
/var/folders/yy/83vjwp7d53j56dbzj8_jnpcr0000gn/T//ccGymk7Z.s:343    .text.mpu6500_getAccel:0000000000000020 .LVL35
/var/folders/yy/83vjwp7d53j56dbzj8_jnpcr0000gn/T//ccGymk7Z.s:421    .text.mpu6500_getAccel:0000000000000074 .LVL48
/var/folders/yy/83vjwp7d53j56dbzj8_jnpcr0000gn/T//ccGymk7Z.s:362    .text.mpu6500_getAccel:0000000000000038 .LVL39
GAS LISTING /var/folders/yy/83vjwp7d53j56dbzj8_jnpcr0000gn/T//ccGymk7Z.s 			page 24


/var/folders/yy/83vjwp7d53j56dbzj8_jnpcr0000gn/T//ccGymk7Z.s:388    .text.mpu6500_getAccel:0000000000000054 .LVL43
/var/folders/yy/83vjwp7d53j56dbzj8_jnpcr0000gn/T//ccGymk7Z.s:113    .text.mpu6500_init:0000000000000002 .LCFI2
/var/folders/yy/83vjwp7d53j56dbzj8_jnpcr0000gn/T//ccGymk7Z.s:284    .text.mpu6500_init:0000000000000112 .LCFI3
/var/folders/yy/83vjwp7d53j56dbzj8_jnpcr0000gn/T//ccGymk7Z.s:288    .text.mpu6500_init:0000000000000114 .LCFI4
/var/folders/yy/83vjwp7d53j56dbzj8_jnpcr0000gn/T//ccGymk7Z.s:107    .text.mpu6500_init:0000000000000000 .LVL14
/var/folders/yy/83vjwp7d53j56dbzj8_jnpcr0000gn/T//ccGymk7Z.s:134    .text.mpu6500_init:0000000000000018 .LVL15
/var/folders/yy/83vjwp7d53j56dbzj8_jnpcr0000gn/T//ccGymk7Z.s:138    .text.mpu6500_init:000000000000001c .LVL17
/var/folders/yy/83vjwp7d53j56dbzj8_jnpcr0000gn/T//ccGymk7Z.s:136    .text.mpu6500_init:000000000000001a .LVL16
/var/folders/yy/83vjwp7d53j56dbzj8_jnpcr0000gn/T//ccGymk7Z.s:44     .text.write_mpu:0000000000000000 .LVL5
/var/folders/yy/83vjwp7d53j56dbzj8_jnpcr0000gn/T//ccGymk7Z.s:53     .text.write_mpu:0000000000000012 .LVL7
/var/folders/yy/83vjwp7d53j56dbzj8_jnpcr0000gn/T//ccGymk7Z.s:56     .text.write_mpu:0000000000000018 .LVL8
/var/folders/yy/83vjwp7d53j56dbzj8_jnpcr0000gn/T//ccGymk7Z.s:51     .text.write_mpu:0000000000000010 .LVL6
/var/folders/yy/83vjwp7d53j56dbzj8_jnpcr0000gn/T//ccGymk7Z.s:18     .text.read_mpu:0000000000000000 .LVL0
/var/folders/yy/83vjwp7d53j56dbzj8_jnpcr0000gn/T//ccGymk7Z.s:27     .text.read_mpu:0000000000000012 .LVL2
/var/folders/yy/83vjwp7d53j56dbzj8_jnpcr0000gn/T//ccGymk7Z.s:30     .text.read_mpu:0000000000000018 .LVL3
/var/folders/yy/83vjwp7d53j56dbzj8_jnpcr0000gn/T//ccGymk7Z.s:25     .text.read_mpu:0000000000000010 .LVL1
/var/folders/yy/83vjwp7d53j56dbzj8_jnpcr0000gn/T//ccGymk7Z.s:81     .text.flip_bytes:000000000000000e .LCFI0
/var/folders/yy/83vjwp7d53j56dbzj8_jnpcr0000gn/T//ccGymk7Z.s:92     .text.flip_bytes:0000000000000014 .LCFI1
/var/folders/yy/83vjwp7d53j56dbzj8_jnpcr0000gn/T//ccGymk7Z.s:70     .text.flip_bytes:0000000000000000 .LVL10
/var/folders/yy/83vjwp7d53j56dbzj8_jnpcr0000gn/T//ccGymk7Z.s:75     .text.flip_bytes:0000000000000006 .LVL11
/var/folders/yy/83vjwp7d53j56dbzj8_jnpcr0000gn/T//ccGymk7Z.s:83     .text.flip_bytes:000000000000000e .LVL12
/var/folders/yy/83vjwp7d53j56dbzj8_jnpcr0000gn/T//ccGymk7Z.s:94     .text.flip_bytes:0000000000000014 .LVL13
/var/folders/yy/83vjwp7d53j56dbzj8_jnpcr0000gn/T//ccGymk7Z.s:607    .debug_info:0000000000000000 .Ldebug_info0

UNDEFINED SYMBOLS
__floatsisf
