GAS LISTING /var/folders/yy/83vjwp7d53j56dbzj8_jnpcr0000gn/T//cclRrA5u.s 			page 1


   1              		.file	"dac.c"
   2              		.option nopic
   3              		.attribute arch, "rv32i2p0_m2p0_a2p0_c2p0"
   4              		.attribute unaligned_access, 0
   5              		.attribute stack_align, 16
   6              		.text
   7              	.Ltext0:
   8              		.cfi_sections	.debug_frame
   9              		.section	.text.DAC0powerUpInit,"ax",@progbits
  10              		.align	1
  11              		.globl	DAC0powerUpInit
  13              	DAC0powerUpInit:
  14              	.LFB2:
  15              		.file 1 "lib/dac/src/dac.c"
   1:lib/dac/src/dac.c **** #include "gd32vf103.h"
   2:lib/dac/src/dac.c **** #include "dac.h"
   3:lib/dac/src/dac.c **** 
   4:lib/dac/src/dac.c **** void DAC0powerUpInit(){
  16              		.loc 1 4 23
  17              		.cfi_startproc
   5:lib/dac/src/dac.c ****     rcu_periph_clock_enable(RCU_GPIOA);
  18              		.loc 1 5 5
   4:lib/dac/src/dac.c ****     rcu_periph_clock_enable(RCU_GPIOA);
  19              		.loc 1 4 23 is_stmt 0
  20 0000 4111     		addi	sp,sp,-16
  21              	.LCFI0:
  22              		.cfi_def_cfa_offset 16
  23              		.loc 1 5 5
  24 0002 13052060 		li	a0,1538
   4:lib/dac/src/dac.c ****     rcu_periph_clock_enable(RCU_GPIOA);
  25              		.loc 1 4 23
  26 0006 06C6     		sw	ra,12(sp)
  27              		.cfi_offset 1, -4
  28              		.loc 1 5 5
  29 0008 97000000 		call	rcu_periph_clock_enable
  29      E7800000 
  30              	.LVL0:
   6:lib/dac/src/dac.c ****     rcu_periph_clock_enable(RCU_DAC);
  31              		.loc 1 6 5 is_stmt 1
  32 0010 1305D071 		li	a0,1821
  33 0014 97000000 		call	rcu_periph_clock_enable
  33      E7800000 
  34              	.LVL1:
   7:lib/dac/src/dac.c ****     gpio_init(GPIOA, GPIO_MODE_AIN, GPIO_OSPEED_50MHZ, GPIO_PIN_4);
  35              		.loc 1 7 5
  36 001c 37150140 		li	a0,1073811456
  37 0020 C146     		li	a3,16
  38 0022 0D46     		li	a2,3
  39 0024 8145     		li	a1,0
  40 0026 13050580 		addi	a0,a0,-2048
  41 002a 97000000 		call	gpio_init
  41      E7800000 
  42              	.LVL2:
   8:lib/dac/src/dac.c ****     dac_deinit();
  43              		.loc 1 8 5
  44 0032 97000000 		call	dac_deinit
  44      E7800000 
GAS LISTING /var/folders/yy/83vjwp7d53j56dbzj8_jnpcr0000gn/T//cclRrA5u.s 			page 2


  45              	.LVL3:
   9:lib/dac/src/dac.c ****     dac_trigger_disable(DAC0);
  46              		.loc 1 9 5
  47 003a 0145     		li	a0,0
  48 003c 97000000 		call	dac_trigger_disable
  48      E7800000 
  49              	.LVL4:
  10:lib/dac/src/dac.c ****     dac_wave_mode_config(DAC0,DAC_WAVE_DISABLE);
  50              		.loc 1 10 5
  51 0044 8145     		li	a1,0
  52 0046 0145     		li	a0,0
  53 0048 97000000 		call	dac_wave_mode_config
  53      E7800000 
  54              	.LVL5:
  11:lib/dac/src/dac.c ****     dac_output_buffer_enable(DAC0);
  55              		.loc 1 11 5
  56 0050 0145     		li	a0,0
  57 0052 97000000 		call	dac_output_buffer_enable
  57      E7800000 
  58              	.LVL6:
  12:lib/dac/src/dac.c ****     dac_data_set(DAC0, DAC_ALIGN_12B_R, 0x07ff);
  59              		.loc 1 12 5
  60 005a 0145     		li	a0,0
  61 005c 1306F07F 		li	a2,2047
  62 0060 8145     		li	a1,0
  63 0062 97000000 		call	dac_data_set
  63      E7800000 
  64              	.LVL7:
  13:lib/dac/src/dac.c ****     dac_enable(DAC0);
  65              		.loc 1 13 5
  14:lib/dac/src/dac.c **** }
  66              		.loc 1 14 1 is_stmt 0
  67 006a B240     		lw	ra,12(sp)
  68              		.cfi_restore 1
  13:lib/dac/src/dac.c ****     dac_enable(DAC0);
  69              		.loc 1 13 5
  70 006c 0145     		li	a0,0
  71              		.loc 1 14 1
  72 006e 4101     		addi	sp,sp,16
  73              	.LCFI1:
  74              		.cfi_def_cfa_offset 0
  13:lib/dac/src/dac.c ****     dac_enable(DAC0);
  75              		.loc 1 13 5
  76 0070 17030000 		tail	dac_enable
  76      67000300 
  77              	.LVL8:
  78              		.cfi_endproc
  79              	.LFE2:
  81              		.section	.text.DAC0set,"ax",@progbits
  82              		.align	1
  83              		.globl	DAC0set
  85              	DAC0set:
  86              	.LFB3:
  15:lib/dac/src/dac.c **** 
  16:lib/dac/src/dac.c **** void DAC0set(int value){
  87              		.loc 1 16 24 is_stmt 1
  88              		.cfi_startproc
GAS LISTING /var/folders/yy/83vjwp7d53j56dbzj8_jnpcr0000gn/T//cclRrA5u.s 			page 3


  89              	.LVL9:
  17:lib/dac/src/dac.c ****     dac_data_set(DAC0, DAC_ALIGN_12B_R, value);
  90              		.loc 1 17 5
  91 0000 13160501 		slli	a2,a0,16
  92 0004 4182     		srli	a2,a2,16
  93 0006 8145     		li	a1,0
  94 0008 0145     		li	a0,0
  95              	.LVL10:
  96 000a 17030000 		tail	dac_data_set
  96      67000300 
  97              	.LVL11:
  98              		.cfi_endproc
  99              	.LFE3:
 101              		.text
 102              	.Letext0:
 103              		.file 2 "/Users/gulda/Documents/risc-v/toolchain-gd32v-v200-osx/compiler/riscv64-unknown-elf/inclu
 104              		.file 3 "/Users/gulda/Documents/risc-v/toolchain-gd32v-v200-osx/compiler/riscv64-unknown-elf/inclu
 105              		.file 4 "../../firmware/GD32VF103_standard_peripheral/Include/gd32vf103_dac.h"
 106              		.file 5 "../../firmware/GD32VF103_standard_peripheral/Include/gd32vf103_rcu.h"
 107              		.file 6 "../../firmware/GD32VF103_standard_peripheral/Include/gd32vf103_gpio.h"
 108              		.file 7 "../../firmware/GD32VF103_standard_peripheral/system_gd32vf103.h"
GAS LISTING /var/folders/yy/83vjwp7d53j56dbzj8_jnpcr0000gn/T//cclRrA5u.s 			page 4


DEFINED SYMBOLS
                            *ABS*:0000000000000000 dac.c
/var/folders/yy/83vjwp7d53j56dbzj8_jnpcr0000gn/T//cclRrA5u.s:13     .text.DAC0powerUpInit:0000000000000000 DAC0powerUpInit
/var/folders/yy/83vjwp7d53j56dbzj8_jnpcr0000gn/T//cclRrA5u.s:17     .text.DAC0powerUpInit:0000000000000000 .L0 
/var/folders/yy/83vjwp7d53j56dbzj8_jnpcr0000gn/T//cclRrA5u.s:18     .text.DAC0powerUpInit:0000000000000000 .L0 
/var/folders/yy/83vjwp7d53j56dbzj8_jnpcr0000gn/T//cclRrA5u.s:19     .text.DAC0powerUpInit:0000000000000000 .L0 
/var/folders/yy/83vjwp7d53j56dbzj8_jnpcr0000gn/T//cclRrA5u.s:20     .text.DAC0powerUpInit:0000000000000000 .L0 
/var/folders/yy/83vjwp7d53j56dbzj8_jnpcr0000gn/T//cclRrA5u.s:22     .text.DAC0powerUpInit:0000000000000002 .L0 
/var/folders/yy/83vjwp7d53j56dbzj8_jnpcr0000gn/T//cclRrA5u.s:24     .text.DAC0powerUpInit:0000000000000002 .L0 
/var/folders/yy/83vjwp7d53j56dbzj8_jnpcr0000gn/T//cclRrA5u.s:26     .text.DAC0powerUpInit:0000000000000006 .L0 
/var/folders/yy/83vjwp7d53j56dbzj8_jnpcr0000gn/T//cclRrA5u.s:27     .text.DAC0powerUpInit:0000000000000008 .L0 
/var/folders/yy/83vjwp7d53j56dbzj8_jnpcr0000gn/T//cclRrA5u.s:29     .text.DAC0powerUpInit:0000000000000008 .L0 
/var/folders/yy/83vjwp7d53j56dbzj8_jnpcr0000gn/T//cclRrA5u.s:32     .text.DAC0powerUpInit:0000000000000010 .L0 
/var/folders/yy/83vjwp7d53j56dbzj8_jnpcr0000gn/T//cclRrA5u.s:36     .text.DAC0powerUpInit:000000000000001c .L0 
/var/folders/yy/83vjwp7d53j56dbzj8_jnpcr0000gn/T//cclRrA5u.s:44     .text.DAC0powerUpInit:0000000000000032 .L0 
/var/folders/yy/83vjwp7d53j56dbzj8_jnpcr0000gn/T//cclRrA5u.s:47     .text.DAC0powerUpInit:000000000000003a .L0 
/var/folders/yy/83vjwp7d53j56dbzj8_jnpcr0000gn/T//cclRrA5u.s:51     .text.DAC0powerUpInit:0000000000000044 .L0 
/var/folders/yy/83vjwp7d53j56dbzj8_jnpcr0000gn/T//cclRrA5u.s:56     .text.DAC0powerUpInit:0000000000000050 .L0 
/var/folders/yy/83vjwp7d53j56dbzj8_jnpcr0000gn/T//cclRrA5u.s:60     .text.DAC0powerUpInit:000000000000005a .L0 
/var/folders/yy/83vjwp7d53j56dbzj8_jnpcr0000gn/T//cclRrA5u.s:66     .text.DAC0powerUpInit:000000000000006a .L0 
/var/folders/yy/83vjwp7d53j56dbzj8_jnpcr0000gn/T//cclRrA5u.s:67     .text.DAC0powerUpInit:000000000000006a .L0 
/var/folders/yy/83vjwp7d53j56dbzj8_jnpcr0000gn/T//cclRrA5u.s:68     .text.DAC0powerUpInit:000000000000006c .L0 
/var/folders/yy/83vjwp7d53j56dbzj8_jnpcr0000gn/T//cclRrA5u.s:70     .text.DAC0powerUpInit:000000000000006c .L0 
/var/folders/yy/83vjwp7d53j56dbzj8_jnpcr0000gn/T//cclRrA5u.s:72     .text.DAC0powerUpInit:000000000000006e .L0 
/var/folders/yy/83vjwp7d53j56dbzj8_jnpcr0000gn/T//cclRrA5u.s:74     .text.DAC0powerUpInit:0000000000000070 .L0 
/var/folders/yy/83vjwp7d53j56dbzj8_jnpcr0000gn/T//cclRrA5u.s:76     .text.DAC0powerUpInit:0000000000000070 .L0 
/var/folders/yy/83vjwp7d53j56dbzj8_jnpcr0000gn/T//cclRrA5u.s:78     .text.DAC0powerUpInit:0000000000000078 .L0 
/var/folders/yy/83vjwp7d53j56dbzj8_jnpcr0000gn/T//cclRrA5u.s:85     .text.DAC0set:0000000000000000 DAC0set
/var/folders/yy/83vjwp7d53j56dbzj8_jnpcr0000gn/T//cclRrA5u.s:88     .text.DAC0set:0000000000000000 .L0 
/var/folders/yy/83vjwp7d53j56dbzj8_jnpcr0000gn/T//cclRrA5u.s:90     .text.DAC0set:0000000000000000 .L0 
/var/folders/yy/83vjwp7d53j56dbzj8_jnpcr0000gn/T//cclRrA5u.s:91     .text.DAC0set:0000000000000000 .L0 
/var/folders/yy/83vjwp7d53j56dbzj8_jnpcr0000gn/T//cclRrA5u.s:98     .text.DAC0set:0000000000000012 .L0 
/var/folders/yy/83vjwp7d53j56dbzj8_jnpcr0000gn/T//cclRrA5u.s:81     .text.DAC0powerUpInit:0000000000000078 .L0 
/var/folders/yy/83vjwp7d53j56dbzj8_jnpcr0000gn/T//cclRrA5u.s:101    .text.DAC0set:0000000000000012 .L0 
                     .debug_frame:0000000000000000 .L0 
/var/folders/yy/83vjwp7d53j56dbzj8_jnpcr0000gn/T//cclRrA5u.s:563    .debug_abbrev:0000000000000000 .Ldebug_abbrev0
/var/folders/yy/83vjwp7d53j56dbzj8_jnpcr0000gn/T//cclRrA5u.s:876    .debug_str:0000000000000000 .LASF59
/var/folders/yy/83vjwp7d53j56dbzj8_jnpcr0000gn/T//cclRrA5u.s:930    .debug_str:000000000000019b .LASF60
/var/folders/yy/83vjwp7d53j56dbzj8_jnpcr0000gn/T//cclRrA5u.s:974    .debug_str:00000000000002b4 .LASF61
/var/folders/yy/83vjwp7d53j56dbzj8_jnpcr0000gn/T//cclRrA5u.s:866    .debug_ranges:0000000000000000 .Ldebug_ranges0
/var/folders/yy/83vjwp7d53j56dbzj8_jnpcr0000gn/T//cclRrA5u.s:874    .debug_line:0000000000000000 .Ldebug_line0
/var/folders/yy/83vjwp7d53j56dbzj8_jnpcr0000gn/T//cclRrA5u.s:958    .debug_str:0000000000000260 .LASF0
/var/folders/yy/83vjwp7d53j56dbzj8_jnpcr0000gn/T//cclRrA5u.s:952    .debug_str:0000000000000234 .LASF1
/var/folders/yy/83vjwp7d53j56dbzj8_jnpcr0000gn/T//cclRrA5u.s:1006   .debug_str:00000000000003a9 .LASF6
/var/folders/yy/83vjwp7d53j56dbzj8_jnpcr0000gn/T//cclRrA5u.s:942    .debug_str:00000000000001f3 .LASF2
/var/folders/yy/83vjwp7d53j56dbzj8_jnpcr0000gn/T//cclRrA5u.s:902    .debug_str:0000000000000117 .LASF3
/var/folders/yy/83vjwp7d53j56dbzj8_jnpcr0000gn/T//cclRrA5u.s:962    .debug_str:0000000000000275 .LASF4
/var/folders/yy/83vjwp7d53j56dbzj8_jnpcr0000gn/T//cclRrA5u.s:914    .debug_str:000000000000014b .LASF5
/var/folders/yy/83vjwp7d53j56dbzj8_jnpcr0000gn/T//cclRrA5u.s:982    .debug_str:000000000000031f .LASF7
/var/folders/yy/83vjwp7d53j56dbzj8_jnpcr0000gn/T//cclRrA5u.s:978    .debug_str:0000000000000305 .LASF8
/var/folders/yy/83vjwp7d53j56dbzj8_jnpcr0000gn/T//cclRrA5u.s:892    .debug_str:00000000000000d2 .LASF9
/var/folders/yy/83vjwp7d53j56dbzj8_jnpcr0000gn/T//cclRrA5u.s:954    .debug_str:0000000000000240 .LASF10
/var/folders/yy/83vjwp7d53j56dbzj8_jnpcr0000gn/T//cclRrA5u.s:906    .debug_str:0000000000000127 .LASF11
/var/folders/yy/83vjwp7d53j56dbzj8_jnpcr0000gn/T//cclRrA5u.s:956    .debug_str:0000000000000257 .LASF12
/var/folders/yy/83vjwp7d53j56dbzj8_jnpcr0000gn/T//cclRrA5u.s:880    .debug_str:0000000000000090 .LASF62
/var/folders/yy/83vjwp7d53j56dbzj8_jnpcr0000gn/T//cclRrA5u.s:968    .debug_str:000000000000029a .LASF13
/var/folders/yy/83vjwp7d53j56dbzj8_jnpcr0000gn/T//cclRrA5u.s:970    .debug_str:00000000000002a3 .LASF14
GAS LISTING /var/folders/yy/83vjwp7d53j56dbzj8_jnpcr0000gn/T//cclRrA5u.s 			page 5


/var/folders/yy/83vjwp7d53j56dbzj8_jnpcr0000gn/T//cclRrA5u.s:980    .debug_str:0000000000000317 .LASF15
/var/folders/yy/83vjwp7d53j56dbzj8_jnpcr0000gn/T//cclRrA5u.s:1000   .debug_str:000000000000037e .LASF16
/var/folders/yy/83vjwp7d53j56dbzj8_jnpcr0000gn/T//cclRrA5u.s:992    .debug_str:0000000000000355 .LASF17
/var/folders/yy/83vjwp7d53j56dbzj8_jnpcr0000gn/T//cclRrA5u.s:926    .debug_str:0000000000000185 .LASF18
/var/folders/yy/83vjwp7d53j56dbzj8_jnpcr0000gn/T//cclRrA5u.s:928    .debug_str:0000000000000190 .LASF19
/var/folders/yy/83vjwp7d53j56dbzj8_jnpcr0000gn/T//cclRrA5u.s:922    .debug_str:000000000000016f .LASF20
/var/folders/yy/83vjwp7d53j56dbzj8_jnpcr0000gn/T//cclRrA5u.s:932    .debug_str:00000000000001ad .LASF21
/var/folders/yy/83vjwp7d53j56dbzj8_jnpcr0000gn/T//cclRrA5u.s:934    .debug_str:00000000000001b8 .LASF22
/var/folders/yy/83vjwp7d53j56dbzj8_jnpcr0000gn/T//cclRrA5u.s:936    .debug_str:00000000000001c3 .LASF23
/var/folders/yy/83vjwp7d53j56dbzj8_jnpcr0000gn/T//cclRrA5u.s:912    .debug_str:0000000000000141 .LASF24
/var/folders/yy/83vjwp7d53j56dbzj8_jnpcr0000gn/T//cclRrA5u.s:918    .debug_str:000000000000015d .LASF25
/var/folders/yy/83vjwp7d53j56dbzj8_jnpcr0000gn/T//cclRrA5u.s:920    .debug_str:0000000000000166 .LASF26
/var/folders/yy/83vjwp7d53j56dbzj8_jnpcr0000gn/T//cclRrA5u.s:988    .debug_str:000000000000033f .LASF27
/var/folders/yy/83vjwp7d53j56dbzj8_jnpcr0000gn/T//cclRrA5u.s:990    .debug_str:000000000000034a .LASF28
/var/folders/yy/83vjwp7d53j56dbzj8_jnpcr0000gn/T//cclRrA5u.s:994    .debug_str:000000000000035f .LASF29
/var/folders/yy/83vjwp7d53j56dbzj8_jnpcr0000gn/T//cclRrA5u.s:996    .debug_str:0000000000000369 .LASF30
/var/folders/yy/83vjwp7d53j56dbzj8_jnpcr0000gn/T//cclRrA5u.s:964    .debug_str:0000000000000288 .LASF31
/var/folders/yy/83vjwp7d53j56dbzj8_jnpcr0000gn/T//cclRrA5u.s:966    .debug_str:0000000000000291 .LASF32
/var/folders/yy/83vjwp7d53j56dbzj8_jnpcr0000gn/T//cclRrA5u.s:908    .debug_str:000000000000012f .LASF33
/var/folders/yy/83vjwp7d53j56dbzj8_jnpcr0000gn/T//cclRrA5u.s:910    .debug_str:0000000000000138 .LASF34
/var/folders/yy/83vjwp7d53j56dbzj8_jnpcr0000gn/T//cclRrA5u.s:950    .debug_str:000000000000022b .LASF35
/var/folders/yy/83vjwp7d53j56dbzj8_jnpcr0000gn/T//cclRrA5u.s:960    .debug_str:000000000000026d .LASF36
/var/folders/yy/83vjwp7d53j56dbzj8_jnpcr0000gn/T//cclRrA5u.s:972    .debug_str:00000000000002ac .LASF37
/var/folders/yy/83vjwp7d53j56dbzj8_jnpcr0000gn/T//cclRrA5u.s:898    .debug_str:00000000000000fb .LASF38
/var/folders/yy/83vjwp7d53j56dbzj8_jnpcr0000gn/T//cclRrA5u.s:976    .debug_str:00000000000002fe .LASF39
/var/folders/yy/83vjwp7d53j56dbzj8_jnpcr0000gn/T//cclRrA5u.s:882    .debug_str:00000000000000a0 .LASF40
/var/folders/yy/83vjwp7d53j56dbzj8_jnpcr0000gn/T//cclRrA5u.s:884    .debug_str:00000000000000aa .LASF41
/var/folders/yy/83vjwp7d53j56dbzj8_jnpcr0000gn/T//cclRrA5u.s:886    .debug_str:00000000000000b4 .LASF42
/var/folders/yy/83vjwp7d53j56dbzj8_jnpcr0000gn/T//cclRrA5u.s:888    .debug_str:00000000000000be .LASF43
/var/folders/yy/83vjwp7d53j56dbzj8_jnpcr0000gn/T//cclRrA5u.s:890    .debug_str:00000000000000c8 .LASF44
/var/folders/yy/83vjwp7d53j56dbzj8_jnpcr0000gn/T//cclRrA5u.s:946    .debug_str:0000000000000219 .LASF45
/var/folders/yy/83vjwp7d53j56dbzj8_jnpcr0000gn/T//cclRrA5u.s:948    .debug_str:0000000000000222 .LASF46
/var/folders/yy/83vjwp7d53j56dbzj8_jnpcr0000gn/T//cclRrA5u.s:924    .debug_str:000000000000017a .LASF47
/var/folders/yy/83vjwp7d53j56dbzj8_jnpcr0000gn/T//cclRrA5u.s:916    .debug_str:0000000000000154 .LASF48
/var/folders/yy/83vjwp7d53j56dbzj8_jnpcr0000gn/T//cclRrA5u.s:986    .debug_str:0000000000000334 .LASF49
/var/folders/yy/83vjwp7d53j56dbzj8_jnpcr0000gn/T//cclRrA5u.s:940    .debug_str:00000000000001e7 .LASF50
/var/folders/yy/83vjwp7d53j56dbzj8_jnpcr0000gn/T//cclRrA5u.s:878    .debug_str:0000000000000088 .LASF63
/var/folders/yy/83vjwp7d53j56dbzj8_jnpcr0000gn/T//cclRrA5u.s:86     .text.DAC0set:0000000000000000 .LFB3
/var/folders/yy/83vjwp7d53j56dbzj8_jnpcr0000gn/T//cclRrA5u.s:99     .text.DAC0set:0000000000000012 .LFE3
/var/folders/yy/83vjwp7d53j56dbzj8_jnpcr0000gn/T//cclRrA5u.s:904    .debug_str:0000000000000121 .LASF64
/var/folders/yy/83vjwp7d53j56dbzj8_jnpcr0000gn/T//cclRrA5u.s:819    .debug_loc:0000000000000000 .LLST1
/var/folders/yy/83vjwp7d53j56dbzj8_jnpcr0000gn/T//cclRrA5u.s:97     .text.DAC0set:0000000000000012 .LVL11
/var/folders/yy/83vjwp7d53j56dbzj8_jnpcr0000gn/T//cclRrA5u.s:896    .debug_str:00000000000000eb .LASF65
/var/folders/yy/83vjwp7d53j56dbzj8_jnpcr0000gn/T//cclRrA5u.s:14     .text.DAC0powerUpInit:0000000000000000 .LFB2
/var/folders/yy/83vjwp7d53j56dbzj8_jnpcr0000gn/T//cclRrA5u.s:79     .text.DAC0powerUpInit:0000000000000078 .LFE2
/var/folders/yy/83vjwp7d53j56dbzj8_jnpcr0000gn/T//cclRrA5u.s:833    .debug_loc:0000000000000021 .LLST0
/var/folders/yy/83vjwp7d53j56dbzj8_jnpcr0000gn/T//cclRrA5u.s:30     .text.DAC0powerUpInit:0000000000000010 .LVL0
/var/folders/yy/83vjwp7d53j56dbzj8_jnpcr0000gn/T//cclRrA5u.s:34     .text.DAC0powerUpInit:000000000000001c .LVL1
/var/folders/yy/83vjwp7d53j56dbzj8_jnpcr0000gn/T//cclRrA5u.s:42     .text.DAC0powerUpInit:0000000000000032 .LVL2
/var/folders/yy/83vjwp7d53j56dbzj8_jnpcr0000gn/T//cclRrA5u.s:45     .text.DAC0powerUpInit:000000000000003a .LVL3
/var/folders/yy/83vjwp7d53j56dbzj8_jnpcr0000gn/T//cclRrA5u.s:49     .text.DAC0powerUpInit:0000000000000044 .LVL4
/var/folders/yy/83vjwp7d53j56dbzj8_jnpcr0000gn/T//cclRrA5u.s:54     .text.DAC0powerUpInit:0000000000000050 .LVL5
/var/folders/yy/83vjwp7d53j56dbzj8_jnpcr0000gn/T//cclRrA5u.s:58     .text.DAC0powerUpInit:000000000000005a .LVL6
/var/folders/yy/83vjwp7d53j56dbzj8_jnpcr0000gn/T//cclRrA5u.s:64     .text.DAC0powerUpInit:000000000000006a .LVL7
/var/folders/yy/83vjwp7d53j56dbzj8_jnpcr0000gn/T//cclRrA5u.s:77     .text.DAC0powerUpInit:0000000000000078 .LVL8
/var/folders/yy/83vjwp7d53j56dbzj8_jnpcr0000gn/T//cclRrA5u.s:1002   .debug_str:0000000000000387 .LASF51
/var/folders/yy/83vjwp7d53j56dbzj8_jnpcr0000gn/T//cclRrA5u.s:944    .debug_str:0000000000000201 .LASF52
GAS LISTING /var/folders/yy/83vjwp7d53j56dbzj8_jnpcr0000gn/T//cclRrA5u.s 			page 6


/var/folders/yy/83vjwp7d53j56dbzj8_jnpcr0000gn/T//cclRrA5u.s:984    .debug_str:000000000000032a .LASF53
/var/folders/yy/83vjwp7d53j56dbzj8_jnpcr0000gn/T//cclRrA5u.s:894    .debug_str:00000000000000e0 .LASF54
/var/folders/yy/83vjwp7d53j56dbzj8_jnpcr0000gn/T//cclRrA5u.s:900    .debug_str:0000000000000103 .LASF55
/var/folders/yy/83vjwp7d53j56dbzj8_jnpcr0000gn/T//cclRrA5u.s:1004   .debug_str:0000000000000394 .LASF56
/var/folders/yy/83vjwp7d53j56dbzj8_jnpcr0000gn/T//cclRrA5u.s:938    .debug_str:00000000000001ce .LASF57
/var/folders/yy/83vjwp7d53j56dbzj8_jnpcr0000gn/T//cclRrA5u.s:998    .debug_str:0000000000000373 .LASF58
/var/folders/yy/83vjwp7d53j56dbzj8_jnpcr0000gn/T//cclRrA5u.s:89     .text.DAC0set:0000000000000000 .LVL9
/var/folders/yy/83vjwp7d53j56dbzj8_jnpcr0000gn/T//cclRrA5u.s:95     .text.DAC0set:000000000000000a .LVL10
/var/folders/yy/83vjwp7d53j56dbzj8_jnpcr0000gn/T//cclRrA5u.s:21     .text.DAC0powerUpInit:0000000000000002 .LCFI0
/var/folders/yy/83vjwp7d53j56dbzj8_jnpcr0000gn/T//cclRrA5u.s:73     .text.DAC0powerUpInit:0000000000000070 .LCFI1
/var/folders/yy/83vjwp7d53j56dbzj8_jnpcr0000gn/T//cclRrA5u.s:110    .debug_info:0000000000000000 .Ldebug_info0

UNDEFINED SYMBOLS
rcu_periph_clock_enable
gpio_init
dac_deinit
dac_trigger_disable
dac_wave_mode_config
dac_output_buffer_enable
dac_data_set
dac_enable
