GAS LISTING /var/folders/yy/83vjwp7d53j56dbzj8_jnpcr0000gn/T//cc9rD4AV.s 			page 1


   1              		.file	"queue.c"
   2              		.option nopic
   3              		.attribute arch, "rv32i2p0_m2p0_a2p0_c2p0"
   4              		.attribute unaligned_access, 0
   5              		.attribute stack_align, 16
   6              		.text
   7              	.Ltext0:
   8              		.cfi_sections	.debug_frame
   9              		.section	.text.init_q,"ax",@progbits
  10              		.align	1
  11              		.globl	init_q
  13              	init_q:
  14              	.LFB2:
  15              		.file 1 "queue.c"
   1:queue.c       **** #include "queue.h"
   2:queue.c       **** 
   3:queue.c       **** Buf_queue w;
   4:queue.c       **** 
   5:queue.c       **** void init_q(void){
  16              		.loc 1 5 18
  17              		.cfi_startproc
   6:queue.c       ****     w.memorySize  = STRING_QUEUE_SIZE;
  18              		.loc 1 6 5
  19              		.loc 1 6 19 is_stmt 0
  20 0000 B7470000 		lui	a5,%hi(w+16384)
  21 0004 93870700 		addi	a5,a5,%lo(w+16384)
  22 0008 13070002 		li	a4,32
  23 000c 98C3     		sw	a4,0(a5)
   7:queue.c       ****     w.size        = SIZE_INIT;
  24              		.loc 1 7 5 is_stmt 1
  25              		.loc 1 7 19 is_stmt 0
  26 000e 23A20700 		sw	zero,4(a5)
   8:queue.c       ****     w.head        = HEAD_INIT;
  27              		.loc 1 8 5 is_stmt 1
  28              		.loc 1 8 19 is_stmt 0
  29 0012 23A40700 		sw	zero,8(a5)
   9:queue.c       ****     w.tail        = TAIL_INIT;
  30              		.loc 1 9 5 is_stmt 1
  31              		.loc 1 9 19 is_stmt 0
  32 0016 23A60700 		sw	zero,12(a5)
  10:queue.c       ****     w.tail_string = TAIL_INIT;
  33              		.loc 1 10 5 is_stmt 1
  34              		.loc 1 10 19 is_stmt 0
  35 001a 23A80700 		sw	zero,16(a5)
  11:queue.c       **** }
  36              		.loc 1 11 1
  37 001e 8280     		ret
  38              		.cfi_endproc
  39              	.LFE2:
  41              		.section	.text.enqueue_string,"ax",@progbits
  42              		.align	1
  43              		.globl	enqueue_string
  45              	enqueue_string:
  46              	.LFB3:
  12:queue.c       **** 
  13:queue.c       **** int enqueue_string(char *string) {
  47              		.loc 1 13 34 is_stmt 1
GAS LISTING /var/folders/yy/83vjwp7d53j56dbzj8_jnpcr0000gn/T//cc9rD4AV.s 			page 2


  48              		.cfi_startproc
  49              	.LVL0:
  14:queue.c       ****     // Check if the queue is already full.
  15:queue.c       ****     if (w.size == w.memorySize) {
  50              		.loc 1 15 5
  51              		.loc 1 15 20 is_stmt 0
  52 0000 B7070000 		lui	a5,%hi(w)
  53 0004 13870700 		addi	a4,a5,%lo(w)
  54 0008 9166     		li	a3,16384
  55 000a 3697     		add	a4,a4,a3
  56 000c 83280700 		lw	a7,0(a4)
  57              		.loc 1 15 8
  58 0010 5843     		lw	a4,4(a4)
  59 0012 93850700 		addi	a1,a5,%lo(w)
  60 0016 B7470000 		lui	a5,%hi(w+16384)
  61 001a 93870700 		addi	a5,a5,%lo(w+16384)
  16:queue.c       ****         return 0; // Return 0 to indicate that the queue is full.
  17:queue.c       ****     }
  18:queue.c       **** 
  19:queue.c       ****     // Iterate through the characters in the input 'string' and copy them into the queue.
  20:queue.c       ****     while (*string != '\0' && w.size != w.memorySize) {
  21:queue.c       ****         // Copy the current character from 'string' into the current buffer in the queue.
  22:queue.c       ****         w.buf[w.tail][w.tail_string] = *string;
  23:queue.c       ****         string++; // Move to the next character in 'string'.
  24:queue.c       ****         w.tail_string++; // Move to the next position in the current buffer.
  25:queue.c       **** 
  26:queue.c       ****         // If the current buffer is full (512 characters), wrap around to the next buffer.
  27:queue.c       ****         if (w.tail_string == MAX_STRING_SIZE - 1) {
  62              		.loc 1 27 12
  63 001e 130EF01F 		li	t3,511
  15:queue.c       ****         return 0; // Return 0 to indicate that the queue is full.
  64              		.loc 1 15 8
  65 0022 631C1703 		bne	a4,a7,.L4
  16:queue.c       ****         return 0; // Return 0 to indicate that the queue is full.
  66              		.loc 1 16 16
  67 0026 0145     		li	a0,0
  68              	.LVL1:
  69 0028 8280     		ret
  70              	.LVL2:
  71              	.L6:
  22:queue.c       ****         string++; // Move to the next character in 'string'.
  72              		.loc 1 22 9 is_stmt 1
  22:queue.c       ****         string++; // Move to the next character in 'string'.
  73              		.loc 1 22 16 is_stmt 0
  74 002a D847     		lw	a4,12(a5)
  22:queue.c       ****         string++; // Move to the next character in 'string'.
  75              		.loc 1 22 24
  76 002c 944B     		lw	a3,16(a5)
  23:queue.c       ****         w.tail_string++; // Move to the next position in the current buffer.
  77              		.loc 1 23 15
  78 002e 0505     		addi	a0,a0,1
  79              	.LVL3:
  22:queue.c       ****         string++; // Move to the next character in 'string'.
  80              		.loc 1 22 38
  81 0030 13189700 		slli	a6,a4,9
  82 0034 2E98     		add	a6,a1,a6
  83 0036 B30ED800 		add	t4,a6,a3
GAS LISTING /var/folders/yy/83vjwp7d53j56dbzj8_jnpcr0000gn/T//cc9rD4AV.s 			page 3


  24:queue.c       **** 
  84              		.loc 1 24 22
  85 003a 8506     		addi	a3,a3,1
  22:queue.c       ****         string++; // Move to the next character in 'string'.
  86              		.loc 1 22 38
  87 003c 23806E00 		sb	t1,0(t4)
  23:queue.c       ****         w.tail_string++; // Move to the next position in the current buffer.
  88              		.loc 1 23 9 is_stmt 1
  89              	.LVL4:
  24:queue.c       **** 
  90              		.loc 1 24 9
  24:queue.c       **** 
  91              		.loc 1 24 22 is_stmt 0
  92 0040 94CB     		sw	a3,16(a5)
  93              		.loc 1 27 9 is_stmt 1
  94              		.loc 1 27 12 is_stmt 0
  95 0042 639CC601 		bne	a3,t3,.L4
  28:queue.c       ****             w.buf[w.tail][w.tail_string] = '\0';
  96              		.loc 1 28 13 is_stmt 1
  29:queue.c       ****             w.tail_string = 0; // Reset the buffer position.
  30:queue.c       ****             w.tail = (w.tail + 1) % w.memorySize; // Move to the next buffer.
  97              		.loc 1 30 30 is_stmt 0
  98 0046 0507     		addi	a4,a4,1
  99              		.loc 1 30 35
 100 0048 33671703 		rem	a4,a4,a7
  31:queue.c       ****             w.size++; // Increment the size of the queue.
 101              		.loc 1 31 19
 102 004c 0506     		addi	a2,a2,1
  28:queue.c       ****             w.buf[w.tail][w.tail_string] = '\0';
 103              		.loc 1 28 42
 104 004e A30F081E 		sb	zero,511(a6)
  29:queue.c       ****             w.tail_string = 0; // Reset the buffer position.
 105              		.loc 1 29 13 is_stmt 1
  29:queue.c       ****             w.tail_string = 0; // Reset the buffer position.
 106              		.loc 1 29 27 is_stmt 0
 107 0052 23A80700 		sw	zero,16(a5)
  30:queue.c       ****             w.size++; // Increment the size of the queue.
 108              		.loc 1 30 13 is_stmt 1
 109              		.loc 1 31 19 is_stmt 0
 110 0056 D0C3     		sw	a2,4(a5)
  30:queue.c       ****             w.size++; // Increment the size of the queue.
 111              		.loc 1 30 20
 112 0058 D8C7     		sw	a4,12(a5)
 113              		.loc 1 31 13 is_stmt 1
 114              	.L4:
  20:queue.c       ****         // Copy the current character from 'string' into the current buffer in the queue.
 115              		.loc 1 20 12 is_stmt 0
 116 005a 03430500 		lbu	t1,0(a0)
  20:queue.c       ****         // Copy the current character from 'string' into the current buffer in the queue.
 117              		.loc 1 20 11
 118 005e 63050300 		beq	t1,zero,.L8
  20:queue.c       ****         // Copy the current character from 'string' into the current buffer in the queue.
 119              		.loc 1 20 32 discriminator 1
 120 0062 D043     		lw	a2,4(a5)
  20:queue.c       ****         // Copy the current character from 'string' into the current buffer in the queue.
 121              		.loc 1 20 28 discriminator 1
 122 0064 E393C8FC 		bne	a7,a2,.L6
GAS LISTING /var/folders/yy/83vjwp7d53j56dbzj8_jnpcr0000gn/T//cc9rD4AV.s 			page 4


 123              	.L8:
  32:queue.c       ****         }
  33:queue.c       ****     }
  34:queue.c       **** 
  35:queue.c       ****     return 1; // Return 1 to indicate successful enqueuing.
 124              		.loc 1 35 12
 125 0068 0545     		li	a0,1
 126              	.LVL5:
  36:queue.c       **** }
 127              		.loc 1 36 1
 128 006a 8280     		ret
 129              		.cfi_endproc
 130              	.LFE3:
 132              		.section	.text.queue_str_len,"ax",@progbits
 133              		.align	1
 134              		.globl	queue_str_len
 136              	queue_str_len:
 137              	.LFB5:
  37:queue.c       **** 
  38:queue.c       **** int dequeue_string(char *string, int num_of_blocks) {
  39:queue.c       ****     int str_len = 0;
  40:queue.c       ****     int blocks_dequeued = 0; // Track the number of blocks dequeued
  41:queue.c       **** 
  42:queue.c       ****     // Check if the queue is empty.
  43:queue.c       ****     if (w.size == 0) {
  44:queue.c       ****         return 0; // Return 0 to indicate that the queue is empty.
  45:queue.c       ****     } else if (num_of_blocks > w.size) {
  46:queue.c       ****         return -1; // Return -1 to indicate that there are not enough blocks in the queue.
  47:queue.c       ****     }
  48:queue.c       **** 
  49:queue.c       ****     // Iterate through the queue and concatenate strings until the specified number of blocks are d
  50:queue.c       ****     while (blocks_dequeued < num_of_blocks) {
  51:queue.c       ****         // Concatenate the next string from the queue into the 'string' buffer.
  52:queue.c       ****         str_len += fuseStrings(string, w.buf[w.head]);
  53:queue.c       ****         w.head = (w.head + 1) % w.memorySize; // Move to the next element in the queue.
  54:queue.c       ****         w.size--; // Decrement the size of the queue.
  55:queue.c       ****         blocks_dequeued++; // Increment the number of blocks dequeued.
  56:queue.c       ****     }
  57:queue.c       **** 
  58:queue.c       ****     return str_len; // Return the length of the concatenated string.
  59:queue.c       **** }
  60:queue.c       **** 
  61:queue.c       **** int queue_str_len(void) {
 138              		.loc 1 61 25 is_stmt 1
 139              		.cfi_startproc
  62:queue.c       ****     return w.size; // Return the size of the queue.
 140              		.loc 1 62 5
  63:queue.c       **** }
 141              		.loc 1 63 1 is_stmt 0
 142 0000 B7470000 		lui	a5,%hi(w+16384)
 143 0004 93870700 		addi	a5,a5,%lo(w+16384)
 144 0008 C843     		lw	a0,4(a5)
 145 000a 8280     		ret
 146              		.cfi_endproc
 147              	.LFE5:
 149              		.section	.text.fuseStrings,"ax",@progbits
 150              		.align	1
GAS LISTING /var/folders/yy/83vjwp7d53j56dbzj8_jnpcr0000gn/T//cc9rD4AV.s 			page 5


 151              		.globl	fuseStrings
 153              	fuseStrings:
 154              	.LFB7:
  64:queue.c       **** 
  65:queue.c       **** int empty_string_queue(char *dest, int max_block_size){
  66:queue.c       ****     int str_len = 0;
  67:queue.c       ****     int blocks_dequeued = 0;
  68:queue.c       ****     
  69:queue.c       ****     for(int i = max_block_size; i > 0; i--){
  70:queue.c       ****         str_len = dequeue_string(dest,i);
  71:queue.c       ****         if(str_len > 0){
  72:queue.c       ****             blocks_dequeued = i;
  73:queue.c       ****             break;
  74:queue.c       ****         }
  75:queue.c       ****     }
  76:queue.c       ****     if(w.size == 0 && blocks_dequeued < max_block_size){
  77:queue.c       ****         w.buf[w.head][w.tail_string] = '\0';
  78:queue.c       ****         str_len = fuseStrings(dest, w.buf[w.head]);
  79:queue.c       ****         w.tail_string = 0;
  80:queue.c       ****     }
  81:queue.c       ****     return str_len;
  82:queue.c       **** }
  83:queue.c       **** 
  84:queue.c       **** int fuseStrings(char *str1, const char *str2) {
 155              		.loc 1 84 47 is_stmt 1
 156              		.cfi_startproc
 157              	.LVL6:
  85:queue.c       ****     char *start = str1;  // Save the starting position of str1
 158              		.loc 1 85 5
  86:queue.c       ****     // Find the end of the first string
  87:queue.c       ****     while (*str1 != '\0') {
 159              		.loc 1 87 5
 160              		.loc 1 87 11 is_stmt 0
 161 0000 AA87     		mv	a5,a0
 162              	.LVL7:
 163              	.L11:
 164 0002 03C70700 		lbu	a4,0(a5)
 165 0006 09EB     		bne	a4,zero,.L12
 166              	.L13:
  88:queue.c       ****         str1++;
  89:queue.c       ****     }
  90:queue.c       ****     // Copy characters from the second string to the end of the first string
  91:queue.c       ****     while (*str2 != '\0') {
 167              		.loc 1 91 12
 168 0008 03C70500 		lbu	a4,0(a1)
 169              		.loc 1 91 11
 170 000c 01EB     		bne	a4,zero,.L14
  92:queue.c       ****         *str1 = *str2;
  93:queue.c       ****         str1++;
  94:queue.c       ****         str2++;
  95:queue.c       ****     }
  96:queue.c       ****     // Add the null terminator to mark the end of the concatenated string
  97:queue.c       ****     *str1 = '\0';
 171              		.loc 1 97 5 is_stmt 1
 172              		.loc 1 97 11 is_stmt 0
 173 000e 23800700 		sb	zero,0(a5)
  98:queue.c       ****     // Calculate and return the length of the concatenated string
GAS LISTING /var/folders/yy/83vjwp7d53j56dbzj8_jnpcr0000gn/T//cc9rD4AV.s 			page 6


  99:queue.c       ****     return str1 - start;
 174              		.loc 1 99 5 is_stmt 1
 100:queue.c       **** }
 175              		.loc 1 100 1 is_stmt 0
 176 0012 3385A740 		sub	a0,a5,a0
 177              	.LVL8:
 178 0016 8280     		ret
 179              	.LVL9:
 180              	.L12:
  88:queue.c       ****     }
 181              		.loc 1 88 9 is_stmt 1
  88:queue.c       ****     }
 182              		.loc 1 88 13 is_stmt 0
 183 0018 8507     		addi	a5,a5,1
 184              	.LVL10:
 185 001a E5B7     		j	.L11
 186              	.L14:
  92:queue.c       ****         str1++;
 187              		.loc 1 92 9 is_stmt 1
  92:queue.c       ****         str1++;
 188              		.loc 1 92 15 is_stmt 0
 189 001c 2380E700 		sb	a4,0(a5)
  93:queue.c       ****         str2++;
 190              		.loc 1 93 9 is_stmt 1
  94:queue.c       ****     }
 191              		.loc 1 94 13 is_stmt 0
 192 0020 8505     		addi	a1,a1,1
 193              	.LVL11:
  93:queue.c       ****         str2++;
 194              		.loc 1 93 13
 195 0022 8507     		addi	a5,a5,1
 196              	.LVL12:
  94:queue.c       ****     }
 197              		.loc 1 94 9 is_stmt 1
 198 0024 D5B7     		j	.L13
 199              		.cfi_endproc
 200              	.LFE7:
 202              		.section	.text.dequeue_string,"ax",@progbits
 203              		.align	1
 204              		.globl	dequeue_string
 206              	dequeue_string:
 207              	.LFB4:
  38:queue.c       ****     int str_len = 0;
 208              		.loc 1 38 53
 209              		.cfi_startproc
 210              	.LVL13:
  39:queue.c       ****     int blocks_dequeued = 0; // Track the number of blocks dequeued
 211              		.loc 1 39 5
  40:queue.c       **** 
 212              		.loc 1 40 5
  43:queue.c       ****         return 0; // Return 0 to indicate that the queue is empty.
 213              		.loc 1 43 5
  43:queue.c       ****         return 0; // Return 0 to indicate that the queue is empty.
 214              		.loc 1 43 10 is_stmt 0
 215 0000 B7070000 		lui	a5,%hi(w)
 216 0004 13870700 		addi	a4,a5,%lo(w)
 217 0008 9166     		li	a3,16384
GAS LISTING /var/folders/yy/83vjwp7d53j56dbzj8_jnpcr0000gn/T//cc9rD4AV.s 			page 7


  38:queue.c       ****     int str_len = 0;
 218              		.loc 1 38 53
 219 000a 0111     		addi	sp,sp,-32
 220              	.LCFI0:
 221              		.cfi_def_cfa_offset 32
  43:queue.c       ****         return 0; // Return 0 to indicate that the queue is empty.
 222              		.loc 1 43 10
 223 000c 3697     		add	a4,a4,a3
  38:queue.c       ****     int str_len = 0;
 224              		.loc 1 38 53
 225 000e 26CA     		sw	s1,20(sp)
 226              		.cfi_offset 9, -12
  43:queue.c       ****         return 0; // Return 0 to indicate that the queue is empty.
 227              		.loc 1 43 10
 228 0010 4443     		lw	s1,4(a4)
  38:queue.c       ****     int str_len = 0;
 229              		.loc 1 38 53
 230 0012 06CE     		sw	ra,28(sp)
 231 0014 22CC     		sw	s0,24(sp)
 232 0016 4AC8     		sw	s2,16(sp)
 233 0018 4EC6     		sw	s3,12(sp)
 234 001a 52C4     		sw	s4,8(sp)
 235 001c 56C2     		sw	s5,4(sp)
 236              		.cfi_offset 1, -4
 237              		.cfi_offset 8, -8
 238              		.cfi_offset 18, -16
 239              		.cfi_offset 19, -20
 240              		.cfi_offset 20, -24
 241              		.cfi_offset 21, -28
  43:queue.c       ****         return 0; // Return 0 to indicate that the queue is empty.
 242              		.loc 1 43 8
 243 001e 99CC     		beq	s1,zero,.L15
  45:queue.c       ****         return -1; // Return -1 to indicate that there are not enough blocks in the queue.
 244              		.loc 1 45 12 is_stmt 1
  45:queue.c       ****         return -1; // Return -1 to indicate that there are not enough blocks in the queue.
 245              		.loc 1 45 15 is_stmt 0
 246 0020 63CCB404 		blt	s1,a1,.L19
 247 0024 37440000 		lui	s0,%hi(w+16384)
 248 0028 93890700 		addi	s3,a5,%lo(w)
 249 002c 13040400 		addi	s0,s0,%lo(w+16384)
 250 0030 2E89     		mv	s2,a1
 251 0032 AA8A     		mv	s5,a0
 252              	.LBB4:
 253              	.LBB5:
  40:queue.c       **** 
 254              		.loc 1 40 9
 255 0034 014A     		li	s4,0
  39:queue.c       ****     int blocks_dequeued = 0; // Track the number of blocks dequeued
 256              		.loc 1 39 9
 257 0036 8144     		li	s1,0
 258              	.LVL14:
 259              	.L17:
  50:queue.c       ****         // Concatenate the next string from the queue into the 'string' buffer.
 260              		.loc 1 50 11
 261 0038 634C2A01 		bgt	s2,s4,.L18
 262              	.LVL15:
 263              	.L15:
GAS LISTING /var/folders/yy/83vjwp7d53j56dbzj8_jnpcr0000gn/T//cc9rD4AV.s 			page 8


 264              	.LBE5:
 265              	.LBE4:
  59:queue.c       **** 
 266              		.loc 1 59 1
 267 003c F240     		lw	ra,28(sp)
 268              		.cfi_remember_state
 269              		.cfi_restore 1
 270 003e 6244     		lw	s0,24(sp)
 271              		.cfi_restore 8
 272 0040 2685     		mv	a0,s1
 273 0042 4249     		lw	s2,16(sp)
 274              		.cfi_restore 18
 275 0044 D244     		lw	s1,20(sp)
 276              		.cfi_restore 9
 277 0046 B249     		lw	s3,12(sp)
 278              		.cfi_restore 19
 279 0048 224A     		lw	s4,8(sp)
 280              		.cfi_restore 20
 281 004a 924A     		lw	s5,4(sp)
 282              		.cfi_restore 21
 283 004c 0561     		addi	sp,sp,32
 284              	.LCFI1:
 285              		.cfi_def_cfa_offset 0
 286 004e 8280     		jr	ra
 287              	.LVL16:
 288              	.L18:
 289              	.LCFI2:
 290              		.cfi_restore_state
 291              	.LBB7:
 292              	.LBB6:
  52:queue.c       ****         w.head = (w.head + 1) % w.memorySize; // Move to the next element in the queue.
 293              		.loc 1 52 9 is_stmt 1
  52:queue.c       ****         w.head = (w.head + 1) % w.memorySize; // Move to the next element in the queue.
 294              		.loc 1 52 45 is_stmt 0
 295 0050 0C44     		lw	a1,8(s0)
  52:queue.c       ****         w.head = (w.head + 1) % w.memorySize; // Move to the next element in the queue.
 296              		.loc 1 52 20
 297 0052 5685     		mv	a0,s5
  55:queue.c       ****     }
 298              		.loc 1 55 24
 299 0054 050A     		addi	s4,s4,1
 300              	.LVL17:
  52:queue.c       ****         w.head = (w.head + 1) % w.memorySize; // Move to the next element in the queue.
 301              		.loc 1 52 45
 302 0056 A605     		slli	a1,a1,9
  52:queue.c       ****         w.head = (w.head + 1) % w.memorySize; // Move to the next element in the queue.
 303              		.loc 1 52 20
 304 0058 CE95     		add	a1,s3,a1
 305 005a 97000000 		call	fuseStrings
 305      E7800000 
 306              	.LVL18:
  53:queue.c       ****         w.size--; // Decrement the size of the queue.
 307              		.loc 1 53 26
 308 0062 1C44     		lw	a5,8(s0)
  53:queue.c       ****         w.size--; // Decrement the size of the queue.
 309              		.loc 1 53 31
 310 0064 1840     		lw	a4,0(s0)
GAS LISTING /var/folders/yy/83vjwp7d53j56dbzj8_jnpcr0000gn/T//cc9rD4AV.s 			page 9


  52:queue.c       ****         w.head = (w.head + 1) % w.memorySize; // Move to the next element in the queue.
 311              		.loc 1 52 17
 312 0066 AA94     		add	s1,s1,a0
 313              	.LVL19:
  53:queue.c       ****         w.size--; // Decrement the size of the queue.
 314              		.loc 1 53 9 is_stmt 1
  53:queue.c       ****         w.size--; // Decrement the size of the queue.
 315              		.loc 1 53 26 is_stmt 0
 316 0068 8507     		addi	a5,a5,1
  53:queue.c       ****         w.size--; // Decrement the size of the queue.
 317              		.loc 1 53 31
 318 006a B3E7E702 		rem	a5,a5,a4
  53:queue.c       ****         w.size--; // Decrement the size of the queue.
 319              		.loc 1 53 16
 320 006e 1CC4     		sw	a5,8(s0)
  54:queue.c       ****         blocks_dequeued++; // Increment the number of blocks dequeued.
 321              		.loc 1 54 9 is_stmt 1
  54:queue.c       ****         blocks_dequeued++; // Increment the number of blocks dequeued.
 322              		.loc 1 54 15 is_stmt 0
 323 0070 5C40     		lw	a5,4(s0)
 324 0072 FD17     		addi	a5,a5,-1
 325 0074 5CC0     		sw	a5,4(s0)
  55:queue.c       ****     }
 326              		.loc 1 55 9 is_stmt 1
 327              	.LVL20:
 328 0076 C9B7     		j	.L17
 329              	.LVL21:
 330              	.L19:
 331              	.LBE6:
 332              	.LBE7:
  46:queue.c       ****     }
 333              		.loc 1 46 16 is_stmt 0
 334 0078 FD54     		li	s1,-1
 335 007a C9B7     		j	.L15
 336              		.cfi_endproc
 337              	.LFE4:
 339              		.section	.text.empty_string_queue,"ax",@progbits
 340              		.align	1
 341              		.globl	empty_string_queue
 343              	empty_string_queue:
 344              	.LFB6:
  65:queue.c       ****     int str_len = 0;
 345              		.loc 1 65 55 is_stmt 1
 346              		.cfi_startproc
 347              	.LVL22:
  66:queue.c       ****     int blocks_dequeued = 0;
 348              		.loc 1 66 5
  67:queue.c       ****     
 349              		.loc 1 67 5
  69:queue.c       ****         str_len = dequeue_string(dest,i);
 350              		.loc 1 69 5
 351              	.LBB8:
  69:queue.c       ****         str_len = dequeue_string(dest,i);
 352              		.loc 1 69 9
 353              	.LBE8:
  65:queue.c       ****     int str_len = 0;
 354              		.loc 1 65 55 is_stmt 0
GAS LISTING /var/folders/yy/83vjwp7d53j56dbzj8_jnpcr0000gn/T//cc9rD4AV.s 			page 10


 355 0000 0111     		addi	sp,sp,-32
 356              	.LCFI3:
 357              		.cfi_def_cfa_offset 32
 358 0002 26CA     		sw	s1,20(sp)
 359 0004 4AC8     		sw	s2,16(sp)
 360 0006 4EC6     		sw	s3,12(sp)
 361              		.cfi_offset 9, -12
 362              		.cfi_offset 18, -16
 363              		.cfi_offset 19, -20
 364 0008 2A89     		mv	s2,a0
 365 000a 06CE     		sw	ra,28(sp)
 366 000c 22CC     		sw	s0,24(sp)
 367              		.cfi_offset 1, -4
 368              		.cfi_offset 8, -8
  65:queue.c       ****     int str_len = 0;
 369              		.loc 1 65 55
 370 000e AE89     		mv	s3,a1
 371              	.LBB9:
  69:queue.c       ****         str_len = dequeue_string(dest,i);
 372              		.loc 1 69 13
 373 0010 AE84     		mv	s1,a1
 374              	.LBE9:
  66:queue.c       ****     int blocks_dequeued = 0;
 375              		.loc 1 66 9
 376 0012 0145     		li	a0,0
 377              	.LVL23:
 378              	.L25:
 379              	.LBB10:
  69:queue.c       ****         str_len = dequeue_string(dest,i);
 380              		.loc 1 69 5 discriminator 1
 381 0014 63429004 		bgt	s1,zero,.L27
 382              	.LBE10:
  67:queue.c       ****     
 383              		.loc 1 67 9
 384 0018 8144     		li	s1,0
 385              	.LVL24:
 386              	.L26:
  76:queue.c       ****         w.buf[w.head][w.tail_string] = '\0';
 387              		.loc 1 76 5 is_stmt 1
  76:queue.c       ****         w.buf[w.head][w.tail_string] = '\0';
 388              		.loc 1 76 9 is_stmt 0
 389 001a B7050000 		lui	a1,%hi(w)
 390 001e 93850500 		addi	a1,a1,%lo(w)
 391 0022 1164     		li	s0,16384
 392 0024 2E94     		add	s0,a1,s0
  76:queue.c       ****         w.buf[w.head][w.tail_string] = '\0';
 393              		.loc 1 76 7
 394 0026 5C40     		lw	a5,4(s0)
 395 0028 8DE3     		bne	a5,zero,.L24
  76:queue.c       ****         w.buf[w.head][w.tail_string] = '\0';
 396              		.loc 1 76 20 discriminator 1
 397 002a 63D03403 		bge	s1,s3,.L24
  77:queue.c       ****         str_len = fuseStrings(dest, w.buf[w.head]);
 398              		.loc 1 77 9 is_stmt 1
  77:queue.c       ****         str_len = fuseStrings(dest, w.buf[w.head]);
 399              		.loc 1 77 16 is_stmt 0
 400 002e 1844     		lw	a4,8(s0)
GAS LISTING /var/folders/yy/83vjwp7d53j56dbzj8_jnpcr0000gn/T//cc9rD4AV.s 			page 11


  77:queue.c       ****         str_len = fuseStrings(dest, w.buf[w.head]);
 401              		.loc 1 77 38
 402 0030 1C48     		lw	a5,16(s0)
  78:queue.c       ****         w.tail_string = 0;
 403              		.loc 1 78 19
 404 0032 4A85     		mv	a0,s2
 405              	.LVL25:
  77:queue.c       ****         str_len = fuseStrings(dest, w.buf[w.head]);
 406              		.loc 1 77 38
 407 0034 2607     		slli	a4,a4,9
 408 0036 BA95     		add	a1,a1,a4
 409 0038 AE97     		add	a5,a1,a5
 410 003a 23800700 		sb	zero,0(a5)
  78:queue.c       ****         w.tail_string = 0;
 411              		.loc 1 78 9 is_stmt 1
  78:queue.c       ****         w.tail_string = 0;
 412              		.loc 1 78 19 is_stmt 0
 413 003e 97000000 		call	fuseStrings
 413      E7800000 
 414              	.LVL26:
  79:queue.c       ****     }
 415              		.loc 1 79 9 is_stmt 1
  79:queue.c       ****     }
 416              		.loc 1 79 23 is_stmt 0
 417 0046 23280400 		sw	zero,16(s0)
  81:queue.c       **** }
 418              		.loc 1 81 5 is_stmt 1
 419              	.L24:
  82:queue.c       **** 
 420              		.loc 1 82 1 is_stmt 0
 421 004a F240     		lw	ra,28(sp)
 422              		.cfi_remember_state
 423              		.cfi_restore 1
 424 004c 6244     		lw	s0,24(sp)
 425              		.cfi_restore 8
 426 004e D244     		lw	s1,20(sp)
 427              		.cfi_restore 9
 428              	.LVL27:
 429 0050 4249     		lw	s2,16(sp)
 430              		.cfi_restore 18
 431              	.LVL28:
 432 0052 B249     		lw	s3,12(sp)
 433              		.cfi_restore 19
 434              	.LVL29:
 435 0054 0561     		addi	sp,sp,32
 436              	.LCFI4:
 437              		.cfi_def_cfa_offset 0
 438 0056 8280     		jr	ra
 439              	.LVL30:
 440              	.L27:
 441              	.LCFI5:
 442              		.cfi_restore_state
 443              	.LBB11:
  70:queue.c       ****         if(str_len > 0){
 444              		.loc 1 70 9 is_stmt 1
  70:queue.c       ****         if(str_len > 0){
 445              		.loc 1 70 19 is_stmt 0
GAS LISTING /var/folders/yy/83vjwp7d53j56dbzj8_jnpcr0000gn/T//cc9rD4AV.s 			page 12


 446 0058 A685     		mv	a1,s1
 447 005a 4A85     		mv	a0,s2
 448              	.LVL31:
 449 005c 97000000 		call	dequeue_string
 449      E7800000 
 450              	.LVL32:
  71:queue.c       ****             blocks_dequeued = i;
 451              		.loc 1 71 9 is_stmt 1
  71:queue.c       ****             blocks_dequeued = i;
 452              		.loc 1 71 11 is_stmt 0
 453 0064 E34BA0FA 		bgt	a0,zero,.L26
  69:queue.c       ****         str_len = dequeue_string(dest,i);
 454              		.loc 1 69 41 discriminator 2
 455 0068 FD14     		addi	s1,s1,-1
 456              	.LVL33:
 457 006a 6DB7     		j	.L25
 458              	.LBE11:
 459              		.cfi_endproc
 460              	.LFE6:
 462              		.section	.text.clear_queues,"ax",@progbits
 463              		.align	1
 464              		.globl	clear_queues
 466              	clear_queues:
 467              	.LFB8:
 101:queue.c       **** 
 102:queue.c       **** void clear_queues(void) {
 468              		.loc 1 102 25 is_stmt 1
 469              		.cfi_startproc
 103:queue.c       ****     // Reset the main queue (w)
 104:queue.c       ****     w.size = SIZE_INIT;
 470              		.loc 1 104 5
 471              		.loc 1 104 12 is_stmt 0
 472 0000 B7070000 		lui	a5,%hi(w)
 473 0004 13870700 		addi	a4,a5,%lo(w)
 474 0008 9166     		li	a3,16384
 475 000a 3697     		add	a4,a4,a3
 476 000c 23220700 		sw	zero,4(a4)
 105:queue.c       ****     w.head = HEAD_INIT;
 477              		.loc 1 105 5 is_stmt 1
 478              		.loc 1 105 12 is_stmt 0
 479 0010 23240700 		sw	zero,8(a4)
 106:queue.c       ****     w.tail = TAIL_INIT;
 480              		.loc 1 106 5 is_stmt 1
 481              		.loc 1 106 12 is_stmt 0
 482 0014 23260700 		sw	zero,12(a4)
 107:queue.c       **** 
 108:queue.c       ****     // Reset the string queue (w)
 109:queue.c       ****     w.size = SIZE_INIT;
 483              		.loc 1 109 5 is_stmt 1
 110:queue.c       ****     w.head = HEAD_INIT;
 484              		.loc 1 110 5
 111:queue.c       ****     w.tail = TAIL_INIT;
 485              		.loc 1 111 5
 112:queue.c       ****     w.tail_string = TAIL_INIT;
 486              		.loc 1 112 5
 487              		.loc 1 112 19 is_stmt 0
 488 0018 23280700 		sw	zero,16(a4)
GAS LISTING /var/folders/yy/83vjwp7d53j56dbzj8_jnpcr0000gn/T//cc9rD4AV.s 			page 13


 113:queue.c       **** 
 114:queue.c       ****     // Clear values in the string queue
 115:queue.c       ****     for (int i = 0; i < STRING_QUEUE_SIZE; i++) {
 489              		.loc 1 115 5 is_stmt 1
 490              	.LBB12:
 491              		.loc 1 115 10
 492              	.LVL34:
 493 001c 93870700 		addi	a5,a5,%lo(w)
 494              	.LBB13:
 116:queue.c       ****         for (int j = 0; j < MAX_STRING_SIZE; j++) {
 495              		.loc 1 116 9 is_stmt 0
 496 0020 13060020 		li	a2,512
 497              	.LVL35:
 498              	.L31:
 499              		.loc 1 116 18
 500 0024 8146     		li	a3,0
 501              	.LVL36:
 502              	.L32:
 117:queue.c       ****             w.buf[i][j] = '\0';
 503              		.loc 1 117 13 is_stmt 1 discriminator 3
 504              		.loc 1 117 25 is_stmt 0 discriminator 3
 505 0026 B385D700 		add	a1,a5,a3
 506 002a 23800500 		sb	zero,0(a1)
 116:queue.c       ****         for (int j = 0; j < MAX_STRING_SIZE; j++) {
 507              		.loc 1 116 47 discriminator 3
 508 002e 8506     		addi	a3,a3,1
 509              	.LVL37:
 116:queue.c       ****         for (int j = 0; j < MAX_STRING_SIZE; j++) {
 510              		.loc 1 116 9 discriminator 3
 511 0030 E39BC6FE 		bne	a3,a2,.L32
 512 0034 93870720 		addi	a5,a5,512
 513              	.LBE13:
 115:queue.c       ****         for (int j = 0; j < MAX_STRING_SIZE; j++) {
 514              		.loc 1 115 5 discriminator 2
 515 0038 E316F7FE 		bne	a4,a5,.L31
 516              	.LBE12:
 118:queue.c       ****         }
 119:queue.c       ****     }
 120:queue.c       **** }
 517              		.loc 1 120 1
 518 003c 8280     		ret
 519              		.cfi_endproc
 520              	.LFE8:
 522              		.comm	w,16404,4
 523              		.comm	sample_buffer,16,4
 524              		.text
 525              	.Letext0:
 526              		.file 2 "/Users/gulda/Documents/risc-v/toolchain-gd32v-v200-osx/compiler/riscv64-unknown-elf/inclu
 527              		.file 3 "/Users/gulda/Documents/risc-v/toolchain-gd32v-v200-osx/compiler/riscv64-unknown-elf/inclu
 528              		.file 4 "../../firmware/GD32VF103_standard_peripheral/system_gd32vf103.h"
 529              		.file 5 "lib/dma/include/dma.h"
 530              		.file 6 "queue.h"
GAS LISTING /var/folders/yy/83vjwp7d53j56dbzj8_jnpcr0000gn/T//cc9rD4AV.s 			page 14


DEFINED SYMBOLS
                            *ABS*:0000000000000000 queue.c
/var/folders/yy/83vjwp7d53j56dbzj8_jnpcr0000gn/T//cc9rD4AV.s:13     .text.init_q:0000000000000000 init_q
/var/folders/yy/83vjwp7d53j56dbzj8_jnpcr0000gn/T//cc9rD4AV.s:17     .text.init_q:0000000000000000 .L0 
/var/folders/yy/83vjwp7d53j56dbzj8_jnpcr0000gn/T//cc9rD4AV.s:18     .text.init_q:0000000000000000 .L0 
/var/folders/yy/83vjwp7d53j56dbzj8_jnpcr0000gn/T//cc9rD4AV.s:19     .text.init_q:0000000000000000 .L0 
                            *COM*:0000000000004014 w
/var/folders/yy/83vjwp7d53j56dbzj8_jnpcr0000gn/T//cc9rD4AV.s:20     .text.init_q:0000000000000000 .L0 
/var/folders/yy/83vjwp7d53j56dbzj8_jnpcr0000gn/T//cc9rD4AV.s:25     .text.init_q:000000000000000e .L0 
/var/folders/yy/83vjwp7d53j56dbzj8_jnpcr0000gn/T//cc9rD4AV.s:26     .text.init_q:000000000000000e .L0 
/var/folders/yy/83vjwp7d53j56dbzj8_jnpcr0000gn/T//cc9rD4AV.s:28     .text.init_q:0000000000000012 .L0 
/var/folders/yy/83vjwp7d53j56dbzj8_jnpcr0000gn/T//cc9rD4AV.s:29     .text.init_q:0000000000000012 .L0 
/var/folders/yy/83vjwp7d53j56dbzj8_jnpcr0000gn/T//cc9rD4AV.s:31     .text.init_q:0000000000000016 .L0 
/var/folders/yy/83vjwp7d53j56dbzj8_jnpcr0000gn/T//cc9rD4AV.s:32     .text.init_q:0000000000000016 .L0 
/var/folders/yy/83vjwp7d53j56dbzj8_jnpcr0000gn/T//cc9rD4AV.s:34     .text.init_q:000000000000001a .L0 
/var/folders/yy/83vjwp7d53j56dbzj8_jnpcr0000gn/T//cc9rD4AV.s:35     .text.init_q:000000000000001a .L0 
/var/folders/yy/83vjwp7d53j56dbzj8_jnpcr0000gn/T//cc9rD4AV.s:37     .text.init_q:000000000000001e .L0 
/var/folders/yy/83vjwp7d53j56dbzj8_jnpcr0000gn/T//cc9rD4AV.s:38     .text.init_q:0000000000000020 .L0 
/var/folders/yy/83vjwp7d53j56dbzj8_jnpcr0000gn/T//cc9rD4AV.s:45     .text.enqueue_string:0000000000000000 enqueue_string
/var/folders/yy/83vjwp7d53j56dbzj8_jnpcr0000gn/T//cc9rD4AV.s:48     .text.enqueue_string:0000000000000000 .L0 
/var/folders/yy/83vjwp7d53j56dbzj8_jnpcr0000gn/T//cc9rD4AV.s:50     .text.enqueue_string:0000000000000000 .L0 
/var/folders/yy/83vjwp7d53j56dbzj8_jnpcr0000gn/T//cc9rD4AV.s:51     .text.enqueue_string:0000000000000000 .L0 
/var/folders/yy/83vjwp7d53j56dbzj8_jnpcr0000gn/T//cc9rD4AV.s:52     .text.enqueue_string:0000000000000000 .L0 
/var/folders/yy/83vjwp7d53j56dbzj8_jnpcr0000gn/T//cc9rD4AV.s:58     .text.enqueue_string:0000000000000010 .L0 
/var/folders/yy/83vjwp7d53j56dbzj8_jnpcr0000gn/T//cc9rD4AV.s:63     .text.enqueue_string:000000000000001e .L0 
/var/folders/yy/83vjwp7d53j56dbzj8_jnpcr0000gn/T//cc9rD4AV.s:65     .text.enqueue_string:0000000000000022 .L0 
/var/folders/yy/83vjwp7d53j56dbzj8_jnpcr0000gn/T//cc9rD4AV.s:67     .text.enqueue_string:0000000000000026 .L0 
/var/folders/yy/83vjwp7d53j56dbzj8_jnpcr0000gn/T//cc9rD4AV.s:73     .text.enqueue_string:000000000000002a .L0 
/var/folders/yy/83vjwp7d53j56dbzj8_jnpcr0000gn/T//cc9rD4AV.s:74     .text.enqueue_string:000000000000002a .L0 
/var/folders/yy/83vjwp7d53j56dbzj8_jnpcr0000gn/T//cc9rD4AV.s:76     .text.enqueue_string:000000000000002c .L0 
/var/folders/yy/83vjwp7d53j56dbzj8_jnpcr0000gn/T//cc9rD4AV.s:78     .text.enqueue_string:000000000000002e .L0 
/var/folders/yy/83vjwp7d53j56dbzj8_jnpcr0000gn/T//cc9rD4AV.s:81     .text.enqueue_string:0000000000000030 .L0 
/var/folders/yy/83vjwp7d53j56dbzj8_jnpcr0000gn/T//cc9rD4AV.s:85     .text.enqueue_string:000000000000003a .L0 
/var/folders/yy/83vjwp7d53j56dbzj8_jnpcr0000gn/T//cc9rD4AV.s:87     .text.enqueue_string:000000000000003c .L0 
/var/folders/yy/83vjwp7d53j56dbzj8_jnpcr0000gn/T//cc9rD4AV.s:90     .text.enqueue_string:0000000000000040 .L0 
/var/folders/yy/83vjwp7d53j56dbzj8_jnpcr0000gn/T//cc9rD4AV.s:91     .text.enqueue_string:0000000000000040 .L0 
/var/folders/yy/83vjwp7d53j56dbzj8_jnpcr0000gn/T//cc9rD4AV.s:92     .text.enqueue_string:0000000000000040 .L0 
/var/folders/yy/83vjwp7d53j56dbzj8_jnpcr0000gn/T//cc9rD4AV.s:94     .text.enqueue_string:0000000000000042 .L0 
/var/folders/yy/83vjwp7d53j56dbzj8_jnpcr0000gn/T//cc9rD4AV.s:95     .text.enqueue_string:0000000000000042 .L0 
/var/folders/yy/83vjwp7d53j56dbzj8_jnpcr0000gn/T//cc9rD4AV.s:97     .text.enqueue_string:0000000000000046 .L0 
/var/folders/yy/83vjwp7d53j56dbzj8_jnpcr0000gn/T//cc9rD4AV.s:98     .text.enqueue_string:0000000000000046 .L0 
/var/folders/yy/83vjwp7d53j56dbzj8_jnpcr0000gn/T//cc9rD4AV.s:100    .text.enqueue_string:0000000000000048 .L0 
/var/folders/yy/83vjwp7d53j56dbzj8_jnpcr0000gn/T//cc9rD4AV.s:102    .text.enqueue_string:000000000000004c .L0 
/var/folders/yy/83vjwp7d53j56dbzj8_jnpcr0000gn/T//cc9rD4AV.s:104    .text.enqueue_string:000000000000004e .L0 
/var/folders/yy/83vjwp7d53j56dbzj8_jnpcr0000gn/T//cc9rD4AV.s:106    .text.enqueue_string:0000000000000052 .L0 
/var/folders/yy/83vjwp7d53j56dbzj8_jnpcr0000gn/T//cc9rD4AV.s:107    .text.enqueue_string:0000000000000052 .L0 
/var/folders/yy/83vjwp7d53j56dbzj8_jnpcr0000gn/T//cc9rD4AV.s:109    .text.enqueue_string:0000000000000056 .L0 
/var/folders/yy/83vjwp7d53j56dbzj8_jnpcr0000gn/T//cc9rD4AV.s:110    .text.enqueue_string:0000000000000056 .L0 
/var/folders/yy/83vjwp7d53j56dbzj8_jnpcr0000gn/T//cc9rD4AV.s:112    .text.enqueue_string:0000000000000058 .L0 
/var/folders/yy/83vjwp7d53j56dbzj8_jnpcr0000gn/T//cc9rD4AV.s:115    .text.enqueue_string:000000000000005a .L0 
/var/folders/yy/83vjwp7d53j56dbzj8_jnpcr0000gn/T//cc9rD4AV.s:116    .text.enqueue_string:000000000000005a .L0 
/var/folders/yy/83vjwp7d53j56dbzj8_jnpcr0000gn/T//cc9rD4AV.s:118    .text.enqueue_string:000000000000005e .L0 
/var/folders/yy/83vjwp7d53j56dbzj8_jnpcr0000gn/T//cc9rD4AV.s:120    .text.enqueue_string:0000000000000062 .L0 
/var/folders/yy/83vjwp7d53j56dbzj8_jnpcr0000gn/T//cc9rD4AV.s:122    .text.enqueue_string:0000000000000064 .L0 
/var/folders/yy/83vjwp7d53j56dbzj8_jnpcr0000gn/T//cc9rD4AV.s:125    .text.enqueue_string:0000000000000068 .L0 
/var/folders/yy/83vjwp7d53j56dbzj8_jnpcr0000gn/T//cc9rD4AV.s:128    .text.enqueue_string:000000000000006a .L0 
/var/folders/yy/83vjwp7d53j56dbzj8_jnpcr0000gn/T//cc9rD4AV.s:129    .text.enqueue_string:000000000000006c .L0 
GAS LISTING /var/folders/yy/83vjwp7d53j56dbzj8_jnpcr0000gn/T//cc9rD4AV.s 			page 15


/var/folders/yy/83vjwp7d53j56dbzj8_jnpcr0000gn/T//cc9rD4AV.s:136    .text.queue_str_len:0000000000000000 queue_str_len
/var/folders/yy/83vjwp7d53j56dbzj8_jnpcr0000gn/T//cc9rD4AV.s:139    .text.queue_str_len:0000000000000000 .L0 
/var/folders/yy/83vjwp7d53j56dbzj8_jnpcr0000gn/T//cc9rD4AV.s:140    .text.queue_str_len:0000000000000000 .L0 
/var/folders/yy/83vjwp7d53j56dbzj8_jnpcr0000gn/T//cc9rD4AV.s:141    .text.queue_str_len:0000000000000000 .L0 
/var/folders/yy/83vjwp7d53j56dbzj8_jnpcr0000gn/T//cc9rD4AV.s:142    .text.queue_str_len:0000000000000000 .L0 
/var/folders/yy/83vjwp7d53j56dbzj8_jnpcr0000gn/T//cc9rD4AV.s:146    .text.queue_str_len:000000000000000c .L0 
/var/folders/yy/83vjwp7d53j56dbzj8_jnpcr0000gn/T//cc9rD4AV.s:153    .text.fuseStrings:0000000000000000 fuseStrings
/var/folders/yy/83vjwp7d53j56dbzj8_jnpcr0000gn/T//cc9rD4AV.s:156    .text.fuseStrings:0000000000000000 .L0 
/var/folders/yy/83vjwp7d53j56dbzj8_jnpcr0000gn/T//cc9rD4AV.s:158    .text.fuseStrings:0000000000000000 .L0 
/var/folders/yy/83vjwp7d53j56dbzj8_jnpcr0000gn/T//cc9rD4AV.s:159    .text.fuseStrings:0000000000000000 .L0 
/var/folders/yy/83vjwp7d53j56dbzj8_jnpcr0000gn/T//cc9rD4AV.s:160    .text.fuseStrings:0000000000000000 .L0 
/var/folders/yy/83vjwp7d53j56dbzj8_jnpcr0000gn/T//cc9rD4AV.s:161    .text.fuseStrings:0000000000000000 .L0 
/var/folders/yy/83vjwp7d53j56dbzj8_jnpcr0000gn/T//cc9rD4AV.s:168    .text.fuseStrings:0000000000000008 .L0 
/var/folders/yy/83vjwp7d53j56dbzj8_jnpcr0000gn/T//cc9rD4AV.s:170    .text.fuseStrings:000000000000000c .L0 
/var/folders/yy/83vjwp7d53j56dbzj8_jnpcr0000gn/T//cc9rD4AV.s:172    .text.fuseStrings:000000000000000e .L0 
/var/folders/yy/83vjwp7d53j56dbzj8_jnpcr0000gn/T//cc9rD4AV.s:173    .text.fuseStrings:000000000000000e .L0 
/var/folders/yy/83vjwp7d53j56dbzj8_jnpcr0000gn/T//cc9rD4AV.s:175    .text.fuseStrings:0000000000000012 .L0 
/var/folders/yy/83vjwp7d53j56dbzj8_jnpcr0000gn/T//cc9rD4AV.s:176    .text.fuseStrings:0000000000000012 .L0 
/var/folders/yy/83vjwp7d53j56dbzj8_jnpcr0000gn/T//cc9rD4AV.s:182    .text.fuseStrings:0000000000000018 .L0 
/var/folders/yy/83vjwp7d53j56dbzj8_jnpcr0000gn/T//cc9rD4AV.s:183    .text.fuseStrings:0000000000000018 .L0 
/var/folders/yy/83vjwp7d53j56dbzj8_jnpcr0000gn/T//cc9rD4AV.s:188    .text.fuseStrings:000000000000001c .L0 
/var/folders/yy/83vjwp7d53j56dbzj8_jnpcr0000gn/T//cc9rD4AV.s:189    .text.fuseStrings:000000000000001c .L0 
/var/folders/yy/83vjwp7d53j56dbzj8_jnpcr0000gn/T//cc9rD4AV.s:191    .text.fuseStrings:0000000000000020 .L0 
/var/folders/yy/83vjwp7d53j56dbzj8_jnpcr0000gn/T//cc9rD4AV.s:192    .text.fuseStrings:0000000000000020 .L0 
/var/folders/yy/83vjwp7d53j56dbzj8_jnpcr0000gn/T//cc9rD4AV.s:195    .text.fuseStrings:0000000000000022 .L0 
/var/folders/yy/83vjwp7d53j56dbzj8_jnpcr0000gn/T//cc9rD4AV.s:198    .text.fuseStrings:0000000000000024 .L0 
/var/folders/yy/83vjwp7d53j56dbzj8_jnpcr0000gn/T//cc9rD4AV.s:199    .text.fuseStrings:0000000000000026 .L0 
/var/folders/yy/83vjwp7d53j56dbzj8_jnpcr0000gn/T//cc9rD4AV.s:206    .text.dequeue_string:0000000000000000 dequeue_string
/var/folders/yy/83vjwp7d53j56dbzj8_jnpcr0000gn/T//cc9rD4AV.s:209    .text.dequeue_string:0000000000000000 .L0 
/var/folders/yy/83vjwp7d53j56dbzj8_jnpcr0000gn/T//cc9rD4AV.s:211    .text.dequeue_string:0000000000000000 .L0 
/var/folders/yy/83vjwp7d53j56dbzj8_jnpcr0000gn/T//cc9rD4AV.s:212    .text.dequeue_string:0000000000000000 .L0 
/var/folders/yy/83vjwp7d53j56dbzj8_jnpcr0000gn/T//cc9rD4AV.s:213    .text.dequeue_string:0000000000000000 .L0 
/var/folders/yy/83vjwp7d53j56dbzj8_jnpcr0000gn/T//cc9rD4AV.s:214    .text.dequeue_string:0000000000000000 .L0 
/var/folders/yy/83vjwp7d53j56dbzj8_jnpcr0000gn/T//cc9rD4AV.s:215    .text.dequeue_string:0000000000000000 .L0 
/var/folders/yy/83vjwp7d53j56dbzj8_jnpcr0000gn/T//cc9rD4AV.s:219    .text.dequeue_string:000000000000000a .L0 
/var/folders/yy/83vjwp7d53j56dbzj8_jnpcr0000gn/T//cc9rD4AV.s:221    .text.dequeue_string:000000000000000c .L0 
/var/folders/yy/83vjwp7d53j56dbzj8_jnpcr0000gn/T//cc9rD4AV.s:223    .text.dequeue_string:000000000000000c .L0 
/var/folders/yy/83vjwp7d53j56dbzj8_jnpcr0000gn/T//cc9rD4AV.s:225    .text.dequeue_string:000000000000000e .L0 
/var/folders/yy/83vjwp7d53j56dbzj8_jnpcr0000gn/T//cc9rD4AV.s:226    .text.dequeue_string:0000000000000010 .L0 
/var/folders/yy/83vjwp7d53j56dbzj8_jnpcr0000gn/T//cc9rD4AV.s:228    .text.dequeue_string:0000000000000010 .L0 
/var/folders/yy/83vjwp7d53j56dbzj8_jnpcr0000gn/T//cc9rD4AV.s:230    .text.dequeue_string:0000000000000012 .L0 
/var/folders/yy/83vjwp7d53j56dbzj8_jnpcr0000gn/T//cc9rD4AV.s:236    .text.dequeue_string:000000000000001e .L0 
/var/folders/yy/83vjwp7d53j56dbzj8_jnpcr0000gn/T//cc9rD4AV.s:237    .text.dequeue_string:000000000000001e .L0 
/var/folders/yy/83vjwp7d53j56dbzj8_jnpcr0000gn/T//cc9rD4AV.s:238    .text.dequeue_string:000000000000001e .L0 
/var/folders/yy/83vjwp7d53j56dbzj8_jnpcr0000gn/T//cc9rD4AV.s:239    .text.dequeue_string:000000000000001e .L0 
/var/folders/yy/83vjwp7d53j56dbzj8_jnpcr0000gn/T//cc9rD4AV.s:240    .text.dequeue_string:000000000000001e .L0 
/var/folders/yy/83vjwp7d53j56dbzj8_jnpcr0000gn/T//cc9rD4AV.s:241    .text.dequeue_string:000000000000001e .L0 
/var/folders/yy/83vjwp7d53j56dbzj8_jnpcr0000gn/T//cc9rD4AV.s:243    .text.dequeue_string:000000000000001e .L0 
/var/folders/yy/83vjwp7d53j56dbzj8_jnpcr0000gn/T//cc9rD4AV.s:245    .text.dequeue_string:0000000000000020 .L0 
/var/folders/yy/83vjwp7d53j56dbzj8_jnpcr0000gn/T//cc9rD4AV.s:246    .text.dequeue_string:0000000000000020 .L0 
/var/folders/yy/83vjwp7d53j56dbzj8_jnpcr0000gn/T//cc9rD4AV.s:255    .text.dequeue_string:0000000000000034 .L0 
/var/folders/yy/83vjwp7d53j56dbzj8_jnpcr0000gn/T//cc9rD4AV.s:257    .text.dequeue_string:0000000000000036 .L0 
/var/folders/yy/83vjwp7d53j56dbzj8_jnpcr0000gn/T//cc9rD4AV.s:261    .text.dequeue_string:0000000000000038 .L0 
/var/folders/yy/83vjwp7d53j56dbzj8_jnpcr0000gn/T//cc9rD4AV.s:267    .text.dequeue_string:000000000000003c .L0 
/var/folders/yy/83vjwp7d53j56dbzj8_jnpcr0000gn/T//cc9rD4AV.s:268    .text.dequeue_string:000000000000003e .L0 
/var/folders/yy/83vjwp7d53j56dbzj8_jnpcr0000gn/T//cc9rD4AV.s:269    .text.dequeue_string:000000000000003e .L0 
/var/folders/yy/83vjwp7d53j56dbzj8_jnpcr0000gn/T//cc9rD4AV.s:271    .text.dequeue_string:0000000000000040 .L0 
GAS LISTING /var/folders/yy/83vjwp7d53j56dbzj8_jnpcr0000gn/T//cc9rD4AV.s 			page 16


/var/folders/yy/83vjwp7d53j56dbzj8_jnpcr0000gn/T//cc9rD4AV.s:274    .text.dequeue_string:0000000000000044 .L0 
/var/folders/yy/83vjwp7d53j56dbzj8_jnpcr0000gn/T//cc9rD4AV.s:276    .text.dequeue_string:0000000000000046 .L0 
/var/folders/yy/83vjwp7d53j56dbzj8_jnpcr0000gn/T//cc9rD4AV.s:278    .text.dequeue_string:0000000000000048 .L0 
/var/folders/yy/83vjwp7d53j56dbzj8_jnpcr0000gn/T//cc9rD4AV.s:280    .text.dequeue_string:000000000000004a .L0 
/var/folders/yy/83vjwp7d53j56dbzj8_jnpcr0000gn/T//cc9rD4AV.s:282    .text.dequeue_string:000000000000004c .L0 
/var/folders/yy/83vjwp7d53j56dbzj8_jnpcr0000gn/T//cc9rD4AV.s:285    .text.dequeue_string:000000000000004e .L0 
/var/folders/yy/83vjwp7d53j56dbzj8_jnpcr0000gn/T//cc9rD4AV.s:290    .text.dequeue_string:0000000000000050 .L0 
/var/folders/yy/83vjwp7d53j56dbzj8_jnpcr0000gn/T//cc9rD4AV.s:294    .text.dequeue_string:0000000000000050 .L0 
/var/folders/yy/83vjwp7d53j56dbzj8_jnpcr0000gn/T//cc9rD4AV.s:295    .text.dequeue_string:0000000000000050 .L0 
/var/folders/yy/83vjwp7d53j56dbzj8_jnpcr0000gn/T//cc9rD4AV.s:297    .text.dequeue_string:0000000000000052 .L0 
/var/folders/yy/83vjwp7d53j56dbzj8_jnpcr0000gn/T//cc9rD4AV.s:299    .text.dequeue_string:0000000000000054 .L0 
/var/folders/yy/83vjwp7d53j56dbzj8_jnpcr0000gn/T//cc9rD4AV.s:302    .text.dequeue_string:0000000000000056 .L0 
/var/folders/yy/83vjwp7d53j56dbzj8_jnpcr0000gn/T//cc9rD4AV.s:304    .text.dequeue_string:0000000000000058 .L0 
/var/folders/yy/83vjwp7d53j56dbzj8_jnpcr0000gn/T//cc9rD4AV.s:308    .text.dequeue_string:0000000000000062 .L0 
/var/folders/yy/83vjwp7d53j56dbzj8_jnpcr0000gn/T//cc9rD4AV.s:310    .text.dequeue_string:0000000000000064 .L0 
/var/folders/yy/83vjwp7d53j56dbzj8_jnpcr0000gn/T//cc9rD4AV.s:312    .text.dequeue_string:0000000000000066 .L0 
/var/folders/yy/83vjwp7d53j56dbzj8_jnpcr0000gn/T//cc9rD4AV.s:315    .text.dequeue_string:0000000000000068 .L0 
/var/folders/yy/83vjwp7d53j56dbzj8_jnpcr0000gn/T//cc9rD4AV.s:316    .text.dequeue_string:0000000000000068 .L0 
/var/folders/yy/83vjwp7d53j56dbzj8_jnpcr0000gn/T//cc9rD4AV.s:318    .text.dequeue_string:000000000000006a .L0 
/var/folders/yy/83vjwp7d53j56dbzj8_jnpcr0000gn/T//cc9rD4AV.s:320    .text.dequeue_string:000000000000006e .L0 
/var/folders/yy/83vjwp7d53j56dbzj8_jnpcr0000gn/T//cc9rD4AV.s:322    .text.dequeue_string:0000000000000070 .L0 
/var/folders/yy/83vjwp7d53j56dbzj8_jnpcr0000gn/T//cc9rD4AV.s:323    .text.dequeue_string:0000000000000070 .L0 
/var/folders/yy/83vjwp7d53j56dbzj8_jnpcr0000gn/T//cc9rD4AV.s:328    .text.dequeue_string:0000000000000076 .L0 
/var/folders/yy/83vjwp7d53j56dbzj8_jnpcr0000gn/T//cc9rD4AV.s:334    .text.dequeue_string:0000000000000078 .L0 
/var/folders/yy/83vjwp7d53j56dbzj8_jnpcr0000gn/T//cc9rD4AV.s:336    .text.dequeue_string:000000000000007c .L0 
/var/folders/yy/83vjwp7d53j56dbzj8_jnpcr0000gn/T//cc9rD4AV.s:343    .text.empty_string_queue:0000000000000000 empty_string_queue
/var/folders/yy/83vjwp7d53j56dbzj8_jnpcr0000gn/T//cc9rD4AV.s:346    .text.empty_string_queue:0000000000000000 .L0 
/var/folders/yy/83vjwp7d53j56dbzj8_jnpcr0000gn/T//cc9rD4AV.s:348    .text.empty_string_queue:0000000000000000 .L0 
/var/folders/yy/83vjwp7d53j56dbzj8_jnpcr0000gn/T//cc9rD4AV.s:349    .text.empty_string_queue:0000000000000000 .L0 
/var/folders/yy/83vjwp7d53j56dbzj8_jnpcr0000gn/T//cc9rD4AV.s:350    .text.empty_string_queue:0000000000000000 .L0 
/var/folders/yy/83vjwp7d53j56dbzj8_jnpcr0000gn/T//cc9rD4AV.s:352    .text.empty_string_queue:0000000000000000 .L0 
/var/folders/yy/83vjwp7d53j56dbzj8_jnpcr0000gn/T//cc9rD4AV.s:354    .text.empty_string_queue:0000000000000000 .L0 
/var/folders/yy/83vjwp7d53j56dbzj8_jnpcr0000gn/T//cc9rD4AV.s:355    .text.empty_string_queue:0000000000000000 .L0 
/var/folders/yy/83vjwp7d53j56dbzj8_jnpcr0000gn/T//cc9rD4AV.s:357    .text.empty_string_queue:0000000000000002 .L0 
/var/folders/yy/83vjwp7d53j56dbzj8_jnpcr0000gn/T//cc9rD4AV.s:361    .text.empty_string_queue:0000000000000008 .L0 
/var/folders/yy/83vjwp7d53j56dbzj8_jnpcr0000gn/T//cc9rD4AV.s:362    .text.empty_string_queue:0000000000000008 .L0 
/var/folders/yy/83vjwp7d53j56dbzj8_jnpcr0000gn/T//cc9rD4AV.s:363    .text.empty_string_queue:0000000000000008 .L0 
/var/folders/yy/83vjwp7d53j56dbzj8_jnpcr0000gn/T//cc9rD4AV.s:367    .text.empty_string_queue:000000000000000e .L0 
/var/folders/yy/83vjwp7d53j56dbzj8_jnpcr0000gn/T//cc9rD4AV.s:368    .text.empty_string_queue:000000000000000e .L0 
/var/folders/yy/83vjwp7d53j56dbzj8_jnpcr0000gn/T//cc9rD4AV.s:370    .text.empty_string_queue:000000000000000e .L0 
/var/folders/yy/83vjwp7d53j56dbzj8_jnpcr0000gn/T//cc9rD4AV.s:373    .text.empty_string_queue:0000000000000010 .L0 
/var/folders/yy/83vjwp7d53j56dbzj8_jnpcr0000gn/T//cc9rD4AV.s:376    .text.empty_string_queue:0000000000000012 .L0 
/var/folders/yy/83vjwp7d53j56dbzj8_jnpcr0000gn/T//cc9rD4AV.s:381    .text.empty_string_queue:0000000000000014 .L0 
/var/folders/yy/83vjwp7d53j56dbzj8_jnpcr0000gn/T//cc9rD4AV.s:384    .text.empty_string_queue:0000000000000018 .L0 
/var/folders/yy/83vjwp7d53j56dbzj8_jnpcr0000gn/T//cc9rD4AV.s:388    .text.empty_string_queue:000000000000001a .L0 
/var/folders/yy/83vjwp7d53j56dbzj8_jnpcr0000gn/T//cc9rD4AV.s:389    .text.empty_string_queue:000000000000001a .L0 
/var/folders/yy/83vjwp7d53j56dbzj8_jnpcr0000gn/T//cc9rD4AV.s:394    .text.empty_string_queue:0000000000000026 .L0 
/var/folders/yy/83vjwp7d53j56dbzj8_jnpcr0000gn/T//cc9rD4AV.s:397    .text.empty_string_queue:000000000000002a .L0 
/var/folders/yy/83vjwp7d53j56dbzj8_jnpcr0000gn/T//cc9rD4AV.s:399    .text.empty_string_queue:000000000000002e .L0 
/var/folders/yy/83vjwp7d53j56dbzj8_jnpcr0000gn/T//cc9rD4AV.s:400    .text.empty_string_queue:000000000000002e .L0 
/var/folders/yy/83vjwp7d53j56dbzj8_jnpcr0000gn/T//cc9rD4AV.s:402    .text.empty_string_queue:0000000000000030 .L0 
/var/folders/yy/83vjwp7d53j56dbzj8_jnpcr0000gn/T//cc9rD4AV.s:404    .text.empty_string_queue:0000000000000032 .L0 
/var/folders/yy/83vjwp7d53j56dbzj8_jnpcr0000gn/T//cc9rD4AV.s:407    .text.empty_string_queue:0000000000000034 .L0 
/var/folders/yy/83vjwp7d53j56dbzj8_jnpcr0000gn/T//cc9rD4AV.s:412    .text.empty_string_queue:000000000000003e .L0 
/var/folders/yy/83vjwp7d53j56dbzj8_jnpcr0000gn/T//cc9rD4AV.s:413    .text.empty_string_queue:000000000000003e .L0 
/var/folders/yy/83vjwp7d53j56dbzj8_jnpcr0000gn/T//cc9rD4AV.s:416    .text.empty_string_queue:0000000000000046 .L0 
/var/folders/yy/83vjwp7d53j56dbzj8_jnpcr0000gn/T//cc9rD4AV.s:417    .text.empty_string_queue:0000000000000046 .L0 
GAS LISTING /var/folders/yy/83vjwp7d53j56dbzj8_jnpcr0000gn/T//cc9rD4AV.s 			page 17


/var/folders/yy/83vjwp7d53j56dbzj8_jnpcr0000gn/T//cc9rD4AV.s:420    .text.empty_string_queue:000000000000004a .L0 
/var/folders/yy/83vjwp7d53j56dbzj8_jnpcr0000gn/T//cc9rD4AV.s:421    .text.empty_string_queue:000000000000004a .L0 
/var/folders/yy/83vjwp7d53j56dbzj8_jnpcr0000gn/T//cc9rD4AV.s:422    .text.empty_string_queue:000000000000004c .L0 
/var/folders/yy/83vjwp7d53j56dbzj8_jnpcr0000gn/T//cc9rD4AV.s:423    .text.empty_string_queue:000000000000004c .L0 
/var/folders/yy/83vjwp7d53j56dbzj8_jnpcr0000gn/T//cc9rD4AV.s:425    .text.empty_string_queue:000000000000004e .L0 
/var/folders/yy/83vjwp7d53j56dbzj8_jnpcr0000gn/T//cc9rD4AV.s:427    .text.empty_string_queue:0000000000000050 .L0 
/var/folders/yy/83vjwp7d53j56dbzj8_jnpcr0000gn/T//cc9rD4AV.s:430    .text.empty_string_queue:0000000000000052 .L0 
/var/folders/yy/83vjwp7d53j56dbzj8_jnpcr0000gn/T//cc9rD4AV.s:433    .text.empty_string_queue:0000000000000054 .L0 
/var/folders/yy/83vjwp7d53j56dbzj8_jnpcr0000gn/T//cc9rD4AV.s:437    .text.empty_string_queue:0000000000000056 .L0 
/var/folders/yy/83vjwp7d53j56dbzj8_jnpcr0000gn/T//cc9rD4AV.s:442    .text.empty_string_queue:0000000000000058 .L0 
/var/folders/yy/83vjwp7d53j56dbzj8_jnpcr0000gn/T//cc9rD4AV.s:445    .text.empty_string_queue:0000000000000058 .L0 
/var/folders/yy/83vjwp7d53j56dbzj8_jnpcr0000gn/T//cc9rD4AV.s:446    .text.empty_string_queue:0000000000000058 .L0 
/var/folders/yy/83vjwp7d53j56dbzj8_jnpcr0000gn/T//cc9rD4AV.s:452    .text.empty_string_queue:0000000000000064 .L0 
/var/folders/yy/83vjwp7d53j56dbzj8_jnpcr0000gn/T//cc9rD4AV.s:453    .text.empty_string_queue:0000000000000064 .L0 
/var/folders/yy/83vjwp7d53j56dbzj8_jnpcr0000gn/T//cc9rD4AV.s:455    .text.empty_string_queue:0000000000000068 .L0 
/var/folders/yy/83vjwp7d53j56dbzj8_jnpcr0000gn/T//cc9rD4AV.s:459    .text.empty_string_queue:000000000000006c .L0 
/var/folders/yy/83vjwp7d53j56dbzj8_jnpcr0000gn/T//cc9rD4AV.s:466    .text.clear_queues:0000000000000000 clear_queues
/var/folders/yy/83vjwp7d53j56dbzj8_jnpcr0000gn/T//cc9rD4AV.s:469    .text.clear_queues:0000000000000000 .L0 
/var/folders/yy/83vjwp7d53j56dbzj8_jnpcr0000gn/T//cc9rD4AV.s:470    .text.clear_queues:0000000000000000 .L0 
/var/folders/yy/83vjwp7d53j56dbzj8_jnpcr0000gn/T//cc9rD4AV.s:471    .text.clear_queues:0000000000000000 .L0 
/var/folders/yy/83vjwp7d53j56dbzj8_jnpcr0000gn/T//cc9rD4AV.s:472    .text.clear_queues:0000000000000000 .L0 
/var/folders/yy/83vjwp7d53j56dbzj8_jnpcr0000gn/T//cc9rD4AV.s:478    .text.clear_queues:0000000000000010 .L0 
/var/folders/yy/83vjwp7d53j56dbzj8_jnpcr0000gn/T//cc9rD4AV.s:479    .text.clear_queues:0000000000000010 .L0 
/var/folders/yy/83vjwp7d53j56dbzj8_jnpcr0000gn/T//cc9rD4AV.s:481    .text.clear_queues:0000000000000014 .L0 
/var/folders/yy/83vjwp7d53j56dbzj8_jnpcr0000gn/T//cc9rD4AV.s:482    .text.clear_queues:0000000000000014 .L0 
/var/folders/yy/83vjwp7d53j56dbzj8_jnpcr0000gn/T//cc9rD4AV.s:484    .text.clear_queues:0000000000000018 .L0 
/var/folders/yy/83vjwp7d53j56dbzj8_jnpcr0000gn/T//cc9rD4AV.s:485    .text.clear_queues:0000000000000018 .L0 
/var/folders/yy/83vjwp7d53j56dbzj8_jnpcr0000gn/T//cc9rD4AV.s:486    .text.clear_queues:0000000000000018 .L0 
/var/folders/yy/83vjwp7d53j56dbzj8_jnpcr0000gn/T//cc9rD4AV.s:487    .text.clear_queues:0000000000000018 .L0 
/var/folders/yy/83vjwp7d53j56dbzj8_jnpcr0000gn/T//cc9rD4AV.s:488    .text.clear_queues:0000000000000018 .L0 
/var/folders/yy/83vjwp7d53j56dbzj8_jnpcr0000gn/T//cc9rD4AV.s:491    .text.clear_queues:000000000000001c .L0 
/var/folders/yy/83vjwp7d53j56dbzj8_jnpcr0000gn/T//cc9rD4AV.s:493    .text.clear_queues:000000000000001c .L0 
/var/folders/yy/83vjwp7d53j56dbzj8_jnpcr0000gn/T//cc9rD4AV.s:496    .text.clear_queues:0000000000000020 .L0 
/var/folders/yy/83vjwp7d53j56dbzj8_jnpcr0000gn/T//cc9rD4AV.s:500    .text.clear_queues:0000000000000024 .L0 
/var/folders/yy/83vjwp7d53j56dbzj8_jnpcr0000gn/T//cc9rD4AV.s:504    .text.clear_queues:0000000000000026 .L0 
/var/folders/yy/83vjwp7d53j56dbzj8_jnpcr0000gn/T//cc9rD4AV.s:505    .text.clear_queues:0000000000000026 .L0 
/var/folders/yy/83vjwp7d53j56dbzj8_jnpcr0000gn/T//cc9rD4AV.s:508    .text.clear_queues:000000000000002e .L0 
/var/folders/yy/83vjwp7d53j56dbzj8_jnpcr0000gn/T//cc9rD4AV.s:511    .text.clear_queues:0000000000000030 .L0 
/var/folders/yy/83vjwp7d53j56dbzj8_jnpcr0000gn/T//cc9rD4AV.s:515    .text.clear_queues:0000000000000038 .L0 
/var/folders/yy/83vjwp7d53j56dbzj8_jnpcr0000gn/T//cc9rD4AV.s:518    .text.clear_queues:000000000000003c .L0 
/var/folders/yy/83vjwp7d53j56dbzj8_jnpcr0000gn/T//cc9rD4AV.s:519    .text.clear_queues:000000000000003e .L0 
                            *COM*:0000000000000010 sample_buffer
/var/folders/yy/83vjwp7d53j56dbzj8_jnpcr0000gn/T//cc9rD4AV.s:41     .text.init_q:0000000000000020 .L0 
/var/folders/yy/83vjwp7d53j56dbzj8_jnpcr0000gn/T//cc9rD4AV.s:132    .text.enqueue_string:000000000000006c .L0 
/var/folders/yy/83vjwp7d53j56dbzj8_jnpcr0000gn/T//cc9rD4AV.s:149    .text.queue_str_len:000000000000000c .L0 
/var/folders/yy/83vjwp7d53j56dbzj8_jnpcr0000gn/T//cc9rD4AV.s:202    .text.fuseStrings:0000000000000026 .L0 
/var/folders/yy/83vjwp7d53j56dbzj8_jnpcr0000gn/T//cc9rD4AV.s:339    .text.dequeue_string:000000000000007c .L0 
/var/folders/yy/83vjwp7d53j56dbzj8_jnpcr0000gn/T//cc9rD4AV.s:462    .text.empty_string_queue:000000000000006c .L0 
/var/folders/yy/83vjwp7d53j56dbzj8_jnpcr0000gn/T//cc9rD4AV.s:524    .text.clear_queues:000000000000003e .L0 
                     .debug_frame:0000000000000000 .L0 
/var/folders/yy/83vjwp7d53j56dbzj8_jnpcr0000gn/T//cc9rD4AV.s:114    .text.enqueue_string:000000000000005a .L4
/var/folders/yy/83vjwp7d53j56dbzj8_jnpcr0000gn/T//cc9rD4AV.s:123    .text.enqueue_string:0000000000000068 .L8
/var/folders/yy/83vjwp7d53j56dbzj8_jnpcr0000gn/T//cc9rD4AV.s:71     .text.enqueue_string:000000000000002a .L6
/var/folders/yy/83vjwp7d53j56dbzj8_jnpcr0000gn/T//cc9rD4AV.s:180    .text.fuseStrings:0000000000000018 .L12
/var/folders/yy/83vjwp7d53j56dbzj8_jnpcr0000gn/T//cc9rD4AV.s:186    .text.fuseStrings:000000000000001c .L14
/var/folders/yy/83vjwp7d53j56dbzj8_jnpcr0000gn/T//cc9rD4AV.s:163    .text.fuseStrings:0000000000000002 .L11
/var/folders/yy/83vjwp7d53j56dbzj8_jnpcr0000gn/T//cc9rD4AV.s:166    .text.fuseStrings:0000000000000008 .L13
GAS LISTING /var/folders/yy/83vjwp7d53j56dbzj8_jnpcr0000gn/T//cc9rD4AV.s 			page 18


/var/folders/yy/83vjwp7d53j56dbzj8_jnpcr0000gn/T//cc9rD4AV.s:263    .text.dequeue_string:000000000000003c .L15
/var/folders/yy/83vjwp7d53j56dbzj8_jnpcr0000gn/T//cc9rD4AV.s:330    .text.dequeue_string:0000000000000078 .L19
/var/folders/yy/83vjwp7d53j56dbzj8_jnpcr0000gn/T//cc9rD4AV.s:288    .text.dequeue_string:0000000000000050 .L18
/var/folders/yy/83vjwp7d53j56dbzj8_jnpcr0000gn/T//cc9rD4AV.s:259    .text.dequeue_string:0000000000000038 .L17
/var/folders/yy/83vjwp7d53j56dbzj8_jnpcr0000gn/T//cc9rD4AV.s:440    .text.empty_string_queue:0000000000000058 .L27
/var/folders/yy/83vjwp7d53j56dbzj8_jnpcr0000gn/T//cc9rD4AV.s:419    .text.empty_string_queue:000000000000004a .L24
/var/folders/yy/83vjwp7d53j56dbzj8_jnpcr0000gn/T//cc9rD4AV.s:386    .text.empty_string_queue:000000000000001a .L26
/var/folders/yy/83vjwp7d53j56dbzj8_jnpcr0000gn/T//cc9rD4AV.s:378    .text.empty_string_queue:0000000000000014 .L25
/var/folders/yy/83vjwp7d53j56dbzj8_jnpcr0000gn/T//cc9rD4AV.s:502    .text.clear_queues:0000000000000026 .L32
/var/folders/yy/83vjwp7d53j56dbzj8_jnpcr0000gn/T//cc9rD4AV.s:498    .text.clear_queues:0000000000000024 .L31
/var/folders/yy/83vjwp7d53j56dbzj8_jnpcr0000gn/T//cc9rD4AV.s:1040   .debug_abbrev:0000000000000000 .Ldebug_abbrev0
/var/folders/yy/83vjwp7d53j56dbzj8_jnpcr0000gn/T//cc9rD4AV.s:2058   .debug_str:00000000000001e6 .LASF37
/var/folders/yy/83vjwp7d53j56dbzj8_jnpcr0000gn/T//cc9rD4AV.s:2020   .debug_str:0000000000000128 .LASF38
/var/folders/yy/83vjwp7d53j56dbzj8_jnpcr0000gn/T//cc9rD4AV.s:1982   .debug_str:0000000000000000 .LASF39
/var/folders/yy/83vjwp7d53j56dbzj8_jnpcr0000gn/T//cc9rD4AV.s:1946   .debug_ranges:0000000000000000 .Ldebug_ranges0
/var/folders/yy/83vjwp7d53j56dbzj8_jnpcr0000gn/T//cc9rD4AV.s:1980   .debug_line:0000000000000000 .Ldebug_line0
/var/folders/yy/83vjwp7d53j56dbzj8_jnpcr0000gn/T//cc9rD4AV.s:2030   .debug_str:000000000000014b .LASF0
/var/folders/yy/83vjwp7d53j56dbzj8_jnpcr0000gn/T//cc9rD4AV.s:2066   .debug_str:000000000000028c .LASF1
/var/folders/yy/83vjwp7d53j56dbzj8_jnpcr0000gn/T//cc9rD4AV.s:1984   .debug_str:000000000000004a .LASF4
/var/folders/yy/83vjwp7d53j56dbzj8_jnpcr0000gn/T//cc9rD4AV.s:2010   .debug_str:00000000000000ea .LASF2
/var/folders/yy/83vjwp7d53j56dbzj8_jnpcr0000gn/T//cc9rD4AV.s:2052   .debug_str:00000000000001ce .LASF3
/var/folders/yy/83vjwp7d53j56dbzj8_jnpcr0000gn/T//cc9rD4AV.s:2014   .debug_str:0000000000000102 .LASF5
/var/folders/yy/83vjwp7d53j56dbzj8_jnpcr0000gn/T//cc9rD4AV.s:2004   .debug_str:00000000000000bd .LASF6
/var/folders/yy/83vjwp7d53j56dbzj8_jnpcr0000gn/T//cc9rD4AV.s:2062   .debug_str:0000000000000277 .LASF7
/var/folders/yy/83vjwp7d53j56dbzj8_jnpcr0000gn/T//cc9rD4AV.s:2006   .debug_str:00000000000000d0 .LASF8
/var/folders/yy/83vjwp7d53j56dbzj8_jnpcr0000gn/T//cc9rD4AV.s:2002   .debug_str:00000000000000ab .LASF9
/var/folders/yy/83vjwp7d53j56dbzj8_jnpcr0000gn/T//cc9rD4AV.s:2042   .debug_str:0000000000000190 .LASF10
/var/folders/yy/83vjwp7d53j56dbzj8_jnpcr0000gn/T//cc9rD4AV.s:2032   .debug_str:0000000000000158 .LASF11
/var/folders/yy/83vjwp7d53j56dbzj8_jnpcr0000gn/T//cc9rD4AV.s:2034   .debug_str:000000000000016f .LASF12
/var/folders/yy/83vjwp7d53j56dbzj8_jnpcr0000gn/T//cc9rD4AV.s:2054   .debug_str:00000000000001d8 .LASF13
/var/folders/yy/83vjwp7d53j56dbzj8_jnpcr0000gn/T//cc9rD4AV.s:2060   .debug_str:000000000000026e .LASF14
/var/folders/yy/83vjwp7d53j56dbzj8_jnpcr0000gn/T//cc9rD4AV.s:2046   .debug_str:00000000000001a3 .LASF16
/var/folders/yy/83vjwp7d53j56dbzj8_jnpcr0000gn/T//cc9rD4AV.s:2064   .debug_str:0000000000000280 .LASF15
/var/folders/yy/83vjwp7d53j56dbzj8_jnpcr0000gn/T//cc9rD4AV.s:1994   .debug_str:000000000000007f .LASF17
/var/folders/yy/83vjwp7d53j56dbzj8_jnpcr0000gn/T//cc9rD4AV.s:1996   .debug_str:000000000000008d .LASF18
/var/folders/yy/83vjwp7d53j56dbzj8_jnpcr0000gn/T//cc9rD4AV.s:1998   .debug_str:0000000000000098 .LASF19
/var/folders/yy/83vjwp7d53j56dbzj8_jnpcr0000gn/T//cc9rD4AV.s:2026   .debug_str:000000000000013a .LASF20
/var/folders/yy/83vjwp7d53j56dbzj8_jnpcr0000gn/T//cc9rD4AV.s:2056   .debug_str:00000000000001e1 .LASF21
/var/folders/yy/83vjwp7d53j56dbzj8_jnpcr0000gn/T//cc9rD4AV.s:2048   .debug_str:00000000000001b3 .LASF22
/var/folders/yy/83vjwp7d53j56dbzj8_jnpcr0000gn/T//cc9rD4AV.s:2044   .debug_str:000000000000019e .LASF23
/var/folders/yy/83vjwp7d53j56dbzj8_jnpcr0000gn/T//cc9rD4AV.s:2012   .debug_str:00000000000000f8 .LASF24
/var/folders/yy/83vjwp7d53j56dbzj8_jnpcr0000gn/T//cc9rD4AV.s:2036   .debug_str:0000000000000177 .LASF40
/var/folders/yy/83vjwp7d53j56dbzj8_jnpcr0000gn/T//cc9rD4AV.s:467    .text.clear_queues:0000000000000000 .LFB8
/var/folders/yy/83vjwp7d53j56dbzj8_jnpcr0000gn/T//cc9rD4AV.s:520    .text.clear_queues:000000000000003e .LFE8
/var/folders/yy/83vjwp7d53j56dbzj8_jnpcr0000gn/T//cc9rD4AV.s:490    .text.clear_queues:000000000000001c .LBB12
/var/folders/yy/83vjwp7d53j56dbzj8_jnpcr0000gn/T//cc9rD4AV.s:516    .text.clear_queues:000000000000003c .LBE12
/var/folders/yy/83vjwp7d53j56dbzj8_jnpcr0000gn/T//cc9rD4AV.s:1601   .debug_loc:0000000000000000 .LLST15
/var/folders/yy/83vjwp7d53j56dbzj8_jnpcr0000gn/T//cc9rD4AV.s:494    .text.clear_queues:0000000000000020 .LBB13
/var/folders/yy/83vjwp7d53j56dbzj8_jnpcr0000gn/T//cc9rD4AV.s:513    .text.clear_queues:0000000000000038 .LBE13
/var/folders/yy/83vjwp7d53j56dbzj8_jnpcr0000gn/T//cc9rD4AV.s:1609   .debug_loc:0000000000000014 .LLST16
/var/folders/yy/83vjwp7d53j56dbzj8_jnpcr0000gn/T//cc9rD4AV.s:2028   .debug_str:000000000000013f .LASF28
/var/folders/yy/83vjwp7d53j56dbzj8_jnpcr0000gn/T//cc9rD4AV.s:154    .text.fuseStrings:0000000000000000 .LFB7
/var/folders/yy/83vjwp7d53j56dbzj8_jnpcr0000gn/T//cc9rD4AV.s:200    .text.fuseStrings:0000000000000026 .LFE7
/var/folders/yy/83vjwp7d53j56dbzj8_jnpcr0000gn/T//cc9rD4AV.s:2022   .debug_str:0000000000000130 .LASF25
/var/folders/yy/83vjwp7d53j56dbzj8_jnpcr0000gn/T//cc9rD4AV.s:1621   .debug_loc:0000000000000033 .LLST1
/var/folders/yy/83vjwp7d53j56dbzj8_jnpcr0000gn/T//cc9rD4AV.s:2024   .debug_str:0000000000000135 .LASF26
/var/folders/yy/83vjwp7d53j56dbzj8_jnpcr0000gn/T//cc9rD4AV.s:1632   .debug_loc:0000000000000051 .LLST2
GAS LISTING /var/folders/yy/83vjwp7d53j56dbzj8_jnpcr0000gn/T//cc9rD4AV.s 			page 19


/var/folders/yy/83vjwp7d53j56dbzj8_jnpcr0000gn/T//cc9rD4AV.s:1988   .debug_str:0000000000000062 .LASF27
/var/folders/yy/83vjwp7d53j56dbzj8_jnpcr0000gn/T//cc9rD4AV.s:1649   .debug_loc:000000000000007c .LLST3
/var/folders/yy/83vjwp7d53j56dbzj8_jnpcr0000gn/T//cc9rD4AV.s:2018   .debug_str:0000000000000115 .LASF29
/var/folders/yy/83vjwp7d53j56dbzj8_jnpcr0000gn/T//cc9rD4AV.s:344    .text.empty_string_queue:0000000000000000 .LFB6
/var/folders/yy/83vjwp7d53j56dbzj8_jnpcr0000gn/T//cc9rD4AV.s:460    .text.empty_string_queue:000000000000006c .LFE6
/var/folders/yy/83vjwp7d53j56dbzj8_jnpcr0000gn/T//cc9rD4AV.s:1667   .debug_loc:00000000000000a8 .LLST9
/var/folders/yy/83vjwp7d53j56dbzj8_jnpcr0000gn/T//cc9rD4AV.s:2038   .debug_str:0000000000000184 .LASF30
/var/folders/yy/83vjwp7d53j56dbzj8_jnpcr0000gn/T//cc9rD4AV.s:1690   .debug_loc:00000000000000e0 .LLST10
/var/folders/yy/83vjwp7d53j56dbzj8_jnpcr0000gn/T//cc9rD4AV.s:2068   .debug_str:0000000000000298 .LASF31
/var/folders/yy/83vjwp7d53j56dbzj8_jnpcr0000gn/T//cc9rD4AV.s:1712   .debug_loc:0000000000000117 .LLST11
/var/folders/yy/83vjwp7d53j56dbzj8_jnpcr0000gn/T//cc9rD4AV.s:2016   .debug_str:000000000000010d .LASF32
/var/folders/yy/83vjwp7d53j56dbzj8_jnpcr0000gn/T//cc9rD4AV.s:1734   .debug_loc:000000000000014e .LLST12
/var/folders/yy/83vjwp7d53j56dbzj8_jnpcr0000gn/T//cc9rD4AV.s:1990   .debug_str:0000000000000068 .LASF33
/var/folders/yy/83vjwp7d53j56dbzj8_jnpcr0000gn/T//cc9rD4AV.s:1754   .debug_loc:0000000000000183 .LLST13
/var/folders/yy/83vjwp7d53j56dbzj8_jnpcr0000gn/T//cc9rD4AV.s:1771   .debug_loc:00000000000001ae .LLST14
/var/folders/yy/83vjwp7d53j56dbzj8_jnpcr0000gn/T//cc9rD4AV.s:450    .text.empty_string_queue:0000000000000064 .LVL32
/var/folders/yy/83vjwp7d53j56dbzj8_jnpcr0000gn/T//cc9rD4AV.s:414    .text.empty_string_queue:0000000000000046 .LVL26
/var/folders/yy/83vjwp7d53j56dbzj8_jnpcr0000gn/T//cc9rD4AV.s:1986   .debug_str:0000000000000054 .LASF41
/var/folders/yy/83vjwp7d53j56dbzj8_jnpcr0000gn/T//cc9rD4AV.s:137    .text.queue_str_len:0000000000000000 .LFB5
/var/folders/yy/83vjwp7d53j56dbzj8_jnpcr0000gn/T//cc9rD4AV.s:147    .text.queue_str_len:000000000000000c .LFE5
/var/folders/yy/83vjwp7d53j56dbzj8_jnpcr0000gn/T//cc9rD4AV.s:2050   .debug_str:00000000000001bf .LASF42
/var/folders/yy/83vjwp7d53j56dbzj8_jnpcr0000gn/T//cc9rD4AV.s:1992   .debug_str:0000000000000078 .LASF34
/var/folders/yy/83vjwp7d53j56dbzj8_jnpcr0000gn/T//cc9rD4AV.s:2000   .debug_str:000000000000009d .LASF35
/var/folders/yy/83vjwp7d53j56dbzj8_jnpcr0000gn/T//cc9rD4AV.s:2008   .debug_str:00000000000000db .LASF36
/var/folders/yy/83vjwp7d53j56dbzj8_jnpcr0000gn/T//cc9rD4AV.s:46     .text.enqueue_string:0000000000000000 .LFB3
/var/folders/yy/83vjwp7d53j56dbzj8_jnpcr0000gn/T//cc9rD4AV.s:130    .text.enqueue_string:000000000000006c .LFE3
/var/folders/yy/83vjwp7d53j56dbzj8_jnpcr0000gn/T//cc9rD4AV.s:1786   .debug_loc:00000000000001d7 .LLST0
/var/folders/yy/83vjwp7d53j56dbzj8_jnpcr0000gn/T//cc9rD4AV.s:2040   .debug_str:0000000000000189 .LASF43
/var/folders/yy/83vjwp7d53j56dbzj8_jnpcr0000gn/T//cc9rD4AV.s:14     .text.init_q:0000000000000000 .LFB2
/var/folders/yy/83vjwp7d53j56dbzj8_jnpcr0000gn/T//cc9rD4AV.s:39     .text.init_q:0000000000000020 .LFE2
/var/folders/yy/83vjwp7d53j56dbzj8_jnpcr0000gn/T//cc9rD4AV.s:207    .text.dequeue_string:0000000000000000 .LFB4
/var/folders/yy/83vjwp7d53j56dbzj8_jnpcr0000gn/T//cc9rD4AV.s:337    .text.dequeue_string:000000000000007c .LFE4
/var/folders/yy/83vjwp7d53j56dbzj8_jnpcr0000gn/T//cc9rD4AV.s:1814   .debug_loc:000000000000021b .LLST4
/var/folders/yy/83vjwp7d53j56dbzj8_jnpcr0000gn/T//cc9rD4AV.s:1837   .debug_loc:0000000000000253 .LLST5
/var/folders/yy/83vjwp7d53j56dbzj8_jnpcr0000gn/T//cc9rD4AV.s:1863   .debug_loc:0000000000000295 .LLST6
/var/folders/yy/83vjwp7d53j56dbzj8_jnpcr0000gn/T//cc9rD4AV.s:252    .text.dequeue_string:0000000000000034 .LBB4
/var/folders/yy/83vjwp7d53j56dbzj8_jnpcr0000gn/T//cc9rD4AV.s:1889   .debug_loc:00000000000002d7 .LLST7
/var/folders/yy/83vjwp7d53j56dbzj8_jnpcr0000gn/T//cc9rD4AV.s:1900   .debug_loc:00000000000002f5 .LLST8
/var/folders/yy/83vjwp7d53j56dbzj8_jnpcr0000gn/T//cc9rD4AV.s:306    .text.dequeue_string:0000000000000062 .LVL18
/var/folders/yy/83vjwp7d53j56dbzj8_jnpcr0000gn/T//cc9rD4AV.s:492    .text.clear_queues:000000000000001c .LVL34
/var/folders/yy/83vjwp7d53j56dbzj8_jnpcr0000gn/T//cc9rD4AV.s:497    .text.clear_queues:0000000000000024 .LVL35
/var/folders/yy/83vjwp7d53j56dbzj8_jnpcr0000gn/T//cc9rD4AV.s:501    .text.clear_queues:0000000000000026 .LVL36
/var/folders/yy/83vjwp7d53j56dbzj8_jnpcr0000gn/T//cc9rD4AV.s:157    .text.fuseStrings:0000000000000000 .LVL6
/var/folders/yy/83vjwp7d53j56dbzj8_jnpcr0000gn/T//cc9rD4AV.s:162    .text.fuseStrings:0000000000000002 .LVL7
/var/folders/yy/83vjwp7d53j56dbzj8_jnpcr0000gn/T//cc9rD4AV.s:193    .text.fuseStrings:0000000000000022 .LVL11
/var/folders/yy/83vjwp7d53j56dbzj8_jnpcr0000gn/T//cc9rD4AV.s:196    .text.fuseStrings:0000000000000024 .LVL12
/var/folders/yy/83vjwp7d53j56dbzj8_jnpcr0000gn/T//cc9rD4AV.s:177    .text.fuseStrings:0000000000000016 .LVL8
/var/folders/yy/83vjwp7d53j56dbzj8_jnpcr0000gn/T//cc9rD4AV.s:179    .text.fuseStrings:0000000000000018 .LVL9
/var/folders/yy/83vjwp7d53j56dbzj8_jnpcr0000gn/T//cc9rD4AV.s:356    .text.empty_string_queue:0000000000000002 .LCFI3
/var/folders/yy/83vjwp7d53j56dbzj8_jnpcr0000gn/T//cc9rD4AV.s:436    .text.empty_string_queue:0000000000000056 .LCFI4
/var/folders/yy/83vjwp7d53j56dbzj8_jnpcr0000gn/T//cc9rD4AV.s:441    .text.empty_string_queue:0000000000000058 .LCFI5
/var/folders/yy/83vjwp7d53j56dbzj8_jnpcr0000gn/T//cc9rD4AV.s:347    .text.empty_string_queue:0000000000000000 .LVL22
/var/folders/yy/83vjwp7d53j56dbzj8_jnpcr0000gn/T//cc9rD4AV.s:377    .text.empty_string_queue:0000000000000014 .LVL23
/var/folders/yy/83vjwp7d53j56dbzj8_jnpcr0000gn/T//cc9rD4AV.s:431    .text.empty_string_queue:0000000000000052 .LVL28
/var/folders/yy/83vjwp7d53j56dbzj8_jnpcr0000gn/T//cc9rD4AV.s:439    .text.empty_string_queue:0000000000000058 .LVL30
/var/folders/yy/83vjwp7d53j56dbzj8_jnpcr0000gn/T//cc9rD4AV.s:434    .text.empty_string_queue:0000000000000054 .LVL29
/var/folders/yy/83vjwp7d53j56dbzj8_jnpcr0000gn/T//cc9rD4AV.s:405    .text.empty_string_queue:0000000000000034 .LVL25
GAS LISTING /var/folders/yy/83vjwp7d53j56dbzj8_jnpcr0000gn/T//cc9rD4AV.s 			page 20


/var/folders/yy/83vjwp7d53j56dbzj8_jnpcr0000gn/T//cc9rD4AV.s:448    .text.empty_string_queue:000000000000005c .LVL31
/var/folders/yy/83vjwp7d53j56dbzj8_jnpcr0000gn/T//cc9rD4AV.s:385    .text.empty_string_queue:000000000000001a .LVL24
/var/folders/yy/83vjwp7d53j56dbzj8_jnpcr0000gn/T//cc9rD4AV.s:428    .text.empty_string_queue:0000000000000050 .LVL27
/var/folders/yy/83vjwp7d53j56dbzj8_jnpcr0000gn/T//cc9rD4AV.s:49     .text.enqueue_string:0000000000000000 .LVL0
/var/folders/yy/83vjwp7d53j56dbzj8_jnpcr0000gn/T//cc9rD4AV.s:68     .text.enqueue_string:0000000000000028 .LVL1
/var/folders/yy/83vjwp7d53j56dbzj8_jnpcr0000gn/T//cc9rD4AV.s:70     .text.enqueue_string:000000000000002a .LVL2
/var/folders/yy/83vjwp7d53j56dbzj8_jnpcr0000gn/T//cc9rD4AV.s:79     .text.enqueue_string:0000000000000030 .LVL3
/var/folders/yy/83vjwp7d53j56dbzj8_jnpcr0000gn/T//cc9rD4AV.s:89     .text.enqueue_string:0000000000000040 .LVL4
/var/folders/yy/83vjwp7d53j56dbzj8_jnpcr0000gn/T//cc9rD4AV.s:126    .text.enqueue_string:000000000000006a .LVL5
/var/folders/yy/83vjwp7d53j56dbzj8_jnpcr0000gn/T//cc9rD4AV.s:220    .text.dequeue_string:000000000000000c .LCFI0
/var/folders/yy/83vjwp7d53j56dbzj8_jnpcr0000gn/T//cc9rD4AV.s:284    .text.dequeue_string:000000000000004e .LCFI1
/var/folders/yy/83vjwp7d53j56dbzj8_jnpcr0000gn/T//cc9rD4AV.s:289    .text.dequeue_string:0000000000000050 .LCFI2
/var/folders/yy/83vjwp7d53j56dbzj8_jnpcr0000gn/T//cc9rD4AV.s:210    .text.dequeue_string:0000000000000000 .LVL13
/var/folders/yy/83vjwp7d53j56dbzj8_jnpcr0000gn/T//cc9rD4AV.s:258    .text.dequeue_string:0000000000000038 .LVL14
/var/folders/yy/83vjwp7d53j56dbzj8_jnpcr0000gn/T//cc9rD4AV.s:262    .text.dequeue_string:000000000000003c .LVL15
/var/folders/yy/83vjwp7d53j56dbzj8_jnpcr0000gn/T//cc9rD4AV.s:287    .text.dequeue_string:0000000000000050 .LVL16
/var/folders/yy/83vjwp7d53j56dbzj8_jnpcr0000gn/T//cc9rD4AV.s:329    .text.dequeue_string:0000000000000078 .LVL21
/var/folders/yy/83vjwp7d53j56dbzj8_jnpcr0000gn/T//cc9rD4AV.s:300    .text.dequeue_string:0000000000000056 .LVL17
/var/folders/yy/83vjwp7d53j56dbzj8_jnpcr0000gn/T//cc9rD4AV.s:327    .text.dequeue_string:0000000000000076 .LVL20
/var/folders/yy/83vjwp7d53j56dbzj8_jnpcr0000gn/T//cc9rD4AV.s:532    .debug_info:0000000000000000 .Ldebug_info0
/var/folders/yy/83vjwp7d53j56dbzj8_jnpcr0000gn/T//cc9rD4AV.s:265    .text.dequeue_string:000000000000003c .LBE4
/var/folders/yy/83vjwp7d53j56dbzj8_jnpcr0000gn/T//cc9rD4AV.s:291    .text.dequeue_string:0000000000000050 .LBB7
/var/folders/yy/83vjwp7d53j56dbzj8_jnpcr0000gn/T//cc9rD4AV.s:332    .text.dequeue_string:0000000000000078 .LBE7
/var/folders/yy/83vjwp7d53j56dbzj8_jnpcr0000gn/T//cc9rD4AV.s:351    .text.empty_string_queue:0000000000000000 .LBB8
/var/folders/yy/83vjwp7d53j56dbzj8_jnpcr0000gn/T//cc9rD4AV.s:353    .text.empty_string_queue:0000000000000000 .LBE8
/var/folders/yy/83vjwp7d53j56dbzj8_jnpcr0000gn/T//cc9rD4AV.s:371    .text.empty_string_queue:0000000000000010 .LBB9
/var/folders/yy/83vjwp7d53j56dbzj8_jnpcr0000gn/T//cc9rD4AV.s:374    .text.empty_string_queue:0000000000000012 .LBE9
/var/folders/yy/83vjwp7d53j56dbzj8_jnpcr0000gn/T//cc9rD4AV.s:379    .text.empty_string_queue:0000000000000014 .LBB10
/var/folders/yy/83vjwp7d53j56dbzj8_jnpcr0000gn/T//cc9rD4AV.s:382    .text.empty_string_queue:0000000000000018 .LBE10
/var/folders/yy/83vjwp7d53j56dbzj8_jnpcr0000gn/T//cc9rD4AV.s:443    .text.empty_string_queue:0000000000000058 .LBB11
/var/folders/yy/83vjwp7d53j56dbzj8_jnpcr0000gn/T//cc9rD4AV.s:458    .text.empty_string_queue:000000000000006c .LBE11

NO UNDEFINED SYMBOLS
