GAS LISTING /var/folders/yy/83vjwp7d53j56dbzj8_jnpcr0000gn/T//ccVqnGJ6.s 			page 1


   1              		.file	"radioHead.c"
   2              		.option nopic
   3              		.attribute arch, "rv32i2p0_m2p0_a2p0_c2p0"
   4              		.attribute unaligned_access, 0
   5              		.attribute stack_align, 16
   6              		.text
   7              	.Ltext0:
   8              		.cfi_sections	.debug_frame
   9              		.section	.text.init_radio,"ax",@progbits
  10              		.align	1
  11              		.globl	init_radio
  13              	init_radio:
  14              	.LFB2:
  15              		.file 1 "radioHead.c"
   1:radioHead.c   **** #include "gd32vf103.h"
   2:radioHead.c   **** #include "radioHead.h"
   3:radioHead.c   **** #include "systick.h"
   4:radioHead.c   **** 
   5:radioHead.c   **** 
   6:radioHead.c   **** char rx_radio_buffer[1024] = {'\0'};
   7:radioHead.c   **** char tx_radio_buffer[1024] = {'\0'};
   8:radioHead.c   **** 
   9:radioHead.c   **** void init_radio(){
  16              		.loc 1 9 18
  17              		.cfi_startproc
  10:radioHead.c   ****     dma_parameter_struct dma_init_struct;
  18              		.loc 1 10 5
  11:radioHead.c   ****     /* enable DMA0 */
  12:radioHead.c   ****     rcu_periph_clock_enable(RCU_DMA0);
  19              		.loc 1 12 5
   9:radioHead.c   ****     dma_parameter_struct dma_init_struct;
  20              		.loc 1 9 18 is_stmt 0
  21 0000 7971     		addi	sp,sp,-48
  22              	.LCFI0:
  23              		.cfi_def_cfa_offset 48
  24              		.loc 1 12 5
  25 0002 13050050 		li	a0,1280
   9:radioHead.c   ****     dma_parameter_struct dma_init_struct;
  26              		.loc 1 9 18
  27 0006 06D6     		sw	ra,44(sp)
  28 0008 22D4     		sw	s0,40(sp)
  29              		.cfi_offset 1, -4
  30              		.cfi_offset 8, -8
  31              		.loc 1 12 5
  32 000a 97000000 		call	rcu_periph_clock_enable
  32      E7800000 
  33              	.LVL0:
  13:radioHead.c   ****     /* initialize USART */
  14:radioHead.c   ****     rcu_periph_clock_enable(RCU_GPIOB);
  34              		.loc 1 14 5 is_stmt 1
  35 0012 13053060 		li	a0,1539
  36 0016 97000000 		call	rcu_periph_clock_enable
  36      E7800000 
  37              	.LVL1:
  15:radioHead.c   **** 
  16:radioHead.c   ****     /* enable USART clock */
  17:radioHead.c   ****     rcu_periph_clock_enable(RCU_USART2);
GAS LISTING /var/folders/yy/83vjwp7d53j56dbzj8_jnpcr0000gn/T//ccVqnGJ6.s 			page 2


  38              		.loc 1 17 5
  39 001e 13052071 		li	a0,1810
  40 0022 97000000 		call	rcu_periph_clock_enable
  40      E7800000 
  41              	.LVL2:
  18:radioHead.c   **** 
  19:radioHead.c   ****     /* connect port to USARTx_Tx */
  20:radioHead.c   ****     gpio_init(GPIOB, GPIO_MODE_AF_PP, GPIO_OSPEED_50MHZ, GPIO_PIN_10); //PP for no half duplex
  42              		.loc 1 20 5
  43 002a 37140140 		li	s0,1073811456
  44 002e 130504C0 		addi	a0,s0,-1024
  45 0032 93060040 		li	a3,1024
  46 0036 0D46     		li	a2,3
  47 0038 E145     		li	a1,24
  48 003a 97000000 		call	gpio_init
  48      E7800000 
  49              	.LVL3:
  21:radioHead.c   **** 
  22:radioHead.c   ****     /* connect port to USARTx_Rx */
  23:radioHead.c   ****     gpio_init(GPIOB, GPIO_MODE_IN_FLOATING, GPIO_OSPEED_50MHZ, GPIO_PIN_11);
  50              		.loc 1 23 5
  51 0042 8566     		li	a3,4096
  52 0044 93860680 		addi	a3,a3,-2048
  53 0048 0D46     		li	a2,3
  54 004a 9145     		li	a1,4
  55 004c 130504C0 		addi	a0,s0,-1024
  56 0050 97000000 		call	gpio_init
  56      E7800000 
  57              	.LVL4:
  24:radioHead.c   **** 
  25:radioHead.c   ****     /* USART configure */
  26:radioHead.c   ****     usart_deinit(USART2);
  58              		.loc 1 26 5
  59 0058 37540040 		li	s0,1073762304
  60 005c 13050480 		addi	a0,s0,-2048
  61 0060 97000000 		call	usart_deinit
  61      E7800000 
  62              	.LVL5:
  27:radioHead.c   ****     usart_baudrate_set(USART2, 1200);
  63              		.loc 1 27 5
  64 0068 13050480 		addi	a0,s0,-2048
  65 006c 9305004B 		li	a1,1200
  66 0070 97000000 		call	usart_baudrate_set
  66      E7800000 
  67              	.LVL6:
  28:radioHead.c   ****     usart_word_length_set(USART2, USART_WL_8BIT);
  68              		.loc 1 28 5
  69 0078 13050480 		addi	a0,s0,-2048
  70 007c 8145     		li	a1,0
  71 007e 97000000 		call	usart_word_length_set
  71      E7800000 
  72              	.LVL7:
  29:radioHead.c   ****     usart_stop_bit_set(USART2, USART_STB_1BIT);
  73              		.loc 1 29 5
  74 0086 13050480 		addi	a0,s0,-2048
  75 008a 8145     		li	a1,0
  76 008c 97000000 		call	usart_stop_bit_set
GAS LISTING /var/folders/yy/83vjwp7d53j56dbzj8_jnpcr0000gn/T//ccVqnGJ6.s 			page 3


  76      E7800000 
  77              	.LVL8:
  30:radioHead.c   ****     usart_parity_config(USART2, USART_PM_NONE);
  78              		.loc 1 30 5
  79 0094 13050480 		addi	a0,s0,-2048
  80 0098 8145     		li	a1,0
  81 009a 97000000 		call	usart_parity_config
  81      E7800000 
  82              	.LVL9:
  31:radioHead.c   ****     usart_hardware_flow_rts_config(USART2, USART_RTS_DISABLE);
  83              		.loc 1 31 5
  84 00a2 13050480 		addi	a0,s0,-2048
  85 00a6 8145     		li	a1,0
  86 00a8 97000000 		call	usart_hardware_flow_rts_config
  86      E7800000 
  87              	.LVL10:
  32:radioHead.c   ****     usart_hardware_flow_cts_config(USART2, USART_CTS_DISABLE);
  88              		.loc 1 32 5
  89 00b0 13050480 		addi	a0,s0,-2048
  90 00b4 8145     		li	a1,0
  91 00b6 97000000 		call	usart_hardware_flow_cts_config
  91      E7800000 
  92              	.LVL11:
  33:radioHead.c   ****     usart_receive_config(USART2, USART_RECEIVE_ENABLE);
  93              		.loc 1 33 5
  94 00be 13050480 		addi	a0,s0,-2048
  95 00c2 9145     		li	a1,4
  96 00c4 97000000 		call	usart_receive_config
  96      E7800000 
  97              	.LVL12:
  34:radioHead.c   ****     usart_transmit_config(USART2, USART_TRANSMIT_ENABLE);
  98              		.loc 1 34 5
  99 00cc A145     		li	a1,8
 100 00ce 13050480 		addi	a0,s0,-2048
 101 00d2 97000000 		call	usart_transmit_config
 101      E7800000 
 102              	.LVL13:
  35:radioHead.c   **** 
  36:radioHead.c   ****     usart_enable(USART2);
 103              		.loc 1 36 5
 104 00da 13050480 		addi	a0,s0,-2048
 105 00de 97000000 		call	usart_enable
 105      E7800000 
 106              	.LVL14:
  37:radioHead.c   **** 
  38:radioHead.c   ****     usart_dma_transmit_config(USART2, USART_DENT_ENABLE);
 107              		.loc 1 38 5
 108 00e6 13050480 		addi	a0,s0,-2048
 109 00ea 93050008 		li	a1,128
 110 00ee 97000000 		call	usart_dma_transmit_config
 110      E7800000 
 111              	.LVL15:
  39:radioHead.c   ****     usart_dma_receive_config(USART2, USART_DENR_ENABLE);
 112              		.loc 1 39 5
 113 00f6 13050480 		addi	a0,s0,-2048
 114 00fa 93050004 		li	a1,64
 115 00fe 97000000 		call	usart_dma_receive_config
GAS LISTING /var/folders/yy/83vjwp7d53j56dbzj8_jnpcr0000gn/T//ccVqnGJ6.s 			page 4


 115      E7800000 
 116              	.LVL16:
  40:radioHead.c   **** 
  41:radioHead.c   ****     dma_deinit(DMA0, DMA_CH2);
 117              		.loc 1 41 5
 118 0106 8945     		li	a1,2
 119 0108 37050240 		li	a0,1073872896
 120 010c 97000000 		call	dma_deinit
 120      E7800000 
 121              	.LVL17:
  42:radioHead.c   ****     dma_init_struct.direction = DMA_PERIPHERAL_TO_MEMORY;
 122              		.loc 1 42 5
  43:radioHead.c   ****     dma_init_struct.memory_addr = (uint32_t)rx_radio_buffer;
 123              		.loc 1 43 5
 124              		.loc 1 43 35 is_stmt 0
 125 0114 B7070000 		lui	a5,%hi(.LANCHOR0)
 126 0118 93870700 		addi	a5,a5,%lo(.LANCHOR0)
 127              		.loc 1 43 33
 128 011c 3EC6     		sw	a5,12(sp)
  44:radioHead.c   ****     dma_init_struct.memory_inc = DMA_MEMORY_INCREASE_ENABLE;
 129              		.loc 1 44 5 is_stmt 1
  45:radioHead.c   ****     dma_init_struct.memory_width = DMA_MEMORY_WIDTH_8BIT;
 130              		.loc 1 45 5
  46:radioHead.c   ****     dma_init_struct.number = 1024;
 131              		.loc 1 46 5
  47:radioHead.c   ****     dma_init_struct.periph_addr = (uint32_t)&USART_DATA(USART2);
 132              		.loc 1 47 5
  46:radioHead.c   ****     dma_init_struct.number = 1024;
 133              		.loc 1 46 28 is_stmt 0
 134 011e 93070040 		li	a5,1024
 135 0122 3ECA     		sw	a5,20(sp)
  48:radioHead.c   ****     dma_init_struct.periph_inc = DMA_PERIPH_INCREASE_DISABLE;
  49:radioHead.c   ****     dma_init_struct.periph_width = DMA_PERIPHERAL_WIDTH_8BIT;
  50:radioHead.c   ****     dma_init_struct.priority = DMA_PRIORITY_ULTRA_HIGH;
 136              		.loc 1 50 30
 137 0124 8D67     		li	a5,12288
  51:radioHead.c   ****     dma_init(DMA0, DMA_CH2, &dma_init_struct);
 138              		.loc 1 51 5
 139 0126 5000     		addi	a2,sp,4
  50:radioHead.c   ****     dma_init(DMA0, DMA_CH2, &dma_init_struct);
 140              		.loc 1 50 30
 141 0128 3ECC     		sw	a5,24(sp)
  47:radioHead.c   ****     dma_init_struct.periph_inc = DMA_PERIPH_INCREASE_DISABLE;
 142              		.loc 1 47 33
 143 012a 13044480 		addi	s0,s0,-2044
  48:radioHead.c   ****     dma_init_struct.periph_width = DMA_PERIPHERAL_WIDTH_8BIT;
 144              		.loc 1 48 32
 145 012e 93070010 		li	a5,256
 146              		.loc 1 51 5
 147 0132 8945     		li	a1,2
 148 0134 37050240 		li	a0,1073872896
  48:radioHead.c   ****     dma_init_struct.periph_width = DMA_PERIPHERAL_WIDTH_8BIT;
 149              		.loc 1 48 32
 150 0138 231EF100 		sh	a5,28(sp)
  47:radioHead.c   ****     dma_init_struct.periph_inc = DMA_PERIPH_INCREASE_DISABLE;
 151              		.loc 1 47 33
 152 013c 22C2     		sw	s0,4(sp)
GAS LISTING /var/folders/yy/83vjwp7d53j56dbzj8_jnpcr0000gn/T//ccVqnGJ6.s 			page 5


  48:radioHead.c   ****     dma_init_struct.periph_width = DMA_PERIPHERAL_WIDTH_8BIT;
 153              		.loc 1 48 5 is_stmt 1
  49:radioHead.c   ****     dma_init_struct.priority = DMA_PRIORITY_ULTRA_HIGH;
 154              		.loc 1 49 5
  49:radioHead.c   ****     dma_init_struct.priority = DMA_PRIORITY_ULTRA_HIGH;
 155              		.loc 1 49 34 is_stmt 0
 156 013e 02C4     		sw	zero,8(sp)
  50:radioHead.c   ****     dma_init(DMA0, DMA_CH2, &dma_init_struct);
 157              		.loc 1 50 5 is_stmt 1
  45:radioHead.c   ****     dma_init_struct.number = 1024;
 158              		.loc 1 45 34 is_stmt 0
 159 0140 02C8     		sw	zero,16(sp)
  42:radioHead.c   ****     dma_init_struct.memory_addr = (uint32_t)rx_radio_buffer;
 160              		.loc 1 42 31
 161 0142 230F0100 		sb	zero,30(sp)
 162              		.loc 1 51 5 is_stmt 1
 163 0146 97000000 		call	dma_init
 163      E7800000 
 164              	.LVL18:
  52:radioHead.c   ****         /* configure DMA mode */
  53:radioHead.c   ****     dma_circulation_disable(DMA0, DMA_CH2);
 165              		.loc 1 53 5
 166 014e 8945     		li	a1,2
 167 0150 37050240 		li	a0,1073872896
 168 0154 97000000 		call	dma_circulation_disable
 168      E7800000 
 169              	.LVL19:
  54:radioHead.c   ****         /* enable DMA channel4 */
  55:radioHead.c   ****     dma_channel_enable(DMA0, DMA_CH2);
 170              		.loc 1 55 5
 171 015c 8945     		li	a1,2
 172 015e 37050240 		li	a0,1073872896
 173 0162 97000000 		call	dma_channel_enable
 173      E7800000 
 174              	.LVL20:
  56:radioHead.c   **** }
 175              		.loc 1 56 1 is_stmt 0
 176 016a B250     		lw	ra,44(sp)
 177              		.cfi_restore 1
 178 016c 2254     		lw	s0,40(sp)
 179              		.cfi_restore 8
 180 016e 4561     		addi	sp,sp,48
 181              	.LCFI1:
 182              		.cfi_def_cfa_offset 0
 183 0170 8280     		jr	ra
 184              		.cfi_endproc
 185              	.LFE2:
 187              		.section	.text.read_radio,"ax",@progbits
 188              		.align	1
 189              		.globl	read_radio
 191              	read_radio:
 192              	.LFB3:
  57:radioHead.c   **** 
  58:radioHead.c   **** size_t read_radio(char* buffer, uint32_t size){
 193              		.loc 1 58 47 is_stmt 1
 194              		.cfi_startproc
 195              	.LVL21:
GAS LISTING /var/folders/yy/83vjwp7d53j56dbzj8_jnpcr0000gn/T//ccVqnGJ6.s 			page 6


  59:radioHead.c   ****     if(rx_radio_buffer[0] != 0){
 196              		.loc 1 59 5
 197              		.loc 1 59 23 is_stmt 0
 198 0000 37070000 		lui	a4,%hi(.LANCHOR0)
 199              		.loc 1 59 7
 200 0004 83470700 		lbu	a5,%lo(.LANCHOR0)(a4)
  58:radioHead.c   ****     if(rx_radio_buffer[0] != 0){
 201              		.loc 1 58 47
 202 0008 7971     		addi	sp,sp,-48
 203              	.LCFI2:
 204              		.cfi_def_cfa_offset 48
 205 000a 22D4     		sw	s0,40(sp)
 206 000c 06D6     		sw	ra,44(sp)
 207 000e 26D2     		sw	s1,36(sp)
 208              		.cfi_offset 8, -8
 209              		.cfi_offset 1, -4
 210              		.cfi_offset 9, -12
  60:radioHead.c   ****         int i = 0;
  61:radioHead.c   ****         for(; i < 1024 && rx_radio_buffer[i] != 0 && i < size - 1; i++){
  62:radioHead.c   ****             buffer[i] = rx_radio_buffer[i];
  63:radioHead.c   ****             rx_radio_buffer[i] = 0;
  64:radioHead.c   ****         }
  65:radioHead.c   ****         buffer[i] = '\0';
  66:radioHead.c   **** 
  67:radioHead.c   ****         dma_parameter_struct dma_init_struct;
  68:radioHead.c   **** 
  69:radioHead.c   ****         dma_deinit(DMA0, DMA_CH2);
  70:radioHead.c   ****         dma_init_struct.direction = DMA_PERIPHERAL_TO_MEMORY;
  71:radioHead.c   ****         dma_init_struct.memory_addr = (uint32_t)rx_radio_buffer;
  72:radioHead.c   ****         dma_init_struct.memory_inc = DMA_MEMORY_INCREASE_ENABLE;
  73:radioHead.c   ****         dma_init_struct.memory_width = DMA_MEMORY_WIDTH_8BIT;
  74:radioHead.c   ****         dma_init_struct.number = 1024;
  75:radioHead.c   ****         dma_init_struct.periph_addr = (uint32_t)&USART_DATA(USART2);
  76:radioHead.c   ****         dma_init_struct.periph_inc = DMA_PERIPH_INCREASE_DISABLE;
  77:radioHead.c   ****         dma_init_struct.periph_width = DMA_PERIPHERAL_WIDTH_8BIT;
  78:radioHead.c   ****         dma_init_struct.priority = DMA_PRIORITY_ULTRA_HIGH;
  79:radioHead.c   ****         dma_init(DMA0, DMA_CH2, &dma_init_struct);
  80:radioHead.c   ****         dma_circulation_disable(DMA0, DMA_CH2);
  81:radioHead.c   ****         dma_channel_enable(DMA0, DMA_CH2);
  82:radioHead.c   ****         return i;
  83:radioHead.c   ****     }
  84:radioHead.c   ****     return 0;
 211              		.loc 1 84 12
 212 0010 0144     		li	s0,0
  59:radioHead.c   ****         int i = 0;
 213              		.loc 1 59 7
 214 0012 C1CF     		beq	a5,zero,.L3
 215 0014 93040700 		addi	s1,a4,%lo(.LANCHOR0)
 216              	.LBB2:
  60:radioHead.c   ****         int i = 0;
 217              		.loc 1 60 13
 218 0018 8147     		li	a5,0
 219              	.LBE2:
  59:radioHead.c   ****         int i = 0;
 220              		.loc 1 59 7
 221 001a 13070700 		addi	a4,a4,%lo(.LANCHOR0)
 222              	.LBB3:
GAS LISTING /var/folders/yy/83vjwp7d53j56dbzj8_jnpcr0000gn/T//ccVqnGJ6.s 			page 7


  61:radioHead.c   ****             buffer[i] = rx_radio_buffer[i];
 223              		.loc 1 61 63
 224 001e FD15     		addi	a1,a1,-1
 225              	.LVL22:
  61:radioHead.c   ****             buffer[i] = rx_radio_buffer[i];
 226              		.loc 1 61 9
 227 0020 13060040 		li	a2,1024
 228              	.L5:
 229              	.LVL23:
  61:radioHead.c   ****             buffer[i] = rx_radio_buffer[i];
 230              		.loc 1 61 42 discriminator 2
 231 0024 83460700 		lbu	a3,0(a4)
  61:radioHead.c   ****             buffer[i] = rx_radio_buffer[i];
 232              		.loc 1 61 24 discriminator 2
 233 0028 89CE     		beq	a3,zero,.L6
  61:radioHead.c   ****             buffer[i] = rx_radio_buffer[i];
 234              		.loc 1 61 51 discriminator 3
 235 002a 63FCB700 		bleu	a1,a5,.L6
  62:radioHead.c   ****             rx_radio_buffer[i] = 0;
 236              		.loc 1 62 13 is_stmt 1 discriminator 4
  62:radioHead.c   ****             rx_radio_buffer[i] = 0;
 237              		.loc 1 62 23 is_stmt 0 discriminator 4
 238 002e 3308F500 		add	a6,a0,a5
 239 0032 2300D800 		sb	a3,0(a6)
  63:radioHead.c   ****         }
 240              		.loc 1 63 13 is_stmt 1 discriminator 4
  63:radioHead.c   ****         }
 241              		.loc 1 63 32 is_stmt 0 discriminator 4
 242 0036 23000700 		sb	zero,0(a4)
  61:radioHead.c   ****             buffer[i] = rx_radio_buffer[i];
 243              		.loc 1 61 69 discriminator 4
 244 003a 8507     		addi	a5,a5,1
 245              	.LVL24:
 246 003c 0507     		addi	a4,a4,1
  61:radioHead.c   ****             buffer[i] = rx_radio_buffer[i];
 247              		.loc 1 61 9 discriminator 4
 248 003e E393C7FE 		bne	a5,a2,.L5
 249              	.L6:
  65:radioHead.c   **** 
 250              		.loc 1 65 9 is_stmt 1
  65:radioHead.c   **** 
 251              		.loc 1 65 19 is_stmt 0
 252 0042 3E95     		add	a0,a0,a5
 253              	.LVL25:
 254 0044 23000500 		sb	zero,0(a0)
  67:radioHead.c   **** 
 255              		.loc 1 67 9 is_stmt 1
  69:radioHead.c   ****         dma_init_struct.direction = DMA_PERIPHERAL_TO_MEMORY;
 256              		.loc 1 69 9
 257 0048 8945     		li	a1,2
 258              	.LVL26:
 259 004a 37050240 		li	a0,1073872896
  65:radioHead.c   **** 
 260              		.loc 1 65 15 is_stmt 0
 261 004e 3E84     		mv	s0,a5
  69:radioHead.c   ****         dma_init_struct.direction = DMA_PERIPHERAL_TO_MEMORY;
 262              		.loc 1 69 9
GAS LISTING /var/folders/yy/83vjwp7d53j56dbzj8_jnpcr0000gn/T//ccVqnGJ6.s 			page 8


 263 0050 97000000 		call	dma_deinit
 263      E7800000 
 264              	.LVL27:
  70:radioHead.c   ****         dma_init_struct.memory_addr = (uint32_t)rx_radio_buffer;
 265              		.loc 1 70 9 is_stmt 1
  71:radioHead.c   ****         dma_init_struct.memory_inc = DMA_MEMORY_INCREASE_ENABLE;
 266              		.loc 1 71 9
  75:radioHead.c   ****         dma_init_struct.periph_inc = DMA_PERIPH_INCREASE_DISABLE;
 267              		.loc 1 75 37 is_stmt 0
 268 0058 B7570040 		li	a5,1073762304
 269 005c 93874780 		addi	a5,a5,-2044
 270 0060 3EC2     		sw	a5,4(sp)
  74:radioHead.c   ****         dma_init_struct.periph_addr = (uint32_t)&USART_DATA(USART2);
 271              		.loc 1 74 32
 272 0062 93070040 		li	a5,1024
 273 0066 3ECA     		sw	a5,20(sp)
  78:radioHead.c   ****         dma_init(DMA0, DMA_CH2, &dma_init_struct);
 274              		.loc 1 78 34
 275 0068 8D67     		li	a5,12288
 276 006a 3ECC     		sw	a5,24(sp)
  79:radioHead.c   ****         dma_circulation_disable(DMA0, DMA_CH2);
 277              		.loc 1 79 9
 278 006c 5000     		addi	a2,sp,4
  76:radioHead.c   ****         dma_init_struct.periph_width = DMA_PERIPHERAL_WIDTH_8BIT;
 279              		.loc 1 76 36
 280 006e 93070010 		li	a5,256
  79:radioHead.c   ****         dma_circulation_disable(DMA0, DMA_CH2);
 281              		.loc 1 79 9
 282 0072 8945     		li	a1,2
 283 0074 37050240 		li	a0,1073872896
  76:radioHead.c   ****         dma_init_struct.periph_width = DMA_PERIPHERAL_WIDTH_8BIT;
 284              		.loc 1 76 36
 285 0078 231EF100 		sh	a5,28(sp)
  71:radioHead.c   ****         dma_init_struct.memory_inc = DMA_MEMORY_INCREASE_ENABLE;
 286              		.loc 1 71 37
 287 007c 26C6     		sw	s1,12(sp)
  72:radioHead.c   ****         dma_init_struct.memory_width = DMA_MEMORY_WIDTH_8BIT;
 288              		.loc 1 72 9 is_stmt 1
  73:radioHead.c   ****         dma_init_struct.number = 1024;
 289              		.loc 1 73 9
  74:radioHead.c   ****         dma_init_struct.periph_addr = (uint32_t)&USART_DATA(USART2);
 290              		.loc 1 74 9
  75:radioHead.c   ****         dma_init_struct.periph_inc = DMA_PERIPH_INCREASE_DISABLE;
 291              		.loc 1 75 9
  76:radioHead.c   ****         dma_init_struct.periph_width = DMA_PERIPHERAL_WIDTH_8BIT;
 292              		.loc 1 76 9
  77:radioHead.c   ****         dma_init_struct.priority = DMA_PRIORITY_ULTRA_HIGH;
 293              		.loc 1 77 9
  77:radioHead.c   ****         dma_init_struct.priority = DMA_PRIORITY_ULTRA_HIGH;
 294              		.loc 1 77 38 is_stmt 0
 295 007e 02C4     		sw	zero,8(sp)
  78:radioHead.c   ****         dma_init(DMA0, DMA_CH2, &dma_init_struct);
 296              		.loc 1 78 9 is_stmt 1
  73:radioHead.c   ****         dma_init_struct.number = 1024;
 297              		.loc 1 73 38 is_stmt 0
 298 0080 02C8     		sw	zero,16(sp)
  70:radioHead.c   ****         dma_init_struct.memory_addr = (uint32_t)rx_radio_buffer;
GAS LISTING /var/folders/yy/83vjwp7d53j56dbzj8_jnpcr0000gn/T//ccVqnGJ6.s 			page 9


 299              		.loc 1 70 35
 300 0082 230F0100 		sb	zero,30(sp)
  79:radioHead.c   ****         dma_circulation_disable(DMA0, DMA_CH2);
 301              		.loc 1 79 9 is_stmt 1
 302 0086 97000000 		call	dma_init
 302      E7800000 
 303              	.LVL28:
  80:radioHead.c   ****         dma_channel_enable(DMA0, DMA_CH2);
 304              		.loc 1 80 9
 305 008e 8945     		li	a1,2
 306 0090 37050240 		li	a0,1073872896
 307 0094 97000000 		call	dma_circulation_disable
 307      E7800000 
 308              	.LVL29:
  81:radioHead.c   ****         return i;
 309              		.loc 1 81 9
 310 009c 8945     		li	a1,2
 311 009e 37050240 		li	a0,1073872896
 312 00a2 97000000 		call	dma_channel_enable
 312      E7800000 
 313              	.LVL30:
  82:radioHead.c   ****     }
 314              		.loc 1 82 9
 315              	.L3:
 316              	.LBE3:
  85:radioHead.c   **** }
 317              		.loc 1 85 1 is_stmt 0
 318 00aa 2285     		mv	a0,s0
 319 00ac B250     		lw	ra,44(sp)
 320              		.cfi_restore 1
 321 00ae 2254     		lw	s0,40(sp)
 322              		.cfi_restore 8
 323 00b0 9254     		lw	s1,36(sp)
 324              		.cfi_restore 9
 325 00b2 4561     		addi	sp,sp,48
 326              	.LCFI3:
 327              		.cfi_def_cfa_offset 0
 328 00b4 8280     		jr	ra
 329              		.cfi_endproc
 330              	.LFE3:
 332              		.section	.text.send_radio,"ax",@progbits
 333              		.align	1
 334              		.globl	send_radio
 336              	send_radio:
 337              	.LFB4:
  86:radioHead.c   **** 
  87:radioHead.c   **** size_t send_radio(char* message, uint32_t size){
 338              		.loc 1 87 48 is_stmt 1
 339              		.cfi_startproc
 340              	.LVL31:
  88:radioHead.c   ****     for(int i = 0; i < size && i < 1024; i++) {
 341              		.loc 1 88 5
 342              	.LBB4:
 343              		.loc 1 88 9
 344              	.LBE4:
  87:radioHead.c   ****     for(int i = 0; i < size && i < 1024; i++) {
 345              		.loc 1 87 48 is_stmt 0
GAS LISTING /var/folders/yy/83vjwp7d53j56dbzj8_jnpcr0000gn/T//ccVqnGJ6.s 			page 10


 346 0000 7971     		addi	sp,sp,-48
 347              	.LCFI4:
 348              		.cfi_def_cfa_offset 48
 349 0002 22D4     		sw	s0,40(sp)
 350              		.cfi_offset 8, -8
 351 0004 37040000 		lui	s0,%hi(.LANCHOR1)
 352 0008 26D2     		sw	s1,36(sp)
 353 000a 06D6     		sw	ra,44(sp)
 354              		.cfi_offset 9, -12
 355              		.cfi_offset 1, -4
  87:radioHead.c   ****     for(int i = 0; i < size && i < 1024; i++) {
 356              		.loc 1 87 48
 357 000c AE84     		mv	s1,a1
 358              	.LBB5:
 359              		.loc 1 88 13
 360 000e 8147     		li	a5,0
 361 0010 13040400 		addi	s0,s0,%lo(.LANCHOR1)
 362              		.loc 1 88 29
 363 0014 13070040 		li	a4,1024
 364              	.LVL32:
 365              	.L14:
 366              		.loc 1 88 5 discriminator 1
 367 0018 63849700 		beq	a5,s1,.L15
 368              		.loc 1 88 29 discriminator 3
 369 001c 6396E706 		bne	a5,a4,.L16
 370              	.L15:
 371              	.LBE5:
  89:radioHead.c   ****         tx_radio_buffer[i] = message[i];
  90:radioHead.c   ****     }
  91:radioHead.c   **** 
  92:radioHead.c   ****     dma_parameter_struct dma_init_struct;
 372              		.loc 1 92 5 is_stmt 1
  93:radioHead.c   ****     dma_deinit(DMA0, DMA_CH1);
 373              		.loc 1 93 5
 374 0020 8545     		li	a1,1
 375              	.LVL33:
 376 0022 37050240 		li	a0,1073872896
 377              	.LVL34:
 378 0026 97000000 		call	dma_deinit
 378      E7800000 
 379              	.LVL35:
  94:radioHead.c   ****     dma_init_struct.direction = DMA_MEMORY_TO_PERIPHERAL;
 380              		.loc 1 94 5
  95:radioHead.c   ****     dma_init_struct.memory_addr = (uint32_t)tx_radio_buffer;
 381              		.loc 1 95 5
  96:radioHead.c   ****     dma_init_struct.memory_inc = DMA_MEMORY_INCREASE_ENABLE;
  97:radioHead.c   ****     dma_init_struct.memory_width = DMA_MEMORY_WIDTH_8BIT;
  98:radioHead.c   ****     dma_init_struct.number = size;
  99:radioHead.c   ****     dma_init_struct.periph_addr = (uint32_t)&USART_DATA(USART2);
 382              		.loc 1 99 33 is_stmt 0
 383 002e B7570040 		li	a5,1073762304
 384 0032 93874780 		addi	a5,a5,-2044
 385 0036 3EC2     		sw	a5,4(sp)
 100:radioHead.c   ****     dma_init_struct.periph_inc = DMA_PERIPH_INCREASE_DISABLE;
 101:radioHead.c   ****     dma_init_struct.periph_width = DMA_PERIPHERAL_WIDTH_8BIT;
 102:radioHead.c   ****     dma_init_struct.priority = DMA_PRIORITY_ULTRA_HIGH;
 386              		.loc 1 102 30
GAS LISTING /var/folders/yy/83vjwp7d53j56dbzj8_jnpcr0000gn/T//ccVqnGJ6.s 			page 11


 387 0038 8D67     		li	a5,12288
 388 003a 3ECC     		sw	a5,24(sp)
 100:radioHead.c   ****     dma_init_struct.periph_inc = DMA_PERIPH_INCREASE_DISABLE;
 389              		.loc 1 100 32
 390 003c 93070010 		li	a5,256
 103:radioHead.c   ****     dma_init(DMA0, DMA_CH1, &dma_init_struct);
 391              		.loc 1 103 5
 392 0040 5000     		addi	a2,sp,4
 100:radioHead.c   ****     dma_init_struct.periph_inc = DMA_PERIPH_INCREASE_DISABLE;
 393              		.loc 1 100 32
 394 0042 231EF100 		sh	a5,28(sp)
 395              		.loc 1 103 5
 396 0046 8545     		li	a1,1
  94:radioHead.c   ****     dma_init_struct.memory_addr = (uint32_t)tx_radio_buffer;
 397              		.loc 1 94 31
 398 0048 8547     		li	a5,1
 399              		.loc 1 103 5
 400 004a 37050240 		li	a0,1073872896
  94:radioHead.c   ****     dma_init_struct.memory_addr = (uint32_t)tx_radio_buffer;
 401              		.loc 1 94 31
 402 004e 230FF100 		sb	a5,30(sp)
  95:radioHead.c   ****     dma_init_struct.memory_inc = DMA_MEMORY_INCREASE_ENABLE;
 403              		.loc 1 95 33
 404 0052 22C6     		sw	s0,12(sp)
  96:radioHead.c   ****     dma_init_struct.memory_width = DMA_MEMORY_WIDTH_8BIT;
 405              		.loc 1 96 5 is_stmt 1
  97:radioHead.c   ****     dma_init_struct.number = size;
 406              		.loc 1 97 5
  98:radioHead.c   ****     dma_init_struct.periph_addr = (uint32_t)&USART_DATA(USART2);
 407              		.loc 1 98 28 is_stmt 0
 408 0054 26CA     		sw	s1,20(sp)
  97:radioHead.c   ****     dma_init_struct.number = size;
 409              		.loc 1 97 34
 410 0056 02C8     		sw	zero,16(sp)
  98:radioHead.c   ****     dma_init_struct.periph_addr = (uint32_t)&USART_DATA(USART2);
 411              		.loc 1 98 5 is_stmt 1
  99:radioHead.c   ****     dma_init_struct.periph_inc = DMA_PERIPH_INCREASE_DISABLE;
 412              		.loc 1 99 5
 100:radioHead.c   ****     dma_init_struct.periph_width = DMA_PERIPHERAL_WIDTH_8BIT;
 413              		.loc 1 100 5
 101:radioHead.c   ****     dma_init_struct.priority = DMA_PRIORITY_ULTRA_HIGH;
 414              		.loc 1 101 5
 101:radioHead.c   ****     dma_init_struct.priority = DMA_PRIORITY_ULTRA_HIGH;
 415              		.loc 1 101 34 is_stmt 0
 416 0058 02C4     		sw	zero,8(sp)
 102:radioHead.c   ****     dma_init(DMA0, DMA_CH1, &dma_init_struct);
 417              		.loc 1 102 5 is_stmt 1
 418              		.loc 1 103 5
 419 005a 97000000 		call	dma_init
 419      E7800000 
 420              	.LVL36:
 104:radioHead.c   ****     /* configure DMA mode */
 105:radioHead.c   ****     dma_circulation_disable(DMA0, DMA_CH1);
 421              		.loc 1 105 5
 422 0062 8545     		li	a1,1
 423 0064 37050240 		li	a0,1073872896
 424 0068 97000000 		call	dma_circulation_disable
GAS LISTING /var/folders/yy/83vjwp7d53j56dbzj8_jnpcr0000gn/T//ccVqnGJ6.s 			page 12


 424      E7800000 
 425              	.LVL37:
 106:radioHead.c   ****     /* enable DMA channel3 */
 107:radioHead.c   ****     dma_channel_enable(DMA0, DMA_CH1);
 426              		.loc 1 107 5
 427 0070 37050240 		li	a0,1073872896
 428 0074 8545     		li	a1,1
 429 0076 97000000 		call	dma_channel_enable
 429      E7800000 
 430              	.LVL38:
 108:radioHead.c   **** }
 431              		.loc 1 108 1 is_stmt 0
 432 007e B250     		lw	ra,44(sp)
 433              		.cfi_remember_state
 434              		.cfi_restore 1
 435 0080 2254     		lw	s0,40(sp)
 436              		.cfi_restore 8
 437 0082 9254     		lw	s1,36(sp)
 438              		.cfi_restore 9
 439              	.LVL39:
 440 0084 4561     		addi	sp,sp,48
 441              	.LCFI5:
 442              		.cfi_def_cfa_offset 0
 443 0086 8280     		jr	ra
 444              	.LVL40:
 445              	.L16:
 446              	.LCFI6:
 447              		.cfi_restore_state
 448              	.LBB6:
  89:radioHead.c   ****     }
 449              		.loc 1 89 9 is_stmt 1 discriminator 4
  89:radioHead.c   ****     }
 450              		.loc 1 89 37 is_stmt 0 discriminator 4
 451 0088 B306F500 		add	a3,a0,a5
 452 008c 03C60600 		lbu	a2,0(a3)
  89:radioHead.c   ****     }
 453              		.loc 1 89 28 discriminator 4
 454 0090 B306F400 		add	a3,s0,a5
  88:radioHead.c   ****         tx_radio_buffer[i] = message[i];
 455              		.loc 1 88 43 discriminator 4
 456 0094 8507     		addi	a5,a5,1
 457              	.LVL41:
  89:radioHead.c   ****     }
 458              		.loc 1 89 28 discriminator 4
 459 0096 2380C600 		sb	a2,0(a3)
 460 009a BDBF     		j	.L14
 461              	.LBE6:
 462              		.cfi_endproc
 463              	.LFE4:
 465              		.section	.text.init_radio_gaga,"ax",@progbits
 466              		.align	1
 467              		.globl	init_radio_gaga
 469              	init_radio_gaga:
 470              	.LFB5:
 109:radioHead.c   **** 
 110:radioHead.c   **** void init_radio_gaga(){
 471              		.loc 1 110 23 is_stmt 1
GAS LISTING /var/folders/yy/83vjwp7d53j56dbzj8_jnpcr0000gn/T//ccVqnGJ6.s 			page 13


 472              		.cfi_startproc
 111:radioHead.c   ****     USART_GP(USART2)    |= 0x01;
 473              		.loc 1 111 5
 474              		.loc 1 111 25 is_stmt 0
 475 0000 B7570040 		li	a5,1073762304
 476 0004 03A78781 		lw	a4,-2024(a5)
 112:radioHead.c   ****     USART_CTL2(USART2)  &= ~(0x04);
 113:radioHead.c   ****     USART_CTL2(USART2)  |= 0x02; 
 114:radioHead.c   ****     USART_CTL1(USART2)  &= ~(0x7800);
 477              		.loc 1 114 25
 478 0008 E176     		li	a3,-32768
 479 000a 9386F67F 		addi	a3,a3,2047
 111:radioHead.c   ****     USART_GP(USART2)    |= 0x01;
 480              		.loc 1 111 25
 481 000e 13671700 		ori	a4,a4,1
 482 0012 23ACE780 		sw	a4,-2024(a5)
 112:radioHead.c   ****     USART_CTL2(USART2)  &= ~(0x04);
 483              		.loc 1 112 5 is_stmt 1
 112:radioHead.c   ****     USART_CTL2(USART2)  &= ~(0x04);
 484              		.loc 1 112 25 is_stmt 0
 485 0016 03A74781 		lw	a4,-2028(a5)
 486 001a 6D9B     		andi	a4,a4,-5
 487 001c 23AAE780 		sw	a4,-2028(a5)
 113:radioHead.c   ****     USART_CTL1(USART2)  &= ~(0x7800);
 488              		.loc 1 113 5 is_stmt 1
 113:radioHead.c   ****     USART_CTL1(USART2)  &= ~(0x7800);
 489              		.loc 1 113 25 is_stmt 0
 490 0020 03A74781 		lw	a4,-2028(a5)
 491 0024 13672700 		ori	a4,a4,2
 492 0028 23AAE780 		sw	a4,-2028(a5)
 493              		.loc 1 114 5 is_stmt 1
 494              		.loc 1 114 25 is_stmt 0
 495 002c 03A70781 		lw	a4,-2032(a5)
 496 0030 758F     		and	a4,a4,a3
 497 0032 23A8E780 		sw	a4,-2032(a5)
 115:radioHead.c   ****     USART_CTL2(USART2)  &= ~(0x28);
 498              		.loc 1 115 5 is_stmt 1
 499              		.loc 1 115 25 is_stmt 0
 500 0036 03A74781 		lw	a4,-2028(a5)
 501 003a 137777FD 		andi	a4,a4,-41
 502 003e 23AAE780 		sw	a4,-2028(a5)
 116:radioHead.c   **** }...
 503              		.loc 1 116 1
 504 0042 8280     		ret
 505              		.cfi_endproc
 506              	.LFE5:
 508              		.globl	tx_radio_buffer
 509              		.globl	rx_radio_buffer
 510              		.section	.bss.rx_radio_buffer,"aw",@nobits
 511              		.align	2
 512              		.set	.LANCHOR0,. + 0
 515              	rx_radio_buffer:
 516 0000 00000000 		.zero	1024
 516      00000000 
 516      00000000 
 516      00000000 
 516      00000000 
GAS LISTING /var/folders/yy/83vjwp7d53j56dbzj8_jnpcr0000gn/T//ccVqnGJ6.s 			page 14


 517              		.section	.bss.tx_radio_buffer,"aw",@nobits
 518              		.align	2
 519              		.set	.LANCHOR1,. + 0
 522              	tx_radio_buffer:
 523 0000 00000000 		.zero	1024
 523      00000000 
 523      00000000 
 523      00000000 
 523      00000000 
 524              		.text
 525              	.Letext0:
 526              		.file 2 "/Users/gulda/Documents/risc-v/toolchain-gd32v-v200-osx/compiler/riscv64-unknown-elf/inclu
 527              		.file 3 "/Users/gulda/Documents/risc-v/toolchain-gd32v-v200-osx/compiler/riscv64-unknown-elf/inclu
 528              		.file 4 "../../firmware/GD32VF103_standard_peripheral/Include/gd32vf103_dma.h"
 529              		.file 5 "../../firmware/GD32VF103_standard_peripheral/Include/gd32vf103_rcu.h"
 530              		.file 6 "/Users/gulda/Documents/risc-v/toolchain-gd32v-v200-osx/compiler/lib/gcc/riscv64-unknown-e
 531              		.file 7 "../../firmware/GD32VF103_standard_peripheral/system_gd32vf103.h"
 532              		.file 8 "../../firmware/GD32VF103_standard_peripheral/Include/gd32vf103_gpio.h"
 533              		.file 9 "../../firmware/GD32VF103_standard_peripheral/Include/gd32vf103_usart.h"
GAS LISTING /var/folders/yy/83vjwp7d53j56dbzj8_jnpcr0000gn/T//ccVqnGJ6.s 			page 15


DEFINED SYMBOLS
                            *ABS*:0000000000000000 radioHead.c
/var/folders/yy/83vjwp7d53j56dbzj8_jnpcr0000gn/T//ccVqnGJ6.s:13     .text.init_radio:0000000000000000 init_radio
/var/folders/yy/83vjwp7d53j56dbzj8_jnpcr0000gn/T//ccVqnGJ6.s:17     .text.init_radio:0000000000000000 .L0 
/var/folders/yy/83vjwp7d53j56dbzj8_jnpcr0000gn/T//ccVqnGJ6.s:18     .text.init_radio:0000000000000000 .L0 
/var/folders/yy/83vjwp7d53j56dbzj8_jnpcr0000gn/T//ccVqnGJ6.s:19     .text.init_radio:0000000000000000 .L0 
/var/folders/yy/83vjwp7d53j56dbzj8_jnpcr0000gn/T//ccVqnGJ6.s:20     .text.init_radio:0000000000000000 .L0 
/var/folders/yy/83vjwp7d53j56dbzj8_jnpcr0000gn/T//ccVqnGJ6.s:21     .text.init_radio:0000000000000000 .L0 
/var/folders/yy/83vjwp7d53j56dbzj8_jnpcr0000gn/T//ccVqnGJ6.s:23     .text.init_radio:0000000000000002 .L0 
/var/folders/yy/83vjwp7d53j56dbzj8_jnpcr0000gn/T//ccVqnGJ6.s:25     .text.init_radio:0000000000000002 .L0 
/var/folders/yy/83vjwp7d53j56dbzj8_jnpcr0000gn/T//ccVqnGJ6.s:27     .text.init_radio:0000000000000006 .L0 
/var/folders/yy/83vjwp7d53j56dbzj8_jnpcr0000gn/T//ccVqnGJ6.s:29     .text.init_radio:000000000000000a .L0 
/var/folders/yy/83vjwp7d53j56dbzj8_jnpcr0000gn/T//ccVqnGJ6.s:30     .text.init_radio:000000000000000a .L0 
/var/folders/yy/83vjwp7d53j56dbzj8_jnpcr0000gn/T//ccVqnGJ6.s:32     .text.init_radio:000000000000000a .L0 
/var/folders/yy/83vjwp7d53j56dbzj8_jnpcr0000gn/T//ccVqnGJ6.s:35     .text.init_radio:0000000000000012 .L0 
/var/folders/yy/83vjwp7d53j56dbzj8_jnpcr0000gn/T//ccVqnGJ6.s:39     .text.init_radio:000000000000001e .L0 
/var/folders/yy/83vjwp7d53j56dbzj8_jnpcr0000gn/T//ccVqnGJ6.s:43     .text.init_radio:000000000000002a .L0 
/var/folders/yy/83vjwp7d53j56dbzj8_jnpcr0000gn/T//ccVqnGJ6.s:51     .text.init_radio:0000000000000042 .L0 
/var/folders/yy/83vjwp7d53j56dbzj8_jnpcr0000gn/T//ccVqnGJ6.s:59     .text.init_radio:0000000000000058 .L0 
/var/folders/yy/83vjwp7d53j56dbzj8_jnpcr0000gn/T//ccVqnGJ6.s:64     .text.init_radio:0000000000000068 .L0 
/var/folders/yy/83vjwp7d53j56dbzj8_jnpcr0000gn/T//ccVqnGJ6.s:69     .text.init_radio:0000000000000078 .L0 
/var/folders/yy/83vjwp7d53j56dbzj8_jnpcr0000gn/T//ccVqnGJ6.s:74     .text.init_radio:0000000000000086 .L0 
/var/folders/yy/83vjwp7d53j56dbzj8_jnpcr0000gn/T//ccVqnGJ6.s:79     .text.init_radio:0000000000000094 .L0 
/var/folders/yy/83vjwp7d53j56dbzj8_jnpcr0000gn/T//ccVqnGJ6.s:84     .text.init_radio:00000000000000a2 .L0 
/var/folders/yy/83vjwp7d53j56dbzj8_jnpcr0000gn/T//ccVqnGJ6.s:89     .text.init_radio:00000000000000b0 .L0 
/var/folders/yy/83vjwp7d53j56dbzj8_jnpcr0000gn/T//ccVqnGJ6.s:94     .text.init_radio:00000000000000be .L0 
/var/folders/yy/83vjwp7d53j56dbzj8_jnpcr0000gn/T//ccVqnGJ6.s:99     .text.init_radio:00000000000000cc .L0 
/var/folders/yy/83vjwp7d53j56dbzj8_jnpcr0000gn/T//ccVqnGJ6.s:104    .text.init_radio:00000000000000da .L0 
/var/folders/yy/83vjwp7d53j56dbzj8_jnpcr0000gn/T//ccVqnGJ6.s:108    .text.init_radio:00000000000000e6 .L0 
/var/folders/yy/83vjwp7d53j56dbzj8_jnpcr0000gn/T//ccVqnGJ6.s:113    .text.init_radio:00000000000000f6 .L0 
/var/folders/yy/83vjwp7d53j56dbzj8_jnpcr0000gn/T//ccVqnGJ6.s:118    .text.init_radio:0000000000000106 .L0 
/var/folders/yy/83vjwp7d53j56dbzj8_jnpcr0000gn/T//ccVqnGJ6.s:123    .text.init_radio:0000000000000114 .L0 
/var/folders/yy/83vjwp7d53j56dbzj8_jnpcr0000gn/T//ccVqnGJ6.s:124    .text.init_radio:0000000000000114 .L0 
/var/folders/yy/83vjwp7d53j56dbzj8_jnpcr0000gn/T//ccVqnGJ6.s:125    .text.init_radio:0000000000000114 .L0 
/var/folders/yy/83vjwp7d53j56dbzj8_jnpcr0000gn/T//ccVqnGJ6.s:128    .text.init_radio:000000000000011c .L0 
/var/folders/yy/83vjwp7d53j56dbzj8_jnpcr0000gn/T//ccVqnGJ6.s:130    .text.init_radio:000000000000011e .L0 
/var/folders/yy/83vjwp7d53j56dbzj8_jnpcr0000gn/T//ccVqnGJ6.s:131    .text.init_radio:000000000000011e .L0 
/var/folders/yy/83vjwp7d53j56dbzj8_jnpcr0000gn/T//ccVqnGJ6.s:132    .text.init_radio:000000000000011e .L0 
/var/folders/yy/83vjwp7d53j56dbzj8_jnpcr0000gn/T//ccVqnGJ6.s:133    .text.init_radio:000000000000011e .L0 
/var/folders/yy/83vjwp7d53j56dbzj8_jnpcr0000gn/T//ccVqnGJ6.s:134    .text.init_radio:000000000000011e .L0 
/var/folders/yy/83vjwp7d53j56dbzj8_jnpcr0000gn/T//ccVqnGJ6.s:137    .text.init_radio:0000000000000124 .L0 
/var/folders/yy/83vjwp7d53j56dbzj8_jnpcr0000gn/T//ccVqnGJ6.s:139    .text.init_radio:0000000000000126 .L0 
/var/folders/yy/83vjwp7d53j56dbzj8_jnpcr0000gn/T//ccVqnGJ6.s:141    .text.init_radio:0000000000000128 .L0 
/var/folders/yy/83vjwp7d53j56dbzj8_jnpcr0000gn/T//ccVqnGJ6.s:143    .text.init_radio:000000000000012a .L0 
/var/folders/yy/83vjwp7d53j56dbzj8_jnpcr0000gn/T//ccVqnGJ6.s:145    .text.init_radio:000000000000012e .L0 
/var/folders/yy/83vjwp7d53j56dbzj8_jnpcr0000gn/T//ccVqnGJ6.s:147    .text.init_radio:0000000000000132 .L0 
/var/folders/yy/83vjwp7d53j56dbzj8_jnpcr0000gn/T//ccVqnGJ6.s:150    .text.init_radio:0000000000000138 .L0 
/var/folders/yy/83vjwp7d53j56dbzj8_jnpcr0000gn/T//ccVqnGJ6.s:152    .text.init_radio:000000000000013c .L0 
/var/folders/yy/83vjwp7d53j56dbzj8_jnpcr0000gn/T//ccVqnGJ6.s:154    .text.init_radio:000000000000013e .L0 
/var/folders/yy/83vjwp7d53j56dbzj8_jnpcr0000gn/T//ccVqnGJ6.s:155    .text.init_radio:000000000000013e .L0 
/var/folders/yy/83vjwp7d53j56dbzj8_jnpcr0000gn/T//ccVqnGJ6.s:156    .text.init_radio:000000000000013e .L0 
/var/folders/yy/83vjwp7d53j56dbzj8_jnpcr0000gn/T//ccVqnGJ6.s:158    .text.init_radio:0000000000000140 .L0 
/var/folders/yy/83vjwp7d53j56dbzj8_jnpcr0000gn/T//ccVqnGJ6.s:159    .text.init_radio:0000000000000140 .L0 
/var/folders/yy/83vjwp7d53j56dbzj8_jnpcr0000gn/T//ccVqnGJ6.s:161    .text.init_radio:0000000000000142 .L0 
/var/folders/yy/83vjwp7d53j56dbzj8_jnpcr0000gn/T//ccVqnGJ6.s:163    .text.init_radio:0000000000000146 .L0 
/var/folders/yy/83vjwp7d53j56dbzj8_jnpcr0000gn/T//ccVqnGJ6.s:166    .text.init_radio:000000000000014e .L0 
/var/folders/yy/83vjwp7d53j56dbzj8_jnpcr0000gn/T//ccVqnGJ6.s:171    .text.init_radio:000000000000015c .L0 
GAS LISTING /var/folders/yy/83vjwp7d53j56dbzj8_jnpcr0000gn/T//ccVqnGJ6.s 			page 16


/var/folders/yy/83vjwp7d53j56dbzj8_jnpcr0000gn/T//ccVqnGJ6.s:176    .text.init_radio:000000000000016a .L0 
/var/folders/yy/83vjwp7d53j56dbzj8_jnpcr0000gn/T//ccVqnGJ6.s:177    .text.init_radio:000000000000016c .L0 
/var/folders/yy/83vjwp7d53j56dbzj8_jnpcr0000gn/T//ccVqnGJ6.s:179    .text.init_radio:000000000000016e .L0 
/var/folders/yy/83vjwp7d53j56dbzj8_jnpcr0000gn/T//ccVqnGJ6.s:182    .text.init_radio:0000000000000170 .L0 
/var/folders/yy/83vjwp7d53j56dbzj8_jnpcr0000gn/T//ccVqnGJ6.s:184    .text.init_radio:0000000000000172 .L0 
/var/folders/yy/83vjwp7d53j56dbzj8_jnpcr0000gn/T//ccVqnGJ6.s:191    .text.read_radio:0000000000000000 read_radio
/var/folders/yy/83vjwp7d53j56dbzj8_jnpcr0000gn/T//ccVqnGJ6.s:194    .text.read_radio:0000000000000000 .L0 
/var/folders/yy/83vjwp7d53j56dbzj8_jnpcr0000gn/T//ccVqnGJ6.s:196    .text.read_radio:0000000000000000 .L0 
/var/folders/yy/83vjwp7d53j56dbzj8_jnpcr0000gn/T//ccVqnGJ6.s:197    .text.read_radio:0000000000000000 .L0 
/var/folders/yy/83vjwp7d53j56dbzj8_jnpcr0000gn/T//ccVqnGJ6.s:198    .text.read_radio:0000000000000000 .L0 
/var/folders/yy/83vjwp7d53j56dbzj8_jnpcr0000gn/T//ccVqnGJ6.s:200    .text.read_radio:0000000000000004 .L0 
/var/folders/yy/83vjwp7d53j56dbzj8_jnpcr0000gn/T//ccVqnGJ6.s:202    .text.read_radio:0000000000000008 .L0 
/var/folders/yy/83vjwp7d53j56dbzj8_jnpcr0000gn/T//ccVqnGJ6.s:204    .text.read_radio:000000000000000a .L0 
/var/folders/yy/83vjwp7d53j56dbzj8_jnpcr0000gn/T//ccVqnGJ6.s:208    .text.read_radio:0000000000000010 .L0 
/var/folders/yy/83vjwp7d53j56dbzj8_jnpcr0000gn/T//ccVqnGJ6.s:209    .text.read_radio:0000000000000010 .L0 
/var/folders/yy/83vjwp7d53j56dbzj8_jnpcr0000gn/T//ccVqnGJ6.s:210    .text.read_radio:0000000000000010 .L0 
/var/folders/yy/83vjwp7d53j56dbzj8_jnpcr0000gn/T//ccVqnGJ6.s:212    .text.read_radio:0000000000000010 .L0 
/var/folders/yy/83vjwp7d53j56dbzj8_jnpcr0000gn/T//ccVqnGJ6.s:214    .text.read_radio:0000000000000012 .L0 
/var/folders/yy/83vjwp7d53j56dbzj8_jnpcr0000gn/T//ccVqnGJ6.s:218    .text.read_radio:0000000000000018 .L0 
/var/folders/yy/83vjwp7d53j56dbzj8_jnpcr0000gn/T//ccVqnGJ6.s:221    .text.read_radio:000000000000001a .L0 
/var/folders/yy/83vjwp7d53j56dbzj8_jnpcr0000gn/T//ccVqnGJ6.s:224    .text.read_radio:000000000000001e .L0 
/var/folders/yy/83vjwp7d53j56dbzj8_jnpcr0000gn/T//ccVqnGJ6.s:227    .text.read_radio:0000000000000020 .L0 
/var/folders/yy/83vjwp7d53j56dbzj8_jnpcr0000gn/T//ccVqnGJ6.s:231    .text.read_radio:0000000000000024 .L0 
/var/folders/yy/83vjwp7d53j56dbzj8_jnpcr0000gn/T//ccVqnGJ6.s:233    .text.read_radio:0000000000000028 .L0 
/var/folders/yy/83vjwp7d53j56dbzj8_jnpcr0000gn/T//ccVqnGJ6.s:235    .text.read_radio:000000000000002a .L0 
/var/folders/yy/83vjwp7d53j56dbzj8_jnpcr0000gn/T//ccVqnGJ6.s:237    .text.read_radio:000000000000002e .L0 
/var/folders/yy/83vjwp7d53j56dbzj8_jnpcr0000gn/T//ccVqnGJ6.s:238    .text.read_radio:000000000000002e .L0 
/var/folders/yy/83vjwp7d53j56dbzj8_jnpcr0000gn/T//ccVqnGJ6.s:241    .text.read_radio:0000000000000036 .L0 
/var/folders/yy/83vjwp7d53j56dbzj8_jnpcr0000gn/T//ccVqnGJ6.s:242    .text.read_radio:0000000000000036 .L0 
/var/folders/yy/83vjwp7d53j56dbzj8_jnpcr0000gn/T//ccVqnGJ6.s:244    .text.read_radio:000000000000003a .L0 
/var/folders/yy/83vjwp7d53j56dbzj8_jnpcr0000gn/T//ccVqnGJ6.s:248    .text.read_radio:000000000000003e .L0 
/var/folders/yy/83vjwp7d53j56dbzj8_jnpcr0000gn/T//ccVqnGJ6.s:251    .text.read_radio:0000000000000042 .L0 
/var/folders/yy/83vjwp7d53j56dbzj8_jnpcr0000gn/T//ccVqnGJ6.s:252    .text.read_radio:0000000000000042 .L0 
/var/folders/yy/83vjwp7d53j56dbzj8_jnpcr0000gn/T//ccVqnGJ6.s:256    .text.read_radio:0000000000000048 .L0 
/var/folders/yy/83vjwp7d53j56dbzj8_jnpcr0000gn/T//ccVqnGJ6.s:257    .text.read_radio:0000000000000048 .L0 
/var/folders/yy/83vjwp7d53j56dbzj8_jnpcr0000gn/T//ccVqnGJ6.s:261    .text.read_radio:000000000000004e .L0 
/var/folders/yy/83vjwp7d53j56dbzj8_jnpcr0000gn/T//ccVqnGJ6.s:263    .text.read_radio:0000000000000050 .L0 
/var/folders/yy/83vjwp7d53j56dbzj8_jnpcr0000gn/T//ccVqnGJ6.s:266    .text.read_radio:0000000000000058 .L0 
/var/folders/yy/83vjwp7d53j56dbzj8_jnpcr0000gn/T//ccVqnGJ6.s:267    .text.read_radio:0000000000000058 .L0 
/var/folders/yy/83vjwp7d53j56dbzj8_jnpcr0000gn/T//ccVqnGJ6.s:268    .text.read_radio:0000000000000058 .L0 
/var/folders/yy/83vjwp7d53j56dbzj8_jnpcr0000gn/T//ccVqnGJ6.s:272    .text.read_radio:0000000000000062 .L0 
/var/folders/yy/83vjwp7d53j56dbzj8_jnpcr0000gn/T//ccVqnGJ6.s:275    .text.read_radio:0000000000000068 .L0 
/var/folders/yy/83vjwp7d53j56dbzj8_jnpcr0000gn/T//ccVqnGJ6.s:278    .text.read_radio:000000000000006c .L0 
/var/folders/yy/83vjwp7d53j56dbzj8_jnpcr0000gn/T//ccVqnGJ6.s:280    .text.read_radio:000000000000006e .L0 
/var/folders/yy/83vjwp7d53j56dbzj8_jnpcr0000gn/T//ccVqnGJ6.s:282    .text.read_radio:0000000000000072 .L0 
/var/folders/yy/83vjwp7d53j56dbzj8_jnpcr0000gn/T//ccVqnGJ6.s:285    .text.read_radio:0000000000000078 .L0 
/var/folders/yy/83vjwp7d53j56dbzj8_jnpcr0000gn/T//ccVqnGJ6.s:287    .text.read_radio:000000000000007c .L0 
/var/folders/yy/83vjwp7d53j56dbzj8_jnpcr0000gn/T//ccVqnGJ6.s:289    .text.read_radio:000000000000007e .L0 
/var/folders/yy/83vjwp7d53j56dbzj8_jnpcr0000gn/T//ccVqnGJ6.s:290    .text.read_radio:000000000000007e .L0 
/var/folders/yy/83vjwp7d53j56dbzj8_jnpcr0000gn/T//ccVqnGJ6.s:291    .text.read_radio:000000000000007e .L0 
/var/folders/yy/83vjwp7d53j56dbzj8_jnpcr0000gn/T//ccVqnGJ6.s:292    .text.read_radio:000000000000007e .L0 
/var/folders/yy/83vjwp7d53j56dbzj8_jnpcr0000gn/T//ccVqnGJ6.s:293    .text.read_radio:000000000000007e .L0 
/var/folders/yy/83vjwp7d53j56dbzj8_jnpcr0000gn/T//ccVqnGJ6.s:294    .text.read_radio:000000000000007e .L0 
/var/folders/yy/83vjwp7d53j56dbzj8_jnpcr0000gn/T//ccVqnGJ6.s:295    .text.read_radio:000000000000007e .L0 
/var/folders/yy/83vjwp7d53j56dbzj8_jnpcr0000gn/T//ccVqnGJ6.s:297    .text.read_radio:0000000000000080 .L0 
/var/folders/yy/83vjwp7d53j56dbzj8_jnpcr0000gn/T//ccVqnGJ6.s:298    .text.read_radio:0000000000000080 .L0 
/var/folders/yy/83vjwp7d53j56dbzj8_jnpcr0000gn/T//ccVqnGJ6.s:300    .text.read_radio:0000000000000082 .L0 
GAS LISTING /var/folders/yy/83vjwp7d53j56dbzj8_jnpcr0000gn/T//ccVqnGJ6.s 			page 17


/var/folders/yy/83vjwp7d53j56dbzj8_jnpcr0000gn/T//ccVqnGJ6.s:302    .text.read_radio:0000000000000086 .L0 
/var/folders/yy/83vjwp7d53j56dbzj8_jnpcr0000gn/T//ccVqnGJ6.s:305    .text.read_radio:000000000000008e .L0 
/var/folders/yy/83vjwp7d53j56dbzj8_jnpcr0000gn/T//ccVqnGJ6.s:310    .text.read_radio:000000000000009c .L0 
/var/folders/yy/83vjwp7d53j56dbzj8_jnpcr0000gn/T//ccVqnGJ6.s:317    .text.read_radio:00000000000000aa .L0 
/var/folders/yy/83vjwp7d53j56dbzj8_jnpcr0000gn/T//ccVqnGJ6.s:318    .text.read_radio:00000000000000aa .L0 
/var/folders/yy/83vjwp7d53j56dbzj8_jnpcr0000gn/T//ccVqnGJ6.s:320    .text.read_radio:00000000000000ae .L0 
/var/folders/yy/83vjwp7d53j56dbzj8_jnpcr0000gn/T//ccVqnGJ6.s:322    .text.read_radio:00000000000000b0 .L0 
/var/folders/yy/83vjwp7d53j56dbzj8_jnpcr0000gn/T//ccVqnGJ6.s:324    .text.read_radio:00000000000000b2 .L0 
/var/folders/yy/83vjwp7d53j56dbzj8_jnpcr0000gn/T//ccVqnGJ6.s:327    .text.read_radio:00000000000000b4 .L0 
/var/folders/yy/83vjwp7d53j56dbzj8_jnpcr0000gn/T//ccVqnGJ6.s:329    .text.read_radio:00000000000000b6 .L0 
/var/folders/yy/83vjwp7d53j56dbzj8_jnpcr0000gn/T//ccVqnGJ6.s:336    .text.send_radio:0000000000000000 send_radio
/var/folders/yy/83vjwp7d53j56dbzj8_jnpcr0000gn/T//ccVqnGJ6.s:339    .text.send_radio:0000000000000000 .L0 
/var/folders/yy/83vjwp7d53j56dbzj8_jnpcr0000gn/T//ccVqnGJ6.s:341    .text.send_radio:0000000000000000 .L0 
/var/folders/yy/83vjwp7d53j56dbzj8_jnpcr0000gn/T//ccVqnGJ6.s:343    .text.send_radio:0000000000000000 .L0 
/var/folders/yy/83vjwp7d53j56dbzj8_jnpcr0000gn/T//ccVqnGJ6.s:345    .text.send_radio:0000000000000000 .L0 
/var/folders/yy/83vjwp7d53j56dbzj8_jnpcr0000gn/T//ccVqnGJ6.s:346    .text.send_radio:0000000000000000 .L0 
/var/folders/yy/83vjwp7d53j56dbzj8_jnpcr0000gn/T//ccVqnGJ6.s:348    .text.send_radio:0000000000000002 .L0 
/var/folders/yy/83vjwp7d53j56dbzj8_jnpcr0000gn/T//ccVqnGJ6.s:350    .text.send_radio:0000000000000004 .L0 
/var/folders/yy/83vjwp7d53j56dbzj8_jnpcr0000gn/T//ccVqnGJ6.s:354    .text.send_radio:000000000000000c .L0 
/var/folders/yy/83vjwp7d53j56dbzj8_jnpcr0000gn/T//ccVqnGJ6.s:355    .text.send_radio:000000000000000c .L0 
/var/folders/yy/83vjwp7d53j56dbzj8_jnpcr0000gn/T//ccVqnGJ6.s:357    .text.send_radio:000000000000000c .L0 
/var/folders/yy/83vjwp7d53j56dbzj8_jnpcr0000gn/T//ccVqnGJ6.s:360    .text.send_radio:000000000000000e .L0 
/var/folders/yy/83vjwp7d53j56dbzj8_jnpcr0000gn/T//ccVqnGJ6.s:363    .text.send_radio:0000000000000014 .L0 
/var/folders/yy/83vjwp7d53j56dbzj8_jnpcr0000gn/T//ccVqnGJ6.s:367    .text.send_radio:0000000000000018 .L0 
/var/folders/yy/83vjwp7d53j56dbzj8_jnpcr0000gn/T//ccVqnGJ6.s:369    .text.send_radio:000000000000001c .L0 
/var/folders/yy/83vjwp7d53j56dbzj8_jnpcr0000gn/T//ccVqnGJ6.s:373    .text.send_radio:0000000000000020 .L0 
/var/folders/yy/83vjwp7d53j56dbzj8_jnpcr0000gn/T//ccVqnGJ6.s:374    .text.send_radio:0000000000000020 .L0 
/var/folders/yy/83vjwp7d53j56dbzj8_jnpcr0000gn/T//ccVqnGJ6.s:381    .text.send_radio:000000000000002e .L0 
/var/folders/yy/83vjwp7d53j56dbzj8_jnpcr0000gn/T//ccVqnGJ6.s:382    .text.send_radio:000000000000002e .L0 
/var/folders/yy/83vjwp7d53j56dbzj8_jnpcr0000gn/T//ccVqnGJ6.s:383    .text.send_radio:000000000000002e .L0 
/var/folders/yy/83vjwp7d53j56dbzj8_jnpcr0000gn/T//ccVqnGJ6.s:387    .text.send_radio:0000000000000038 .L0 
/var/folders/yy/83vjwp7d53j56dbzj8_jnpcr0000gn/T//ccVqnGJ6.s:390    .text.send_radio:000000000000003c .L0 
/var/folders/yy/83vjwp7d53j56dbzj8_jnpcr0000gn/T//ccVqnGJ6.s:392    .text.send_radio:0000000000000040 .L0 
/var/folders/yy/83vjwp7d53j56dbzj8_jnpcr0000gn/T//ccVqnGJ6.s:394    .text.send_radio:0000000000000042 .L0 
/var/folders/yy/83vjwp7d53j56dbzj8_jnpcr0000gn/T//ccVqnGJ6.s:396    .text.send_radio:0000000000000046 .L0 
/var/folders/yy/83vjwp7d53j56dbzj8_jnpcr0000gn/T//ccVqnGJ6.s:398    .text.send_radio:0000000000000048 .L0 
/var/folders/yy/83vjwp7d53j56dbzj8_jnpcr0000gn/T//ccVqnGJ6.s:400    .text.send_radio:000000000000004a .L0 
/var/folders/yy/83vjwp7d53j56dbzj8_jnpcr0000gn/T//ccVqnGJ6.s:402    .text.send_radio:000000000000004e .L0 
/var/folders/yy/83vjwp7d53j56dbzj8_jnpcr0000gn/T//ccVqnGJ6.s:404    .text.send_radio:0000000000000052 .L0 
/var/folders/yy/83vjwp7d53j56dbzj8_jnpcr0000gn/T//ccVqnGJ6.s:406    .text.send_radio:0000000000000054 .L0 
/var/folders/yy/83vjwp7d53j56dbzj8_jnpcr0000gn/T//ccVqnGJ6.s:407    .text.send_radio:0000000000000054 .L0 
/var/folders/yy/83vjwp7d53j56dbzj8_jnpcr0000gn/T//ccVqnGJ6.s:408    .text.send_radio:0000000000000054 .L0 
/var/folders/yy/83vjwp7d53j56dbzj8_jnpcr0000gn/T//ccVqnGJ6.s:410    .text.send_radio:0000000000000056 .L0 
/var/folders/yy/83vjwp7d53j56dbzj8_jnpcr0000gn/T//ccVqnGJ6.s:412    .text.send_radio:0000000000000058 .L0 
/var/folders/yy/83vjwp7d53j56dbzj8_jnpcr0000gn/T//ccVqnGJ6.s:413    .text.send_radio:0000000000000058 .L0 
/var/folders/yy/83vjwp7d53j56dbzj8_jnpcr0000gn/T//ccVqnGJ6.s:414    .text.send_radio:0000000000000058 .L0 
/var/folders/yy/83vjwp7d53j56dbzj8_jnpcr0000gn/T//ccVqnGJ6.s:415    .text.send_radio:0000000000000058 .L0 
/var/folders/yy/83vjwp7d53j56dbzj8_jnpcr0000gn/T//ccVqnGJ6.s:416    .text.send_radio:0000000000000058 .L0 
/var/folders/yy/83vjwp7d53j56dbzj8_jnpcr0000gn/T//ccVqnGJ6.s:418    .text.send_radio:000000000000005a .L0 
/var/folders/yy/83vjwp7d53j56dbzj8_jnpcr0000gn/T//ccVqnGJ6.s:419    .text.send_radio:000000000000005a .L0 
/var/folders/yy/83vjwp7d53j56dbzj8_jnpcr0000gn/T//ccVqnGJ6.s:422    .text.send_radio:0000000000000062 .L0 
/var/folders/yy/83vjwp7d53j56dbzj8_jnpcr0000gn/T//ccVqnGJ6.s:427    .text.send_radio:0000000000000070 .L0 
/var/folders/yy/83vjwp7d53j56dbzj8_jnpcr0000gn/T//ccVqnGJ6.s:432    .text.send_radio:000000000000007e .L0 
/var/folders/yy/83vjwp7d53j56dbzj8_jnpcr0000gn/T//ccVqnGJ6.s:433    .text.send_radio:0000000000000080 .L0 
/var/folders/yy/83vjwp7d53j56dbzj8_jnpcr0000gn/T//ccVqnGJ6.s:434    .text.send_radio:0000000000000080 .L0 
/var/folders/yy/83vjwp7d53j56dbzj8_jnpcr0000gn/T//ccVqnGJ6.s:436    .text.send_radio:0000000000000082 .L0 
/var/folders/yy/83vjwp7d53j56dbzj8_jnpcr0000gn/T//ccVqnGJ6.s:438    .text.send_radio:0000000000000084 .L0 
GAS LISTING /var/folders/yy/83vjwp7d53j56dbzj8_jnpcr0000gn/T//ccVqnGJ6.s 			page 18


/var/folders/yy/83vjwp7d53j56dbzj8_jnpcr0000gn/T//ccVqnGJ6.s:442    .text.send_radio:0000000000000086 .L0 
/var/folders/yy/83vjwp7d53j56dbzj8_jnpcr0000gn/T//ccVqnGJ6.s:447    .text.send_radio:0000000000000088 .L0 
/var/folders/yy/83vjwp7d53j56dbzj8_jnpcr0000gn/T//ccVqnGJ6.s:450    .text.send_radio:0000000000000088 .L0 
/var/folders/yy/83vjwp7d53j56dbzj8_jnpcr0000gn/T//ccVqnGJ6.s:451    .text.send_radio:0000000000000088 .L0 
/var/folders/yy/83vjwp7d53j56dbzj8_jnpcr0000gn/T//ccVqnGJ6.s:454    .text.send_radio:0000000000000090 .L0 
/var/folders/yy/83vjwp7d53j56dbzj8_jnpcr0000gn/T//ccVqnGJ6.s:456    .text.send_radio:0000000000000094 .L0 
/var/folders/yy/83vjwp7d53j56dbzj8_jnpcr0000gn/T//ccVqnGJ6.s:459    .text.send_radio:0000000000000096 .L0 
/var/folders/yy/83vjwp7d53j56dbzj8_jnpcr0000gn/T//ccVqnGJ6.s:462    .text.send_radio:000000000000009c .L0 
/var/folders/yy/83vjwp7d53j56dbzj8_jnpcr0000gn/T//ccVqnGJ6.s:469    .text.init_radio_gaga:0000000000000000 init_radio_gaga
/var/folders/yy/83vjwp7d53j56dbzj8_jnpcr0000gn/T//ccVqnGJ6.s:472    .text.init_radio_gaga:0000000000000000 .L0 
/var/folders/yy/83vjwp7d53j56dbzj8_jnpcr0000gn/T//ccVqnGJ6.s:473    .text.init_radio_gaga:0000000000000000 .L0 
/var/folders/yy/83vjwp7d53j56dbzj8_jnpcr0000gn/T//ccVqnGJ6.s:474    .text.init_radio_gaga:0000000000000000 .L0 
/var/folders/yy/83vjwp7d53j56dbzj8_jnpcr0000gn/T//ccVqnGJ6.s:475    .text.init_radio_gaga:0000000000000000 .L0 
/var/folders/yy/83vjwp7d53j56dbzj8_jnpcr0000gn/T//ccVqnGJ6.s:478    .text.init_radio_gaga:0000000000000008 .L0 
/var/folders/yy/83vjwp7d53j56dbzj8_jnpcr0000gn/T//ccVqnGJ6.s:481    .text.init_radio_gaga:000000000000000e .L0 
/var/folders/yy/83vjwp7d53j56dbzj8_jnpcr0000gn/T//ccVqnGJ6.s:484    .text.init_radio_gaga:0000000000000016 .L0 
/var/folders/yy/83vjwp7d53j56dbzj8_jnpcr0000gn/T//ccVqnGJ6.s:485    .text.init_radio_gaga:0000000000000016 .L0 
/var/folders/yy/83vjwp7d53j56dbzj8_jnpcr0000gn/T//ccVqnGJ6.s:489    .text.init_radio_gaga:0000000000000020 .L0 
/var/folders/yy/83vjwp7d53j56dbzj8_jnpcr0000gn/T//ccVqnGJ6.s:490    .text.init_radio_gaga:0000000000000020 .L0 
/var/folders/yy/83vjwp7d53j56dbzj8_jnpcr0000gn/T//ccVqnGJ6.s:494    .text.init_radio_gaga:000000000000002c .L0 
/var/folders/yy/83vjwp7d53j56dbzj8_jnpcr0000gn/T//ccVqnGJ6.s:495    .text.init_radio_gaga:000000000000002c .L0 
/var/folders/yy/83vjwp7d53j56dbzj8_jnpcr0000gn/T//ccVqnGJ6.s:499    .text.init_radio_gaga:0000000000000036 .L0 
/var/folders/yy/83vjwp7d53j56dbzj8_jnpcr0000gn/T//ccVqnGJ6.s:500    .text.init_radio_gaga:0000000000000036 .L0 
/var/folders/yy/83vjwp7d53j56dbzj8_jnpcr0000gn/T//ccVqnGJ6.s:504    .text.init_radio_gaga:0000000000000042 .L0 
/var/folders/yy/83vjwp7d53j56dbzj8_jnpcr0000gn/T//ccVqnGJ6.s:505    .text.init_radio_gaga:0000000000000044 .L0 
/var/folders/yy/83vjwp7d53j56dbzj8_jnpcr0000gn/T//ccVqnGJ6.s:522    .bss.tx_radio_buffer:0000000000000000 tx_radio_buffer
/var/folders/yy/83vjwp7d53j56dbzj8_jnpcr0000gn/T//ccVqnGJ6.s:515    .bss.rx_radio_buffer:0000000000000000 rx_radio_buffer
/var/folders/yy/83vjwp7d53j56dbzj8_jnpcr0000gn/T//ccVqnGJ6.s:512    .bss.rx_radio_buffer:0000000000000000 .LANCHOR0
/var/folders/yy/83vjwp7d53j56dbzj8_jnpcr0000gn/T//ccVqnGJ6.s:519    .bss.tx_radio_buffer:0000000000000000 .LANCHOR1
/var/folders/yy/83vjwp7d53j56dbzj8_jnpcr0000gn/T//ccVqnGJ6.s:187    .text.init_radio:0000000000000172 .L0 
/var/folders/yy/83vjwp7d53j56dbzj8_jnpcr0000gn/T//ccVqnGJ6.s:332    .text.read_radio:00000000000000b6 .L0 
/var/folders/yy/83vjwp7d53j56dbzj8_jnpcr0000gn/T//ccVqnGJ6.s:465    .text.send_radio:000000000000009c .L0 
/var/folders/yy/83vjwp7d53j56dbzj8_jnpcr0000gn/T//ccVqnGJ6.s:510    .text.init_radio_gaga:0000000000000044 .L0 
                     .debug_frame:0000000000000000 .L0 
/var/folders/yy/83vjwp7d53j56dbzj8_jnpcr0000gn/T//ccVqnGJ6.s:315    .text.read_radio:00000000000000aa .L3
/var/folders/yy/83vjwp7d53j56dbzj8_jnpcr0000gn/T//ccVqnGJ6.s:249    .text.read_radio:0000000000000042 .L6
/var/folders/yy/83vjwp7d53j56dbzj8_jnpcr0000gn/T//ccVqnGJ6.s:228    .text.read_radio:0000000000000024 .L5
/var/folders/yy/83vjwp7d53j56dbzj8_jnpcr0000gn/T//ccVqnGJ6.s:370    .text.send_radio:0000000000000020 .L15
/var/folders/yy/83vjwp7d53j56dbzj8_jnpcr0000gn/T//ccVqnGJ6.s:445    .text.send_radio:0000000000000088 .L16
/var/folders/yy/83vjwp7d53j56dbzj8_jnpcr0000gn/T//ccVqnGJ6.s:365    .text.send_radio:0000000000000018 .L14
/var/folders/yy/83vjwp7d53j56dbzj8_jnpcr0000gn/T//ccVqnGJ6.s:1662   .debug_abbrev:0000000000000000 .Ldebug_abbrev0
/var/folders/yy/83vjwp7d53j56dbzj8_jnpcr0000gn/T//ccVqnGJ6.s:2297   .debug_str:0000000000000016 .LASF97
/var/folders/yy/83vjwp7d53j56dbzj8_jnpcr0000gn/T//ccVqnGJ6.s:2435   .debug_str:00000000000003ef .LASF98
/var/folders/yy/83vjwp7d53j56dbzj8_jnpcr0000gn/T//ccVqnGJ6.s:2447   .debug_str:0000000000000430 .LASF99
/var/folders/yy/83vjwp7d53j56dbzj8_jnpcr0000gn/T//ccVqnGJ6.s:2267   .debug_ranges:0000000000000000 .Ldebug_ranges0
/var/folders/yy/83vjwp7d53j56dbzj8_jnpcr0000gn/T//ccVqnGJ6.s:2293   .debug_line:0000000000000000 .Ldebug_line0
/var/folders/yy/83vjwp7d53j56dbzj8_jnpcr0000gn/T//ccVqnGJ6.s:2415   .debug_str:0000000000000374 .LASF0
/var/folders/yy/83vjwp7d53j56dbzj8_jnpcr0000gn/T//ccVqnGJ6.s:2409   .debug_str:0000000000000348 .LASF1
/var/folders/yy/83vjwp7d53j56dbzj8_jnpcr0000gn/T//ccVqnGJ6.s:2495   .debug_str:0000000000000582 .LASF6
/var/folders/yy/83vjwp7d53j56dbzj8_jnpcr0000gn/T//ccVqnGJ6.s:2399   .debug_str:0000000000000307 .LASF2
/var/folders/yy/83vjwp7d53j56dbzj8_jnpcr0000gn/T//ccVqnGJ6.s:2333   .debug_str:0000000000000174 .LASF3
/var/folders/yy/83vjwp7d53j56dbzj8_jnpcr0000gn/T//ccVqnGJ6.s:2427   .debug_str:00000000000003c5 .LASF4
/var/folders/yy/83vjwp7d53j56dbzj8_jnpcr0000gn/T//ccVqnGJ6.s:2357   .debug_str:0000000000000203 .LASF5
/var/folders/yy/83vjwp7d53j56dbzj8_jnpcr0000gn/T//ccVqnGJ6.s:2329   .debug_str:0000000000000161 .LASF7
/var/folders/yy/83vjwp7d53j56dbzj8_jnpcr0000gn/T//ccVqnGJ6.s:2417   .debug_str:0000000000000381 .LASF8
/var/folders/yy/83vjwp7d53j56dbzj8_jnpcr0000gn/T//ccVqnGJ6.s:2327   .debug_str:0000000000000153 .LASF9
/var/folders/yy/83vjwp7d53j56dbzj8_jnpcr0000gn/T//ccVqnGJ6.s:2411   .debug_str:0000000000000354 .LASF10
GAS LISTING /var/folders/yy/83vjwp7d53j56dbzj8_jnpcr0000gn/T//ccVqnGJ6.s 			page 19


/var/folders/yy/83vjwp7d53j56dbzj8_jnpcr0000gn/T//ccVqnGJ6.s:2337   .debug_str:0000000000000189 .LASF11
/var/folders/yy/83vjwp7d53j56dbzj8_jnpcr0000gn/T//ccVqnGJ6.s:2413   .debug_str:000000000000036b .LASF12
/var/folders/yy/83vjwp7d53j56dbzj8_jnpcr0000gn/T//ccVqnGJ6.s:2299   .debug_str:000000000000009e .LASF70
/var/folders/yy/83vjwp7d53j56dbzj8_jnpcr0000gn/T//ccVqnGJ6.s:2481   .debug_str:000000000000054a .LASF13
/var/folders/yy/83vjwp7d53j56dbzj8_jnpcr0000gn/T//ccVqnGJ6.s:2483   .debug_str:0000000000000552 .LASF14
/var/folders/yy/83vjwp7d53j56dbzj8_jnpcr0000gn/T//ccVqnGJ6.s:2485   .debug_str:000000000000055a .LASF15
/var/folders/yy/83vjwp7d53j56dbzj8_jnpcr0000gn/T//ccVqnGJ6.s:2487   .debug_str:0000000000000562 .LASF16
/var/folders/yy/83vjwp7d53j56dbzj8_jnpcr0000gn/T//ccVqnGJ6.s:2489   .debug_str:000000000000056a .LASF17
/var/folders/yy/83vjwp7d53j56dbzj8_jnpcr0000gn/T//ccVqnGJ6.s:2491   .debug_str:0000000000000572 .LASF18
/var/folders/yy/83vjwp7d53j56dbzj8_jnpcr0000gn/T//ccVqnGJ6.s:2493   .debug_str:000000000000057a .LASF19
/var/folders/yy/83vjwp7d53j56dbzj8_jnpcr0000gn/T//ccVqnGJ6.s:2323   .debug_str:000000000000013d .LASF20
/var/folders/yy/83vjwp7d53j56dbzj8_jnpcr0000gn/T//ccVqnGJ6.s:2387   .debug_str:00000000000002a4 .LASF21
/var/folders/yy/83vjwp7d53j56dbzj8_jnpcr0000gn/T//ccVqnGJ6.s:2349   .debug_str:00000000000001ca .LASF22
/var/folders/yy/83vjwp7d53j56dbzj8_jnpcr0000gn/T//ccVqnGJ6.s:2391   .debug_str:00000000000002bb .LASF23
/var/folders/yy/83vjwp7d53j56dbzj8_jnpcr0000gn/T//ccVqnGJ6.s:2475   .debug_str:0000000000000511 .LASF24
/var/folders/yy/83vjwp7d53j56dbzj8_jnpcr0000gn/T//ccVqnGJ6.s:2305   .debug_str:00000000000000c2 .LASF25
/var/folders/yy/83vjwp7d53j56dbzj8_jnpcr0000gn/T//ccVqnGJ6.s:2385   .debug_str:0000000000000299 .LASF26
/var/folders/yy/83vjwp7d53j56dbzj8_jnpcr0000gn/T//ccVqnGJ6.s:2335   .debug_str:000000000000017e .LASF27
/var/folders/yy/83vjwp7d53j56dbzj8_jnpcr0000gn/T//ccVqnGJ6.s:2325   .debug_str:0000000000000149 .LASF28
/var/folders/yy/83vjwp7d53j56dbzj8_jnpcr0000gn/T//ccVqnGJ6.s:2393   .debug_str:00000000000002c8 .LASF29
/var/folders/yy/83vjwp7d53j56dbzj8_jnpcr0000gn/T//ccVqnGJ6.s:2437   .debug_str:00000000000003fb .LASF30
/var/folders/yy/83vjwp7d53j56dbzj8_jnpcr0000gn/T//ccVqnGJ6.s:2439   .debug_str:0000000000000404 .LASF31
/var/folders/yy/83vjwp7d53j56dbzj8_jnpcr0000gn/T//ccVqnGJ6.s:2453   .debug_str:000000000000048c .LASF32
/var/folders/yy/83vjwp7d53j56dbzj8_jnpcr0000gn/T//ccVqnGJ6.s:2321   .debug_str:0000000000000134 .LASF33
/var/folders/yy/83vjwp7d53j56dbzj8_jnpcr0000gn/T//ccVqnGJ6.s:2367   .debug_str:0000000000000232 .LASF34
/var/folders/yy/83vjwp7d53j56dbzj8_jnpcr0000gn/T//ccVqnGJ6.s:2375   .debug_str:0000000000000262 .LASF35
/var/folders/yy/83vjwp7d53j56dbzj8_jnpcr0000gn/T//ccVqnGJ6.s:2377   .debug_str:000000000000026d .LASF36
/var/folders/yy/83vjwp7d53j56dbzj8_jnpcr0000gn/T//ccVqnGJ6.s:2379   .debug_str:0000000000000278 .LASF37
/var/folders/yy/83vjwp7d53j56dbzj8_jnpcr0000gn/T//ccVqnGJ6.s:2381   .debug_str:0000000000000283 .LASF38
/var/folders/yy/83vjwp7d53j56dbzj8_jnpcr0000gn/T//ccVqnGJ6.s:2383   .debug_str:000000000000028e .LASF39
/var/folders/yy/83vjwp7d53j56dbzj8_jnpcr0000gn/T//ccVqnGJ6.s:2365   .debug_str:0000000000000227 .LASF40
/var/folders/yy/83vjwp7d53j56dbzj8_jnpcr0000gn/T//ccVqnGJ6.s:2353   .debug_str:00000000000001ec .LASF41
/var/folders/yy/83vjwp7d53j56dbzj8_jnpcr0000gn/T//ccVqnGJ6.s:2361   .debug_str:0000000000000215 .LASF42
/var/folders/yy/83vjwp7d53j56dbzj8_jnpcr0000gn/T//ccVqnGJ6.s:2363   .debug_str:000000000000021e .LASF43
/var/folders/yy/83vjwp7d53j56dbzj8_jnpcr0000gn/T//ccVqnGJ6.s:2463   .debug_str:00000000000004b7 .LASF44
/var/folders/yy/83vjwp7d53j56dbzj8_jnpcr0000gn/T//ccVqnGJ6.s:2465   .debug_str:00000000000004c2 .LASF45
/var/folders/yy/83vjwp7d53j56dbzj8_jnpcr0000gn/T//ccVqnGJ6.s:2469   .debug_str:00000000000004dd .LASF46
/var/folders/yy/83vjwp7d53j56dbzj8_jnpcr0000gn/T//ccVqnGJ6.s:2421   .debug_str:00000000000003a8 .LASF47
/var/folders/yy/83vjwp7d53j56dbzj8_jnpcr0000gn/T//ccVqnGJ6.s:2431   .debug_str:00000000000003dd .LASF48
/var/folders/yy/83vjwp7d53j56dbzj8_jnpcr0000gn/T//ccVqnGJ6.s:2433   .debug_str:00000000000003e6 .LASF49
/var/folders/yy/83vjwp7d53j56dbzj8_jnpcr0000gn/T//ccVqnGJ6.s:2343   .debug_str:00000000000001ac .LASF50
/var/folders/yy/83vjwp7d53j56dbzj8_jnpcr0000gn/T//ccVqnGJ6.s:2345   .debug_str:00000000000001b5 .LASF51
/var/folders/yy/83vjwp7d53j56dbzj8_jnpcr0000gn/T//ccVqnGJ6.s:2407   .debug_str:000000000000033f .LASF52
/var/folders/yy/83vjwp7d53j56dbzj8_jnpcr0000gn/T//ccVqnGJ6.s:2425   .debug_str:00000000000003bd .LASF53
/var/folders/yy/83vjwp7d53j56dbzj8_jnpcr0000gn/T//ccVqnGJ6.s:2443   .debug_str:0000000000000421 .LASF54
/var/folders/yy/83vjwp7d53j56dbzj8_jnpcr0000gn/T//ccVqnGJ6.s:2331   .debug_str:000000000000016c .LASF55
/var/folders/yy/83vjwp7d53j56dbzj8_jnpcr0000gn/T//ccVqnGJ6.s:2303   .debug_str:00000000000000bb .LASF56
/var/folders/yy/83vjwp7d53j56dbzj8_jnpcr0000gn/T//ccVqnGJ6.s:2449   .debug_str:000000000000047a .LASF57
/var/folders/yy/83vjwp7d53j56dbzj8_jnpcr0000gn/T//ccVqnGJ6.s:2311   .debug_str:00000000000000fc .LASF58
/var/folders/yy/83vjwp7d53j56dbzj8_jnpcr0000gn/T//ccVqnGJ6.s:2313   .debug_str:0000000000000106 .LASF59
/var/folders/yy/83vjwp7d53j56dbzj8_jnpcr0000gn/T//ccVqnGJ6.s:2315   .debug_str:0000000000000110 .LASF60
/var/folders/yy/83vjwp7d53j56dbzj8_jnpcr0000gn/T//ccVqnGJ6.s:2389   .debug_str:00000000000002b1 .LASF61
/var/folders/yy/83vjwp7d53j56dbzj8_jnpcr0000gn/T//ccVqnGJ6.s:2403   .debug_str:000000000000032d .LASF62
/var/folders/yy/83vjwp7d53j56dbzj8_jnpcr0000gn/T//ccVqnGJ6.s:2405   .debug_str:0000000000000336 .LASF63
/var/folders/yy/83vjwp7d53j56dbzj8_jnpcr0000gn/T//ccVqnGJ6.s:2373   .debug_str:0000000000000257 .LASF64
/var/folders/yy/83vjwp7d53j56dbzj8_jnpcr0000gn/T//ccVqnGJ6.s:2359   .debug_str:000000000000020c .LASF65
/var/folders/yy/83vjwp7d53j56dbzj8_jnpcr0000gn/T//ccVqnGJ6.s:2461   .debug_str:00000000000004ac .LASF66
GAS LISTING /var/folders/yy/83vjwp7d53j56dbzj8_jnpcr0000gn/T//ccVqnGJ6.s 			page 20


/var/folders/yy/83vjwp7d53j56dbzj8_jnpcr0000gn/T//ccVqnGJ6.s:2319   .debug_str:000000000000012d .LASF67
/var/folders/yy/83vjwp7d53j56dbzj8_jnpcr0000gn/T//ccVqnGJ6.s:2347   .debug_str:00000000000001be .LASF68
/var/folders/yy/83vjwp7d53j56dbzj8_jnpcr0000gn/T//ccVqnGJ6.s:2429   .debug_str:00000000000003d8 .LASF69
/var/folders/yy/83vjwp7d53j56dbzj8_jnpcr0000gn/T//ccVqnGJ6.s:2341   .debug_str:000000000000019c .LASF71
/var/folders/yy/83vjwp7d53j56dbzj8_jnpcr0000gn/T//ccVqnGJ6.s:2473   .debug_str:0000000000000501 .LASF72
/var/folders/yy/83vjwp7d53j56dbzj8_jnpcr0000gn/T//ccVqnGJ6.s:2467   .debug_str:00000000000004cd .LASF100
/var/folders/yy/83vjwp7d53j56dbzj8_jnpcr0000gn/T//ccVqnGJ6.s:470    .text.init_radio_gaga:0000000000000000 .LFB5
/var/folders/yy/83vjwp7d53j56dbzj8_jnpcr0000gn/T//ccVqnGJ6.s:506    .text.init_radio_gaga:0000000000000044 .LFE5
/var/folders/yy/83vjwp7d53j56dbzj8_jnpcr0000gn/T//ccVqnGJ6.s:2397   .debug_str:00000000000002fc .LASF76
/var/folders/yy/83vjwp7d53j56dbzj8_jnpcr0000gn/T//ccVqnGJ6.s:337    .text.send_radio:0000000000000000 .LFB4
/var/folders/yy/83vjwp7d53j56dbzj8_jnpcr0000gn/T//ccVqnGJ6.s:463    .text.send_radio:000000000000009c .LFE4
/var/folders/yy/83vjwp7d53j56dbzj8_jnpcr0000gn/T//ccVqnGJ6.s:2088   .debug_loc:0000000000000000 .LLST5
/var/folders/yy/83vjwp7d53j56dbzj8_jnpcr0000gn/T//ccVqnGJ6.s:2451   .debug_str:0000000000000484 .LASF73
/var/folders/yy/83vjwp7d53j56dbzj8_jnpcr0000gn/T//ccVqnGJ6.s:2111   .debug_loc:0000000000000038 .LLST6
/var/folders/yy/83vjwp7d53j56dbzj8_jnpcr0000gn/T//ccVqnGJ6.s:2455   .debug_str:0000000000000494 .LASF74
/var/folders/yy/83vjwp7d53j56dbzj8_jnpcr0000gn/T//ccVqnGJ6.s:2129   .debug_loc:0000000000000064 .LLST7
/var/folders/yy/83vjwp7d53j56dbzj8_jnpcr0000gn/T//ccVqnGJ6.s:2371   .debug_str:0000000000000247 .LASF75
/var/folders/yy/83vjwp7d53j56dbzj8_jnpcr0000gn/T//ccVqnGJ6.s:2151   .debug_loc:000000000000009b .LLST8
/var/folders/yy/83vjwp7d53j56dbzj8_jnpcr0000gn/T//ccVqnGJ6.s:379    .text.send_radio:000000000000002e .LVL35
/var/folders/yy/83vjwp7d53j56dbzj8_jnpcr0000gn/T//ccVqnGJ6.s:420    .text.send_radio:0000000000000062 .LVL36
/var/folders/yy/83vjwp7d53j56dbzj8_jnpcr0000gn/T//ccVqnGJ6.s:425    .text.send_radio:0000000000000070 .LVL37
/var/folders/yy/83vjwp7d53j56dbzj8_jnpcr0000gn/T//ccVqnGJ6.s:430    .text.send_radio:000000000000007e .LVL38
/var/folders/yy/83vjwp7d53j56dbzj8_jnpcr0000gn/T//ccVqnGJ6.s:2423   .debug_str:00000000000003b2 .LASF77
/var/folders/yy/83vjwp7d53j56dbzj8_jnpcr0000gn/T//ccVqnGJ6.s:192    .text.read_radio:0000000000000000 .LFB3
/var/folders/yy/83vjwp7d53j56dbzj8_jnpcr0000gn/T//ccVqnGJ6.s:330    .text.read_radio:00000000000000b6 .LFE3
/var/folders/yy/83vjwp7d53j56dbzj8_jnpcr0000gn/T//ccVqnGJ6.s:2167   .debug_loc:00000000000000c5 .LLST1
/var/folders/yy/83vjwp7d53j56dbzj8_jnpcr0000gn/T//ccVqnGJ6.s:2445   .debug_str:0000000000000429 .LASF78
/var/folders/yy/83vjwp7d53j56dbzj8_jnpcr0000gn/T//ccVqnGJ6.s:2185   .debug_loc:00000000000000f1 .LLST2
/var/folders/yy/83vjwp7d53j56dbzj8_jnpcr0000gn/T//ccVqnGJ6.s:2199   .debug_loc:0000000000000112 .LLST3
/var/folders/yy/83vjwp7d53j56dbzj8_jnpcr0000gn/T//ccVqnGJ6.s:2219   .debug_loc:0000000000000140 .LLST4
/var/folders/yy/83vjwp7d53j56dbzj8_jnpcr0000gn/T//ccVqnGJ6.s:264    .text.read_radio:0000000000000058 .LVL27
/var/folders/yy/83vjwp7d53j56dbzj8_jnpcr0000gn/T//ccVqnGJ6.s:303    .text.read_radio:000000000000008e .LVL28
/var/folders/yy/83vjwp7d53j56dbzj8_jnpcr0000gn/T//ccVqnGJ6.s:308    .text.read_radio:000000000000009c .LVL29
/var/folders/yy/83vjwp7d53j56dbzj8_jnpcr0000gn/T//ccVqnGJ6.s:313    .text.read_radio:00000000000000aa .LVL30
/var/folders/yy/83vjwp7d53j56dbzj8_jnpcr0000gn/T//ccVqnGJ6.s:2339   .debug_str:0000000000000191 .LASF101
/var/folders/yy/83vjwp7d53j56dbzj8_jnpcr0000gn/T//ccVqnGJ6.s:14     .text.init_radio:0000000000000000 .LFB2
/var/folders/yy/83vjwp7d53j56dbzj8_jnpcr0000gn/T//ccVqnGJ6.s:185    .text.init_radio:0000000000000172 .LFE2
/var/folders/yy/83vjwp7d53j56dbzj8_jnpcr0000gn/T//ccVqnGJ6.s:2230   .debug_loc:000000000000015e .LLST0
/var/folders/yy/83vjwp7d53j56dbzj8_jnpcr0000gn/T//ccVqnGJ6.s:33     .text.init_radio:0000000000000012 .LVL0
/var/folders/yy/83vjwp7d53j56dbzj8_jnpcr0000gn/T//ccVqnGJ6.s:37     .text.init_radio:000000000000001e .LVL1
/var/folders/yy/83vjwp7d53j56dbzj8_jnpcr0000gn/T//ccVqnGJ6.s:41     .text.init_radio:000000000000002a .LVL2
/var/folders/yy/83vjwp7d53j56dbzj8_jnpcr0000gn/T//ccVqnGJ6.s:49     .text.init_radio:0000000000000042 .LVL3
/var/folders/yy/83vjwp7d53j56dbzj8_jnpcr0000gn/T//ccVqnGJ6.s:57     .text.init_radio:0000000000000058 .LVL4
/var/folders/yy/83vjwp7d53j56dbzj8_jnpcr0000gn/T//ccVqnGJ6.s:62     .text.init_radio:0000000000000068 .LVL5
/var/folders/yy/83vjwp7d53j56dbzj8_jnpcr0000gn/T//ccVqnGJ6.s:67     .text.init_radio:0000000000000078 .LVL6
/var/folders/yy/83vjwp7d53j56dbzj8_jnpcr0000gn/T//ccVqnGJ6.s:72     .text.init_radio:0000000000000086 .LVL7
/var/folders/yy/83vjwp7d53j56dbzj8_jnpcr0000gn/T//ccVqnGJ6.s:77     .text.init_radio:0000000000000094 .LVL8
/var/folders/yy/83vjwp7d53j56dbzj8_jnpcr0000gn/T//ccVqnGJ6.s:82     .text.init_radio:00000000000000a2 .LVL9
/var/folders/yy/83vjwp7d53j56dbzj8_jnpcr0000gn/T//ccVqnGJ6.s:87     .text.init_radio:00000000000000b0 .LVL10
/var/folders/yy/83vjwp7d53j56dbzj8_jnpcr0000gn/T//ccVqnGJ6.s:92     .text.init_radio:00000000000000be .LVL11
/var/folders/yy/83vjwp7d53j56dbzj8_jnpcr0000gn/T//ccVqnGJ6.s:97     .text.init_radio:00000000000000cc .LVL12
/var/folders/yy/83vjwp7d53j56dbzj8_jnpcr0000gn/T//ccVqnGJ6.s:102    .text.init_radio:00000000000000da .LVL13
/var/folders/yy/83vjwp7d53j56dbzj8_jnpcr0000gn/T//ccVqnGJ6.s:106    .text.init_radio:00000000000000e6 .LVL14
/var/folders/yy/83vjwp7d53j56dbzj8_jnpcr0000gn/T//ccVqnGJ6.s:111    .text.init_radio:00000000000000f6 .LVL15
/var/folders/yy/83vjwp7d53j56dbzj8_jnpcr0000gn/T//ccVqnGJ6.s:116    .text.init_radio:0000000000000106 .LVL16
/var/folders/yy/83vjwp7d53j56dbzj8_jnpcr0000gn/T//ccVqnGJ6.s:121    .text.init_radio:0000000000000114 .LVL17
/var/folders/yy/83vjwp7d53j56dbzj8_jnpcr0000gn/T//ccVqnGJ6.s:164    .text.init_radio:000000000000014e .LVL18
GAS LISTING /var/folders/yy/83vjwp7d53j56dbzj8_jnpcr0000gn/T//ccVqnGJ6.s 			page 21


/var/folders/yy/83vjwp7d53j56dbzj8_jnpcr0000gn/T//ccVqnGJ6.s:169    .text.init_radio:000000000000015c .LVL19
/var/folders/yy/83vjwp7d53j56dbzj8_jnpcr0000gn/T//ccVqnGJ6.s:174    .text.init_radio:000000000000016a .LVL20
/var/folders/yy/83vjwp7d53j56dbzj8_jnpcr0000gn/T//ccVqnGJ6.s:2369   .debug_str:000000000000023c .LASF79
/var/folders/yy/83vjwp7d53j56dbzj8_jnpcr0000gn/T//ccVqnGJ6.s:2459   .debug_str:00000000000004a3 .LASF80
/var/folders/yy/83vjwp7d53j56dbzj8_jnpcr0000gn/T//ccVqnGJ6.s:2307   .debug_str:00000000000000cb .LASF81
/var/folders/yy/83vjwp7d53j56dbzj8_jnpcr0000gn/T//ccVqnGJ6.s:2479   .debug_str:0000000000000537 .LASF82
/var/folders/yy/83vjwp7d53j56dbzj8_jnpcr0000gn/T//ccVqnGJ6.s:2401   .debug_str:0000000000000315 .LASF83
/var/folders/yy/83vjwp7d53j56dbzj8_jnpcr0000gn/T//ccVqnGJ6.s:2457   .debug_str:0000000000000499 .LASF84
/var/folders/yy/83vjwp7d53j56dbzj8_jnpcr0000gn/T//ccVqnGJ6.s:2355   .debug_str:00000000000001f6 .LASF85
/var/folders/yy/83vjwp7d53j56dbzj8_jnpcr0000gn/T//ccVqnGJ6.s:2497   .debug_str:000000000000058c .LASF86
/var/folders/yy/83vjwp7d53j56dbzj8_jnpcr0000gn/T//ccVqnGJ6.s:2351   .debug_str:00000000000001d6 .LASF87
/var/folders/yy/83vjwp7d53j56dbzj8_jnpcr0000gn/T//ccVqnGJ6.s:2317   .debug_str:000000000000011a .LASF88
/var/folders/yy/83vjwp7d53j56dbzj8_jnpcr0000gn/T//ccVqnGJ6.s:2441   .debug_str:000000000000040d .LASF89
/var/folders/yy/83vjwp7d53j56dbzj8_jnpcr0000gn/T//ccVqnGJ6.s:2395   .debug_str:00000000000002dd .LASF90
/var/folders/yy/83vjwp7d53j56dbzj8_jnpcr0000gn/T//ccVqnGJ6.s:2477   .debug_str:0000000000000518 .LASF91
/var/folders/yy/83vjwp7d53j56dbzj8_jnpcr0000gn/T//ccVqnGJ6.s:2419   .debug_str:0000000000000393 .LASF92
/var/folders/yy/83vjwp7d53j56dbzj8_jnpcr0000gn/T//ccVqnGJ6.s:2295   .debug_str:0000000000000000 .LASF93
/var/folders/yy/83vjwp7d53j56dbzj8_jnpcr0000gn/T//ccVqnGJ6.s:2301   .debug_str:00000000000000ae .LASF94
/var/folders/yy/83vjwp7d53j56dbzj8_jnpcr0000gn/T//ccVqnGJ6.s:2471   .debug_str:00000000000004e7 .LASF95
/var/folders/yy/83vjwp7d53j56dbzj8_jnpcr0000gn/T//ccVqnGJ6.s:2309   .debug_str:00000000000000e3 .LASF96
/var/folders/yy/83vjwp7d53j56dbzj8_jnpcr0000gn/T//ccVqnGJ6.s:347    .text.send_radio:0000000000000002 .LCFI4
/var/folders/yy/83vjwp7d53j56dbzj8_jnpcr0000gn/T//ccVqnGJ6.s:441    .text.send_radio:0000000000000086 .LCFI5
/var/folders/yy/83vjwp7d53j56dbzj8_jnpcr0000gn/T//ccVqnGJ6.s:446    .text.send_radio:0000000000000088 .LCFI6
/var/folders/yy/83vjwp7d53j56dbzj8_jnpcr0000gn/T//ccVqnGJ6.s:340    .text.send_radio:0000000000000000 .LVL31
/var/folders/yy/83vjwp7d53j56dbzj8_jnpcr0000gn/T//ccVqnGJ6.s:377    .text.send_radio:0000000000000026 .LVL34
/var/folders/yy/83vjwp7d53j56dbzj8_jnpcr0000gn/T//ccVqnGJ6.s:444    .text.send_radio:0000000000000088 .LVL40
/var/folders/yy/83vjwp7d53j56dbzj8_jnpcr0000gn/T//ccVqnGJ6.s:375    .text.send_radio:0000000000000022 .LVL33
/var/folders/yy/83vjwp7d53j56dbzj8_jnpcr0000gn/T//ccVqnGJ6.s:439    .text.send_radio:0000000000000084 .LVL39
/var/folders/yy/83vjwp7d53j56dbzj8_jnpcr0000gn/T//ccVqnGJ6.s:364    .text.send_radio:0000000000000018 .LVL32
/var/folders/yy/83vjwp7d53j56dbzj8_jnpcr0000gn/T//ccVqnGJ6.s:203    .text.read_radio:000000000000000a .LCFI2
/var/folders/yy/83vjwp7d53j56dbzj8_jnpcr0000gn/T//ccVqnGJ6.s:326    .text.read_radio:00000000000000b4 .LCFI3
/var/folders/yy/83vjwp7d53j56dbzj8_jnpcr0000gn/T//ccVqnGJ6.s:195    .text.read_radio:0000000000000000 .LVL21
/var/folders/yy/83vjwp7d53j56dbzj8_jnpcr0000gn/T//ccVqnGJ6.s:253    .text.read_radio:0000000000000044 .LVL25
/var/folders/yy/83vjwp7d53j56dbzj8_jnpcr0000gn/T//ccVqnGJ6.s:225    .text.read_radio:0000000000000020 .LVL22
/var/folders/yy/83vjwp7d53j56dbzj8_jnpcr0000gn/T//ccVqnGJ6.s:258    .text.read_radio:000000000000004a .LVL26
/var/folders/yy/83vjwp7d53j56dbzj8_jnpcr0000gn/T//ccVqnGJ6.s:229    .text.read_radio:0000000000000024 .LVL23
/var/folders/yy/83vjwp7d53j56dbzj8_jnpcr0000gn/T//ccVqnGJ6.s:22     .text.init_radio:0000000000000002 .LCFI0
/var/folders/yy/83vjwp7d53j56dbzj8_jnpcr0000gn/T//ccVqnGJ6.s:181    .text.init_radio:0000000000000170 .LCFI1
/var/folders/yy/83vjwp7d53j56dbzj8_jnpcr0000gn/T//ccVqnGJ6.s:535    .debug_info:0000000000000000 .Ldebug_info0
/var/folders/yy/83vjwp7d53j56dbzj8_jnpcr0000gn/T//ccVqnGJ6.s:216    .text.read_radio:0000000000000018 .LBB2
/var/folders/yy/83vjwp7d53j56dbzj8_jnpcr0000gn/T//ccVqnGJ6.s:219    .text.read_radio:000000000000001a .LBE2
/var/folders/yy/83vjwp7d53j56dbzj8_jnpcr0000gn/T//ccVqnGJ6.s:222    .text.read_radio:000000000000001e .LBB3
/var/folders/yy/83vjwp7d53j56dbzj8_jnpcr0000gn/T//ccVqnGJ6.s:316    .text.read_radio:00000000000000aa .LBE3
/var/folders/yy/83vjwp7d53j56dbzj8_jnpcr0000gn/T//ccVqnGJ6.s:342    .text.send_radio:0000000000000000 .LBB4
/var/folders/yy/83vjwp7d53j56dbzj8_jnpcr0000gn/T//ccVqnGJ6.s:344    .text.send_radio:0000000000000000 .LBE4
/var/folders/yy/83vjwp7d53j56dbzj8_jnpcr0000gn/T//ccVqnGJ6.s:358    .text.send_radio:000000000000000e .LBB5
/var/folders/yy/83vjwp7d53j56dbzj8_jnpcr0000gn/T//ccVqnGJ6.s:371    .text.send_radio:0000000000000020 .LBE5
/var/folders/yy/83vjwp7d53j56dbzj8_jnpcr0000gn/T//ccVqnGJ6.s:448    .text.send_radio:0000000000000088 .LBB6
/var/folders/yy/83vjwp7d53j56dbzj8_jnpcr0000gn/T//ccVqnGJ6.s:461    .text.send_radio:000000000000009c .LBE6

UNDEFINED SYMBOLS
rcu_periph_clock_enable
gpio_init
usart_deinit
usart_baudrate_set
usart_word_length_set
usart_stop_bit_set
GAS LISTING /var/folders/yy/83vjwp7d53j56dbzj8_jnpcr0000gn/T//ccVqnGJ6.s 			page 22


usart_parity_config
usart_hardware_flow_rts_config
usart_hardware_flow_cts_config
usart_receive_config
usart_transmit_config
usart_enable
usart_dma_transmit_config
usart_dma_receive_config
dma_deinit
dma_init
dma_circulation_disable
dma_channel_enable
