GAS LISTING /var/folders/yy/83vjwp7d53j56dbzj8_jnpcr0000gn/T//ccRI64Di.s 			page 1


   1              		.file	"gd32vf103_i2c.c"
   2              		.option nopic
   3              		.attribute arch, "rv32i2p0_m2p0_a2p0_c2p0"
   4              		.attribute unaligned_access, 0
   5              		.attribute stack_align, 16
   6              		.text
   7              	.Ltext0:
   8              		.cfi_sections	.debug_frame
   9              		.section	.text.i2c_deinit,"ax",@progbits
  10              		.align	1
  11              		.globl	i2c_deinit
  13              	i2c_deinit:
  14              	.LFB2:
  15              		.file 1 "../../firmware/GD32VF103_standard_peripheral/Source/gd32vf103_i2c.c"
   1:../../firmware/GD32VF103_standard_peripheral/Source/gd32vf103_i2c.c **** /*!
   2:../../firmware/GD32VF103_standard_peripheral/Source/gd32vf103_i2c.c ****     \file    gd32vf103_i2c.c
   3:../../firmware/GD32VF103_standard_peripheral/Source/gd32vf103_i2c.c ****     \brief   I2C driver
   4:../../firmware/GD32VF103_standard_peripheral/Source/gd32vf103_i2c.c **** 
   5:../../firmware/GD32VF103_standard_peripheral/Source/gd32vf103_i2c.c ****     \version 2019-06-05, V1.0.0, firmware for GD32VF103
   6:../../firmware/GD32VF103_standard_peripheral/Source/gd32vf103_i2c.c ****     \version 2020-08-04, V1.1.0, firmware for GD32VF103
   7:../../firmware/GD32VF103_standard_peripheral/Source/gd32vf103_i2c.c **** */
   8:../../firmware/GD32VF103_standard_peripheral/Source/gd32vf103_i2c.c **** 
   9:../../firmware/GD32VF103_standard_peripheral/Source/gd32vf103_i2c.c **** /*
  10:../../firmware/GD32VF103_standard_peripheral/Source/gd32vf103_i2c.c ****     Copyright (c) 2020, GigaDevice Semiconductor Inc.
  11:../../firmware/GD32VF103_standard_peripheral/Source/gd32vf103_i2c.c **** 
  12:../../firmware/GD32VF103_standard_peripheral/Source/gd32vf103_i2c.c ****     Redistribution and use in source and binary forms, with or without modification, 
  13:../../firmware/GD32VF103_standard_peripheral/Source/gd32vf103_i2c.c **** are permitted provided that the following conditions are met:
  14:../../firmware/GD32VF103_standard_peripheral/Source/gd32vf103_i2c.c **** 
  15:../../firmware/GD32VF103_standard_peripheral/Source/gd32vf103_i2c.c ****     1. Redistributions of source code must retain the above copyright notice, this 
  16:../../firmware/GD32VF103_standard_peripheral/Source/gd32vf103_i2c.c ****        list of conditions and the following disclaimer.
  17:../../firmware/GD32VF103_standard_peripheral/Source/gd32vf103_i2c.c ****     2. Redistributions in binary form must reproduce the above copyright notice, 
  18:../../firmware/GD32VF103_standard_peripheral/Source/gd32vf103_i2c.c ****        this list of conditions and the following disclaimer in the documentation 
  19:../../firmware/GD32VF103_standard_peripheral/Source/gd32vf103_i2c.c ****        and/or other materials provided with the distribution.
  20:../../firmware/GD32VF103_standard_peripheral/Source/gd32vf103_i2c.c ****     3. Neither the name of the copyright holder nor the names of its contributors 
  21:../../firmware/GD32VF103_standard_peripheral/Source/gd32vf103_i2c.c ****        may be used to endorse or promote products derived from this software without 
  22:../../firmware/GD32VF103_standard_peripheral/Source/gd32vf103_i2c.c ****        specific prior written permission.
  23:../../firmware/GD32VF103_standard_peripheral/Source/gd32vf103_i2c.c **** 
  24:../../firmware/GD32VF103_standard_peripheral/Source/gd32vf103_i2c.c ****     THIS SOFTWARE IS PROVIDED BY THE COPYRIGHT HOLDERS AND CONTRIBUTORS "AS IS" 
  25:../../firmware/GD32VF103_standard_peripheral/Source/gd32vf103_i2c.c **** AND ANY EXPRESS OR IMPLIED WARRANTIES, INCLUDING, BUT NOT LIMITED TO, THE IMPLIED 
  26:../../firmware/GD32VF103_standard_peripheral/Source/gd32vf103_i2c.c **** WARRANTIES OF MERCHANTABILITY AND FITNESS FOR A PARTICULAR PURPOSE ARE DISCLAIMED. 
  27:../../firmware/GD32VF103_standard_peripheral/Source/gd32vf103_i2c.c **** IN NO EVENT SHALL THE COPYRIGHT HOLDER OR CONTRIBUTORS BE LIABLE FOR ANY DIRECT, 
  28:../../firmware/GD32VF103_standard_peripheral/Source/gd32vf103_i2c.c **** INDIRECT, INCIDENTAL, SPECIAL, EXEMPLARY, OR CONSEQUENTIAL DAMAGES (INCLUDING, BUT 
  29:../../firmware/GD32VF103_standard_peripheral/Source/gd32vf103_i2c.c **** NOT LIMITED TO, PROCUREMENT OF SUBSTITUTE GOODS OR SERVICES; LOSS OF USE, DATA, OR 
  30:../../firmware/GD32VF103_standard_peripheral/Source/gd32vf103_i2c.c **** PROFITS; OR BUSINESS INTERRUPTION) HOWEVER CAUSED AND ON ANY THEORY OF LIABILITY, 
  31:../../firmware/GD32VF103_standard_peripheral/Source/gd32vf103_i2c.c **** WHETHER IN CONTRACT, STRICT LIABILITY, OR TORT (INCLUDING NEGLIGENCE OR OTHERWISE) 
  32:../../firmware/GD32VF103_standard_peripheral/Source/gd32vf103_i2c.c **** ARISING IN ANY WAY OUT OF THE USE OF THIS SOFTWARE, EVEN IF ADVISED OF THE POSSIBILITY 
  33:../../firmware/GD32VF103_standard_peripheral/Source/gd32vf103_i2c.c **** OF SUCH DAMAGE.
  34:../../firmware/GD32VF103_standard_peripheral/Source/gd32vf103_i2c.c **** */
  35:../../firmware/GD32VF103_standard_peripheral/Source/gd32vf103_i2c.c **** 
  36:../../firmware/GD32VF103_standard_peripheral/Source/gd32vf103_i2c.c **** #include "gd32vf103_i2c.h"
  37:../../firmware/GD32VF103_standard_peripheral/Source/gd32vf103_i2c.c **** 
  38:../../firmware/GD32VF103_standard_peripheral/Source/gd32vf103_i2c.c **** /* I2C register bit mask */
  39:../../firmware/GD32VF103_standard_peripheral/Source/gd32vf103_i2c.c **** #define I2CCLK_MAX                    ((uint32_t)0x00000036U)             /*!< i2cclk maximum value
  40:../../firmware/GD32VF103_standard_peripheral/Source/gd32vf103_i2c.c **** #define I2CCLK_MIN                    ((uint32_t)0x00000002U)             /*!< i2cclk minimum value
  41:../../firmware/GD32VF103_standard_peripheral/Source/gd32vf103_i2c.c **** #define I2C_FLAG_MASK                 ((uint32_t)0x0000FFFFU)             /*!< i2c flag mask */
  42:../../firmware/GD32VF103_standard_peripheral/Source/gd32vf103_i2c.c **** #define I2C_ADDRESS_MASK              ((uint32_t)0x000003FFU)             /*!< i2c address mask */
  43:../../firmware/GD32VF103_standard_peripheral/Source/gd32vf103_i2c.c **** #define I2C_ADDRESS2_MASK             ((uint32_t)0x000000FEU)             /*!< the second i2c addre
GAS LISTING /var/folders/yy/83vjwp7d53j56dbzj8_jnpcr0000gn/T//ccRI64Di.s 			page 2


  44:../../firmware/GD32VF103_standard_peripheral/Source/gd32vf103_i2c.c **** 
  45:../../firmware/GD32VF103_standard_peripheral/Source/gd32vf103_i2c.c **** /* I2C register bit offset */
  46:../../firmware/GD32VF103_standard_peripheral/Source/gd32vf103_i2c.c **** #define STAT1_PECV_OFFSET             ((uint32_t)8U)     /* bit offset of PECV in I2C_STAT1 */
  47:../../firmware/GD32VF103_standard_peripheral/Source/gd32vf103_i2c.c **** 
  48:../../firmware/GD32VF103_standard_peripheral/Source/gd32vf103_i2c.c **** /*!
  49:../../firmware/GD32VF103_standard_peripheral/Source/gd32vf103_i2c.c ****     \brief      reset I2C
  50:../../firmware/GD32VF103_standard_peripheral/Source/gd32vf103_i2c.c ****     \param[in]  i2c_periph: I2Cx(x=0,1)
  51:../../firmware/GD32VF103_standard_peripheral/Source/gd32vf103_i2c.c ****     \param[out] none
  52:../../firmware/GD32VF103_standard_peripheral/Source/gd32vf103_i2c.c ****     \retval     none
  53:../../firmware/GD32VF103_standard_peripheral/Source/gd32vf103_i2c.c ****  */
  54:../../firmware/GD32VF103_standard_peripheral/Source/gd32vf103_i2c.c **** void i2c_deinit(uint32_t i2c_periph) 
  55:../../firmware/GD32VF103_standard_peripheral/Source/gd32vf103_i2c.c **** {
  16              		.loc 1 55 1
  17              		.cfi_startproc
  18              	.LVL0:
  56:../../firmware/GD32VF103_standard_peripheral/Source/gd32vf103_i2c.c ****     switch (i2c_periph) {
  19              		.loc 1 56 5
  55:../../firmware/GD32VF103_standard_peripheral/Source/gd32vf103_i2c.c ****     switch (i2c_periph) {
  20              		.loc 1 55 1 is_stmt 0
  21 0000 4111     		addi	sp,sp,-16
  22              	.LCFI0:
  23              		.cfi_def_cfa_offset 16
  24              		.loc 1 56 5
  25 0002 B7570040 		li	a5,1073762304
  55:../../firmware/GD32VF103_standard_peripheral/Source/gd32vf103_i2c.c ****     switch (i2c_periph) {
  26              		.loc 1 55 1
  27 0006 06C6     		sw	ra,12(sp)
  28              		.cfi_offset 1, -4
  29              		.loc 1 56 5
  30 0008 93870740 		addi	a5,a5,1024
  31 000c 630BF500 		beq	a0,a5,.L2
  32 0010 B7670040 		li	a5,1073766400
  33 0014 93870780 		addi	a5,a5,-2048
  34 0018 6303F502 		beq	a0,a5,.L3
  57:../../firmware/GD32VF103_standard_peripheral/Source/gd32vf103_i2c.c ****     case I2C0:
  58:../../firmware/GD32VF103_standard_peripheral/Source/gd32vf103_i2c.c ****         /* reset I2C0 */
  59:../../firmware/GD32VF103_standard_peripheral/Source/gd32vf103_i2c.c ****         rcu_periph_reset_enable(RCU_I2C0RST);
  60:../../firmware/GD32VF103_standard_peripheral/Source/gd32vf103_i2c.c ****         rcu_periph_reset_disable(RCU_I2C0RST);
  61:../../firmware/GD32VF103_standard_peripheral/Source/gd32vf103_i2c.c ****         break;
  62:../../firmware/GD32VF103_standard_peripheral/Source/gd32vf103_i2c.c ****     case I2C1:
  63:../../firmware/GD32VF103_standard_peripheral/Source/gd32vf103_i2c.c ****         /* reset I2C1 */
  64:../../firmware/GD32VF103_standard_peripheral/Source/gd32vf103_i2c.c ****         rcu_periph_reset_enable(RCU_I2C1RST);
  65:../../firmware/GD32VF103_standard_peripheral/Source/gd32vf103_i2c.c ****         rcu_periph_reset_disable(RCU_I2C1RST);
  66:../../firmware/GD32VF103_standard_peripheral/Source/gd32vf103_i2c.c ****         break;
  67:../../firmware/GD32VF103_standard_peripheral/Source/gd32vf103_i2c.c ****     default:
  68:../../firmware/GD32VF103_standard_peripheral/Source/gd32vf103_i2c.c ****         break;
  69:../../firmware/GD32VF103_standard_peripheral/Source/gd32vf103_i2c.c ****     }
  70:../../firmware/GD32VF103_standard_peripheral/Source/gd32vf103_i2c.c **** }
  35              		.loc 1 70 1
  36 001c B240     		lw	ra,12(sp)
  37              		.cfi_remember_state
  38              		.cfi_restore 1
  39 001e 4101     		addi	sp,sp,16
  40              	.LCFI1:
  41              		.cfi_def_cfa_offset 0
  42 0020 8280     		jr	ra
  43              	.L2:
GAS LISTING /var/folders/yy/83vjwp7d53j56dbzj8_jnpcr0000gn/T//ccRI64Di.s 			page 3


  44              	.LCFI2:
  45              		.cfi_restore_state
  59:../../firmware/GD32VF103_standard_peripheral/Source/gd32vf103_i2c.c ****         rcu_periph_reset_disable(RCU_I2C0RST);
  46              		.loc 1 59 9 is_stmt 1
  47 0022 13055041 		li	a0,1045
  48              	.LVL1:
  49 0026 97000000 		call	rcu_periph_reset_enable
  49      E7800000 
  50              	.LVL2:
  60:../../firmware/GD32VF103_standard_peripheral/Source/gd32vf103_i2c.c ****         break;
  51              		.loc 1 60 9
  52 002e 13055041 		li	a0,1045
  53              	.L7:
  54              		.loc 1 70 1 is_stmt 0
  55 0032 B240     		lw	ra,12(sp)
  56              		.cfi_remember_state
  57              		.cfi_restore 1
  58 0034 4101     		addi	sp,sp,16
  59              	.LCFI3:
  60              		.cfi_def_cfa_offset 0
  65:../../firmware/GD32VF103_standard_peripheral/Source/gd32vf103_i2c.c ****         break;
  61              		.loc 1 65 9
  62 0036 17030000 		tail	rcu_periph_reset_disable
  62      67000300 
  63              	.LVL3:
  64              	.L3:
  65              	.LCFI4:
  66              		.cfi_restore_state
  64:../../firmware/GD32VF103_standard_peripheral/Source/gd32vf103_i2c.c ****         rcu_periph_reset_disable(RCU_I2C1RST);
  67              		.loc 1 64 9 is_stmt 1
  68 003e 13056041 		li	a0,1046
  69              	.LVL4:
  70 0042 97000000 		call	rcu_periph_reset_enable
  70      E7800000 
  71              	.LVL5:
  65:../../firmware/GD32VF103_standard_peripheral/Source/gd32vf103_i2c.c ****         break;
  72              		.loc 1 65 9
  73 004a 13056041 		li	a0,1046
  74 004e D5B7     		j	.L7
  75              		.cfi_endproc
  76              	.LFE2:
  78              		.section	.text.i2c_clock_config,"ax",@progbits
  79              		.align	1
  80              		.globl	i2c_clock_config
  82              	i2c_clock_config:
  83              	.LFB3:
  71:../../firmware/GD32VF103_standard_peripheral/Source/gd32vf103_i2c.c **** 
  72:../../firmware/GD32VF103_standard_peripheral/Source/gd32vf103_i2c.c **** /*!
  73:../../firmware/GD32VF103_standard_peripheral/Source/gd32vf103_i2c.c ****     \brief      configure I2C clock
  74:../../firmware/GD32VF103_standard_peripheral/Source/gd32vf103_i2c.c ****     \param[in]  i2c_periph: I2Cx(x=0,1)
  75:../../firmware/GD32VF103_standard_peripheral/Source/gd32vf103_i2c.c ****     \param[in]  clkspeed: I2C clock speed, supports standard mode (up to 100 kHz), fast mode (up to
  76:../../firmware/GD32VF103_standard_peripheral/Source/gd32vf103_i2c.c ****                           and fast mode plus (up to 1MHz)
  77:../../firmware/GD32VF103_standard_peripheral/Source/gd32vf103_i2c.c ****     \param[in]  dutycyc: duty cycle in fast mode or fast mode plus
  78:../../firmware/GD32VF103_standard_peripheral/Source/gd32vf103_i2c.c ****                 only one parameter can be selected which is shown as below:
  79:../../firmware/GD32VF103_standard_peripheral/Source/gd32vf103_i2c.c ****      \arg        I2C_DTCY_2: T_low/T_high=2 
  80:../../firmware/GD32VF103_standard_peripheral/Source/gd32vf103_i2c.c ****      \arg        I2C_DTCY_16_9: T_low/T_high=16/9
  81:../../firmware/GD32VF103_standard_peripheral/Source/gd32vf103_i2c.c ****     \param[out] none
GAS LISTING /var/folders/yy/83vjwp7d53j56dbzj8_jnpcr0000gn/T//ccRI64Di.s 			page 4


  82:../../firmware/GD32VF103_standard_peripheral/Source/gd32vf103_i2c.c ****     \retval     none
  83:../../firmware/GD32VF103_standard_peripheral/Source/gd32vf103_i2c.c ****  */
  84:../../firmware/GD32VF103_standard_peripheral/Source/gd32vf103_i2c.c **** void i2c_clock_config(uint32_t i2c_periph, uint32_t clkspeed, uint32_t dutycyc){
  84              		.loc 1 84 80
  85              		.cfi_startproc
  86              	.LVL6:
  85:../../firmware/GD32VF103_standard_peripheral/Source/gd32vf103_i2c.c ****     uint32_t pclk1, clkc, freq, risetime;
  87              		.loc 1 85 5
  86:../../firmware/GD32VF103_standard_peripheral/Source/gd32vf103_i2c.c ****     uint32_t temp;
  88              		.loc 1 86 5
  87:../../firmware/GD32VF103_standard_peripheral/Source/gd32vf103_i2c.c ****     
  88:../../firmware/GD32VF103_standard_peripheral/Source/gd32vf103_i2c.c ****     pclk1 = rcu_clock_freq_get(CK_APB1);
  89              		.loc 1 88 5
  84:../../firmware/GD32VF103_standard_peripheral/Source/gd32vf103_i2c.c ****     uint32_t pclk1, clkc, freq, risetime;
  90              		.loc 1 84 80 is_stmt 0
  91 0000 0111     		addi	sp,sp,-32
  92              	.LCFI5:
  93              		.cfi_def_cfa_offset 32
  94 0002 22CC     		sw	s0,24(sp)
  95              		.cfi_offset 8, -8
  96 0004 2A84     		mv	s0,a0
  97              		.loc 1 88 13
  98 0006 0945     		li	a0,2
  99              	.LVL7:
  84:../../firmware/GD32VF103_standard_peripheral/Source/gd32vf103_i2c.c ****     uint32_t pclk1, clkc, freq, risetime;
 100              		.loc 1 84 80
 101 0008 26CA     		sw	s1,20(sp)
 102 000a 32C6     		sw	a2,12(sp)
 103 000c 06CE     		sw	ra,28(sp)
 104              		.cfi_offset 9, -12
 105              		.cfi_offset 1, -4
  84:../../firmware/GD32VF103_standard_peripheral/Source/gd32vf103_i2c.c ****     uint32_t pclk1, clkc, freq, risetime;
 106              		.loc 1 84 80
 107 000e AE84     		mv	s1,a1
 108              		.loc 1 88 13
 109 0010 97000000 		call	rcu_clock_freq_get
 109      E7800000 
 110              	.LVL8:
  89:../../firmware/GD32VF103_standard_peripheral/Source/gd32vf103_i2c.c ****     /* I2C peripheral clock frequency */
  90:../../firmware/GD32VF103_standard_peripheral/Source/gd32vf103_i2c.c ****     freq = (uint32_t) (pclk1 / 1000000U);
 111              		.loc 1 90 5 is_stmt 1
 112              		.loc 1 90 10 is_stmt 0
 113 0018 B7470F00 		li	a5,999424
  91:../../firmware/GD32VF103_standard_peripheral/Source/gd32vf103_i2c.c ****     if (freq >= I2CCLK_MAX) {
 114              		.loc 1 91 8
 115 001c B7063803 		li	a3,54001664
  90:../../firmware/GD32VF103_standard_peripheral/Source/gd32vf103_i2c.c ****     if (freq >= I2CCLK_MAX) {
 116              		.loc 1 90 10
 117 0020 93870724 		addi	a5,a5,576
 118              		.loc 1 91 8
 119 0024 9386F697 		addi	a3,a3,-1665
  90:../../firmware/GD32VF103_standard_peripheral/Source/gd32vf103_i2c.c ****     if (freq >= I2CCLK_MAX) {
 120              		.loc 1 90 10
 121 0028 3357F502 		divu	a4,a0,a5
 122              	.LVL9:
 123              		.loc 1 91 5 is_stmt 1
 124              		.loc 1 91 8 is_stmt 0
GAS LISTING /var/folders/yy/83vjwp7d53j56dbzj8_jnpcr0000gn/T//ccRI64Di.s 			page 5


 125 002c 3246     		lw	a2,12(sp)
  92:../../firmware/GD32VF103_standard_peripheral/Source/gd32vf103_i2c.c ****         freq = I2CCLK_MAX;
 126              		.loc 1 92 14
 127 002e 93076003 		li	a5,54
  91:../../firmware/GD32VF103_standard_peripheral/Source/gd32vf103_i2c.c ****     if (freq >= I2CCLK_MAX) {
 128              		.loc 1 91 8
 129 0032 63E3A600 		bgtu	a0,a3,.L9
 130 0036 BA87     		mv	a5,a4
 131              	.L9:
 132              	.LVL10:
  93:../../firmware/GD32VF103_standard_peripheral/Source/gd32vf103_i2c.c ****     }
  94:../../firmware/GD32VF103_standard_peripheral/Source/gd32vf103_i2c.c ****     temp = I2C_CTL1(i2c_periph);
 133              		.loc 1 94 5 is_stmt 1
 134              		.loc 1 94 10 is_stmt 0
 135 0038 5440     		lw	a3,4(s0)
 136              	.LVL11:
  95:../../firmware/GD32VF103_standard_peripheral/Source/gd32vf103_i2c.c ****     temp &= ~I2C_CTL1_I2CCLK;
 137              		.loc 1 95 5 is_stmt 1
 138              		.loc 1 95 10 is_stmt 0
 139 003a 93F606FC 		andi	a3,a3,-64
 140              	.LVL12:
  96:../../firmware/GD32VF103_standard_peripheral/Source/gd32vf103_i2c.c ****     temp |= freq;
 141              		.loc 1 96 5 is_stmt 1
 142              		.loc 1 96 10 is_stmt 0
 143 003e DD8E     		or	a3,a5,a3
 144              	.LVL13:
  97:../../firmware/GD32VF103_standard_peripheral/Source/gd32vf103_i2c.c ****     
  98:../../firmware/GD32VF103_standard_peripheral/Source/gd32vf103_i2c.c ****     I2C_CTL1(i2c_periph) = temp;
 145              		.loc 1 98 5 is_stmt 1
 146              		.loc 1 98 26 is_stmt 0
 147 0040 54C0     		sw	a3,4(s0)
  99:../../firmware/GD32VF103_standard_peripheral/Source/gd32vf103_i2c.c ****     
 100:../../firmware/GD32VF103_standard_peripheral/Source/gd32vf103_i2c.c ****     if (100000U >= clkspeed) {
 148              		.loc 1 100 5 is_stmt 1
 149              		.loc 1 100 8 is_stmt 0
 150 0042 E166     		li	a3,98304
 151              	.LVL14:
 152 0044 9386066A 		addi	a3,a3,1696
 153 0048 63E19604 		bgtu	s1,a3,.L10
 101:../../firmware/GD32VF103_standard_peripheral/Source/gd32vf103_i2c.c ****         /* the maximum SCL rise time is 1000ns in standard mode */
 102:../../firmware/GD32VF103_standard_peripheral/Source/gd32vf103_i2c.c ****         risetime = (uint32_t) ((pclk1 / 1000000U) + 1U);
 154              		.loc 1 102 9 is_stmt 1
 155              		.loc 1 102 18 is_stmt 0
 156 004c 93071700 		addi	a5,a4,1
 157              	.LVL15:
 103:../../firmware/GD32VF103_standard_peripheral/Source/gd32vf103_i2c.c ****         if (risetime >= I2CCLK_MAX) {
 158              		.loc 1 103 9 is_stmt 1
 159              		.loc 1 103 12 is_stmt 0
 160 0050 13075003 		li	a4,53
 161 0054 6376F700 		bleu	a5,a4,.L11
 104:../../firmware/GD32VF103_standard_peripheral/Source/gd32vf103_i2c.c ****             I2C_RT(i2c_periph) = I2CCLK_MAX;
 162              		.loc 1 104 13 is_stmt 1
 163              		.loc 1 104 32 is_stmt 0
 164 0058 93076003 		li	a5,54
 165              	.LVL16:
 166              	.L13:
 105:../../firmware/GD32VF103_standard_peripheral/Source/gd32vf103_i2c.c ****         } else if (risetime <= I2CCLK_MIN) {
GAS LISTING /var/folders/yy/83vjwp7d53j56dbzj8_jnpcr0000gn/T//ccRI64Di.s 			page 6


 106:../../firmware/GD32VF103_standard_peripheral/Source/gd32vf103_i2c.c ****             I2C_RT(i2c_periph) = I2CCLK_MIN;
 107:../../firmware/GD32VF103_standard_peripheral/Source/gd32vf103_i2c.c ****         } else {
 108:../../firmware/GD32VF103_standard_peripheral/Source/gd32vf103_i2c.c ****             I2C_RT(i2c_periph) = risetime;
 167              		.loc 1 108 13 is_stmt 1
 168              		.loc 1 108 32 is_stmt 0
 169 005c 1CD0     		sw	a5,32(s0)
 170              	.LVL17:
 171 005e 29A0     		j	.L12
 172              	.LVL18:
 173              	.L11:
 105:../../firmware/GD32VF103_standard_peripheral/Source/gd32vf103_i2c.c ****         } else if (risetime <= I2CCLK_MIN) {
 174              		.loc 1 105 16 is_stmt 1
 105:../../firmware/GD32VF103_standard_peripheral/Source/gd32vf103_i2c.c ****         } else if (risetime <= I2CCLK_MIN) {
 175              		.loc 1 105 19 is_stmt 0
 176 0060 0947     		li	a4,2
 177 0062 E36DF7FE 		bgtu	a5,a4,.L13
 106:../../firmware/GD32VF103_standard_peripheral/Source/gd32vf103_i2c.c ****         } else {
 178              		.loc 1 106 13 is_stmt 1
 106:../../firmware/GD32VF103_standard_peripheral/Source/gd32vf103_i2c.c ****         } else {
 179              		.loc 1 106 32 is_stmt 0
 180 0066 18D0     		sw	a4,32(s0)
 181              	.LVL19:
 182              	.L12:
 109:../../firmware/GD32VF103_standard_peripheral/Source/gd32vf103_i2c.c ****         }
 110:../../firmware/GD32VF103_standard_peripheral/Source/gd32vf103_i2c.c ****         clkc = (uint32_t) (pclk1 / (clkspeed * 2U)); 
 183              		.loc 1 110 9 is_stmt 1
 184              		.loc 1 110 46 is_stmt 0
 185 0068 8604     		slli	s1,s1,1
 186              	.LVL20:
 111:../../firmware/GD32VF103_standard_peripheral/Source/gd32vf103_i2c.c ****         if (clkc < 0x04U) {
 187              		.loc 1 111 9 is_stmt 1
 112:../../firmware/GD32VF103_standard_peripheral/Source/gd32vf103_i2c.c ****             /* the CLKC in standard mode minmum value is 4 */
 113:../../firmware/GD32VF103_standard_peripheral/Source/gd32vf103_i2c.c ****             clkc = 0x04U;
 114:../../firmware/GD32VF103_standard_peripheral/Source/gd32vf103_i2c.c ****         }
 115:../../firmware/GD32VF103_standard_peripheral/Source/gd32vf103_i2c.c ****         I2C_CKCFG(i2c_periph) |= (I2C_CKCFG_CLKC & clkc);
 188              		.loc 1 115 9
 189              		.loc 1 115 50 is_stmt 0
 190 006a 33559502 		divu	a0,a0,s1
 191              	.LVL21:
 192              		.loc 1 115 31
 193 006e 5C4C     		lw	a5,28(s0)
 194              		.loc 1 115 50
 195 0070 1147     		li	a4,4
 196 0072 6373E500 		bgeu	a0,a4,.L14
 197 0076 1145     		li	a0,4
 198              	.LVL22:
 199              	.L14:
 200 0078 5205     		slli	a0,a0,20
 201 007a 5181     		srli	a0,a0,20
 202              		.loc 1 115 31
 203 007c 5D8D     		or	a0,a0,a5
 204              	.L27:
 116:../../firmware/GD32VF103_standard_peripheral/Source/gd32vf103_i2c.c **** 
 117:../../firmware/GD32VF103_standard_peripheral/Source/gd32vf103_i2c.c ****     } else if (400000U >= clkspeed) {
 118:../../firmware/GD32VF103_standard_peripheral/Source/gd32vf103_i2c.c ****         /* the maximum SCL rise time is 300ns in fast mode */
 119:../../firmware/GD32VF103_standard_peripheral/Source/gd32vf103_i2c.c ****         I2C_RT(i2c_periph) = (uint32_t) (((freq * (uint32_t) 300U)/(uint32_t)1000U)+(uint32_t)1U);
 120:../../firmware/GD32VF103_standard_peripheral/Source/gd32vf103_i2c.c ****         if (I2C_DTCY_2 == dutycyc){
GAS LISTING /var/folders/yy/83vjwp7d53j56dbzj8_jnpcr0000gn/T//ccRI64Di.s 			page 7


 121:../../firmware/GD32VF103_standard_peripheral/Source/gd32vf103_i2c.c ****             /* I2C duty cycle is 2 */
 122:../../firmware/GD32VF103_standard_peripheral/Source/gd32vf103_i2c.c ****             clkc = (uint32_t) (pclk1 / (clkspeed * 3U));
 123:../../firmware/GD32VF103_standard_peripheral/Source/gd32vf103_i2c.c ****             I2C_CKCFG(i2c_periph) &= ~I2C_CKCFG_DTCY;
 124:../../firmware/GD32VF103_standard_peripheral/Source/gd32vf103_i2c.c ****         } else {
 125:../../firmware/GD32VF103_standard_peripheral/Source/gd32vf103_i2c.c ****             /* I2C duty cycle is 16/9 */
 126:../../firmware/GD32VF103_standard_peripheral/Source/gd32vf103_i2c.c ****             clkc = (uint32_t) (pclk1 / (clkspeed * 25U));
 127:../../firmware/GD32VF103_standard_peripheral/Source/gd32vf103_i2c.c ****             I2C_CKCFG(i2c_periph) |= I2C_CKCFG_DTCY;
 128:../../firmware/GD32VF103_standard_peripheral/Source/gd32vf103_i2c.c ****         }
 129:../../firmware/GD32VF103_standard_peripheral/Source/gd32vf103_i2c.c ****         if (0U == (clkc & I2C_CKCFG_CLKC)) {
 130:../../firmware/GD32VF103_standard_peripheral/Source/gd32vf103_i2c.c ****             /* the CLKC in fast mode minmum value is 1 */
 131:../../firmware/GD32VF103_standard_peripheral/Source/gd32vf103_i2c.c ****             clkc |= 0x0001U;  
 132:../../firmware/GD32VF103_standard_peripheral/Source/gd32vf103_i2c.c ****         }
 133:../../firmware/GD32VF103_standard_peripheral/Source/gd32vf103_i2c.c ****         I2C_CKCFG(i2c_periph) |= I2C_CKCFG_FAST;
 134:../../firmware/GD32VF103_standard_peripheral/Source/gd32vf103_i2c.c ****         I2C_CKCFG(i2c_periph) |= clkc;
 205              		.loc 1 134 31
 206 007e 48CC     		sw	a0,28(s0)
 207              	.L8:
 135:../../firmware/GD32VF103_standard_peripheral/Source/gd32vf103_i2c.c ****     } else {
 136:../../firmware/GD32VF103_standard_peripheral/Source/gd32vf103_i2c.c ****         /* fast mode plus, the maximum SCL rise time is 120ns */
 137:../../firmware/GD32VF103_standard_peripheral/Source/gd32vf103_i2c.c ****         I2C_RT (i2c_periph) = (uint32_t) (((freq * (uint32_t) 120U) / (uint32_t) 1000U)+(uint32_t) 
 138:../../firmware/GD32VF103_standard_peripheral/Source/gd32vf103_i2c.c ****         if (I2C_DTCY_2 == dutycyc) {
 139:../../firmware/GD32VF103_standard_peripheral/Source/gd32vf103_i2c.c ****             /* I2C duty cycle is 2 */
 140:../../firmware/GD32VF103_standard_peripheral/Source/gd32vf103_i2c.c ****             clkc = (uint32_t) (pclk1 / (clkspeed * 3U));
 141:../../firmware/GD32VF103_standard_peripheral/Source/gd32vf103_i2c.c ****             I2C_CKCFG(i2c_periph) &= ~I2C_CKCFG_DTCY;
 142:../../firmware/GD32VF103_standard_peripheral/Source/gd32vf103_i2c.c ****         } else {
 143:../../firmware/GD32VF103_standard_peripheral/Source/gd32vf103_i2c.c ****             /* I2C duty cycle is 16/9 */
 144:../../firmware/GD32VF103_standard_peripheral/Source/gd32vf103_i2c.c ****             clkc = (uint32_t) (pclk1 / (clkspeed * 25U));
 145:../../firmware/GD32VF103_standard_peripheral/Source/gd32vf103_i2c.c ****             I2C_CKCFG(i2c_periph) |= I2C_CKCFG_DTCY;
 146:../../firmware/GD32VF103_standard_peripheral/Source/gd32vf103_i2c.c ****         }
 147:../../firmware/GD32VF103_standard_peripheral/Source/gd32vf103_i2c.c ****         /* enable fast mode */
 148:../../firmware/GD32VF103_standard_peripheral/Source/gd32vf103_i2c.c ****         I2C_CKCFG(i2c_periph) |= I2C_CKCFG_FAST;
 149:../../firmware/GD32VF103_standard_peripheral/Source/gd32vf103_i2c.c ****         I2C_CKCFG(i2c_periph) |= clkc;
 150:../../firmware/GD32VF103_standard_peripheral/Source/gd32vf103_i2c.c ****         /* enable I2C fast mode plus */
 151:../../firmware/GD32VF103_standard_peripheral/Source/gd32vf103_i2c.c ****         I2C_FMPCFG(i2c_periph) |= I2C_FMPCFG_FMPEN;
 152:../../firmware/GD32VF103_standard_peripheral/Source/gd32vf103_i2c.c ****     }
 153:../../firmware/GD32VF103_standard_peripheral/Source/gd32vf103_i2c.c **** }
 208              		.loc 1 153 1
 209 0080 F240     		lw	ra,28(sp)
 210              		.cfi_remember_state
 211              		.cfi_restore 1
 212 0082 6244     		lw	s0,24(sp)
 213              		.cfi_restore 8
 214              	.LVL23:
 215 0084 D244     		lw	s1,20(sp)
 216              		.cfi_restore 9
 217 0086 0561     		addi	sp,sp,32
 218              	.LCFI6:
 219              		.cfi_def_cfa_offset 0
 220              	.LVL24:
 221 0088 8280     		jr	ra
 222              	.LVL25:
 223              	.L10:
 224              	.LCFI7:
 225              		.cfi_restore_state
 117:../../firmware/GD32VF103_standard_peripheral/Source/gd32vf103_i2c.c ****         /* the maximum SCL rise time is 300ns in fast mode */
 226              		.loc 1 117 12 is_stmt 1
 117:../../firmware/GD32VF103_standard_peripheral/Source/gd32vf103_i2c.c ****         /* the maximum SCL rise time is 300ns in fast mode */
GAS LISTING /var/folders/yy/83vjwp7d53j56dbzj8_jnpcr0000gn/T//ccRI64Di.s 			page 8


 227              		.loc 1 117 15 is_stmt 0
 228 008a 37270600 		li	a4,401408
 229 008e 130707A8 		addi	a4,a4,-1408
 230 0092 636C9704 		bgtu	s1,a4,.L16
 119:../../firmware/GD32VF103_standard_peripheral/Source/gd32vf103_i2c.c ****         if (I2C_DTCY_2 == dutycyc){
 231              		.loc 1 119 9 is_stmt 1
 119:../../firmware/GD32VF103_standard_peripheral/Source/gd32vf103_i2c.c ****         if (I2C_DTCY_2 == dutycyc){
 232              		.loc 1 119 49 is_stmt 0
 233 0096 1307C012 		li	a4,300
 234 009a B387E702 		mul	a5,a5,a4
 235              	.LVL26:
 119:../../firmware/GD32VF103_standard_peripheral/Source/gd32vf103_i2c.c ****         if (I2C_DTCY_2 == dutycyc){
 236              		.loc 1 119 67
 237 009e 1307803E 		li	a4,1000
 238 00a2 B3D7E702 		divu	a5,a5,a4
 119:../../firmware/GD32VF103_standard_peripheral/Source/gd32vf103_i2c.c ****         if (I2C_DTCY_2 == dutycyc){
 239              		.loc 1 119 30
 240 00a6 8507     		addi	a5,a5,1
 119:../../firmware/GD32VF103_standard_peripheral/Source/gd32vf103_i2c.c ****         if (I2C_DTCY_2 == dutycyc){
 241              		.loc 1 119 28
 242 00a8 1CD0     		sw	a5,32(s0)
 243              	.LVL27:
 120:../../firmware/GD32VF103_standard_peripheral/Source/gd32vf103_i2c.c ****             /* I2C duty cycle is 2 */
 244              		.loc 1 120 9 is_stmt 1
 120:../../firmware/GD32VF103_standard_peripheral/Source/gd32vf103_i2c.c ****             /* I2C duty cycle is 2 */
 245              		.loc 1 120 12 is_stmt 0
 246 00aa 1DE6     		bne	a2,zero,.L17
 122:../../firmware/GD32VF103_standard_peripheral/Source/gd32vf103_i2c.c ****             I2C_CKCFG(i2c_periph) &= ~I2C_CKCFG_DTCY;
 247              		.loc 1 122 13 is_stmt 1
 122:../../firmware/GD32VF103_standard_peripheral/Source/gd32vf103_i2c.c ****             I2C_CKCFG(i2c_periph) &= ~I2C_CKCFG_DTCY;
 248              		.loc 1 122 50 is_stmt 0
 249 00ac 8D47     		li	a5,3
 250 00ae B384F402 		mul	s1,s1,a5
 251              	.LVL28:
 123:../../firmware/GD32VF103_standard_peripheral/Source/gd32vf103_i2c.c ****         } else {
 252              		.loc 1 123 35
 253 00b2 5C4C     		lw	a5,28(s0)
 254 00b4 7177     		li	a4,-16384
 255 00b6 7D17     		addi	a4,a4,-1
 256 00b8 F98F     		and	a5,a5,a4
 122:../../firmware/GD32VF103_standard_peripheral/Source/gd32vf103_i2c.c ****             I2C_CKCFG(i2c_periph) &= ~I2C_CKCFG_DTCY;
 257              		.loc 1 122 18
 258 00ba 33559502 		divu	a0,a0,s1
 259              	.LVL29:
 123:../../firmware/GD32VF103_standard_peripheral/Source/gd32vf103_i2c.c ****         } else {
 260              		.loc 1 123 13 is_stmt 1
 261              	.L25:
 127:../../firmware/GD32VF103_standard_peripheral/Source/gd32vf103_i2c.c ****         }
 262              		.loc 1 127 35 is_stmt 0
 263 00be 5CCC     		sw	a5,28(s0)
 129:../../firmware/GD32VF103_standard_peripheral/Source/gd32vf103_i2c.c ****             /* the CLKC in fast mode minmum value is 1 */
 264              		.loc 1 129 9 is_stmt 1
 129:../../firmware/GD32VF103_standard_peripheral/Source/gd32vf103_i2c.c ****             /* the CLKC in fast mode minmum value is 1 */
 265              		.loc 1 129 12 is_stmt 0
 266 00c0 93174501 		slli	a5,a0,20
 267 00c4 99E3     		bne	a5,zero,.L19
 131:../../firmware/GD32VF103_standard_peripheral/Source/gd32vf103_i2c.c ****         }
GAS LISTING /var/folders/yy/83vjwp7d53j56dbzj8_jnpcr0000gn/T//ccRI64Di.s 			page 9


 268              		.loc 1 131 13 is_stmt 1
 131:../../firmware/GD32VF103_standard_peripheral/Source/gd32vf103_i2c.c ****         }
 269              		.loc 1 131 18 is_stmt 0
 270 00c6 13651500 		ori	a0,a0,1
 271              	.LVL30:
 272              	.L19:
 133:../../firmware/GD32VF103_standard_peripheral/Source/gd32vf103_i2c.c ****         I2C_CKCFG(i2c_periph) |= clkc;
 273              		.loc 1 133 9 is_stmt 1
 133:../../firmware/GD32VF103_standard_peripheral/Source/gd32vf103_i2c.c ****         I2C_CKCFG(i2c_periph) |= clkc;
 274              		.loc 1 133 31 is_stmt 0
 275 00ca 5C4C     		lw	a5,28(s0)
 276 00cc 2167     		li	a4,32768
 277 00ce D98F     		or	a5,a5,a4
 278 00d0 5CCC     		sw	a5,28(s0)
 134:../../firmware/GD32VF103_standard_peripheral/Source/gd32vf103_i2c.c ****     } else {
 279              		.loc 1 134 9 is_stmt 1
 134:../../firmware/GD32VF103_standard_peripheral/Source/gd32vf103_i2c.c ****     } else {
 280              		.loc 1 134 31 is_stmt 0
 281 00d2 444C     		lw	s1,28(s0)
 282 00d4 458D     		or	a0,s1,a0
 283              	.LVL31:
 284 00d6 65B7     		j	.L27
 285              	.LVL32:
 286              	.L17:
 126:../../firmware/GD32VF103_standard_peripheral/Source/gd32vf103_i2c.c ****             I2C_CKCFG(i2c_periph) |= I2C_CKCFG_DTCY;
 287              		.loc 1 126 13 is_stmt 1
 126:../../firmware/GD32VF103_standard_peripheral/Source/gd32vf103_i2c.c ****             I2C_CKCFG(i2c_periph) |= I2C_CKCFG_DTCY;
 288              		.loc 1 126 50 is_stmt 0
 289 00d8 E547     		li	a5,25
 290 00da B384F402 		mul	s1,s1,a5
 291              	.LVL33:
 127:../../firmware/GD32VF103_standard_peripheral/Source/gd32vf103_i2c.c ****         }
 292              		.loc 1 127 35
 293 00de 5C4C     		lw	a5,28(s0)
 294 00e0 1167     		li	a4,16384
 295 00e2 D98F     		or	a5,a5,a4
 126:../../firmware/GD32VF103_standard_peripheral/Source/gd32vf103_i2c.c ****             I2C_CKCFG(i2c_periph) |= I2C_CKCFG_DTCY;
 296              		.loc 1 126 18
 297 00e4 33559502 		divu	a0,a0,s1
 298              	.LVL34:
 127:../../firmware/GD32VF103_standard_peripheral/Source/gd32vf103_i2c.c ****         }
 299              		.loc 1 127 13 is_stmt 1
 300 00e8 D9BF     		j	.L25
 301              	.LVL35:
 302              	.L16:
 137:../../firmware/GD32VF103_standard_peripheral/Source/gd32vf103_i2c.c ****         if (I2C_DTCY_2 == dutycyc) {
 303              		.loc 1 137 9
 137:../../firmware/GD32VF103_standard_peripheral/Source/gd32vf103_i2c.c ****         if (I2C_DTCY_2 == dutycyc) {
 304              		.loc 1 137 50 is_stmt 0
 305 00ea 13078007 		li	a4,120
 306 00ee B387E702 		mul	a5,a5,a4
 307              	.LVL36:
 137:../../firmware/GD32VF103_standard_peripheral/Source/gd32vf103_i2c.c ****         if (I2C_DTCY_2 == dutycyc) {
 308              		.loc 1 137 69
 309 00f2 1307803E 		li	a4,1000
 310 00f6 B3D7E702 		divu	a5,a5,a4
 137:../../firmware/GD32VF103_standard_peripheral/Source/gd32vf103_i2c.c ****         if (I2C_DTCY_2 == dutycyc) {
GAS LISTING /var/folders/yy/83vjwp7d53j56dbzj8_jnpcr0000gn/T//ccRI64Di.s 			page 10


 311              		.loc 1 137 31
 312 00fa 8507     		addi	a5,a5,1
 137:../../firmware/GD32VF103_standard_peripheral/Source/gd32vf103_i2c.c ****         if (I2C_DTCY_2 == dutycyc) {
 313              		.loc 1 137 29
 314 00fc 1CD0     		sw	a5,32(s0)
 315              	.LVL37:
 138:../../firmware/GD32VF103_standard_peripheral/Source/gd32vf103_i2c.c ****             /* I2C duty cycle is 2 */
 316              		.loc 1 138 9 is_stmt 1
 138:../../firmware/GD32VF103_standard_peripheral/Source/gd32vf103_i2c.c ****             /* I2C duty cycle is 2 */
 317              		.loc 1 138 12 is_stmt 0
 318 00fe 0DEA     		bne	a2,zero,.L20
 140:../../firmware/GD32VF103_standard_peripheral/Source/gd32vf103_i2c.c ****             I2C_CKCFG(i2c_periph) &= ~I2C_CKCFG_DTCY;
 319              		.loc 1 140 13 is_stmt 1
 140:../../firmware/GD32VF103_standard_peripheral/Source/gd32vf103_i2c.c ****             I2C_CKCFG(i2c_periph) &= ~I2C_CKCFG_DTCY;
 320              		.loc 1 140 50 is_stmt 0
 321 0100 8D45     		li	a1,3
 322 0102 B384B402 		mul	s1,s1,a1
 323              	.LVL38:
 141:../../firmware/GD32VF103_standard_peripheral/Source/gd32vf103_i2c.c ****         } else {
 324              		.loc 1 141 35
 325 0106 5C4C     		lw	a5,28(s0)
 326 0108 7177     		li	a4,-16384
 327 010a 7D17     		addi	a4,a4,-1
 328 010c F98F     		and	a5,a5,a4
 140:../../firmware/GD32VF103_standard_peripheral/Source/gd32vf103_i2c.c ****             I2C_CKCFG(i2c_periph) &= ~I2C_CKCFG_DTCY;
 329              		.loc 1 140 18
 330 010e 33559502 		divu	a0,a0,s1
 331              	.LVL39:
 141:../../firmware/GD32VF103_standard_peripheral/Source/gd32vf103_i2c.c ****         } else {
 332              		.loc 1 141 13 is_stmt 1
 333              	.L26:
 145:../../firmware/GD32VF103_standard_peripheral/Source/gd32vf103_i2c.c ****         }
 334              		.loc 1 145 35 is_stmt 0
 335 0112 5CCC     		sw	a5,28(s0)
 148:../../firmware/GD32VF103_standard_peripheral/Source/gd32vf103_i2c.c ****         I2C_CKCFG(i2c_periph) |= clkc;
 336              		.loc 1 148 9 is_stmt 1
 148:../../firmware/GD32VF103_standard_peripheral/Source/gd32vf103_i2c.c ****         I2C_CKCFG(i2c_periph) |= clkc;
 337              		.loc 1 148 31 is_stmt 0
 338 0114 5C4C     		lw	a5,28(s0)
 339 0116 2167     		li	a4,32768
 340 0118 D98F     		or	a5,a5,a4
 341 011a 5CCC     		sw	a5,28(s0)
 149:../../firmware/GD32VF103_standard_peripheral/Source/gd32vf103_i2c.c ****         /* enable I2C fast mode plus */
 342              		.loc 1 149 9 is_stmt 1
 149:../../firmware/GD32VF103_standard_peripheral/Source/gd32vf103_i2c.c ****         /* enable I2C fast mode plus */
 343              		.loc 1 149 31 is_stmt 0
 344 011c 444C     		lw	s1,28(s0)
 345 011e 458D     		or	a0,s1,a0
 346              	.LVL40:
 347 0120 48CC     		sw	a0,28(s0)
 151:../../firmware/GD32VF103_standard_peripheral/Source/gd32vf103_i2c.c ****     }
 348              		.loc 1 151 9 is_stmt 1
 151:../../firmware/GD32VF103_standard_peripheral/Source/gd32vf103_i2c.c ****     }
 349              		.loc 1 151 32 is_stmt 0
 350 0122 83270409 		lw	a5,144(s0)
 351 0126 93E71700 		ori	a5,a5,1
 352 012a 2328F408 		sw	a5,144(s0)
GAS LISTING /var/folders/yy/83vjwp7d53j56dbzj8_jnpcr0000gn/T//ccRI64Di.s 			page 11


 353              		.loc 1 153 1
 354 012e 89BF     		j	.L8
 355              	.LVL41:
 356              	.L20:
 144:../../firmware/GD32VF103_standard_peripheral/Source/gd32vf103_i2c.c ****             I2C_CKCFG(i2c_periph) |= I2C_CKCFG_DTCY;
 357              		.loc 1 144 13 is_stmt 1
 144:../../firmware/GD32VF103_standard_peripheral/Source/gd32vf103_i2c.c ****             I2C_CKCFG(i2c_periph) |= I2C_CKCFG_DTCY;
 358              		.loc 1 144 50 is_stmt 0
 359 0130 E545     		li	a1,25
 360 0132 B384B402 		mul	s1,s1,a1
 361              	.LVL42:
 145:../../firmware/GD32VF103_standard_peripheral/Source/gd32vf103_i2c.c ****         }
 362              		.loc 1 145 35
 363 0136 5C4C     		lw	a5,28(s0)
 364 0138 1167     		li	a4,16384
 365 013a D98F     		or	a5,a5,a4
 144:../../firmware/GD32VF103_standard_peripheral/Source/gd32vf103_i2c.c ****             I2C_CKCFG(i2c_periph) |= I2C_CKCFG_DTCY;
 366              		.loc 1 144 18
 367 013c 33559502 		divu	a0,a0,s1
 368              	.LVL43:
 145:../../firmware/GD32VF103_standard_peripheral/Source/gd32vf103_i2c.c ****         }
 369              		.loc 1 145 13 is_stmt 1
 370 0140 C9BF     		j	.L26
 371              		.cfi_endproc
 372              	.LFE3:
 374              		.section	.text.i2c_mode_addr_config,"ax",@progbits
 375              		.align	1
 376              		.globl	i2c_mode_addr_config
 378              	i2c_mode_addr_config:
 379              	.LFB4:
 154:../../firmware/GD32VF103_standard_peripheral/Source/gd32vf103_i2c.c **** 
 155:../../firmware/GD32VF103_standard_peripheral/Source/gd32vf103_i2c.c **** /*!
 156:../../firmware/GD32VF103_standard_peripheral/Source/gd32vf103_i2c.c ****     \brief      configure I2C address 
 157:../../firmware/GD32VF103_standard_peripheral/Source/gd32vf103_i2c.c ****     \param[in]  i2c_periph: I2Cx(x=0,1)
 158:../../firmware/GD32VF103_standard_peripheral/Source/gd32vf103_i2c.c ****     \param[in]  mode:
 159:../../firmware/GD32VF103_standard_peripheral/Source/gd32vf103_i2c.c ****                 only one parameter can be selected which is shown as below:
 160:../../firmware/GD32VF103_standard_peripheral/Source/gd32vf103_i2c.c ****     \arg        I2C_I2CMODE_ENABLE: I2C mode
 161:../../firmware/GD32VF103_standard_peripheral/Source/gd32vf103_i2c.c ****     \arg        I2C_SMBUSMODE_ENABLE: SMBus mode
 162:../../firmware/GD32VF103_standard_peripheral/Source/gd32vf103_i2c.c ****     \param[in]  addformat: 7bits or 10bits
 163:../../firmware/GD32VF103_standard_peripheral/Source/gd32vf103_i2c.c ****                 only one parameter can be selected which is shown as below:
 164:../../firmware/GD32VF103_standard_peripheral/Source/gd32vf103_i2c.c ****     \arg        I2C_ADDFORMAT_7BITS: 7bits
 165:../../firmware/GD32VF103_standard_peripheral/Source/gd32vf103_i2c.c ****     \arg        I2C_ADDFORMAT_10BITS: 10bits
 166:../../firmware/GD32VF103_standard_peripheral/Source/gd32vf103_i2c.c ****     \param[in]  addr: I2C address
 167:../../firmware/GD32VF103_standard_peripheral/Source/gd32vf103_i2c.c ****     \param[out] none
 168:../../firmware/GD32VF103_standard_peripheral/Source/gd32vf103_i2c.c ****     \retval     none
 169:../../firmware/GD32VF103_standard_peripheral/Source/gd32vf103_i2c.c ****  */
 170:../../firmware/GD32VF103_standard_peripheral/Source/gd32vf103_i2c.c **** void i2c_mode_addr_config(uint32_t i2c_periph, uint32_t mode,uint32_t addformat, uint32_t addr) 
 171:../../firmware/GD32VF103_standard_peripheral/Source/gd32vf103_i2c.c **** {
 380              		.loc 1 171 1
 381              		.cfi_startproc
 382              	.LVL44:
 172:../../firmware/GD32VF103_standard_peripheral/Source/gd32vf103_i2c.c ****     /* SMBus/I2C mode selected */
 173:../../firmware/GD32VF103_standard_peripheral/Source/gd32vf103_i2c.c ****     uint32_t ctl = 0U;
 383              		.loc 1 173 5
 174:../../firmware/GD32VF103_standard_peripheral/Source/gd32vf103_i2c.c **** 
 175:../../firmware/GD32VF103_standard_peripheral/Source/gd32vf103_i2c.c ****     ctl = I2C_CTL0(i2c_periph);
 384              		.loc 1 175 5
GAS LISTING /var/folders/yy/83vjwp7d53j56dbzj8_jnpcr0000gn/T//ccRI64Di.s 			page 12


 385              		.loc 1 175 9 is_stmt 0
 386 0000 1C41     		lw	a5,0(a0)
 387              	.LVL45:
 176:../../firmware/GD32VF103_standard_peripheral/Source/gd32vf103_i2c.c ****     ctl &= ~(I2C_CTL0_SMBEN);
 388              		.loc 1 176 5 is_stmt 1
 177:../../firmware/GD32VF103_standard_peripheral/Source/gd32vf103_i2c.c ****     ctl |= mode;
 178:../../firmware/GD32VF103_standard_peripheral/Source/gd32vf103_i2c.c ****     I2C_CTL0(i2c_periph) = ctl;
 179:../../firmware/GD32VF103_standard_peripheral/Source/gd32vf103_i2c.c ****     /* configure address */
 180:../../firmware/GD32VF103_standard_peripheral/Source/gd32vf103_i2c.c ****     addr = addr & I2C_ADDRESS_MASK;
 389              		.loc 1 180 10 is_stmt 0
 390 0002 93F6F63F 		andi	a3,a3,1023
 391              	.LVL46:
 181:../../firmware/GD32VF103_standard_peripheral/Source/gd32vf103_i2c.c ****     I2C_SADDR0(i2c_periph) = (addformat | addr);
 392              		.loc 1 181 41
 393 0006 D18E     		or	a3,a3,a2
 176:../../firmware/GD32VF103_standard_peripheral/Source/gd32vf103_i2c.c ****     ctl &= ~(I2C_CTL0_SMBEN);
 394              		.loc 1 176 9
 395 0008 F59B     		andi	a5,a5,-3
 396              	.LVL47:
 177:../../firmware/GD32VF103_standard_peripheral/Source/gd32vf103_i2c.c ****     ctl |= mode;
 397              		.loc 1 177 5 is_stmt 1
 177:../../firmware/GD32VF103_standard_peripheral/Source/gd32vf103_i2c.c ****     ctl |= mode;
 398              		.loc 1 177 9 is_stmt 0
 399 000a DD8D     		or	a1,a5,a1
 400              	.LVL48:
 178:../../firmware/GD32VF103_standard_peripheral/Source/gd32vf103_i2c.c ****     /* configure address */
 401              		.loc 1 178 5 is_stmt 1
 178:../../firmware/GD32VF103_standard_peripheral/Source/gd32vf103_i2c.c ****     /* configure address */
 402              		.loc 1 178 26 is_stmt 0
 403 000c 0CC1     		sw	a1,0(a0)
 180:../../firmware/GD32VF103_standard_peripheral/Source/gd32vf103_i2c.c ****     I2C_SADDR0(i2c_periph) = (addformat | addr);
 404              		.loc 1 180 5 is_stmt 1
 405              	.LVL49:
 406              		.loc 1 181 5
 407              		.loc 1 181 28 is_stmt 0
 408 000e 14C5     		sw	a3,8(a0)
 182:../../firmware/GD32VF103_standard_peripheral/Source/gd32vf103_i2c.c **** }
 409              		.loc 1 182 1
 410 0010 8280     		ret
 411              		.cfi_endproc
 412              	.LFE4:
 414              		.section	.text.i2c_smbus_type_config,"ax",@progbits
 415              		.align	1
 416              		.globl	i2c_smbus_type_config
 418              	i2c_smbus_type_config:
 419              	.LFB5:
 183:../../firmware/GD32VF103_standard_peripheral/Source/gd32vf103_i2c.c **** 
 184:../../firmware/GD32VF103_standard_peripheral/Source/gd32vf103_i2c.c **** /*!
 185:../../firmware/GD32VF103_standard_peripheral/Source/gd32vf103_i2c.c ****     \brief      SMBus type selection
 186:../../firmware/GD32VF103_standard_peripheral/Source/gd32vf103_i2c.c ****     \param[in]  i2c_periph: I2Cx(x=0,1)
 187:../../firmware/GD32VF103_standard_peripheral/Source/gd32vf103_i2c.c ****     \param[in]  type:
 188:../../firmware/GD32VF103_standard_peripheral/Source/gd32vf103_i2c.c ****                 only one parameter can be selected which is shown as below:
 189:../../firmware/GD32VF103_standard_peripheral/Source/gd32vf103_i2c.c ****     \arg        I2C_SMBUS_DEVICE: device
 190:../../firmware/GD32VF103_standard_peripheral/Source/gd32vf103_i2c.c ****     \arg        I2C_SMBUS_HOST: host
 191:../../firmware/GD32VF103_standard_peripheral/Source/gd32vf103_i2c.c ****     \param[out] none
 192:../../firmware/GD32VF103_standard_peripheral/Source/gd32vf103_i2c.c ****     \retval     none
 193:../../firmware/GD32VF103_standard_peripheral/Source/gd32vf103_i2c.c ****  */
GAS LISTING /var/folders/yy/83vjwp7d53j56dbzj8_jnpcr0000gn/T//ccRI64Di.s 			page 13


 194:../../firmware/GD32VF103_standard_peripheral/Source/gd32vf103_i2c.c **** void i2c_smbus_type_config(uint32_t i2c_periph, uint32_t type)
 195:../../firmware/GD32VF103_standard_peripheral/Source/gd32vf103_i2c.c **** {
 420              		.loc 1 195 1 is_stmt 1
 421              		.cfi_startproc
 422              	.LVL50:
 196:../../firmware/GD32VF103_standard_peripheral/Source/gd32vf103_i2c.c ****     if (I2C_SMBUS_HOST == type) {
 423              		.loc 1 196 5
 424              		.loc 1 196 8 is_stmt 0
 425 0000 A147     		li	a5,8
 426 0002 6397F500 		bne	a1,a5,.L30
 197:../../firmware/GD32VF103_standard_peripheral/Source/gd32vf103_i2c.c ****         I2C_CTL0(i2c_periph) |= I2C_CTL0_SMBSEL;
 427              		.loc 1 197 9 is_stmt 1
 428              		.loc 1 197 30 is_stmt 0
 429 0006 1C41     		lw	a5,0(a0)
 430 0008 93E78700 		ori	a5,a5,8
 431              	.L32:
 198:../../firmware/GD32VF103_standard_peripheral/Source/gd32vf103_i2c.c ****     } else {
 199:../../firmware/GD32VF103_standard_peripheral/Source/gd32vf103_i2c.c ****         I2C_CTL0(i2c_periph) &= ~(I2C_CTL0_SMBSEL);
 432              		.loc 1 199 30
 433 000c 1CC1     		sw	a5,0(a0)
 200:../../firmware/GD32VF103_standard_peripheral/Source/gd32vf103_i2c.c ****     }
 201:../../firmware/GD32VF103_standard_peripheral/Source/gd32vf103_i2c.c **** }
 434              		.loc 1 201 1
 435 000e 8280     		ret
 436              	.L30:
 199:../../firmware/GD32VF103_standard_peripheral/Source/gd32vf103_i2c.c ****     }
 437              		.loc 1 199 9 is_stmt 1
 199:../../firmware/GD32VF103_standard_peripheral/Source/gd32vf103_i2c.c ****     }
 438              		.loc 1 199 30 is_stmt 0
 439 0010 1C41     		lw	a5,0(a0)
 440 0012 DD9B     		andi	a5,a5,-9
 441 0014 E5BF     		j	.L32
 442              		.cfi_endproc
 443              	.LFE5:
 445              		.section	.text.i2c_ack_config,"ax",@progbits
 446              		.align	1
 447              		.globl	i2c_ack_config
 449              	i2c_ack_config:
 450              	.LFB6:
 202:../../firmware/GD32VF103_standard_peripheral/Source/gd32vf103_i2c.c **** 
 203:../../firmware/GD32VF103_standard_peripheral/Source/gd32vf103_i2c.c **** /*!
 204:../../firmware/GD32VF103_standard_peripheral/Source/gd32vf103_i2c.c ****     \brief      whether or not to send an ACK
 205:../../firmware/GD32VF103_standard_peripheral/Source/gd32vf103_i2c.c ****     \param[in]  i2c_periph: I2Cx(x=0,1)
 206:../../firmware/GD32VF103_standard_peripheral/Source/gd32vf103_i2c.c ****     \param[in]  ack:
 207:../../firmware/GD32VF103_standard_peripheral/Source/gd32vf103_i2c.c ****                 only one parameter can be selected which is shown as below:
 208:../../firmware/GD32VF103_standard_peripheral/Source/gd32vf103_i2c.c ****     \arg        I2C_ACK_ENABLE: ACK will be sent
 209:../../firmware/GD32VF103_standard_peripheral/Source/gd32vf103_i2c.c ****     \arg        I2C_ACK_DISABLE: ACK will not be sent
 210:../../firmware/GD32VF103_standard_peripheral/Source/gd32vf103_i2c.c ****     \param[out] none
 211:../../firmware/GD32VF103_standard_peripheral/Source/gd32vf103_i2c.c ****     \retval     none
 212:../../firmware/GD32VF103_standard_peripheral/Source/gd32vf103_i2c.c ****  */
 213:../../firmware/GD32VF103_standard_peripheral/Source/gd32vf103_i2c.c **** void i2c_ack_config(uint32_t i2c_periph, uint32_t ack) 
 214:../../firmware/GD32VF103_standard_peripheral/Source/gd32vf103_i2c.c **** {
 451              		.loc 1 214 1 is_stmt 1
 452              		.cfi_startproc
 453              	.LVL51:
 215:../../firmware/GD32VF103_standard_peripheral/Source/gd32vf103_i2c.c ****     if (I2C_ACK_ENABLE == ack) {
 454              		.loc 1 215 5
GAS LISTING /var/folders/yy/83vjwp7d53j56dbzj8_jnpcr0000gn/T//ccRI64Di.s 			page 14


 455              		.loc 1 215 8 is_stmt 0
 456 0000 8547     		li	a5,1
 457 0002 6397F500 		bne	a1,a5,.L34
 216:../../firmware/GD32VF103_standard_peripheral/Source/gd32vf103_i2c.c ****         I2C_CTL0(i2c_periph) |= I2C_CTL0_ACKEN;
 458              		.loc 1 216 9 is_stmt 1
 459              		.loc 1 216 30 is_stmt 0
 460 0006 1C41     		lw	a5,0(a0)
 461 0008 93E70740 		ori	a5,a5,1024
 462              	.L36:
 217:../../firmware/GD32VF103_standard_peripheral/Source/gd32vf103_i2c.c ****     } else {
 218:../../firmware/GD32VF103_standard_peripheral/Source/gd32vf103_i2c.c ****         I2C_CTL0(i2c_periph) &= ~(I2C_CTL0_ACKEN);
 463              		.loc 1 218 30
 464 000c 1CC1     		sw	a5,0(a0)
 219:../../firmware/GD32VF103_standard_peripheral/Source/gd32vf103_i2c.c ****     }
 220:../../firmware/GD32VF103_standard_peripheral/Source/gd32vf103_i2c.c **** }
 465              		.loc 1 220 1
 466 000e 8280     		ret
 467              	.L34:
 218:../../firmware/GD32VF103_standard_peripheral/Source/gd32vf103_i2c.c ****     }
 468              		.loc 1 218 9 is_stmt 1
 218:../../firmware/GD32VF103_standard_peripheral/Source/gd32vf103_i2c.c ****     }
 469              		.loc 1 218 30 is_stmt 0
 470 0010 1C41     		lw	a5,0(a0)
 471 0012 93F7F7BF 		andi	a5,a5,-1025
 472 0016 DDBF     		j	.L36
 473              		.cfi_endproc
 474              	.LFE6:
 476              		.section	.text.i2c_ackpos_config,"ax",@progbits
 477              		.align	1
 478              		.globl	i2c_ackpos_config
 480              	i2c_ackpos_config:
 481              	.LFB7:
 221:../../firmware/GD32VF103_standard_peripheral/Source/gd32vf103_i2c.c **** 
 222:../../firmware/GD32VF103_standard_peripheral/Source/gd32vf103_i2c.c **** /*!
 223:../../firmware/GD32VF103_standard_peripheral/Source/gd32vf103_i2c.c ****     \brief      configure I2C POAP position
 224:../../firmware/GD32VF103_standard_peripheral/Source/gd32vf103_i2c.c ****     \param[in]  i2c_periph: I2Cx(x=0,1)
 225:../../firmware/GD32VF103_standard_peripheral/Source/gd32vf103_i2c.c ****     \param[in]  pos:
 226:../../firmware/GD32VF103_standard_peripheral/Source/gd32vf103_i2c.c ****                 only one parameter can be selected which is shown as below:
 227:../../firmware/GD32VF103_standard_peripheral/Source/gd32vf103_i2c.c ****     \arg        I2C_ACKPOS_CURRENT: whether to send ACK or not for the current
 228:../../firmware/GD32VF103_standard_peripheral/Source/gd32vf103_i2c.c ****     \arg        I2C_ACKPOS_NEXT: whether to send ACK or not for the next byte
 229:../../firmware/GD32VF103_standard_peripheral/Source/gd32vf103_i2c.c ****     \param[out] none
 230:../../firmware/GD32VF103_standard_peripheral/Source/gd32vf103_i2c.c ****     \retval     none
 231:../../firmware/GD32VF103_standard_peripheral/Source/gd32vf103_i2c.c ****  */
 232:../../firmware/GD32VF103_standard_peripheral/Source/gd32vf103_i2c.c **** void i2c_ackpos_config(uint32_t i2c_periph, uint32_t pos) 
 233:../../firmware/GD32VF103_standard_peripheral/Source/gd32vf103_i2c.c **** {
 482              		.loc 1 233 1 is_stmt 1
 483              		.cfi_startproc
 484              	.LVL52:
 234:../../firmware/GD32VF103_standard_peripheral/Source/gd32vf103_i2c.c ****     /* configure I2C POAP position */
 235:../../firmware/GD32VF103_standard_peripheral/Source/gd32vf103_i2c.c ****     if (I2C_ACKPOS_NEXT == pos) {
 485              		.loc 1 235 5
 236:../../firmware/GD32VF103_standard_peripheral/Source/gd32vf103_i2c.c ****         I2C_CTL0(i2c_periph) |= I2C_CTL0_POAP;
 486              		.loc 1 236 30 is_stmt 0
 487 0000 1C41     		lw	a5,0(a0)
 235:../../firmware/GD32VF103_standard_peripheral/Source/gd32vf103_i2c.c ****         I2C_CTL0(i2c_periph) |= I2C_CTL0_POAP;
 488              		.loc 1 235 8
 489 0002 99E5     		bne	a1,zero,.L38
GAS LISTING /var/folders/yy/83vjwp7d53j56dbzj8_jnpcr0000gn/T//ccRI64Di.s 			page 15


 490              		.loc 1 236 9 is_stmt 1
 491              		.loc 1 236 30 is_stmt 0
 492 0004 0567     		li	a4,4096
 493 0006 13070780 		addi	a4,a4,-2048
 494 000a D98F     		or	a5,a5,a4
 495              	.L40:
 237:../../firmware/GD32VF103_standard_peripheral/Source/gd32vf103_i2c.c ****     } else {
 238:../../firmware/GD32VF103_standard_peripheral/Source/gd32vf103_i2c.c ****         I2C_CTL0(i2c_periph) &= ~(I2C_CTL0_POAP);
 496              		.loc 1 238 30
 497 000c 1CC1     		sw	a5,0(a0)
 239:../../firmware/GD32VF103_standard_peripheral/Source/gd32vf103_i2c.c ****     }
 240:../../firmware/GD32VF103_standard_peripheral/Source/gd32vf103_i2c.c **** }
 498              		.loc 1 240 1
 499 000e 8280     		ret
 500              	.L38:
 238:../../firmware/GD32VF103_standard_peripheral/Source/gd32vf103_i2c.c ****     }
 501              		.loc 1 238 9 is_stmt 1
 238:../../firmware/GD32VF103_standard_peripheral/Source/gd32vf103_i2c.c ****     }
 502              		.loc 1 238 30 is_stmt 0
 503 0010 7D77     		li	a4,-4096
 504 0012 1307F77F 		addi	a4,a4,2047
 505 0016 F98F     		and	a5,a5,a4
 506 0018 D5BF     		j	.L40
 507              		.cfi_endproc
 508              	.LFE7:
 510              		.section	.text.i2c_master_addressing,"ax",@progbits
 511              		.align	1
 512              		.globl	i2c_master_addressing
 514              	i2c_master_addressing:
 515              	.LFB8:
 241:../../firmware/GD32VF103_standard_peripheral/Source/gd32vf103_i2c.c **** 
 242:../../firmware/GD32VF103_standard_peripheral/Source/gd32vf103_i2c.c **** /*!
 243:../../firmware/GD32VF103_standard_peripheral/Source/gd32vf103_i2c.c ****     \brief      master sends slave address
 244:../../firmware/GD32VF103_standard_peripheral/Source/gd32vf103_i2c.c ****     \param[in]  i2c_periph: I2Cx(x=0,1)
 245:../../firmware/GD32VF103_standard_peripheral/Source/gd32vf103_i2c.c ****     \param[in]  addr: slave address  
 246:../../firmware/GD32VF103_standard_peripheral/Source/gd32vf103_i2c.c ****     \param[in]  trandirection: transmitter or receiver
 247:../../firmware/GD32VF103_standard_peripheral/Source/gd32vf103_i2c.c ****                 only one parameter can be selected which is shown as below:
 248:../../firmware/GD32VF103_standard_peripheral/Source/gd32vf103_i2c.c ****     \arg        I2C_TRANSMITTER: transmitter  
 249:../../firmware/GD32VF103_standard_peripheral/Source/gd32vf103_i2c.c ****     \arg        I2C_RECEIVER:    receiver  
 250:../../firmware/GD32VF103_standard_peripheral/Source/gd32vf103_i2c.c ****     \param[out] none
 251:../../firmware/GD32VF103_standard_peripheral/Source/gd32vf103_i2c.c ****     \retval     none
 252:../../firmware/GD32VF103_standard_peripheral/Source/gd32vf103_i2c.c ****  */
 253:../../firmware/GD32VF103_standard_peripheral/Source/gd32vf103_i2c.c **** void i2c_master_addressing(uint32_t i2c_periph, uint32_t addr,uint32_t trandirection) 
 254:../../firmware/GD32VF103_standard_peripheral/Source/gd32vf103_i2c.c **** {
 516              		.loc 1 254 1 is_stmt 1
 517              		.cfi_startproc
 518              	.LVL53:
 255:../../firmware/GD32VF103_standard_peripheral/Source/gd32vf103_i2c.c ****     /* master is a transmitter or a receiver */
 256:../../firmware/GD32VF103_standard_peripheral/Source/gd32vf103_i2c.c ****     if (I2C_TRANSMITTER == trandirection) {
 519              		.loc 1 256 5
 520              		.loc 1 256 8 is_stmt 0
 521 0000 7957     		li	a4,-2
 257:../../firmware/GD32VF103_standard_peripheral/Source/gd32vf103_i2c.c ****         addr = addr & I2C_TRANSMITTER;
 258:../../firmware/GD32VF103_standard_peripheral/Source/gd32vf103_i2c.c ****     } else {
 259:../../firmware/GD32VF103_standard_peripheral/Source/gd32vf103_i2c.c ****         addr = addr | I2C_RECEIVER;
 522              		.loc 1 259 14
 523 0002 93E71500 		ori	a5,a1,1
GAS LISTING /var/folders/yy/83vjwp7d53j56dbzj8_jnpcr0000gn/T//ccRI64Di.s 			page 16


 256:../../firmware/GD32VF103_standard_peripheral/Source/gd32vf103_i2c.c ****         addr = addr & I2C_TRANSMITTER;
 524              		.loc 1 256 8
 525 0006 6314E600 		bne	a2,a4,.L43
 257:../../firmware/GD32VF103_standard_peripheral/Source/gd32vf103_i2c.c ****         addr = addr & I2C_TRANSMITTER;
 526              		.loc 1 257 9 is_stmt 1
 257:../../firmware/GD32VF103_standard_peripheral/Source/gd32vf103_i2c.c ****         addr = addr & I2C_TRANSMITTER;
 527              		.loc 1 257 14 is_stmt 0
 528 000a 93F7E5FF 		andi	a5,a1,-2
 529              	.LVL54:
 530              	.L43:
 260:../../firmware/GD32VF103_standard_peripheral/Source/gd32vf103_i2c.c ****     }
 261:../../firmware/GD32VF103_standard_peripheral/Source/gd32vf103_i2c.c ****     /* send slave address */
 262:../../firmware/GD32VF103_standard_peripheral/Source/gd32vf103_i2c.c ****     I2C_DATA(i2c_periph) = addr;
 531              		.loc 1 262 5 is_stmt 1
 532              		.loc 1 262 26 is_stmt 0
 533 000e 1CC9     		sw	a5,16(a0)
 263:../../firmware/GD32VF103_standard_peripheral/Source/gd32vf103_i2c.c **** }
 534              		.loc 1 263 1
 535 0010 8280     		ret
 536              		.cfi_endproc
 537              	.LFE8:
 539              		.section	.text.i2c_dualaddr_enable,"ax",@progbits
 540              		.align	1
 541              		.globl	i2c_dualaddr_enable
 543              	i2c_dualaddr_enable:
 544              	.LFB9:
 264:../../firmware/GD32VF103_standard_peripheral/Source/gd32vf103_i2c.c **** 
 265:../../firmware/GD32VF103_standard_peripheral/Source/gd32vf103_i2c.c **** /*!
 266:../../firmware/GD32VF103_standard_peripheral/Source/gd32vf103_i2c.c ****     \brief      enable dual-address mode
 267:../../firmware/GD32VF103_standard_peripheral/Source/gd32vf103_i2c.c ****     \param[in]  i2c_periph: I2Cx(x=0,1)
 268:../../firmware/GD32VF103_standard_peripheral/Source/gd32vf103_i2c.c ****     \param[in]  dualaddr: the second address in dual-address mode
 269:../../firmware/GD32VF103_standard_peripheral/Source/gd32vf103_i2c.c ****     \param[out] none
 270:../../firmware/GD32VF103_standard_peripheral/Source/gd32vf103_i2c.c ****     \retval     none
 271:../../firmware/GD32VF103_standard_peripheral/Source/gd32vf103_i2c.c **** */
 272:../../firmware/GD32VF103_standard_peripheral/Source/gd32vf103_i2c.c **** void i2c_dualaddr_enable(uint32_t i2c_periph, uint32_t dualaddr) 
 273:../../firmware/GD32VF103_standard_peripheral/Source/gd32vf103_i2c.c **** {
 545              		.loc 1 273 1 is_stmt 1
 546              		.cfi_startproc
 547              	.LVL55:
 274:../../firmware/GD32VF103_standard_peripheral/Source/gd32vf103_i2c.c ****     /* configure address */
 275:../../firmware/GD32VF103_standard_peripheral/Source/gd32vf103_i2c.c ****     dualaddr = dualaddr & I2C_ADDRESS2_MASK;
 548              		.loc 1 275 5
 276:../../firmware/GD32VF103_standard_peripheral/Source/gd32vf103_i2c.c ****     I2C_SADDR1(i2c_periph) = (I2C_SADDR1_DUADEN | dualaddr);
 549              		.loc 1 276 5
 275:../../firmware/GD32VF103_standard_peripheral/Source/gd32vf103_i2c.c ****     I2C_SADDR1(i2c_periph) = (I2C_SADDR1_DUADEN | dualaddr);
 550              		.loc 1 275 14 is_stmt 0
 551 0000 93F5E50F 		andi	a1,a1,254
 552              	.LVL56:
 553              		.loc 1 276 49
 554 0004 93E51500 		ori	a1,a1,1
 555              	.LVL57:
 556              		.loc 1 276 28
 557 0008 4CC5     		sw	a1,12(a0)
 277:../../firmware/GD32VF103_standard_peripheral/Source/gd32vf103_i2c.c **** }
 558              		.loc 1 277 1
 559 000a 8280     		ret
 560              		.cfi_endproc
GAS LISTING /var/folders/yy/83vjwp7d53j56dbzj8_jnpcr0000gn/T//ccRI64Di.s 			page 17


 561              	.LFE9:
 563              		.section	.text.i2c_dualaddr_disable,"ax",@progbits
 564              		.align	1
 565              		.globl	i2c_dualaddr_disable
 567              	i2c_dualaddr_disable:
 568              	.LFB10:
 278:../../firmware/GD32VF103_standard_peripheral/Source/gd32vf103_i2c.c **** 
 279:../../firmware/GD32VF103_standard_peripheral/Source/gd32vf103_i2c.c **** /*!
 280:../../firmware/GD32VF103_standard_peripheral/Source/gd32vf103_i2c.c ****     \brief      disable dual-address mode
 281:../../firmware/GD32VF103_standard_peripheral/Source/gd32vf103_i2c.c ****     \param[in]  i2c_periph: I2Cx(x=0,1) 
 282:../../firmware/GD32VF103_standard_peripheral/Source/gd32vf103_i2c.c ****     \param[out] none
 283:../../firmware/GD32VF103_standard_peripheral/Source/gd32vf103_i2c.c ****     \retval     none
 284:../../firmware/GD32VF103_standard_peripheral/Source/gd32vf103_i2c.c **** */
 285:../../firmware/GD32VF103_standard_peripheral/Source/gd32vf103_i2c.c **** void i2c_dualaddr_disable(uint32_t i2c_periph)
 286:../../firmware/GD32VF103_standard_peripheral/Source/gd32vf103_i2c.c **** {
 569              		.loc 1 286 1 is_stmt 1
 570              		.cfi_startproc
 571              	.LVL58:
 287:../../firmware/GD32VF103_standard_peripheral/Source/gd32vf103_i2c.c ****     I2C_SADDR1(i2c_periph) &= ~(I2C_SADDR1_DUADEN);
 572              		.loc 1 287 5
 573              		.loc 1 287 28 is_stmt 0
 574 0000 5C45     		lw	a5,12(a0)
 575 0002 F99B     		andi	a5,a5,-2
 576 0004 5CC5     		sw	a5,12(a0)
 288:../../firmware/GD32VF103_standard_peripheral/Source/gd32vf103_i2c.c **** }
 577              		.loc 1 288 1
 578 0006 8280     		ret
 579              		.cfi_endproc
 580              	.LFE10:
 582              		.section	.text.i2c_enable,"ax",@progbits
 583              		.align	1
 584              		.globl	i2c_enable
 586              	i2c_enable:
 587              	.LFB11:
 289:../../firmware/GD32VF103_standard_peripheral/Source/gd32vf103_i2c.c **** 
 290:../../firmware/GD32VF103_standard_peripheral/Source/gd32vf103_i2c.c **** /*!
 291:../../firmware/GD32VF103_standard_peripheral/Source/gd32vf103_i2c.c ****     \brief      enable I2C
 292:../../firmware/GD32VF103_standard_peripheral/Source/gd32vf103_i2c.c ****     \param[in]  i2c_periph: I2Cx(x=0,1) 
 293:../../firmware/GD32VF103_standard_peripheral/Source/gd32vf103_i2c.c ****     \param[out] none
 294:../../firmware/GD32VF103_standard_peripheral/Source/gd32vf103_i2c.c ****     \retval     none
 295:../../firmware/GD32VF103_standard_peripheral/Source/gd32vf103_i2c.c ****  */
 296:../../firmware/GD32VF103_standard_peripheral/Source/gd32vf103_i2c.c **** void i2c_enable(uint32_t i2c_periph) 
 297:../../firmware/GD32VF103_standard_peripheral/Source/gd32vf103_i2c.c **** {
 588              		.loc 1 297 1 is_stmt 1
 589              		.cfi_startproc
 590              	.LVL59:
 298:../../firmware/GD32VF103_standard_peripheral/Source/gd32vf103_i2c.c ****     I2C_CTL0(i2c_periph) |= I2C_CTL0_I2CEN;
 591              		.loc 1 298 5
 592              		.loc 1 298 26 is_stmt 0
 593 0000 1C41     		lw	a5,0(a0)
 594 0002 93E71700 		ori	a5,a5,1
 595 0006 1CC1     		sw	a5,0(a0)
 299:../../firmware/GD32VF103_standard_peripheral/Source/gd32vf103_i2c.c **** }
 596              		.loc 1 299 1
 597 0008 8280     		ret
 598              		.cfi_endproc
 599              	.LFE11:
GAS LISTING /var/folders/yy/83vjwp7d53j56dbzj8_jnpcr0000gn/T//ccRI64Di.s 			page 18


 601              		.section	.text.i2c_disable,"ax",@progbits
 602              		.align	1
 603              		.globl	i2c_disable
 605              	i2c_disable:
 606              	.LFB12:
 300:../../firmware/GD32VF103_standard_peripheral/Source/gd32vf103_i2c.c **** 
 301:../../firmware/GD32VF103_standard_peripheral/Source/gd32vf103_i2c.c **** /*!
 302:../../firmware/GD32VF103_standard_peripheral/Source/gd32vf103_i2c.c ****     \brief      disable I2C
 303:../../firmware/GD32VF103_standard_peripheral/Source/gd32vf103_i2c.c ****     \param[in]  i2c_periph: I2Cx(x=0,1) 
 304:../../firmware/GD32VF103_standard_peripheral/Source/gd32vf103_i2c.c ****     \param[out] none
 305:../../firmware/GD32VF103_standard_peripheral/Source/gd32vf103_i2c.c ****     \retval     none
 306:../../firmware/GD32VF103_standard_peripheral/Source/gd32vf103_i2c.c ****  */
 307:../../firmware/GD32VF103_standard_peripheral/Source/gd32vf103_i2c.c **** void i2c_disable(uint32_t i2c_periph) 
 308:../../firmware/GD32VF103_standard_peripheral/Source/gd32vf103_i2c.c **** {
 607              		.loc 1 308 1 is_stmt 1
 608              		.cfi_startproc
 609              	.LVL60:
 309:../../firmware/GD32VF103_standard_peripheral/Source/gd32vf103_i2c.c ****     I2C_CTL0(i2c_periph) &= ~(I2C_CTL0_I2CEN);
 610              		.loc 1 309 5
 611              		.loc 1 309 26 is_stmt 0
 612 0000 1C41     		lw	a5,0(a0)
 613 0002 F99B     		andi	a5,a5,-2
 614 0004 1CC1     		sw	a5,0(a0)
 310:../../firmware/GD32VF103_standard_peripheral/Source/gd32vf103_i2c.c **** }
 615              		.loc 1 310 1
 616 0006 8280     		ret
 617              		.cfi_endproc
 618              	.LFE12:
 620              		.section	.text.i2c_start_on_bus,"ax",@progbits
 621              		.align	1
 622              		.globl	i2c_start_on_bus
 624              	i2c_start_on_bus:
 625              	.LFB13:
 311:../../firmware/GD32VF103_standard_peripheral/Source/gd32vf103_i2c.c **** 
 312:../../firmware/GD32VF103_standard_peripheral/Source/gd32vf103_i2c.c **** /*!
 313:../../firmware/GD32VF103_standard_peripheral/Source/gd32vf103_i2c.c ****     \brief      generate a START condition on I2C bus
 314:../../firmware/GD32VF103_standard_peripheral/Source/gd32vf103_i2c.c ****     \param[in]  i2c_periph: I2Cx(x=0,1)
 315:../../firmware/GD32VF103_standard_peripheral/Source/gd32vf103_i2c.c ****     \param[out] none
 316:../../firmware/GD32VF103_standard_peripheral/Source/gd32vf103_i2c.c ****     \retval     none
 317:../../firmware/GD32VF103_standard_peripheral/Source/gd32vf103_i2c.c ****  */
 318:../../firmware/GD32VF103_standard_peripheral/Source/gd32vf103_i2c.c **** void i2c_start_on_bus(uint32_t i2c_periph) 
 319:../../firmware/GD32VF103_standard_peripheral/Source/gd32vf103_i2c.c **** {
 626              		.loc 1 319 1 is_stmt 1
 627              		.cfi_startproc
 628              	.LVL61:
 320:../../firmware/GD32VF103_standard_peripheral/Source/gd32vf103_i2c.c ****     I2C_CTL0(i2c_periph) |= I2C_CTL0_START;
 629              		.loc 1 320 5
 630              		.loc 1 320 26 is_stmt 0
 631 0000 1C41     		lw	a5,0(a0)
 632 0002 93E70710 		ori	a5,a5,256
 633 0006 1CC1     		sw	a5,0(a0)
 321:../../firmware/GD32VF103_standard_peripheral/Source/gd32vf103_i2c.c **** }
 634              		.loc 1 321 1
 635 0008 8280     		ret
 636              		.cfi_endproc
 637              	.LFE13:
 639              		.section	.text.i2c_stop_on_bus,"ax",@progbits
GAS LISTING /var/folders/yy/83vjwp7d53j56dbzj8_jnpcr0000gn/T//ccRI64Di.s 			page 19


 640              		.align	1
 641              		.globl	i2c_stop_on_bus
 643              	i2c_stop_on_bus:
 644              	.LFB14:
 322:../../firmware/GD32VF103_standard_peripheral/Source/gd32vf103_i2c.c **** 
 323:../../firmware/GD32VF103_standard_peripheral/Source/gd32vf103_i2c.c **** /*!
 324:../../firmware/GD32VF103_standard_peripheral/Source/gd32vf103_i2c.c ****     \brief      generate a STOP condition on I2C bus
 325:../../firmware/GD32VF103_standard_peripheral/Source/gd32vf103_i2c.c ****     \param[in]  i2c_periph: I2Cx(x=0,1)
 326:../../firmware/GD32VF103_standard_peripheral/Source/gd32vf103_i2c.c ****     \param[out] none
 327:../../firmware/GD32VF103_standard_peripheral/Source/gd32vf103_i2c.c ****     \retval     none
 328:../../firmware/GD32VF103_standard_peripheral/Source/gd32vf103_i2c.c ****  */
 329:../../firmware/GD32VF103_standard_peripheral/Source/gd32vf103_i2c.c **** void i2c_stop_on_bus(uint32_t i2c_periph)
 330:../../firmware/GD32VF103_standard_peripheral/Source/gd32vf103_i2c.c **** {
 645              		.loc 1 330 1 is_stmt 1
 646              		.cfi_startproc
 647              	.LVL62:
 331:../../firmware/GD32VF103_standard_peripheral/Source/gd32vf103_i2c.c ****     I2C_CTL0(i2c_periph) |= I2C_CTL0_STOP;
 648              		.loc 1 331 5
 649              		.loc 1 331 26 is_stmt 0
 650 0000 1C41     		lw	a5,0(a0)
 651 0002 93E70720 		ori	a5,a5,512
 652 0006 1CC1     		sw	a5,0(a0)
 332:../../firmware/GD32VF103_standard_peripheral/Source/gd32vf103_i2c.c **** }
 653              		.loc 1 332 1
 654 0008 8280     		ret
 655              		.cfi_endproc
 656              	.LFE14:
 658              		.section	.text.i2c_data_transmit,"ax",@progbits
 659              		.align	1
 660              		.globl	i2c_data_transmit
 662              	i2c_data_transmit:
 663              	.LFB15:
 333:../../firmware/GD32VF103_standard_peripheral/Source/gd32vf103_i2c.c **** 
 334:../../firmware/GD32VF103_standard_peripheral/Source/gd32vf103_i2c.c **** /*!
 335:../../firmware/GD32VF103_standard_peripheral/Source/gd32vf103_i2c.c ****     \brief      I2C transmit data function
 336:../../firmware/GD32VF103_standard_peripheral/Source/gd32vf103_i2c.c ****     \param[in]  i2c_periph: I2Cx(x=0,1)
 337:../../firmware/GD32VF103_standard_peripheral/Source/gd32vf103_i2c.c ****     \param[in]  data: data of transmission 
 338:../../firmware/GD32VF103_standard_peripheral/Source/gd32vf103_i2c.c ****     \param[out] none
 339:../../firmware/GD32VF103_standard_peripheral/Source/gd32vf103_i2c.c ****     \retval     none
 340:../../firmware/GD32VF103_standard_peripheral/Source/gd32vf103_i2c.c ****  */
 341:../../firmware/GD32VF103_standard_peripheral/Source/gd32vf103_i2c.c **** void i2c_data_transmit(uint32_t i2c_periph, uint8_t data) 
 342:../../firmware/GD32VF103_standard_peripheral/Source/gd32vf103_i2c.c **** {
 664              		.loc 1 342 1 is_stmt 1
 665              		.cfi_startproc
 666              	.LVL63:
 343:../../firmware/GD32VF103_standard_peripheral/Source/gd32vf103_i2c.c ****     I2C_DATA(i2c_periph) = DATA_TRANS(data);
 667              		.loc 1 343 5
 668              		.loc 1 343 26 is_stmt 0
 669 0000 0CC9     		sw	a1,16(a0)
 344:../../firmware/GD32VF103_standard_peripheral/Source/gd32vf103_i2c.c **** }
 670              		.loc 1 344 1
 671 0002 8280     		ret
 672              		.cfi_endproc
 673              	.LFE15:
 675              		.section	.text.i2c_data_receive,"ax",@progbits
 676              		.align	1
 677              		.globl	i2c_data_receive
GAS LISTING /var/folders/yy/83vjwp7d53j56dbzj8_jnpcr0000gn/T//ccRI64Di.s 			page 20


 679              	i2c_data_receive:
 680              	.LFB16:
 345:../../firmware/GD32VF103_standard_peripheral/Source/gd32vf103_i2c.c **** 
 346:../../firmware/GD32VF103_standard_peripheral/Source/gd32vf103_i2c.c **** /*!
 347:../../firmware/GD32VF103_standard_peripheral/Source/gd32vf103_i2c.c ****     \brief      I2C receive data function
 348:../../firmware/GD32VF103_standard_peripheral/Source/gd32vf103_i2c.c ****     \param[in]  i2c_periph: I2Cx(x=0,1)
 349:../../firmware/GD32VF103_standard_peripheral/Source/gd32vf103_i2c.c ****     \param[out] none
 350:../../firmware/GD32VF103_standard_peripheral/Source/gd32vf103_i2c.c ****     \retval     data of received
 351:../../firmware/GD32VF103_standard_peripheral/Source/gd32vf103_i2c.c ****  */
 352:../../firmware/GD32VF103_standard_peripheral/Source/gd32vf103_i2c.c **** uint8_t i2c_data_receive(uint32_t i2c_periph) 
 353:../../firmware/GD32VF103_standard_peripheral/Source/gd32vf103_i2c.c **** {
 681              		.loc 1 353 1 is_stmt 1
 682              		.cfi_startproc
 683              	.LVL64:
 354:../../firmware/GD32VF103_standard_peripheral/Source/gd32vf103_i2c.c ****     return (uint8_t) DATA_RECV(I2C_DATA(i2c_periph));
 684              		.loc 1 354 5
 685              		.loc 1 354 22 is_stmt 0
 686 0000 0849     		lw	a0,16(a0)
 687              	.LVL65:
 355:../../firmware/GD32VF103_standard_peripheral/Source/gd32vf103_i2c.c **** }
 688              		.loc 1 355 1
 689 0002 1375F50F 		andi	a0,a0,0xff
 690 0006 8280     		ret
 691              		.cfi_endproc
 692              	.LFE16:
 694              		.section	.text.i2c_dma_enable,"ax",@progbits
 695              		.align	1
 696              		.globl	i2c_dma_enable
 698              	i2c_dma_enable:
 699              	.LFB17:
 356:../../firmware/GD32VF103_standard_peripheral/Source/gd32vf103_i2c.c **** 
 357:../../firmware/GD32VF103_standard_peripheral/Source/gd32vf103_i2c.c **** /*!
 358:../../firmware/GD32VF103_standard_peripheral/Source/gd32vf103_i2c.c ****     \brief      enable I2C DMA mode 
 359:../../firmware/GD32VF103_standard_peripheral/Source/gd32vf103_i2c.c ****     \param[in]  i2c_periph: I2Cx(x=0,1)
 360:../../firmware/GD32VF103_standard_peripheral/Source/gd32vf103_i2c.c ****     \param[in]  dmastate:
 361:../../firmware/GD32VF103_standard_peripheral/Source/gd32vf103_i2c.c ****                 only one parameter can be selected which is shown as below:
 362:../../firmware/GD32VF103_standard_peripheral/Source/gd32vf103_i2c.c ****     \arg        I2C_DMA_ON: DMA mode enable
 363:../../firmware/GD32VF103_standard_peripheral/Source/gd32vf103_i2c.c ****     \arg        I2C_DMA_OFF: DMA mode disable
 364:../../firmware/GD32VF103_standard_peripheral/Source/gd32vf103_i2c.c ****     \param[out] none
 365:../../firmware/GD32VF103_standard_peripheral/Source/gd32vf103_i2c.c ****     \retval     none
 366:../../firmware/GD32VF103_standard_peripheral/Source/gd32vf103_i2c.c ****  */
 367:../../firmware/GD32VF103_standard_peripheral/Source/gd32vf103_i2c.c **** void i2c_dma_enable(uint32_t i2c_periph, uint32_t dmastate) 
 368:../../firmware/GD32VF103_standard_peripheral/Source/gd32vf103_i2c.c **** {
 700              		.loc 1 368 1 is_stmt 1
 701              		.cfi_startproc
 702              	.LVL66:
 369:../../firmware/GD32VF103_standard_peripheral/Source/gd32vf103_i2c.c ****     /* configure I2C DMA function */
 370:../../firmware/GD32VF103_standard_peripheral/Source/gd32vf103_i2c.c ****     uint32_t ctl = 0U;
 703              		.loc 1 370 5
 371:../../firmware/GD32VF103_standard_peripheral/Source/gd32vf103_i2c.c **** 
 372:../../firmware/GD32VF103_standard_peripheral/Source/gd32vf103_i2c.c ****     ctl = I2C_CTL1(i2c_periph);
 704              		.loc 1 372 5
 705              		.loc 1 372 9 is_stmt 0
 706 0000 5C41     		lw	a5,4(a0)
 707              	.LVL67:
 373:../../firmware/GD32VF103_standard_peripheral/Source/gd32vf103_i2c.c ****     ctl &= ~(I2C_CTL1_DMAON);
 708              		.loc 1 373 5 is_stmt 1
GAS LISTING /var/folders/yy/83vjwp7d53j56dbzj8_jnpcr0000gn/T//ccRI64Di.s 			page 21


 709              		.loc 1 373 9 is_stmt 0
 710 0002 7D77     		li	a4,-4096
 711 0004 1307F77F 		addi	a4,a4,2047
 712 0008 F98F     		and	a5,a5,a4
 713              	.LVL68:
 374:../../firmware/GD32VF103_standard_peripheral/Source/gd32vf103_i2c.c ****     ctl |= dmastate;
 714              		.loc 1 374 5 is_stmt 1
 715              		.loc 1 374 9 is_stmt 0
 716 000a DD8D     		or	a1,a5,a1
 717              	.LVL69:
 375:../../firmware/GD32VF103_standard_peripheral/Source/gd32vf103_i2c.c ****     I2C_CTL1(i2c_periph) = ctl;
 718              		.loc 1 375 5 is_stmt 1
 719              		.loc 1 375 26 is_stmt 0
 720 000c 4CC1     		sw	a1,4(a0)
 376:../../firmware/GD32VF103_standard_peripheral/Source/gd32vf103_i2c.c **** }
 721              		.loc 1 376 1
 722 000e 8280     		ret
 723              		.cfi_endproc
 724              	.LFE17:
 726              		.section	.text.i2c_dma_last_transfer_config,"ax",@progbits
 727              		.align	1
 728              		.globl	i2c_dma_last_transfer_config
 730              	i2c_dma_last_transfer_config:
 731              	.LFB18:
 377:../../firmware/GD32VF103_standard_peripheral/Source/gd32vf103_i2c.c **** 
 378:../../firmware/GD32VF103_standard_peripheral/Source/gd32vf103_i2c.c **** /*!
 379:../../firmware/GD32VF103_standard_peripheral/Source/gd32vf103_i2c.c ****     \brief      configure whether next DMA EOT is DMA last transfer or not
 380:../../firmware/GD32VF103_standard_peripheral/Source/gd32vf103_i2c.c ****     \param[in]  i2c_periph: I2Cx(x=0,1)
 381:../../firmware/GD32VF103_standard_peripheral/Source/gd32vf103_i2c.c ****     \param[in]  dmalast:
 382:../../firmware/GD32VF103_standard_peripheral/Source/gd32vf103_i2c.c ****                 only one parameter can be selected which is shown as below:
 383:../../firmware/GD32VF103_standard_peripheral/Source/gd32vf103_i2c.c ****     \arg        I2C_DMALST_ON: next DMA EOT is the last transfer
 384:../../firmware/GD32VF103_standard_peripheral/Source/gd32vf103_i2c.c ****     \arg        I2C_DMALST_OFF: next DMA EOT is not the last transfer
 385:../../firmware/GD32VF103_standard_peripheral/Source/gd32vf103_i2c.c ****     \param[out] none
 386:../../firmware/GD32VF103_standard_peripheral/Source/gd32vf103_i2c.c ****     \retval     none
 387:../../firmware/GD32VF103_standard_peripheral/Source/gd32vf103_i2c.c ****  */
 388:../../firmware/GD32VF103_standard_peripheral/Source/gd32vf103_i2c.c **** void i2c_dma_last_transfer_config(uint32_t i2c_periph, uint32_t dmalast) 
 389:../../firmware/GD32VF103_standard_peripheral/Source/gd32vf103_i2c.c **** {
 732              		.loc 1 389 1 is_stmt 1
 733              		.cfi_startproc
 734              	.LVL70:
 390:../../firmware/GD32VF103_standard_peripheral/Source/gd32vf103_i2c.c ****     /* configure DMA last transfer */
 391:../../firmware/GD32VF103_standard_peripheral/Source/gd32vf103_i2c.c ****     uint32_t ctl = 0U;
 735              		.loc 1 391 5
 392:../../firmware/GD32VF103_standard_peripheral/Source/gd32vf103_i2c.c **** 
 393:../../firmware/GD32VF103_standard_peripheral/Source/gd32vf103_i2c.c ****     ctl = I2C_CTL1(i2c_periph);
 736              		.loc 1 393 5
 737              		.loc 1 393 9 is_stmt 0
 738 0000 5C41     		lw	a5,4(a0)
 739              	.LVL71:
 394:../../firmware/GD32VF103_standard_peripheral/Source/gd32vf103_i2c.c ****     ctl &= ~(I2C_CTL1_DMALST);
 740              		.loc 1 394 5 is_stmt 1
 741              		.loc 1 394 9 is_stmt 0
 742 0002 7D77     		li	a4,-4096
 743 0004 7D17     		addi	a4,a4,-1
 744 0006 F98F     		and	a5,a5,a4
 745              	.LVL72:
 395:../../firmware/GD32VF103_standard_peripheral/Source/gd32vf103_i2c.c ****     ctl |= dmalast;
GAS LISTING /var/folders/yy/83vjwp7d53j56dbzj8_jnpcr0000gn/T//ccRI64Di.s 			page 22


 746              		.loc 1 395 5 is_stmt 1
 747              		.loc 1 395 9 is_stmt 0
 748 0008 DD8D     		or	a1,a5,a1
 749              	.LVL73:
 396:../../firmware/GD32VF103_standard_peripheral/Source/gd32vf103_i2c.c ****     I2C_CTL1(i2c_periph) = ctl;
 750              		.loc 1 396 5 is_stmt 1
 751              		.loc 1 396 26 is_stmt 0
 752 000a 4CC1     		sw	a1,4(a0)
 397:../../firmware/GD32VF103_standard_peripheral/Source/gd32vf103_i2c.c **** }
 753              		.loc 1 397 1
 754 000c 8280     		ret
 755              		.cfi_endproc
 756              	.LFE18:
 758              		.section	.text.i2c_stretch_scl_low_config,"ax",@progbits
 759              		.align	1
 760              		.globl	i2c_stretch_scl_low_config
 762              	i2c_stretch_scl_low_config:
 763              	.LFB19:
 398:../../firmware/GD32VF103_standard_peripheral/Source/gd32vf103_i2c.c **** 
 399:../../firmware/GD32VF103_standard_peripheral/Source/gd32vf103_i2c.c **** /*!
 400:../../firmware/GD32VF103_standard_peripheral/Source/gd32vf103_i2c.c ****     \brief      whether to stretch SCL low when data is not ready in slave mode 
 401:../../firmware/GD32VF103_standard_peripheral/Source/gd32vf103_i2c.c ****     \param[in]  i2c_periph: I2Cx(x=0,1)
 402:../../firmware/GD32VF103_standard_peripheral/Source/gd32vf103_i2c.c ****     \param[in]  stretchpara:
 403:../../firmware/GD32VF103_standard_peripheral/Source/gd32vf103_i2c.c ****                 only one parameter can be selected which is shown as below:
 404:../../firmware/GD32VF103_standard_peripheral/Source/gd32vf103_i2c.c ****     \arg        I2C_SCLSTRETCH_ENABLE: SCL stretching is enabled
 405:../../firmware/GD32VF103_standard_peripheral/Source/gd32vf103_i2c.c ****     \arg        I2C_SCLSTRETCH_DISABLE: SCL stretching is disabled
 406:../../firmware/GD32VF103_standard_peripheral/Source/gd32vf103_i2c.c ****     \param[out] none
 407:../../firmware/GD32VF103_standard_peripheral/Source/gd32vf103_i2c.c ****     \retval     none
 408:../../firmware/GD32VF103_standard_peripheral/Source/gd32vf103_i2c.c ****  */
 409:../../firmware/GD32VF103_standard_peripheral/Source/gd32vf103_i2c.c **** void i2c_stretch_scl_low_config(uint32_t i2c_periph, uint32_t stretchpara) 
 410:../../firmware/GD32VF103_standard_peripheral/Source/gd32vf103_i2c.c **** {
 764              		.loc 1 410 1 is_stmt 1
 765              		.cfi_startproc
 766              	.LVL74:
 411:../../firmware/GD32VF103_standard_peripheral/Source/gd32vf103_i2c.c ****     /* configure I2C SCL strerching enable or disable */
 412:../../firmware/GD32VF103_standard_peripheral/Source/gd32vf103_i2c.c ****     uint32_t ctl = 0U;
 767              		.loc 1 412 5
 413:../../firmware/GD32VF103_standard_peripheral/Source/gd32vf103_i2c.c **** 
 414:../../firmware/GD32VF103_standard_peripheral/Source/gd32vf103_i2c.c ****     ctl = I2C_CTL0(i2c_periph);
 768              		.loc 1 414 5
 769              		.loc 1 414 9 is_stmt 0
 770 0000 1C41     		lw	a5,0(a0)
 771              	.LVL75:
 415:../../firmware/GD32VF103_standard_peripheral/Source/gd32vf103_i2c.c ****     ctl &= ~(I2C_CTL0_SS);
 772              		.loc 1 415 5 is_stmt 1
 773              		.loc 1 415 9 is_stmt 0
 774 0002 93F7F7F7 		andi	a5,a5,-129
 775              	.LVL76:
 416:../../firmware/GD32VF103_standard_peripheral/Source/gd32vf103_i2c.c ****     ctl |= stretchpara;
 776              		.loc 1 416 5 is_stmt 1
 777              		.loc 1 416 9 is_stmt 0
 778 0006 DD8D     		or	a1,a5,a1
 779              	.LVL77:
 417:../../firmware/GD32VF103_standard_peripheral/Source/gd32vf103_i2c.c ****     I2C_CTL0(i2c_periph) = ctl;
 780              		.loc 1 417 5 is_stmt 1
 781              		.loc 1 417 26 is_stmt 0
 782 0008 0CC1     		sw	a1,0(a0)
GAS LISTING /var/folders/yy/83vjwp7d53j56dbzj8_jnpcr0000gn/T//ccRI64Di.s 			page 23


 418:../../firmware/GD32VF103_standard_peripheral/Source/gd32vf103_i2c.c **** }
 783              		.loc 1 418 1
 784 000a 8280     		ret
 785              		.cfi_endproc
 786              	.LFE19:
 788              		.section	.text.i2c_slave_response_to_gcall_config,"ax",@progbits
 789              		.align	1
 790              		.globl	i2c_slave_response_to_gcall_config
 792              	i2c_slave_response_to_gcall_config:
 793              	.LFB20:
 419:../../firmware/GD32VF103_standard_peripheral/Source/gd32vf103_i2c.c **** 
 420:../../firmware/GD32VF103_standard_peripheral/Source/gd32vf103_i2c.c **** /*!
 421:../../firmware/GD32VF103_standard_peripheral/Source/gd32vf103_i2c.c ****     \brief      whether or not to response to a general call 
 422:../../firmware/GD32VF103_standard_peripheral/Source/gd32vf103_i2c.c ****     \param[in]  i2c_periph: I2Cx(x=0,1)
 423:../../firmware/GD32VF103_standard_peripheral/Source/gd32vf103_i2c.c ****     \param[in]  gcallpara:
 424:../../firmware/GD32VF103_standard_peripheral/Source/gd32vf103_i2c.c ****                 only one parameter can be selected which is shown as below:
 425:../../firmware/GD32VF103_standard_peripheral/Source/gd32vf103_i2c.c ****     \arg        I2C_GCEN_ENABLE: slave will response to a general call
 426:../../firmware/GD32VF103_standard_peripheral/Source/gd32vf103_i2c.c ****     \arg        I2C_GCEN_DISABLE: slave will not response to a general call
 427:../../firmware/GD32VF103_standard_peripheral/Source/gd32vf103_i2c.c ****     \param[out] none
 428:../../firmware/GD32VF103_standard_peripheral/Source/gd32vf103_i2c.c ****     \retval     none
 429:../../firmware/GD32VF103_standard_peripheral/Source/gd32vf103_i2c.c ****  */
 430:../../firmware/GD32VF103_standard_peripheral/Source/gd32vf103_i2c.c **** void i2c_slave_response_to_gcall_config(uint32_t i2c_periph, uint32_t gcallpara)
 431:../../firmware/GD32VF103_standard_peripheral/Source/gd32vf103_i2c.c **** {
 794              		.loc 1 431 1 is_stmt 1
 795              		.cfi_startproc
 796              	.LVL78:
 432:../../firmware/GD32VF103_standard_peripheral/Source/gd32vf103_i2c.c ****     /* configure slave response to a general call enable or disable */
 433:../../firmware/GD32VF103_standard_peripheral/Source/gd32vf103_i2c.c ****     uint32_t ctl = 0U;
 797              		.loc 1 433 5
 434:../../firmware/GD32VF103_standard_peripheral/Source/gd32vf103_i2c.c **** 
 435:../../firmware/GD32VF103_standard_peripheral/Source/gd32vf103_i2c.c ****     ctl = I2C_CTL0(i2c_periph);
 798              		.loc 1 435 5
 799              		.loc 1 435 9 is_stmt 0
 800 0000 1C41     		lw	a5,0(a0)
 801              	.LVL79:
 436:../../firmware/GD32VF103_standard_peripheral/Source/gd32vf103_i2c.c ****     ctl &= ~(I2C_CTL0_GCEN);
 802              		.loc 1 436 5 is_stmt 1
 803              		.loc 1 436 9 is_stmt 0
 804 0002 93F7F7FB 		andi	a5,a5,-65
 805              	.LVL80:
 437:../../firmware/GD32VF103_standard_peripheral/Source/gd32vf103_i2c.c ****     ctl |= gcallpara;
 806              		.loc 1 437 5 is_stmt 1
 807              		.loc 1 437 9 is_stmt 0
 808 0006 DD8D     		or	a1,a5,a1
 809              	.LVL81:
 438:../../firmware/GD32VF103_standard_peripheral/Source/gd32vf103_i2c.c ****     I2C_CTL0(i2c_periph) = ctl;
 810              		.loc 1 438 5 is_stmt 1
 811              		.loc 1 438 26 is_stmt 0
 812 0008 0CC1     		sw	a1,0(a0)
 439:../../firmware/GD32VF103_standard_peripheral/Source/gd32vf103_i2c.c **** }
 813              		.loc 1 439 1
 814 000a 8280     		ret
 815              		.cfi_endproc
 816              	.LFE20:
 818              		.section	.text.i2c_software_reset_config,"ax",@progbits
 819              		.align	1
 820              		.globl	i2c_software_reset_config
GAS LISTING /var/folders/yy/83vjwp7d53j56dbzj8_jnpcr0000gn/T//ccRI64Di.s 			page 24


 822              	i2c_software_reset_config:
 823              	.LFB21:
 440:../../firmware/GD32VF103_standard_peripheral/Source/gd32vf103_i2c.c **** 
 441:../../firmware/GD32VF103_standard_peripheral/Source/gd32vf103_i2c.c **** /*!
 442:../../firmware/GD32VF103_standard_peripheral/Source/gd32vf103_i2c.c ****     \brief      software reset I2C 
 443:../../firmware/GD32VF103_standard_peripheral/Source/gd32vf103_i2c.c ****     \param[in]  i2c_periph: I2Cx(x=0,1)
 444:../../firmware/GD32VF103_standard_peripheral/Source/gd32vf103_i2c.c ****     \param[in]  sreset:
 445:../../firmware/GD32VF103_standard_peripheral/Source/gd32vf103_i2c.c ****                 only one parameter can be selected which is shown as below:
 446:../../firmware/GD32VF103_standard_peripheral/Source/gd32vf103_i2c.c ****     \arg        I2C_SRESET_SET: I2C is under reset
 447:../../firmware/GD32VF103_standard_peripheral/Source/gd32vf103_i2c.c ****     \arg        I2C_SRESET_RESET: I2C is not under reset
 448:../../firmware/GD32VF103_standard_peripheral/Source/gd32vf103_i2c.c ****     \param[out] none
 449:../../firmware/GD32VF103_standard_peripheral/Source/gd32vf103_i2c.c ****     \retval     none
 450:../../firmware/GD32VF103_standard_peripheral/Source/gd32vf103_i2c.c ****  */
 451:../../firmware/GD32VF103_standard_peripheral/Source/gd32vf103_i2c.c **** void i2c_software_reset_config(uint32_t i2c_periph, uint32_t sreset)
 452:../../firmware/GD32VF103_standard_peripheral/Source/gd32vf103_i2c.c **** {
 824              		.loc 1 452 1 is_stmt 1
 825              		.cfi_startproc
 826              	.LVL82:
 453:../../firmware/GD32VF103_standard_peripheral/Source/gd32vf103_i2c.c ****     /* modify CTL0 and configure software reset I2C state */
 454:../../firmware/GD32VF103_standard_peripheral/Source/gd32vf103_i2c.c ****     uint32_t ctl = 0U;
 827              		.loc 1 454 5
 455:../../firmware/GD32VF103_standard_peripheral/Source/gd32vf103_i2c.c **** 
 456:../../firmware/GD32VF103_standard_peripheral/Source/gd32vf103_i2c.c ****     ctl = I2C_CTL0(i2c_periph);
 828              		.loc 1 456 5
 829              		.loc 1 456 9 is_stmt 0
 830 0000 1C41     		lw	a5,0(a0)
 831              	.LVL83:
 457:../../firmware/GD32VF103_standard_peripheral/Source/gd32vf103_i2c.c ****     ctl &= ~(I2C_CTL0_SRESET);
 832              		.loc 1 457 5 is_stmt 1
 833              		.loc 1 457 9 is_stmt 0
 834 0002 6177     		li	a4,-32768
 835 0004 7D17     		addi	a4,a4,-1
 836 0006 F98F     		and	a5,a5,a4
 837              	.LVL84:
 458:../../firmware/GD32VF103_standard_peripheral/Source/gd32vf103_i2c.c ****     ctl |= sreset;
 838              		.loc 1 458 5 is_stmt 1
 839              		.loc 1 458 9 is_stmt 0
 840 0008 DD8D     		or	a1,a5,a1
 841              	.LVL85:
 459:../../firmware/GD32VF103_standard_peripheral/Source/gd32vf103_i2c.c ****     I2C_CTL0(i2c_periph) = ctl;
 842              		.loc 1 459 5 is_stmt 1
 843              		.loc 1 459 26 is_stmt 0
 844 000a 0CC1     		sw	a1,0(a0)
 460:../../firmware/GD32VF103_standard_peripheral/Source/gd32vf103_i2c.c **** }
 845              		.loc 1 460 1
 846 000c 8280     		ret
 847              		.cfi_endproc
 848              	.LFE21:
 850              		.section	.text.i2c_pec_enable,"ax",@progbits
 851              		.align	1
 852              		.globl	i2c_pec_enable
 854              	i2c_pec_enable:
 855              	.LFB22:
 461:../../firmware/GD32VF103_standard_peripheral/Source/gd32vf103_i2c.c **** 
 462:../../firmware/GD32VF103_standard_peripheral/Source/gd32vf103_i2c.c **** /*!
 463:../../firmware/GD32VF103_standard_peripheral/Source/gd32vf103_i2c.c ****     \brief      I2C PEC calculation on or off
 464:../../firmware/GD32VF103_standard_peripheral/Source/gd32vf103_i2c.c ****     \param[in]  i2c_periph: I2Cx(x=0,1)
GAS LISTING /var/folders/yy/83vjwp7d53j56dbzj8_jnpcr0000gn/T//ccRI64Di.s 			page 25


 465:../../firmware/GD32VF103_standard_peripheral/Source/gd32vf103_i2c.c ****     \param[in]  pecpara:
 466:../../firmware/GD32VF103_standard_peripheral/Source/gd32vf103_i2c.c ****                 only one parameter can be selected which is shown as below:
 467:../../firmware/GD32VF103_standard_peripheral/Source/gd32vf103_i2c.c ****     \arg        I2C_PEC_ENABLE: PEC calculation on 
 468:../../firmware/GD32VF103_standard_peripheral/Source/gd32vf103_i2c.c ****     \arg        I2C_PEC_DISABLE: PEC calculation off 
 469:../../firmware/GD32VF103_standard_peripheral/Source/gd32vf103_i2c.c ****     \param[out] none
 470:../../firmware/GD32VF103_standard_peripheral/Source/gd32vf103_i2c.c ****     \retval     none
 471:../../firmware/GD32VF103_standard_peripheral/Source/gd32vf103_i2c.c ****  */
 472:../../firmware/GD32VF103_standard_peripheral/Source/gd32vf103_i2c.c **** void i2c_pec_enable(uint32_t i2c_periph, uint32_t pecstate) 
 473:../../firmware/GD32VF103_standard_peripheral/Source/gd32vf103_i2c.c **** {
 856              		.loc 1 473 1 is_stmt 1
 857              		.cfi_startproc
 858              	.LVL86:
 474:../../firmware/GD32VF103_standard_peripheral/Source/gd32vf103_i2c.c ****     /* on/off PEC calculation */
 475:../../firmware/GD32VF103_standard_peripheral/Source/gd32vf103_i2c.c ****     uint32_t ctl = 0U;
 859              		.loc 1 475 5
 476:../../firmware/GD32VF103_standard_peripheral/Source/gd32vf103_i2c.c **** 
 477:../../firmware/GD32VF103_standard_peripheral/Source/gd32vf103_i2c.c ****     ctl = I2C_CTL0(i2c_periph);
 860              		.loc 1 477 5
 861              		.loc 1 477 9 is_stmt 0
 862 0000 1C41     		lw	a5,0(a0)
 863              	.LVL87:
 478:../../firmware/GD32VF103_standard_peripheral/Source/gd32vf103_i2c.c ****     ctl &= ~(I2C_CTL0_PECEN);
 864              		.loc 1 478 5 is_stmt 1
 865              		.loc 1 478 9 is_stmt 0
 866 0002 93F7F7FD 		andi	a5,a5,-33
 867              	.LVL88:
 479:../../firmware/GD32VF103_standard_peripheral/Source/gd32vf103_i2c.c ****     ctl |= pecstate;
 868              		.loc 1 479 5 is_stmt 1
 869              		.loc 1 479 9 is_stmt 0
 870 0006 DD8D     		or	a1,a5,a1
 871              	.LVL89:
 480:../../firmware/GD32VF103_standard_peripheral/Source/gd32vf103_i2c.c ****     I2C_CTL0(i2c_periph) = ctl;
 872              		.loc 1 480 5 is_stmt 1
 873              		.loc 1 480 26 is_stmt 0
 874 0008 0CC1     		sw	a1,0(a0)
 481:../../firmware/GD32VF103_standard_peripheral/Source/gd32vf103_i2c.c **** }
 875              		.loc 1 481 1
 876 000a 8280     		ret
 877              		.cfi_endproc
 878              	.LFE22:
 880              		.section	.text.i2c_pec_transfer_enable,"ax",@progbits
 881              		.align	1
 882              		.globl	i2c_pec_transfer_enable
 884              	i2c_pec_transfer_enable:
 885              	.LFB23:
 482:../../firmware/GD32VF103_standard_peripheral/Source/gd32vf103_i2c.c **** 
 483:../../firmware/GD32VF103_standard_peripheral/Source/gd32vf103_i2c.c **** /*!
 484:../../firmware/GD32VF103_standard_peripheral/Source/gd32vf103_i2c.c ****     \brief      I2C whether to transfer PEC value
 485:../../firmware/GD32VF103_standard_peripheral/Source/gd32vf103_i2c.c ****     \param[in]  i2c_periph: I2Cx(x=0,1)
 486:../../firmware/GD32VF103_standard_peripheral/Source/gd32vf103_i2c.c ****     \param[in]  pecpara:
 487:../../firmware/GD32VF103_standard_peripheral/Source/gd32vf103_i2c.c ****                 only one parameter can be selected which is shown as below:
 488:../../firmware/GD32VF103_standard_peripheral/Source/gd32vf103_i2c.c ****     \arg        I2C_PECTRANS_ENABLE: transfer PEC 
 489:../../firmware/GD32VF103_standard_peripheral/Source/gd32vf103_i2c.c ****     \arg        I2C_PECTRANS_DISABLE: not transfer PEC 
 490:../../firmware/GD32VF103_standard_peripheral/Source/gd32vf103_i2c.c ****     \param[out] none
 491:../../firmware/GD32VF103_standard_peripheral/Source/gd32vf103_i2c.c ****     \retval     none
 492:../../firmware/GD32VF103_standard_peripheral/Source/gd32vf103_i2c.c ****  */
 493:../../firmware/GD32VF103_standard_peripheral/Source/gd32vf103_i2c.c **** void i2c_pec_transfer_enable(uint32_t i2c_periph, uint32_t pecpara) 
GAS LISTING /var/folders/yy/83vjwp7d53j56dbzj8_jnpcr0000gn/T//ccRI64Di.s 			page 26


 494:../../firmware/GD32VF103_standard_peripheral/Source/gd32vf103_i2c.c **** {
 886              		.loc 1 494 1 is_stmt 1
 887              		.cfi_startproc
 888              	.LVL90:
 495:../../firmware/GD32VF103_standard_peripheral/Source/gd32vf103_i2c.c ****     /* whether to transfer PEC */
 496:../../firmware/GD32VF103_standard_peripheral/Source/gd32vf103_i2c.c ****     uint32_t ctl = 0U;
 889              		.loc 1 496 5
 497:../../firmware/GD32VF103_standard_peripheral/Source/gd32vf103_i2c.c **** 
 498:../../firmware/GD32VF103_standard_peripheral/Source/gd32vf103_i2c.c ****     ctl = I2C_CTL0(i2c_periph);
 890              		.loc 1 498 5
 891              		.loc 1 498 9 is_stmt 0
 892 0000 1C41     		lw	a5,0(a0)
 893              	.LVL91:
 499:../../firmware/GD32VF103_standard_peripheral/Source/gd32vf103_i2c.c ****     ctl &= ~(I2C_CTL0_PECTRANS);
 894              		.loc 1 499 5 is_stmt 1
 895              		.loc 1 499 9 is_stmt 0
 896 0002 7D77     		li	a4,-4096
 897 0004 7D17     		addi	a4,a4,-1
 898 0006 F98F     		and	a5,a5,a4
 899              	.LVL92:
 500:../../firmware/GD32VF103_standard_peripheral/Source/gd32vf103_i2c.c ****     ctl |= pecpara;
 900              		.loc 1 500 5 is_stmt 1
 901              		.loc 1 500 9 is_stmt 0
 902 0008 DD8D     		or	a1,a5,a1
 903              	.LVL93:
 501:../../firmware/GD32VF103_standard_peripheral/Source/gd32vf103_i2c.c ****     I2C_CTL0(i2c_periph) = ctl;
 904              		.loc 1 501 5 is_stmt 1
 905              		.loc 1 501 26 is_stmt 0
 906 000a 0CC1     		sw	a1,0(a0)
 502:../../firmware/GD32VF103_standard_peripheral/Source/gd32vf103_i2c.c **** }
 907              		.loc 1 502 1
 908 000c 8280     		ret
 909              		.cfi_endproc
 910              	.LFE23:
 912              		.section	.text.i2c_pec_value_get,"ax",@progbits
 913              		.align	1
 914              		.globl	i2c_pec_value_get
 916              	i2c_pec_value_get:
 917              	.LFB24:
 503:../../firmware/GD32VF103_standard_peripheral/Source/gd32vf103_i2c.c **** 
 504:../../firmware/GD32VF103_standard_peripheral/Source/gd32vf103_i2c.c **** /*!
 505:../../firmware/GD32VF103_standard_peripheral/Source/gd32vf103_i2c.c ****     \brief      get packet error checking value 
 506:../../firmware/GD32VF103_standard_peripheral/Source/gd32vf103_i2c.c ****     \param[in]  i2c_periph: I2Cx(x=0,1)
 507:../../firmware/GD32VF103_standard_peripheral/Source/gd32vf103_i2c.c ****     \param[out] none
 508:../../firmware/GD32VF103_standard_peripheral/Source/gd32vf103_i2c.c ****     \retval     PEC value
 509:../../firmware/GD32VF103_standard_peripheral/Source/gd32vf103_i2c.c ****  */
 510:../../firmware/GD32VF103_standard_peripheral/Source/gd32vf103_i2c.c **** uint8_t i2c_pec_value_get(uint32_t i2c_periph) 
 511:../../firmware/GD32VF103_standard_peripheral/Source/gd32vf103_i2c.c **** {
 918              		.loc 1 511 1 is_stmt 1
 919              		.cfi_startproc
 920              	.LVL94:
 512:../../firmware/GD32VF103_standard_peripheral/Source/gd32vf103_i2c.c ****     return (uint8_t) ((I2C_STAT1(i2c_periph) & I2C_STAT1_PECV)>> STAT1_PECV_OFFSET);
 921              		.loc 1 512 5
 922              		.loc 1 512 24 is_stmt 0
 923 0000 084D     		lw	a0,24(a0)
 924              	.LVL95:
 925              		.loc 1 512 63
GAS LISTING /var/folders/yy/83vjwp7d53j56dbzj8_jnpcr0000gn/T//ccRI64Di.s 			page 27


 926 0002 2181     		srli	a0,a0,8
 513:../../firmware/GD32VF103_standard_peripheral/Source/gd32vf103_i2c.c **** }
 927              		.loc 1 513 1
 928 0004 1375F50F 		andi	a0,a0,0xff
 929 0008 8280     		ret
 930              		.cfi_endproc
 931              	.LFE24:
 933              		.section	.text.i2c_smbus_issue_alert,"ax",@progbits
 934              		.align	1
 935              		.globl	i2c_smbus_issue_alert
 937              	i2c_smbus_issue_alert:
 938              	.LFB25:
 514:../../firmware/GD32VF103_standard_peripheral/Source/gd32vf103_i2c.c **** 
 515:../../firmware/GD32VF103_standard_peripheral/Source/gd32vf103_i2c.c **** /*!
 516:../../firmware/GD32VF103_standard_peripheral/Source/gd32vf103_i2c.c ****     \brief      I2C issue alert through SMBA pin 
 517:../../firmware/GD32VF103_standard_peripheral/Source/gd32vf103_i2c.c ****     \param[in]  i2c_periph: I2Cx(x=0,1)
 518:../../firmware/GD32VF103_standard_peripheral/Source/gd32vf103_i2c.c ****     \param[in]  smbuspara:
 519:../../firmware/GD32VF103_standard_peripheral/Source/gd32vf103_i2c.c ****                 only one parameter can be selected which is shown as below:
 520:../../firmware/GD32VF103_standard_peripheral/Source/gd32vf103_i2c.c ****     \arg        I2C_SALTSEND_ENABLE: issue alert through SMBA pin 
 521:../../firmware/GD32VF103_standard_peripheral/Source/gd32vf103_i2c.c ****     \arg        I2C_SALTSEND_DISABLE: not issue alert through SMBA pin 
 522:../../firmware/GD32VF103_standard_peripheral/Source/gd32vf103_i2c.c ****     \param[out] none
 523:../../firmware/GD32VF103_standard_peripheral/Source/gd32vf103_i2c.c ****     \retval     none
 524:../../firmware/GD32VF103_standard_peripheral/Source/gd32vf103_i2c.c ****  */
 525:../../firmware/GD32VF103_standard_peripheral/Source/gd32vf103_i2c.c **** void i2c_smbus_issue_alert(uint32_t i2c_periph, uint32_t smbuspara) 
 526:../../firmware/GD32VF103_standard_peripheral/Source/gd32vf103_i2c.c **** {
 939              		.loc 1 526 1 is_stmt 1
 940              		.cfi_startproc
 941              	.LVL96:
 527:../../firmware/GD32VF103_standard_peripheral/Source/gd32vf103_i2c.c ****     /* issue alert through SMBA pin configure*/
 528:../../firmware/GD32VF103_standard_peripheral/Source/gd32vf103_i2c.c ****     uint32_t ctl = 0U;
 942              		.loc 1 528 5
 529:../../firmware/GD32VF103_standard_peripheral/Source/gd32vf103_i2c.c **** 
 530:../../firmware/GD32VF103_standard_peripheral/Source/gd32vf103_i2c.c ****     ctl = I2C_CTL0(i2c_periph);
 943              		.loc 1 530 5
 944              		.loc 1 530 9 is_stmt 0
 945 0000 1C41     		lw	a5,0(a0)
 946              	.LVL97:
 531:../../firmware/GD32VF103_standard_peripheral/Source/gd32vf103_i2c.c ****     ctl &= ~(I2C_CTL0_SALT);
 947              		.loc 1 531 5 is_stmt 1
 948              		.loc 1 531 9 is_stmt 0
 949 0002 7977     		li	a4,-8192
 950 0004 7D17     		addi	a4,a4,-1
 951 0006 F98F     		and	a5,a5,a4
 952              	.LVL98:
 532:../../firmware/GD32VF103_standard_peripheral/Source/gd32vf103_i2c.c ****     ctl |= smbuspara;
 953              		.loc 1 532 5 is_stmt 1
 954              		.loc 1 532 9 is_stmt 0
 955 0008 DD8D     		or	a1,a5,a1
 956              	.LVL99:
 533:../../firmware/GD32VF103_standard_peripheral/Source/gd32vf103_i2c.c ****     I2C_CTL0(i2c_periph) = ctl;
 957              		.loc 1 533 5 is_stmt 1
 958              		.loc 1 533 26 is_stmt 0
 959 000a 0CC1     		sw	a1,0(a0)
 534:../../firmware/GD32VF103_standard_peripheral/Source/gd32vf103_i2c.c **** }
 960              		.loc 1 534 1
 961 000c 8280     		ret
 962              		.cfi_endproc
GAS LISTING /var/folders/yy/83vjwp7d53j56dbzj8_jnpcr0000gn/T//ccRI64Di.s 			page 28


 963              	.LFE25:
 965              		.section	.text.i2c_smbus_arp_enable,"ax",@progbits
 966              		.align	1
 967              		.globl	i2c_smbus_arp_enable
 969              	i2c_smbus_arp_enable:
 970              	.LFB26:
 535:../../firmware/GD32VF103_standard_peripheral/Source/gd32vf103_i2c.c **** 
 536:../../firmware/GD32VF103_standard_peripheral/Source/gd32vf103_i2c.c **** /*!
 537:../../firmware/GD32VF103_standard_peripheral/Source/gd32vf103_i2c.c ****     \brief      enable or disable I2C ARP protocol in SMBus switch
 538:../../firmware/GD32VF103_standard_peripheral/Source/gd32vf103_i2c.c ****     \param[in]  i2c_periph: I2Cx(x=0,1)
 539:../../firmware/GD32VF103_standard_peripheral/Source/gd32vf103_i2c.c ****     \param[in]  arpstate:
 540:../../firmware/GD32VF103_standard_peripheral/Source/gd32vf103_i2c.c ****                 only one parameter can be selected which is shown as below:
 541:../../firmware/GD32VF103_standard_peripheral/Source/gd32vf103_i2c.c ****     \arg        I2C_ARP_ENABLE: enable ARP
 542:../../firmware/GD32VF103_standard_peripheral/Source/gd32vf103_i2c.c ****     \arg        I2C_ARP_DISABLE: disable ARP
 543:../../firmware/GD32VF103_standard_peripheral/Source/gd32vf103_i2c.c ****     \param[out] none
 544:../../firmware/GD32VF103_standard_peripheral/Source/gd32vf103_i2c.c ****     \retval     none
 545:../../firmware/GD32VF103_standard_peripheral/Source/gd32vf103_i2c.c ****  */
 546:../../firmware/GD32VF103_standard_peripheral/Source/gd32vf103_i2c.c **** void i2c_smbus_arp_enable(uint32_t i2c_periph, uint32_t arpstate)
 547:../../firmware/GD32VF103_standard_peripheral/Source/gd32vf103_i2c.c **** {
 971              		.loc 1 547 1 is_stmt 1
 972              		.cfi_startproc
 973              	.LVL100:
 548:../../firmware/GD32VF103_standard_peripheral/Source/gd32vf103_i2c.c ****     /* enable or disable I2C ARP protocol*/
 549:../../firmware/GD32VF103_standard_peripheral/Source/gd32vf103_i2c.c ****     uint32_t ctl = 0U;
 974              		.loc 1 549 5
 550:../../firmware/GD32VF103_standard_peripheral/Source/gd32vf103_i2c.c **** 
 551:../../firmware/GD32VF103_standard_peripheral/Source/gd32vf103_i2c.c ****     ctl = I2C_CTL0(i2c_periph);
 975              		.loc 1 551 5
 976              		.loc 1 551 9 is_stmt 0
 977 0000 1C41     		lw	a5,0(a0)
 978              	.LVL101:
 552:../../firmware/GD32VF103_standard_peripheral/Source/gd32vf103_i2c.c ****     ctl &= ~(I2C_CTL0_ARPEN);
 979              		.loc 1 552 5 is_stmt 1
 980              		.loc 1 552 9 is_stmt 0
 981 0002 BD9B     		andi	a5,a5,-17
 982              	.LVL102:
 553:../../firmware/GD32VF103_standard_peripheral/Source/gd32vf103_i2c.c ****     ctl |= arpstate;
 983              		.loc 1 553 5 is_stmt 1
 984              		.loc 1 553 9 is_stmt 0
 985 0004 DD8D     		or	a1,a5,a1
 986              	.LVL103:
 554:../../firmware/GD32VF103_standard_peripheral/Source/gd32vf103_i2c.c ****     I2C_CTL0(i2c_periph) = ctl;
 987              		.loc 1 554 5 is_stmt 1
 988              		.loc 1 554 26 is_stmt 0
 989 0006 0CC1     		sw	a1,0(a0)
 555:../../firmware/GD32VF103_standard_peripheral/Source/gd32vf103_i2c.c **** }
 990              		.loc 1 555 1
 991 0008 8280     		ret
 992              		.cfi_endproc
 993              	.LFE26:
 995              		.section	.text.i2c_flag_get,"ax",@progbits
 996              		.align	1
 997              		.globl	i2c_flag_get
 999              	i2c_flag_get:
 1000              	.LFB27:
 556:../../firmware/GD32VF103_standard_peripheral/Source/gd32vf103_i2c.c **** 
 557:../../firmware/GD32VF103_standard_peripheral/Source/gd32vf103_i2c.c **** /*!
GAS LISTING /var/folders/yy/83vjwp7d53j56dbzj8_jnpcr0000gn/T//ccRI64Di.s 			page 29


 558:../../firmware/GD32VF103_standard_peripheral/Source/gd32vf103_i2c.c ****     \brief      check I2C flag is set or not
 559:../../firmware/GD32VF103_standard_peripheral/Source/gd32vf103_i2c.c ****     \param[in]  i2c_periph: I2Cx(x=0,1)
 560:../../firmware/GD32VF103_standard_peripheral/Source/gd32vf103_i2c.c ****     \param[in]  flag: I2C flags, refer to i2c_flag_enum
 561:../../firmware/GD32VF103_standard_peripheral/Source/gd32vf103_i2c.c ****                 only one parameter can be selected which is shown as below:
 562:../../firmware/GD32VF103_standard_peripheral/Source/gd32vf103_i2c.c ****     \arg        I2C_FLAG_SBSEND: start condition send out 
 563:../../firmware/GD32VF103_standard_peripheral/Source/gd32vf103_i2c.c ****     \arg        I2C_FLAG_ADDSEND: address is sent in master mode or received and matches in slave m
 564:../../firmware/GD32VF103_standard_peripheral/Source/gd32vf103_i2c.c ****     \arg        I2C_FLAG_BTC: byte transmission finishes
 565:../../firmware/GD32VF103_standard_peripheral/Source/gd32vf103_i2c.c ****     \arg        I2C_FLAG_ADD10SEND: header of 10-bit address is sent in master mode
 566:../../firmware/GD32VF103_standard_peripheral/Source/gd32vf103_i2c.c ****     \arg        I2C_FLAG_STPDET: stop condition detected in slave mode
 567:../../firmware/GD32VF103_standard_peripheral/Source/gd32vf103_i2c.c ****     \arg        I2C_FLAG_RBNE: I2C_DATA is not Empty during receiving
 568:../../firmware/GD32VF103_standard_peripheral/Source/gd32vf103_i2c.c ****     \arg        I2C_FLAG_TBE: I2C_DATA is empty during transmitting
 569:../../firmware/GD32VF103_standard_peripheral/Source/gd32vf103_i2c.c ****     \arg        I2C_FLAG_BERR: a bus error occurs indication a unexpected start or stop condition o
 570:../../firmware/GD32VF103_standard_peripheral/Source/gd32vf103_i2c.c ****     \arg        I2C_FLAG_LOSTARB: arbitration lost in master mode
 571:../../firmware/GD32VF103_standard_peripheral/Source/gd32vf103_i2c.c ****     \arg        I2C_FLAG_AERR: acknowledge error
 572:../../firmware/GD32VF103_standard_peripheral/Source/gd32vf103_i2c.c ****     \arg        I2C_FLAG_OUERR: overrun or underrun situation occurs in slave mode
 573:../../firmware/GD32VF103_standard_peripheral/Source/gd32vf103_i2c.c ****     \arg        I2C_FLAG_PECERR: PEC error when receiving data
 574:../../firmware/GD32VF103_standard_peripheral/Source/gd32vf103_i2c.c ****     \arg        I2C_FLAG_SMBTO: timeout signal in SMBus mode
 575:../../firmware/GD32VF103_standard_peripheral/Source/gd32vf103_i2c.c ****     \arg        I2C_FLAG_SMBALT: SMBus alert status
 576:../../firmware/GD32VF103_standard_peripheral/Source/gd32vf103_i2c.c ****     \arg        I2C_FLAG_MASTER: a flag indicating whether I2C block is in master or slave mode
 577:../../firmware/GD32VF103_standard_peripheral/Source/gd32vf103_i2c.c ****     \arg        I2C_FLAG_I2CBSY: busy flag
 578:../../firmware/GD32VF103_standard_peripheral/Source/gd32vf103_i2c.c ****     \arg        I2C_FLAG_TR: whether the I2C is a transmitter or a receiver
 579:../../firmware/GD32VF103_standard_peripheral/Source/gd32vf103_i2c.c ****     \arg        I2C_FLAG_RXGC: general call address (00h) received
 580:../../firmware/GD32VF103_standard_peripheral/Source/gd32vf103_i2c.c ****     \arg        I2C_FLAG_DEFSMB: default address of SMBus device
 581:../../firmware/GD32VF103_standard_peripheral/Source/gd32vf103_i2c.c ****     \arg        I2C_FLAG_HSTSMB: SMBus host header detected in slave mode
 582:../../firmware/GD32VF103_standard_peripheral/Source/gd32vf103_i2c.c ****     \arg        I2C_FLAG_DUMODF: dual flag in slave mode indicating which address is matched in dua
 583:../../firmware/GD32VF103_standard_peripheral/Source/gd32vf103_i2c.c ****     \param[out] none
 584:../../firmware/GD32VF103_standard_peripheral/Source/gd32vf103_i2c.c ****     \retval     FlagStatus: SET or RESET
 585:../../firmware/GD32VF103_standard_peripheral/Source/gd32vf103_i2c.c ****  */
 586:../../firmware/GD32VF103_standard_peripheral/Source/gd32vf103_i2c.c **** FlagStatus i2c_flag_get(uint32_t i2c_periph, i2c_flag_enum flag) 
 587:../../firmware/GD32VF103_standard_peripheral/Source/gd32vf103_i2c.c **** {
 1001              		.loc 1 587 1 is_stmt 1
 1002              		.cfi_startproc
 1003              	.LVL104:
 588:../../firmware/GD32VF103_standard_peripheral/Source/gd32vf103_i2c.c ****     if (RESET != (I2C_REG_VAL(i2c_periph, flag) & BIT(I2C_BIT_POS(flag)))) {
 1004              		.loc 1 588 5
 1005              		.loc 1 588 19 is_stmt 0
 1006 0000 93D76500 		srli	a5,a1,6
 1007 0004 93F7F73F 		andi	a5,a5,1023
 1008 0008 3E95     		add	a0,a5,a0
 1009              	.LVL105:
 1010 000a 0841     		lw	a0,0(a0)
 1011              		.loc 1 588 15
 1012 000c 3355B500 		srl	a0,a0,a1
 589:../../firmware/GD32VF103_standard_peripheral/Source/gd32vf103_i2c.c ****         return SET;
 590:../../firmware/GD32VF103_standard_peripheral/Source/gd32vf103_i2c.c ****     } else {
 591:../../firmware/GD32VF103_standard_peripheral/Source/gd32vf103_i2c.c ****         return RESET;
 592:../../firmware/GD32VF103_standard_peripheral/Source/gd32vf103_i2c.c ****     }
 593:../../firmware/GD32VF103_standard_peripheral/Source/gd32vf103_i2c.c **** }
 1013              		.loc 1 593 1
 1014 0010 0589     		andi	a0,a0,1
 1015 0012 8280     		ret
 1016              		.cfi_endproc
 1017              	.LFE27:
 1019              		.section	.text.i2c_flag_clear,"ax",@progbits
 1020              		.align	1
 1021              		.globl	i2c_flag_clear
 1023              	i2c_flag_clear:
GAS LISTING /var/folders/yy/83vjwp7d53j56dbzj8_jnpcr0000gn/T//ccRI64Di.s 			page 30


 1024              	.LFB28:
 594:../../firmware/GD32VF103_standard_peripheral/Source/gd32vf103_i2c.c **** 
 595:../../firmware/GD32VF103_standard_peripheral/Source/gd32vf103_i2c.c **** /*!
 596:../../firmware/GD32VF103_standard_peripheral/Source/gd32vf103_i2c.c ****     \brief      clear I2C flag
 597:../../firmware/GD32VF103_standard_peripheral/Source/gd32vf103_i2c.c ****     \param[in]  i2c_periph: I2Cx(x=0,1)
 598:../../firmware/GD32VF103_standard_peripheral/Source/gd32vf103_i2c.c ****     \param[in]  flag: I2C flags, refer to i2c_flag_enum
 599:../../firmware/GD32VF103_standard_peripheral/Source/gd32vf103_i2c.c ****                 only one parameter can be selected which is shown as below:
 600:../../firmware/GD32VF103_standard_peripheral/Source/gd32vf103_i2c.c ****     \arg        I2C_FLAG_SMBALT: SMBus Alert status
 601:../../firmware/GD32VF103_standard_peripheral/Source/gd32vf103_i2c.c ****     \arg        I2C_FLAG_SMBTO: timeout signal in SMBus mode
 602:../../firmware/GD32VF103_standard_peripheral/Source/gd32vf103_i2c.c ****     \arg        I2C_FLAG_PECERR: PEC error when receiving data
 603:../../firmware/GD32VF103_standard_peripheral/Source/gd32vf103_i2c.c ****     \arg        I2C_FLAG_OUERR: over-run or under-run situation occurs in slave mode    
 604:../../firmware/GD32VF103_standard_peripheral/Source/gd32vf103_i2c.c ****     \arg        I2C_FLAG_AERR: acknowledge error
 605:../../firmware/GD32VF103_standard_peripheral/Source/gd32vf103_i2c.c ****     \arg        I2C_FLAG_LOSTARB: arbitration lost in master mode   
 606:../../firmware/GD32VF103_standard_peripheral/Source/gd32vf103_i2c.c ****     \arg        I2C_FLAG_BERR: a bus error   
 607:../../firmware/GD32VF103_standard_peripheral/Source/gd32vf103_i2c.c ****     \arg        I2C_FLAG_ADDSEND: cleared by reading I2C_STAT0 and reading I2C_STAT1
 608:../../firmware/GD32VF103_standard_peripheral/Source/gd32vf103_i2c.c ****     \param[out] none
 609:../../firmware/GD32VF103_standard_peripheral/Source/gd32vf103_i2c.c ****     \retval     none
 610:../../firmware/GD32VF103_standard_peripheral/Source/gd32vf103_i2c.c ****  */
 611:../../firmware/GD32VF103_standard_peripheral/Source/gd32vf103_i2c.c **** void i2c_flag_clear(uint32_t i2c_periph, i2c_flag_enum flag) 
 612:../../firmware/GD32VF103_standard_peripheral/Source/gd32vf103_i2c.c **** {
 1025              		.loc 1 612 1 is_stmt 1
 1026              		.cfi_startproc
 1027              	.LVL106:
 613:../../firmware/GD32VF103_standard_peripheral/Source/gd32vf103_i2c.c ****     if (I2C_FLAG_ADDSEND == flag) {
 1028              		.loc 1 613 5
 1029              		.loc 1 613 8 is_stmt 0
 1030 0000 93071050 		li	a5,1281
 1031 0004 6395F500 		bne	a1,a5,.L64
 614:../../firmware/GD32VF103_standard_peripheral/Source/gd32vf103_i2c.c ****         /* read I2C_STAT0 and then read I2C_STAT1 to clear ADDSEND */
 615:../../firmware/GD32VF103_standard_peripheral/Source/gd32vf103_i2c.c ****         I2C_STAT0(i2c_periph);
 1032              		.loc 1 615 9 is_stmt 1
 1033 0008 5C49     		lw	a5,20(a0)
 616:../../firmware/GD32VF103_standard_peripheral/Source/gd32vf103_i2c.c ****         I2C_STAT1(i2c_periph);
 1034              		.loc 1 616 9
 1035 000a 1C4D     		lw	a5,24(a0)
 1036 000c 8280     		ret
 1037              	.L64:
 617:../../firmware/GD32VF103_standard_peripheral/Source/gd32vf103_i2c.c ****     } else {
 618:../../firmware/GD32VF103_standard_peripheral/Source/gd32vf103_i2c.c ****         I2C_REG_VAL(i2c_periph, flag) &= ~BIT(I2C_BIT_POS(flag));
 1038              		.loc 1 618 9
 1039              		.loc 1 618 39 is_stmt 0
 1040 000e 13D76500 		srli	a4,a1,6
 1041 0012 1377F73F 		andi	a4,a4,1023
 1042 0016 3A95     		add	a0,a4,a0
 1043              	.LVL107:
 1044 0018 1841     		lw	a4,0(a0)
 1045              		.loc 1 618 43
 1046 001a 8547     		li	a5,1
 1047 001c B397B700 		sll	a5,a5,a1
 1048              		.loc 1 618 42
 1049 0020 93C7F7FF 		not	a5,a5
 1050              		.loc 1 618 39
 1051 0024 F98F     		and	a5,a5,a4
 1052 0026 1CC1     		sw	a5,0(a0)
 619:../../firmware/GD32VF103_standard_peripheral/Source/gd32vf103_i2c.c ****     }
 620:../../firmware/GD32VF103_standard_peripheral/Source/gd32vf103_i2c.c **** }
 1053              		.loc 1 620 1
GAS LISTING /var/folders/yy/83vjwp7d53j56dbzj8_jnpcr0000gn/T//ccRI64Di.s 			page 31


 1054 0028 8280     		ret
 1055              		.cfi_endproc
 1056              	.LFE28:
 1058              		.section	.text.i2c_interrupt_enable,"ax",@progbits
 1059              		.align	1
 1060              		.globl	i2c_interrupt_enable
 1062              	i2c_interrupt_enable:
 1063              	.LFB29:
 621:../../firmware/GD32VF103_standard_peripheral/Source/gd32vf103_i2c.c **** 
 622:../../firmware/GD32VF103_standard_peripheral/Source/gd32vf103_i2c.c **** /*!
 623:../../firmware/GD32VF103_standard_peripheral/Source/gd32vf103_i2c.c ****     \brief      enable I2C interrupt
 624:../../firmware/GD32VF103_standard_peripheral/Source/gd32vf103_i2c.c ****     \param[in]  i2c_periph: I2Cx(x=0,1)
 625:../../firmware/GD32VF103_standard_peripheral/Source/gd32vf103_i2c.c ****     \param[in]  interrupt: I2C interrupts, refer to i2c_interrupt_enum
 626:../../firmware/GD32VF103_standard_peripheral/Source/gd32vf103_i2c.c ****                 only one parameter can be selected which is shown as below:
 627:../../firmware/GD32VF103_standard_peripheral/Source/gd32vf103_i2c.c ****     \arg        I2C_INT_ERR: error interrupt enable 
 628:../../firmware/GD32VF103_standard_peripheral/Source/gd32vf103_i2c.c ****     \arg        I2C_INT_EV: event interrupt enable 
 629:../../firmware/GD32VF103_standard_peripheral/Source/gd32vf103_i2c.c ****     \arg        I2C_INT_BUF: buffer interrupt enable
 630:../../firmware/GD32VF103_standard_peripheral/Source/gd32vf103_i2c.c ****     \param[out] none
 631:../../firmware/GD32VF103_standard_peripheral/Source/gd32vf103_i2c.c ****     \retval     none
 632:../../firmware/GD32VF103_standard_peripheral/Source/gd32vf103_i2c.c ****  */
 633:../../firmware/GD32VF103_standard_peripheral/Source/gd32vf103_i2c.c **** void i2c_interrupt_enable(uint32_t i2c_periph, i2c_interrupt_enum interrupt) 
 634:../../firmware/GD32VF103_standard_peripheral/Source/gd32vf103_i2c.c **** {
 1064              		.loc 1 634 1 is_stmt 1
 1065              		.cfi_startproc
 1066              	.LVL108:
 635:../../firmware/GD32VF103_standard_peripheral/Source/gd32vf103_i2c.c ****     I2C_REG_VAL(i2c_periph, interrupt) |= BIT(I2C_BIT_POS(interrupt));
 1067              		.loc 1 635 5
 1068              		.loc 1 635 40 is_stmt 0
 1069 0000 93D76500 		srli	a5,a1,6
 1070 0004 93F7F73F 		andi	a5,a5,1023
 1071 0008 3E95     		add	a0,a5,a0
 1072              	.LVL109:
 1073 000a 1841     		lw	a4,0(a0)
 1074              		.loc 1 635 43
 1075 000c 8547     		li	a5,1
 1076 000e B397B700 		sll	a5,a5,a1
 1077              		.loc 1 635 40
 1078 0012 D98F     		or	a5,a5,a4
 1079 0014 1CC1     		sw	a5,0(a0)
 636:../../firmware/GD32VF103_standard_peripheral/Source/gd32vf103_i2c.c **** }
 1080              		.loc 1 636 1
 1081 0016 8280     		ret
 1082              		.cfi_endproc
 1083              	.LFE29:
 1085              		.section	.text.i2c_interrupt_disable,"ax",@progbits
 1086              		.align	1
 1087              		.globl	i2c_interrupt_disable
 1089              	i2c_interrupt_disable:
 1090              	.LFB30:
 637:../../firmware/GD32VF103_standard_peripheral/Source/gd32vf103_i2c.c **** 
 638:../../firmware/GD32VF103_standard_peripheral/Source/gd32vf103_i2c.c **** /*!
 639:../../firmware/GD32VF103_standard_peripheral/Source/gd32vf103_i2c.c ****     \brief      disable I2C interrupt
 640:../../firmware/GD32VF103_standard_peripheral/Source/gd32vf103_i2c.c ****     \param[in]  i2c_periph: I2Cx(x=0,1)
 641:../../firmware/GD32VF103_standard_peripheral/Source/gd32vf103_i2c.c ****     \param[in]  interrupt: I2C interrupts, refer to i2c_flag_enum
 642:../../firmware/GD32VF103_standard_peripheral/Source/gd32vf103_i2c.c ****                 only one parameter can be selected which is shown as below:
 643:../../firmware/GD32VF103_standard_peripheral/Source/gd32vf103_i2c.c ****     \arg        I2C_INT_ERR: error interrupt enable 
 644:../../firmware/GD32VF103_standard_peripheral/Source/gd32vf103_i2c.c ****     \arg        I2C_INT_EV: event interrupt enable 
GAS LISTING /var/folders/yy/83vjwp7d53j56dbzj8_jnpcr0000gn/T//ccRI64Di.s 			page 32


 645:../../firmware/GD32VF103_standard_peripheral/Source/gd32vf103_i2c.c ****     \arg        I2C_INT_BUF: buffer interrupt enable
 646:../../firmware/GD32VF103_standard_peripheral/Source/gd32vf103_i2c.c ****     \param[out] none
 647:../../firmware/GD32VF103_standard_peripheral/Source/gd32vf103_i2c.c ****     \retval     none
 648:../../firmware/GD32VF103_standard_peripheral/Source/gd32vf103_i2c.c ****  */
 649:../../firmware/GD32VF103_standard_peripheral/Source/gd32vf103_i2c.c **** void i2c_interrupt_disable(uint32_t i2c_periph, i2c_interrupt_enum interrupt) 
 650:../../firmware/GD32VF103_standard_peripheral/Source/gd32vf103_i2c.c **** {
 1091              		.loc 1 650 1 is_stmt 1
 1092              		.cfi_startproc
 1093              	.LVL110:
 651:../../firmware/GD32VF103_standard_peripheral/Source/gd32vf103_i2c.c ****     I2C_REG_VAL(i2c_periph, interrupt) &= ~BIT(I2C_BIT_POS(interrupt));
 1094              		.loc 1 651 5
 1095              		.loc 1 651 40 is_stmt 0
 1096 0000 13D76500 		srli	a4,a1,6
 1097 0004 1377F73F 		andi	a4,a4,1023
 1098 0008 3A95     		add	a0,a4,a0
 1099              	.LVL111:
 1100 000a 1841     		lw	a4,0(a0)
 1101              		.loc 1 651 44
 1102 000c 8547     		li	a5,1
 1103 000e B397B700 		sll	a5,a5,a1
 1104              		.loc 1 651 43
 1105 0012 93C7F7FF 		not	a5,a5
 1106              		.loc 1 651 40
 1107 0016 F98F     		and	a5,a5,a4
 1108 0018 1CC1     		sw	a5,0(a0)
 652:../../firmware/GD32VF103_standard_peripheral/Source/gd32vf103_i2c.c **** }
 1109              		.loc 1 652 1
 1110 001a 8280     		ret
 1111              		.cfi_endproc
 1112              	.LFE30:
 1114              		.section	.text.i2c_interrupt_flag_get,"ax",@progbits
 1115              		.align	1
 1116              		.globl	i2c_interrupt_flag_get
 1118              	i2c_interrupt_flag_get:
 1119              	.LFB31:
 653:../../firmware/GD32VF103_standard_peripheral/Source/gd32vf103_i2c.c **** 
 654:../../firmware/GD32VF103_standard_peripheral/Source/gd32vf103_i2c.c **** /*!
 655:../../firmware/GD32VF103_standard_peripheral/Source/gd32vf103_i2c.c ****     \brief      check I2C interrupt flag
 656:../../firmware/GD32VF103_standard_peripheral/Source/gd32vf103_i2c.c ****     \param[in]  i2c_periph: I2Cx(x=0,1)
 657:../../firmware/GD32VF103_standard_peripheral/Source/gd32vf103_i2c.c ****     \param[in]  int_flag: I2C interrupt flags, refer to i2c_interrupt_flag_enum
 658:../../firmware/GD32VF103_standard_peripheral/Source/gd32vf103_i2c.c ****                 only one parameter can be selected which is shown as below:
 659:../../firmware/GD32VF103_standard_peripheral/Source/gd32vf103_i2c.c ****     \arg        I2C_INT_FLAG_SBSEND: start condition sent out in master mode interrupt flag
 660:../../firmware/GD32VF103_standard_peripheral/Source/gd32vf103_i2c.c ****     \arg        I2C_INT_FLAG_ADDSEND: address is sent in master mode or received and matches in sla
 661:../../firmware/GD32VF103_standard_peripheral/Source/gd32vf103_i2c.c ****     \arg        I2C_INT_FLAG_BTC: byte transmission finishes
 662:../../firmware/GD32VF103_standard_peripheral/Source/gd32vf103_i2c.c ****     \arg        I2C_INT_FLAG_ADD10SEND: header of 10-bit address is sent in master mode interrupt f
 663:../../firmware/GD32VF103_standard_peripheral/Source/gd32vf103_i2c.c ****     \arg        I2C_INT_FLAG_STPDET: etop condition detected in slave mode interrupt flag
 664:../../firmware/GD32VF103_standard_peripheral/Source/gd32vf103_i2c.c ****     \arg        I2C_INT_FLAG_RBNE: I2C_DATA is not Empty during receiving interrupt flag
 665:../../firmware/GD32VF103_standard_peripheral/Source/gd32vf103_i2c.c ****     \arg        I2C_INT_FLAG_TBE: I2C_DATA is empty during transmitting interrupt flag
 666:../../firmware/GD32VF103_standard_peripheral/Source/gd32vf103_i2c.c ****     \arg        I2C_INT_FLAG_BERR: a bus error occurs indication a unexpected start or stop conditi
 667:../../firmware/GD32VF103_standard_peripheral/Source/gd32vf103_i2c.c ****     \arg        I2C_INT_FLAG_LOSTARB: arbitration lost in master mode interrupt flag
 668:../../firmware/GD32VF103_standard_peripheral/Source/gd32vf103_i2c.c ****     \arg        I2C_INT_FLAG_AERR: acknowledge error interrupt flag
 669:../../firmware/GD32VF103_standard_peripheral/Source/gd32vf103_i2c.c ****     \arg        I2C_INT_FLAG_OUERR: over-run or under-run situation occurs in slave mode interrupt 
 670:../../firmware/GD32VF103_standard_peripheral/Source/gd32vf103_i2c.c ****     \arg        I2C_INT_FLAG_PECERR: PEC error when receiving data interrupt flag
 671:../../firmware/GD32VF103_standard_peripheral/Source/gd32vf103_i2c.c ****     \arg        I2C_INT_FLAG_SMBTO: timeout signal in SMBus mode interrupt flag
 672:../../firmware/GD32VF103_standard_peripheral/Source/gd32vf103_i2c.c ****     \arg        I2C_INT_FLAG_SMBALT: SMBus Alert status interrupt flag
 673:../../firmware/GD32VF103_standard_peripheral/Source/gd32vf103_i2c.c ****     \param[out] none
 674:../../firmware/GD32VF103_standard_peripheral/Source/gd32vf103_i2c.c ****     \retval     FlagStatus: SET or RESET
GAS LISTING /var/folders/yy/83vjwp7d53j56dbzj8_jnpcr0000gn/T//ccRI64Di.s 			page 33


 675:../../firmware/GD32VF103_standard_peripheral/Source/gd32vf103_i2c.c ****  */
 676:../../firmware/GD32VF103_standard_peripheral/Source/gd32vf103_i2c.c **** FlagStatus i2c_interrupt_flag_get(uint32_t i2c_periph,i2c_interrupt_flag_enum int_flag) 
 677:../../firmware/GD32VF103_standard_peripheral/Source/gd32vf103_i2c.c **** {
 1120              		.loc 1 677 1 is_stmt 1
 1121              		.cfi_startproc
 1122              	.LVL112:
 678:../../firmware/GD32VF103_standard_peripheral/Source/gd32vf103_i2c.c ****     uint32_t intenable = 0U, flagstatus = 0U, bufie;
 1123              		.loc 1 678 5
 679:../../firmware/GD32VF103_standard_peripheral/Source/gd32vf103_i2c.c **** 
 680:../../firmware/GD32VF103_standard_peripheral/Source/gd32vf103_i2c.c ****     /* check BUFIE */
 681:../../firmware/GD32VF103_standard_peripheral/Source/gd32vf103_i2c.c ****     bufie = I2C_CTL1(i2c_periph) & I2C_CTL1_BUFIE;
 1124              		.loc 1 681 5
 682:../../firmware/GD32VF103_standard_peripheral/Source/gd32vf103_i2c.c **** 
 683:../../firmware/GD32VF103_standard_peripheral/Source/gd32vf103_i2c.c ****     /* get the interrupt enable bit status */
 684:../../firmware/GD32VF103_standard_peripheral/Source/gd32vf103_i2c.c ****     intenable = (I2C_REG_VAL(i2c_periph, int_flag) & BIT(I2C_BIT_POS(int_flag)));
 1125              		.loc 1 684 18 is_stmt 0
 1126 0000 93D76500 		srli	a5,a1,6
 1127 0004 93F7F73F 		andi	a5,a5,1023
 1128 0008 AA97     		add	a5,a5,a0
 681:../../firmware/GD32VF103_standard_peripheral/Source/gd32vf103_i2c.c **** 
 1129              		.loc 1 681 13
 1130 000a 5041     		lw	a2,4(a0)
 1131              	.LVL113:
 1132              		.loc 1 684 5 is_stmt 1
 1133              		.loc 1 684 18 is_stmt 0
 1134 000c 9443     		lw	a3,0(a5)
 1135              		.loc 1 684 54
 1136 000e 0547     		li	a4,1
 1137 0010 B317B700 		sll	a5,a4,a1
 1138              		.loc 1 684 15
 1139 0014 F58F     		and	a5,a5,a3
 1140              	.LVL114:
 685:../../firmware/GD32VF103_standard_peripheral/Source/gd32vf103_i2c.c ****     /* get the corresponding flag bit status */
 686:../../firmware/GD32VF103_standard_peripheral/Source/gd32vf103_i2c.c ****     flagstatus = (I2C_REG_VAL2(i2c_periph, int_flag)& BIT(I2C_BIT_POS2(int_flag)));
 1141              		.loc 1 686 5 is_stmt 1
 1142              		.loc 1 686 19 is_stmt 0
 1143 0016 93D66501 		srli	a3,a1,22
 1144 001a AA96     		add	a3,a3,a0
 1145 001c 9442     		lw	a3,0(a3)
 1146              		.loc 1 686 55
 1147 001e 13D50501 		srli	a0,a1,16
 1148              	.LVL115:
 1149 0022 3317A700 		sll	a4,a4,a0
 1150              		.loc 1 686 16
 1151 0026 758F     		and	a4,a4,a3
 1152              	.LVL116:
 687:../../firmware/GD32VF103_standard_peripheral/Source/gd32vf103_i2c.c **** 
 688:../../firmware/GD32VF103_standard_peripheral/Source/gd32vf103_i2c.c ****     if ((I2C_INT_FLAG_RBNE == int_flag) || (I2C_INT_FLAG_TBE == int_flag)) {
 1153              		.loc 1 688 5 is_stmt 1
 1154              		.loc 1 688 8 is_stmt 0
 1155 0028 C176     		li	a3,-65536
 1156 002a FD16     		addi	a3,a3,-1
 1157 002c F58D     		and	a1,a1,a3
 1158              	.LVL117:
 1159 002e B7060605 		li	a3,84279296
 1160 0032 93869610 		addi	a3,a3,265
 1161 0036 6398D500 		bne	a1,a3,.L69
GAS LISTING /var/folders/yy/83vjwp7d53j56dbzj8_jnpcr0000gn/T//ccRI64Di.s 			page 34


 689:../../firmware/GD32VF103_standard_peripheral/Source/gd32vf103_i2c.c ****         if (intenable && bufie) {
 1162              		.loc 1 689 9 is_stmt 1
 1163              		.loc 1 689 12 is_stmt 0
 1164 003a 81C7     		beq	a5,zero,.L68
 681:../../firmware/GD32VF103_standard_peripheral/Source/gd32vf103_i2c.c **** 
 1165              		.loc 1 681 11 discriminator 1
 1166 003c 93770640 		andi	a5,a2,1024
 1167              	.LVL118:
 1168              		.loc 1 689 23 discriminator 1
 1169 0040 81EB     		bne	a5,zero,.L71
 1170              	.LVL119:
 1171              	.L68:
 690:../../firmware/GD32VF103_standard_peripheral/Source/gd32vf103_i2c.c ****             intenable = 1U;
 691:../../firmware/GD32VF103_standard_peripheral/Source/gd32vf103_i2c.c ****         } else {
 692:../../firmware/GD32VF103_standard_peripheral/Source/gd32vf103_i2c.c ****             intenable = 0U;
 693:../../firmware/GD32VF103_standard_peripheral/Source/gd32vf103_i2c.c ****         }
 694:../../firmware/GD32VF103_standard_peripheral/Source/gd32vf103_i2c.c ****     }
 695:../../firmware/GD32VF103_standard_peripheral/Source/gd32vf103_i2c.c ****     if ((0U != flagstatus) && (0U != intenable)) {
 696:../../firmware/GD32VF103_standard_peripheral/Source/gd32vf103_i2c.c ****         return SET;
 697:../../firmware/GD32VF103_standard_peripheral/Source/gd32vf103_i2c.c ****     } else {
 698:../../firmware/GD32VF103_standard_peripheral/Source/gd32vf103_i2c.c ****         return RESET;
 699:../../firmware/GD32VF103_standard_peripheral/Source/gd32vf103_i2c.c ****     }
 700:../../firmware/GD32VF103_standard_peripheral/Source/gd32vf103_i2c.c **** }
 1172              		.loc 1 700 1
 1173 0042 3E85     		mv	a0,a5
 1174 0044 8280     		ret
 1175              	.LVL120:
 1176              	.L69:
 695:../../firmware/GD32VF103_standard_peripheral/Source/gd32vf103_i2c.c ****         return SET;
 1177              		.loc 1 695 5 is_stmt 1
 695:../../firmware/GD32VF103_standard_peripheral/Source/gd32vf103_i2c.c ****         return SET;
 1178              		.loc 1 695 28 is_stmt 0
 1179 0046 B337F000 		snez	a5,a5
 1180              	.LVL121:
 695:../../firmware/GD32VF103_standard_peripheral/Source/gd32vf103_i2c.c ****         return SET;
 1181              		.loc 1 695 8
 1182 004a 65FF     		bne	a4,zero,.L68
 698:../../firmware/GD32VF103_standard_peripheral/Source/gd32vf103_i2c.c ****     }
 1183              		.loc 1 698 16
 1184 004c 8147     		li	a5,0
 1185 004e D5BF     		j	.L68
 1186              	.LVL122:
 1187              	.L71:
 695:../../firmware/GD32VF103_standard_peripheral/Source/gd32vf103_i2c.c ****         return SET;
 1188              		.loc 1 695 5 is_stmt 1
 695:../../firmware/GD32VF103_standard_peripheral/Source/gd32vf103_i2c.c ****         return SET;
 1189              		.loc 1 695 8 is_stmt 0
 1190 0050 B337E000 		snez	a5,a4
 1191              	.LVL123:
 1192 0054 FDB7     		j	.L68
 1193              		.cfi_endproc
 1194              	.LFE31:
 1196              		.section	.text.i2c_interrupt_flag_clear,"ax",@progbits
 1197              		.align	1
 1198              		.globl	i2c_interrupt_flag_clear
 1200              	i2c_interrupt_flag_clear:
 1201              	.LFB32:
GAS LISTING /var/folders/yy/83vjwp7d53j56dbzj8_jnpcr0000gn/T//ccRI64Di.s 			page 35


 701:../../firmware/GD32VF103_standard_peripheral/Source/gd32vf103_i2c.c **** 
 702:../../firmware/GD32VF103_standard_peripheral/Source/gd32vf103_i2c.c **** /*!
 703:../../firmware/GD32VF103_standard_peripheral/Source/gd32vf103_i2c.c ****     \brief      clear I2C interrupt flag
 704:../../firmware/GD32VF103_standard_peripheral/Source/gd32vf103_i2c.c ****     \param[in]  i2c_periph: I2Cx(x=0,1)
 705:../../firmware/GD32VF103_standard_peripheral/Source/gd32vf103_i2c.c ****     \param[in]  int_flag: I2C interrupt flags, refer to i2c_interrupt_flag_enum
 706:../../firmware/GD32VF103_standard_peripheral/Source/gd32vf103_i2c.c ****                 only one parameter can be selected which is shown as below:
 707:../../firmware/GD32VF103_standard_peripheral/Source/gd32vf103_i2c.c ****     \arg        I2C_INT_FLAG_ADDSEND: address is sent in master mode or received and matches in sla
 708:../../firmware/GD32VF103_standard_peripheral/Source/gd32vf103_i2c.c ****     \arg        I2C_INT_FLAG_BERR: a bus error occurs indication a unexpected start or stop conditi
 709:../../firmware/GD32VF103_standard_peripheral/Source/gd32vf103_i2c.c ****     \arg        I2C_INT_FLAG_LOSTARB: arbitration lost in master mode interrupt flag
 710:../../firmware/GD32VF103_standard_peripheral/Source/gd32vf103_i2c.c ****     \arg        I2C_INT_FLAG_AERR: acknowledge error interrupt flag
 711:../../firmware/GD32VF103_standard_peripheral/Source/gd32vf103_i2c.c ****     \arg        I2C_INT_FLAG_OUERR: over-run or under-run situation occurs in slave mode interrupt 
 712:../../firmware/GD32VF103_standard_peripheral/Source/gd32vf103_i2c.c ****     \arg        I2C_INT_FLAG_PECERR: PEC error when receiving data interrupt flag
 713:../../firmware/GD32VF103_standard_peripheral/Source/gd32vf103_i2c.c ****     \arg        I2C_INT_FLAG_SMBTO: timeout signal in SMBus mode interrupt flag
 714:../../firmware/GD32VF103_standard_peripheral/Source/gd32vf103_i2c.c ****     \arg        I2C_INT_FLAG_SMBALT: SMBus Alert status interrupt flag
 715:../../firmware/GD32VF103_standard_peripheral/Source/gd32vf103_i2c.c ****     \param[out] none
 716:../../firmware/GD32VF103_standard_peripheral/Source/gd32vf103_i2c.c ****     \retval     none
 717:../../firmware/GD32VF103_standard_peripheral/Source/gd32vf103_i2c.c ****  */
 718:../../firmware/GD32VF103_standard_peripheral/Source/gd32vf103_i2c.c **** void i2c_interrupt_flag_clear(uint32_t i2c_periph,i2c_interrupt_flag_enum int_flag) 
 719:../../firmware/GD32VF103_standard_peripheral/Source/gd32vf103_i2c.c **** {
 1202              		.loc 1 719 1 is_stmt 1
 1203              		.cfi_startproc
 1204              	.LVL124:
 720:../../firmware/GD32VF103_standard_peripheral/Source/gd32vf103_i2c.c ****     if (I2C_INT_FLAG_ADDSEND == int_flag) {
 1205              		.loc 1 720 5
 1206              		.loc 1 720 8 is_stmt 0
 1207 0000 B7070105 		li	a5,83951616
 1208 0004 93879710 		addi	a5,a5,265
 1209 0008 6395F500 		bne	a1,a5,.L77
 721:../../firmware/GD32VF103_standard_peripheral/Source/gd32vf103_i2c.c ****         /* read I2C_STAT0 and then read I2C_STAT1 to clear ADDSEND */
 722:../../firmware/GD32VF103_standard_peripheral/Source/gd32vf103_i2c.c ****         I2C_STAT0(i2c_periph);
 1210              		.loc 1 722 9 is_stmt 1
 1211 000c 5C49     		lw	a5,20(a0)
 723:../../firmware/GD32VF103_standard_peripheral/Source/gd32vf103_i2c.c ****         I2C_STAT1(i2c_periph);
 1212              		.loc 1 723 9
 1213 000e 1C4D     		lw	a5,24(a0)
 1214 0010 8280     		ret
 1215              	.L77:
 724:../../firmware/GD32VF103_standard_peripheral/Source/gd32vf103_i2c.c ****     } else {
 725:../../firmware/GD32VF103_standard_peripheral/Source/gd32vf103_i2c.c ****         I2C_REG_VAL2(i2c_periph, int_flag) &= ~BIT(I2C_BIT_POS2(int_flag));
 1216              		.loc 1 725 9
 1217              		.loc 1 725 44 is_stmt 0
 1218 0012 93D76501 		srli	a5,a1,22
 1219 0016 3E95     		add	a0,a5,a0
 1220              	.LVL125:
 1221 0018 1841     		lw	a4,0(a0)
 1222              		.loc 1 725 48
 1223 001a C181     		srli	a1,a1,16
 1224              	.LVL126:
 1225 001c 8547     		li	a5,1
 1226 001e B397B700 		sll	a5,a5,a1
 1227              		.loc 1 725 47
 1228 0022 93C7F7FF 		not	a5,a5
 1229              		.loc 1 725 44
 1230 0026 F98F     		and	a5,a5,a4
 1231 0028 1CC1     		sw	a5,0(a0)
 726:../../firmware/GD32VF103_standard_peripheral/Source/gd32vf103_i2c.c ****     }
 727:../../firmware/GD32VF103_standard_peripheral/Source/gd32vf103_i2c.c **** }
GAS LISTING /var/folders/yy/83vjwp7d53j56dbzj8_jnpcr0000gn/T//ccRI64Di.s 			page 36


 1232              		.loc 1 727 1
 1233 002a 8280     		ret
 1234              		.cfi_endproc
 1235              	.LFE32:
 1237              		.text
 1238              	.Letext0:
 1239              		.file 2 "/Users/gulda/Documents/risc-v/toolchain-gd32v-v200-osx/compiler/riscv64-unknown-elf/inclu
 1240              		.file 3 "/Users/gulda/Documents/risc-v/toolchain-gd32v-v200-osx/compiler/riscv64-unknown-elf/inclu
 1241              		.file 4 "../../firmware/GD32VF103_standard_peripheral/gd32vf103.h"
 1242              		.file 5 "../../firmware/GD32VF103_standard_peripheral/Include/gd32vf103_rcu.h"
 1243              		.file 6 "../../firmware/GD32VF103_standard_peripheral/Include/gd32vf103_i2c.h"
 1244              		.file 7 "../../firmware/GD32VF103_standard_peripheral/system_gd32vf103.h"
GAS LISTING /var/folders/yy/83vjwp7d53j56dbzj8_jnpcr0000gn/T//ccRI64Di.s 			page 37


DEFINED SYMBOLS
                            *ABS*:0000000000000000 gd32vf103_i2c.c
/var/folders/yy/83vjwp7d53j56dbzj8_jnpcr0000gn/T//ccRI64Di.s:13     .text.i2c_deinit:0000000000000000 i2c_deinit
/var/folders/yy/83vjwp7d53j56dbzj8_jnpcr0000gn/T//ccRI64Di.s:17     .text.i2c_deinit:0000000000000000 .L0 
/var/folders/yy/83vjwp7d53j56dbzj8_jnpcr0000gn/T//ccRI64Di.s:19     .text.i2c_deinit:0000000000000000 .L0 
/var/folders/yy/83vjwp7d53j56dbzj8_jnpcr0000gn/T//ccRI64Di.s:20     .text.i2c_deinit:0000000000000000 .L0 
/var/folders/yy/83vjwp7d53j56dbzj8_jnpcr0000gn/T//ccRI64Di.s:21     .text.i2c_deinit:0000000000000000 .L0 
/var/folders/yy/83vjwp7d53j56dbzj8_jnpcr0000gn/T//ccRI64Di.s:23     .text.i2c_deinit:0000000000000002 .L0 
/var/folders/yy/83vjwp7d53j56dbzj8_jnpcr0000gn/T//ccRI64Di.s:25     .text.i2c_deinit:0000000000000002 .L0 
/var/folders/yy/83vjwp7d53j56dbzj8_jnpcr0000gn/T//ccRI64Di.s:27     .text.i2c_deinit:0000000000000006 .L0 
/var/folders/yy/83vjwp7d53j56dbzj8_jnpcr0000gn/T//ccRI64Di.s:28     .text.i2c_deinit:0000000000000008 .L0 
/var/folders/yy/83vjwp7d53j56dbzj8_jnpcr0000gn/T//ccRI64Di.s:30     .text.i2c_deinit:0000000000000008 .L0 
/var/folders/yy/83vjwp7d53j56dbzj8_jnpcr0000gn/T//ccRI64Di.s:36     .text.i2c_deinit:000000000000001c .L0 
/var/folders/yy/83vjwp7d53j56dbzj8_jnpcr0000gn/T//ccRI64Di.s:37     .text.i2c_deinit:000000000000001e .L0 
/var/folders/yy/83vjwp7d53j56dbzj8_jnpcr0000gn/T//ccRI64Di.s:38     .text.i2c_deinit:000000000000001e .L0 
/var/folders/yy/83vjwp7d53j56dbzj8_jnpcr0000gn/T//ccRI64Di.s:41     .text.i2c_deinit:0000000000000020 .L0 
/var/folders/yy/83vjwp7d53j56dbzj8_jnpcr0000gn/T//ccRI64Di.s:45     .text.i2c_deinit:0000000000000022 .L0 
/var/folders/yy/83vjwp7d53j56dbzj8_jnpcr0000gn/T//ccRI64Di.s:47     .text.i2c_deinit:0000000000000022 .L0 
/var/folders/yy/83vjwp7d53j56dbzj8_jnpcr0000gn/T//ccRI64Di.s:52     .text.i2c_deinit:000000000000002e .L0 
/var/folders/yy/83vjwp7d53j56dbzj8_jnpcr0000gn/T//ccRI64Di.s:55     .text.i2c_deinit:0000000000000032 .L0 
/var/folders/yy/83vjwp7d53j56dbzj8_jnpcr0000gn/T//ccRI64Di.s:56     .text.i2c_deinit:0000000000000034 .L0 
/var/folders/yy/83vjwp7d53j56dbzj8_jnpcr0000gn/T//ccRI64Di.s:57     .text.i2c_deinit:0000000000000034 .L0 
/var/folders/yy/83vjwp7d53j56dbzj8_jnpcr0000gn/T//ccRI64Di.s:60     .text.i2c_deinit:0000000000000036 .L0 
/var/folders/yy/83vjwp7d53j56dbzj8_jnpcr0000gn/T//ccRI64Di.s:62     .text.i2c_deinit:0000000000000036 .L0 
/var/folders/yy/83vjwp7d53j56dbzj8_jnpcr0000gn/T//ccRI64Di.s:66     .text.i2c_deinit:000000000000003e .L0 
/var/folders/yy/83vjwp7d53j56dbzj8_jnpcr0000gn/T//ccRI64Di.s:68     .text.i2c_deinit:000000000000003e .L0 
/var/folders/yy/83vjwp7d53j56dbzj8_jnpcr0000gn/T//ccRI64Di.s:73     .text.i2c_deinit:000000000000004a .L0 
/var/folders/yy/83vjwp7d53j56dbzj8_jnpcr0000gn/T//ccRI64Di.s:75     .text.i2c_deinit:0000000000000050 .L0 
/var/folders/yy/83vjwp7d53j56dbzj8_jnpcr0000gn/T//ccRI64Di.s:82     .text.i2c_clock_config:0000000000000000 i2c_clock_config
/var/folders/yy/83vjwp7d53j56dbzj8_jnpcr0000gn/T//ccRI64Di.s:85     .text.i2c_clock_config:0000000000000000 .L0 
/var/folders/yy/83vjwp7d53j56dbzj8_jnpcr0000gn/T//ccRI64Di.s:87     .text.i2c_clock_config:0000000000000000 .L0 
/var/folders/yy/83vjwp7d53j56dbzj8_jnpcr0000gn/T//ccRI64Di.s:88     .text.i2c_clock_config:0000000000000000 .L0 
/var/folders/yy/83vjwp7d53j56dbzj8_jnpcr0000gn/T//ccRI64Di.s:89     .text.i2c_clock_config:0000000000000000 .L0 
/var/folders/yy/83vjwp7d53j56dbzj8_jnpcr0000gn/T//ccRI64Di.s:90     .text.i2c_clock_config:0000000000000000 .L0 
/var/folders/yy/83vjwp7d53j56dbzj8_jnpcr0000gn/T//ccRI64Di.s:91     .text.i2c_clock_config:0000000000000000 .L0 
/var/folders/yy/83vjwp7d53j56dbzj8_jnpcr0000gn/T//ccRI64Di.s:93     .text.i2c_clock_config:0000000000000002 .L0 
/var/folders/yy/83vjwp7d53j56dbzj8_jnpcr0000gn/T//ccRI64Di.s:95     .text.i2c_clock_config:0000000000000004 .L0 
/var/folders/yy/83vjwp7d53j56dbzj8_jnpcr0000gn/T//ccRI64Di.s:98     .text.i2c_clock_config:0000000000000006 .L0 
/var/folders/yy/83vjwp7d53j56dbzj8_jnpcr0000gn/T//ccRI64Di.s:101    .text.i2c_clock_config:0000000000000008 .L0 
/var/folders/yy/83vjwp7d53j56dbzj8_jnpcr0000gn/T//ccRI64Di.s:104    .text.i2c_clock_config:000000000000000e .L0 
/var/folders/yy/83vjwp7d53j56dbzj8_jnpcr0000gn/T//ccRI64Di.s:105    .text.i2c_clock_config:000000000000000e .L0 
/var/folders/yy/83vjwp7d53j56dbzj8_jnpcr0000gn/T//ccRI64Di.s:107    .text.i2c_clock_config:000000000000000e .L0 
/var/folders/yy/83vjwp7d53j56dbzj8_jnpcr0000gn/T//ccRI64Di.s:109    .text.i2c_clock_config:0000000000000010 .L0 
/var/folders/yy/83vjwp7d53j56dbzj8_jnpcr0000gn/T//ccRI64Di.s:112    .text.i2c_clock_config:0000000000000018 .L0 
/var/folders/yy/83vjwp7d53j56dbzj8_jnpcr0000gn/T//ccRI64Di.s:113    .text.i2c_clock_config:0000000000000018 .L0 
/var/folders/yy/83vjwp7d53j56dbzj8_jnpcr0000gn/T//ccRI64Di.s:115    .text.i2c_clock_config:000000000000001c .L0 
/var/folders/yy/83vjwp7d53j56dbzj8_jnpcr0000gn/T//ccRI64Di.s:117    .text.i2c_clock_config:0000000000000020 .L0 
/var/folders/yy/83vjwp7d53j56dbzj8_jnpcr0000gn/T//ccRI64Di.s:119    .text.i2c_clock_config:0000000000000024 .L0 
/var/folders/yy/83vjwp7d53j56dbzj8_jnpcr0000gn/T//ccRI64Di.s:121    .text.i2c_clock_config:0000000000000028 .L0 
/var/folders/yy/83vjwp7d53j56dbzj8_jnpcr0000gn/T//ccRI64Di.s:124    .text.i2c_clock_config:000000000000002c .L0 
/var/folders/yy/83vjwp7d53j56dbzj8_jnpcr0000gn/T//ccRI64Di.s:125    .text.i2c_clock_config:000000000000002c .L0 
/var/folders/yy/83vjwp7d53j56dbzj8_jnpcr0000gn/T//ccRI64Di.s:127    .text.i2c_clock_config:000000000000002e .L0 
/var/folders/yy/83vjwp7d53j56dbzj8_jnpcr0000gn/T//ccRI64Di.s:129    .text.i2c_clock_config:0000000000000032 .L0 
/var/folders/yy/83vjwp7d53j56dbzj8_jnpcr0000gn/T//ccRI64Di.s:134    .text.i2c_clock_config:0000000000000038 .L0 
/var/folders/yy/83vjwp7d53j56dbzj8_jnpcr0000gn/T//ccRI64Di.s:135    .text.i2c_clock_config:0000000000000038 .L0 
/var/folders/yy/83vjwp7d53j56dbzj8_jnpcr0000gn/T//ccRI64Di.s:138    .text.i2c_clock_config:000000000000003a .L0 
/var/folders/yy/83vjwp7d53j56dbzj8_jnpcr0000gn/T//ccRI64Di.s:139    .text.i2c_clock_config:000000000000003a .L0 
GAS LISTING /var/folders/yy/83vjwp7d53j56dbzj8_jnpcr0000gn/T//ccRI64Di.s 			page 38


/var/folders/yy/83vjwp7d53j56dbzj8_jnpcr0000gn/T//ccRI64Di.s:142    .text.i2c_clock_config:000000000000003e .L0 
/var/folders/yy/83vjwp7d53j56dbzj8_jnpcr0000gn/T//ccRI64Di.s:143    .text.i2c_clock_config:000000000000003e .L0 
/var/folders/yy/83vjwp7d53j56dbzj8_jnpcr0000gn/T//ccRI64Di.s:146    .text.i2c_clock_config:0000000000000040 .L0 
/var/folders/yy/83vjwp7d53j56dbzj8_jnpcr0000gn/T//ccRI64Di.s:147    .text.i2c_clock_config:0000000000000040 .L0 
/var/folders/yy/83vjwp7d53j56dbzj8_jnpcr0000gn/T//ccRI64Di.s:149    .text.i2c_clock_config:0000000000000042 .L0 
/var/folders/yy/83vjwp7d53j56dbzj8_jnpcr0000gn/T//ccRI64Di.s:150    .text.i2c_clock_config:0000000000000042 .L0 
/var/folders/yy/83vjwp7d53j56dbzj8_jnpcr0000gn/T//ccRI64Di.s:155    .text.i2c_clock_config:000000000000004c .L0 
/var/folders/yy/83vjwp7d53j56dbzj8_jnpcr0000gn/T//ccRI64Di.s:156    .text.i2c_clock_config:000000000000004c .L0 
/var/folders/yy/83vjwp7d53j56dbzj8_jnpcr0000gn/T//ccRI64Di.s:159    .text.i2c_clock_config:0000000000000050 .L0 
/var/folders/yy/83vjwp7d53j56dbzj8_jnpcr0000gn/T//ccRI64Di.s:160    .text.i2c_clock_config:0000000000000050 .L0 
/var/folders/yy/83vjwp7d53j56dbzj8_jnpcr0000gn/T//ccRI64Di.s:163    .text.i2c_clock_config:0000000000000058 .L0 
/var/folders/yy/83vjwp7d53j56dbzj8_jnpcr0000gn/T//ccRI64Di.s:164    .text.i2c_clock_config:0000000000000058 .L0 
/var/folders/yy/83vjwp7d53j56dbzj8_jnpcr0000gn/T//ccRI64Di.s:168    .text.i2c_clock_config:000000000000005c .L0 
/var/folders/yy/83vjwp7d53j56dbzj8_jnpcr0000gn/T//ccRI64Di.s:169    .text.i2c_clock_config:000000000000005c .L0 
/var/folders/yy/83vjwp7d53j56dbzj8_jnpcr0000gn/T//ccRI64Di.s:175    .text.i2c_clock_config:0000000000000060 .L0 
/var/folders/yy/83vjwp7d53j56dbzj8_jnpcr0000gn/T//ccRI64Di.s:176    .text.i2c_clock_config:0000000000000060 .L0 
/var/folders/yy/83vjwp7d53j56dbzj8_jnpcr0000gn/T//ccRI64Di.s:179    .text.i2c_clock_config:0000000000000066 .L0 
/var/folders/yy/83vjwp7d53j56dbzj8_jnpcr0000gn/T//ccRI64Di.s:180    .text.i2c_clock_config:0000000000000066 .L0 
/var/folders/yy/83vjwp7d53j56dbzj8_jnpcr0000gn/T//ccRI64Di.s:184    .text.i2c_clock_config:0000000000000068 .L0 
/var/folders/yy/83vjwp7d53j56dbzj8_jnpcr0000gn/T//ccRI64Di.s:185    .text.i2c_clock_config:0000000000000068 .L0 
/var/folders/yy/83vjwp7d53j56dbzj8_jnpcr0000gn/T//ccRI64Di.s:188    .text.i2c_clock_config:000000000000006a .L0 
/var/folders/yy/83vjwp7d53j56dbzj8_jnpcr0000gn/T//ccRI64Di.s:189    .text.i2c_clock_config:000000000000006a .L0 
/var/folders/yy/83vjwp7d53j56dbzj8_jnpcr0000gn/T//ccRI64Di.s:190    .text.i2c_clock_config:000000000000006a .L0 
/var/folders/yy/83vjwp7d53j56dbzj8_jnpcr0000gn/T//ccRI64Di.s:193    .text.i2c_clock_config:000000000000006e .L0 
/var/folders/yy/83vjwp7d53j56dbzj8_jnpcr0000gn/T//ccRI64Di.s:195    .text.i2c_clock_config:0000000000000070 .L0 
/var/folders/yy/83vjwp7d53j56dbzj8_jnpcr0000gn/T//ccRI64Di.s:203    .text.i2c_clock_config:000000000000007c .L0 
/var/folders/yy/83vjwp7d53j56dbzj8_jnpcr0000gn/T//ccRI64Di.s:206    .text.i2c_clock_config:000000000000007e .L0 
/var/folders/yy/83vjwp7d53j56dbzj8_jnpcr0000gn/T//ccRI64Di.s:209    .text.i2c_clock_config:0000000000000080 .L0 
/var/folders/yy/83vjwp7d53j56dbzj8_jnpcr0000gn/T//ccRI64Di.s:210    .text.i2c_clock_config:0000000000000082 .L0 
/var/folders/yy/83vjwp7d53j56dbzj8_jnpcr0000gn/T//ccRI64Di.s:211    .text.i2c_clock_config:0000000000000082 .L0 
/var/folders/yy/83vjwp7d53j56dbzj8_jnpcr0000gn/T//ccRI64Di.s:213    .text.i2c_clock_config:0000000000000084 .L0 
/var/folders/yy/83vjwp7d53j56dbzj8_jnpcr0000gn/T//ccRI64Di.s:216    .text.i2c_clock_config:0000000000000086 .L0 
/var/folders/yy/83vjwp7d53j56dbzj8_jnpcr0000gn/T//ccRI64Di.s:219    .text.i2c_clock_config:0000000000000088 .L0 
/var/folders/yy/83vjwp7d53j56dbzj8_jnpcr0000gn/T//ccRI64Di.s:225    .text.i2c_clock_config:000000000000008a .L0 
/var/folders/yy/83vjwp7d53j56dbzj8_jnpcr0000gn/T//ccRI64Di.s:227    .text.i2c_clock_config:000000000000008a .L0 
/var/folders/yy/83vjwp7d53j56dbzj8_jnpcr0000gn/T//ccRI64Di.s:228    .text.i2c_clock_config:000000000000008a .L0 
/var/folders/yy/83vjwp7d53j56dbzj8_jnpcr0000gn/T//ccRI64Di.s:232    .text.i2c_clock_config:0000000000000096 .L0 
/var/folders/yy/83vjwp7d53j56dbzj8_jnpcr0000gn/T//ccRI64Di.s:233    .text.i2c_clock_config:0000000000000096 .L0 
/var/folders/yy/83vjwp7d53j56dbzj8_jnpcr0000gn/T//ccRI64Di.s:237    .text.i2c_clock_config:000000000000009e .L0 
/var/folders/yy/83vjwp7d53j56dbzj8_jnpcr0000gn/T//ccRI64Di.s:240    .text.i2c_clock_config:00000000000000a6 .L0 
/var/folders/yy/83vjwp7d53j56dbzj8_jnpcr0000gn/T//ccRI64Di.s:242    .text.i2c_clock_config:00000000000000a8 .L0 
/var/folders/yy/83vjwp7d53j56dbzj8_jnpcr0000gn/T//ccRI64Di.s:245    .text.i2c_clock_config:00000000000000aa .L0 
/var/folders/yy/83vjwp7d53j56dbzj8_jnpcr0000gn/T//ccRI64Di.s:246    .text.i2c_clock_config:00000000000000aa .L0 
/var/folders/yy/83vjwp7d53j56dbzj8_jnpcr0000gn/T//ccRI64Di.s:248    .text.i2c_clock_config:00000000000000ac .L0 
/var/folders/yy/83vjwp7d53j56dbzj8_jnpcr0000gn/T//ccRI64Di.s:249    .text.i2c_clock_config:00000000000000ac .L0 
/var/folders/yy/83vjwp7d53j56dbzj8_jnpcr0000gn/T//ccRI64Di.s:253    .text.i2c_clock_config:00000000000000b2 .L0 
/var/folders/yy/83vjwp7d53j56dbzj8_jnpcr0000gn/T//ccRI64Di.s:258    .text.i2c_clock_config:00000000000000ba .L0 
/var/folders/yy/83vjwp7d53j56dbzj8_jnpcr0000gn/T//ccRI64Di.s:262    .text.i2c_clock_config:00000000000000be .L0 
/var/folders/yy/83vjwp7d53j56dbzj8_jnpcr0000gn/T//ccRI64Di.s:263    .text.i2c_clock_config:00000000000000be .L0 
/var/folders/yy/83vjwp7d53j56dbzj8_jnpcr0000gn/T//ccRI64Di.s:265    .text.i2c_clock_config:00000000000000c0 .L0 
/var/folders/yy/83vjwp7d53j56dbzj8_jnpcr0000gn/T//ccRI64Di.s:266    .text.i2c_clock_config:00000000000000c0 .L0 
/var/folders/yy/83vjwp7d53j56dbzj8_jnpcr0000gn/T//ccRI64Di.s:269    .text.i2c_clock_config:00000000000000c6 .L0 
/var/folders/yy/83vjwp7d53j56dbzj8_jnpcr0000gn/T//ccRI64Di.s:270    .text.i2c_clock_config:00000000000000c6 .L0 
/var/folders/yy/83vjwp7d53j56dbzj8_jnpcr0000gn/T//ccRI64Di.s:274    .text.i2c_clock_config:00000000000000ca .L0 
/var/folders/yy/83vjwp7d53j56dbzj8_jnpcr0000gn/T//ccRI64Di.s:275    .text.i2c_clock_config:00000000000000ca .L0 
/var/folders/yy/83vjwp7d53j56dbzj8_jnpcr0000gn/T//ccRI64Di.s:280    .text.i2c_clock_config:00000000000000d2 .L0 
/var/folders/yy/83vjwp7d53j56dbzj8_jnpcr0000gn/T//ccRI64Di.s:281    .text.i2c_clock_config:00000000000000d2 .L0 
GAS LISTING /var/folders/yy/83vjwp7d53j56dbzj8_jnpcr0000gn/T//ccRI64Di.s 			page 39


/var/folders/yy/83vjwp7d53j56dbzj8_jnpcr0000gn/T//ccRI64Di.s:288    .text.i2c_clock_config:00000000000000d8 .L0 
/var/folders/yy/83vjwp7d53j56dbzj8_jnpcr0000gn/T//ccRI64Di.s:289    .text.i2c_clock_config:00000000000000d8 .L0 
/var/folders/yy/83vjwp7d53j56dbzj8_jnpcr0000gn/T//ccRI64Di.s:293    .text.i2c_clock_config:00000000000000de .L0 
/var/folders/yy/83vjwp7d53j56dbzj8_jnpcr0000gn/T//ccRI64Di.s:297    .text.i2c_clock_config:00000000000000e4 .L0 
/var/folders/yy/83vjwp7d53j56dbzj8_jnpcr0000gn/T//ccRI64Di.s:300    .text.i2c_clock_config:00000000000000e8 .L0 
/var/folders/yy/83vjwp7d53j56dbzj8_jnpcr0000gn/T//ccRI64Di.s:304    .text.i2c_clock_config:00000000000000ea .L0 
/var/folders/yy/83vjwp7d53j56dbzj8_jnpcr0000gn/T//ccRI64Di.s:305    .text.i2c_clock_config:00000000000000ea .L0 
/var/folders/yy/83vjwp7d53j56dbzj8_jnpcr0000gn/T//ccRI64Di.s:309    .text.i2c_clock_config:00000000000000f2 .L0 
/var/folders/yy/83vjwp7d53j56dbzj8_jnpcr0000gn/T//ccRI64Di.s:312    .text.i2c_clock_config:00000000000000fa .L0 
/var/folders/yy/83vjwp7d53j56dbzj8_jnpcr0000gn/T//ccRI64Di.s:314    .text.i2c_clock_config:00000000000000fc .L0 
/var/folders/yy/83vjwp7d53j56dbzj8_jnpcr0000gn/T//ccRI64Di.s:317    .text.i2c_clock_config:00000000000000fe .L0 
/var/folders/yy/83vjwp7d53j56dbzj8_jnpcr0000gn/T//ccRI64Di.s:318    .text.i2c_clock_config:00000000000000fe .L0 
/var/folders/yy/83vjwp7d53j56dbzj8_jnpcr0000gn/T//ccRI64Di.s:320    .text.i2c_clock_config:0000000000000100 .L0 
/var/folders/yy/83vjwp7d53j56dbzj8_jnpcr0000gn/T//ccRI64Di.s:321    .text.i2c_clock_config:0000000000000100 .L0 
/var/folders/yy/83vjwp7d53j56dbzj8_jnpcr0000gn/T//ccRI64Di.s:325    .text.i2c_clock_config:0000000000000106 .L0 
/var/folders/yy/83vjwp7d53j56dbzj8_jnpcr0000gn/T//ccRI64Di.s:330    .text.i2c_clock_config:000000000000010e .L0 
/var/folders/yy/83vjwp7d53j56dbzj8_jnpcr0000gn/T//ccRI64Di.s:334    .text.i2c_clock_config:0000000000000112 .L0 
/var/folders/yy/83vjwp7d53j56dbzj8_jnpcr0000gn/T//ccRI64Di.s:335    .text.i2c_clock_config:0000000000000112 .L0 
/var/folders/yy/83vjwp7d53j56dbzj8_jnpcr0000gn/T//ccRI64Di.s:337    .text.i2c_clock_config:0000000000000114 .L0 
/var/folders/yy/83vjwp7d53j56dbzj8_jnpcr0000gn/T//ccRI64Di.s:338    .text.i2c_clock_config:0000000000000114 .L0 
/var/folders/yy/83vjwp7d53j56dbzj8_jnpcr0000gn/T//ccRI64Di.s:343    .text.i2c_clock_config:000000000000011c .L0 
/var/folders/yy/83vjwp7d53j56dbzj8_jnpcr0000gn/T//ccRI64Di.s:344    .text.i2c_clock_config:000000000000011c .L0 
/var/folders/yy/83vjwp7d53j56dbzj8_jnpcr0000gn/T//ccRI64Di.s:349    .text.i2c_clock_config:0000000000000122 .L0 
/var/folders/yy/83vjwp7d53j56dbzj8_jnpcr0000gn/T//ccRI64Di.s:350    .text.i2c_clock_config:0000000000000122 .L0 
/var/folders/yy/83vjwp7d53j56dbzj8_jnpcr0000gn/T//ccRI64Di.s:354    .text.i2c_clock_config:000000000000012e .L0 
/var/folders/yy/83vjwp7d53j56dbzj8_jnpcr0000gn/T//ccRI64Di.s:358    .text.i2c_clock_config:0000000000000130 .L0 
/var/folders/yy/83vjwp7d53j56dbzj8_jnpcr0000gn/T//ccRI64Di.s:359    .text.i2c_clock_config:0000000000000130 .L0 
/var/folders/yy/83vjwp7d53j56dbzj8_jnpcr0000gn/T//ccRI64Di.s:363    .text.i2c_clock_config:0000000000000136 .L0 
/var/folders/yy/83vjwp7d53j56dbzj8_jnpcr0000gn/T//ccRI64Di.s:367    .text.i2c_clock_config:000000000000013c .L0 
/var/folders/yy/83vjwp7d53j56dbzj8_jnpcr0000gn/T//ccRI64Di.s:370    .text.i2c_clock_config:0000000000000140 .L0 
/var/folders/yy/83vjwp7d53j56dbzj8_jnpcr0000gn/T//ccRI64Di.s:371    .text.i2c_clock_config:0000000000000142 .L0 
/var/folders/yy/83vjwp7d53j56dbzj8_jnpcr0000gn/T//ccRI64Di.s:378    .text.i2c_mode_addr_config:0000000000000000 i2c_mode_addr_config
/var/folders/yy/83vjwp7d53j56dbzj8_jnpcr0000gn/T//ccRI64Di.s:381    .text.i2c_mode_addr_config:0000000000000000 .L0 
/var/folders/yy/83vjwp7d53j56dbzj8_jnpcr0000gn/T//ccRI64Di.s:383    .text.i2c_mode_addr_config:0000000000000000 .L0 
/var/folders/yy/83vjwp7d53j56dbzj8_jnpcr0000gn/T//ccRI64Di.s:384    .text.i2c_mode_addr_config:0000000000000000 .L0 
/var/folders/yy/83vjwp7d53j56dbzj8_jnpcr0000gn/T//ccRI64Di.s:385    .text.i2c_mode_addr_config:0000000000000000 .L0 
/var/folders/yy/83vjwp7d53j56dbzj8_jnpcr0000gn/T//ccRI64Di.s:386    .text.i2c_mode_addr_config:0000000000000000 .L0 
/var/folders/yy/83vjwp7d53j56dbzj8_jnpcr0000gn/T//ccRI64Di.s:389    .text.i2c_mode_addr_config:0000000000000002 .L0 
/var/folders/yy/83vjwp7d53j56dbzj8_jnpcr0000gn/T//ccRI64Di.s:390    .text.i2c_mode_addr_config:0000000000000002 .L0 
/var/folders/yy/83vjwp7d53j56dbzj8_jnpcr0000gn/T//ccRI64Di.s:393    .text.i2c_mode_addr_config:0000000000000006 .L0 
/var/folders/yy/83vjwp7d53j56dbzj8_jnpcr0000gn/T//ccRI64Di.s:395    .text.i2c_mode_addr_config:0000000000000008 .L0 
/var/folders/yy/83vjwp7d53j56dbzj8_jnpcr0000gn/T//ccRI64Di.s:398    .text.i2c_mode_addr_config:000000000000000a .L0 
/var/folders/yy/83vjwp7d53j56dbzj8_jnpcr0000gn/T//ccRI64Di.s:399    .text.i2c_mode_addr_config:000000000000000a .L0 
/var/folders/yy/83vjwp7d53j56dbzj8_jnpcr0000gn/T//ccRI64Di.s:402    .text.i2c_mode_addr_config:000000000000000c .L0 
/var/folders/yy/83vjwp7d53j56dbzj8_jnpcr0000gn/T//ccRI64Di.s:403    .text.i2c_mode_addr_config:000000000000000c .L0 
/var/folders/yy/83vjwp7d53j56dbzj8_jnpcr0000gn/T//ccRI64Di.s:406    .text.i2c_mode_addr_config:000000000000000e .L0 
/var/folders/yy/83vjwp7d53j56dbzj8_jnpcr0000gn/T//ccRI64Di.s:407    .text.i2c_mode_addr_config:000000000000000e .L0 
/var/folders/yy/83vjwp7d53j56dbzj8_jnpcr0000gn/T//ccRI64Di.s:408    .text.i2c_mode_addr_config:000000000000000e .L0 
/var/folders/yy/83vjwp7d53j56dbzj8_jnpcr0000gn/T//ccRI64Di.s:410    .text.i2c_mode_addr_config:0000000000000010 .L0 
/var/folders/yy/83vjwp7d53j56dbzj8_jnpcr0000gn/T//ccRI64Di.s:411    .text.i2c_mode_addr_config:0000000000000012 .L0 
/var/folders/yy/83vjwp7d53j56dbzj8_jnpcr0000gn/T//ccRI64Di.s:418    .text.i2c_smbus_type_config:0000000000000000 i2c_smbus_type_config
/var/folders/yy/83vjwp7d53j56dbzj8_jnpcr0000gn/T//ccRI64Di.s:421    .text.i2c_smbus_type_config:0000000000000000 .L0 
/var/folders/yy/83vjwp7d53j56dbzj8_jnpcr0000gn/T//ccRI64Di.s:423    .text.i2c_smbus_type_config:0000000000000000 .L0 
/var/folders/yy/83vjwp7d53j56dbzj8_jnpcr0000gn/T//ccRI64Di.s:424    .text.i2c_smbus_type_config:0000000000000000 .L0 
/var/folders/yy/83vjwp7d53j56dbzj8_jnpcr0000gn/T//ccRI64Di.s:425    .text.i2c_smbus_type_config:0000000000000000 .L0 
/var/folders/yy/83vjwp7d53j56dbzj8_jnpcr0000gn/T//ccRI64Di.s:428    .text.i2c_smbus_type_config:0000000000000006 .L0 
/var/folders/yy/83vjwp7d53j56dbzj8_jnpcr0000gn/T//ccRI64Di.s:429    .text.i2c_smbus_type_config:0000000000000006 .L0 
GAS LISTING /var/folders/yy/83vjwp7d53j56dbzj8_jnpcr0000gn/T//ccRI64Di.s 			page 40


/var/folders/yy/83vjwp7d53j56dbzj8_jnpcr0000gn/T//ccRI64Di.s:433    .text.i2c_smbus_type_config:000000000000000c .L0 
/var/folders/yy/83vjwp7d53j56dbzj8_jnpcr0000gn/T//ccRI64Di.s:435    .text.i2c_smbus_type_config:000000000000000e .L0 
/var/folders/yy/83vjwp7d53j56dbzj8_jnpcr0000gn/T//ccRI64Di.s:438    .text.i2c_smbus_type_config:0000000000000010 .L0 
/var/folders/yy/83vjwp7d53j56dbzj8_jnpcr0000gn/T//ccRI64Di.s:439    .text.i2c_smbus_type_config:0000000000000010 .L0 
/var/folders/yy/83vjwp7d53j56dbzj8_jnpcr0000gn/T//ccRI64Di.s:442    .text.i2c_smbus_type_config:0000000000000016 .L0 
/var/folders/yy/83vjwp7d53j56dbzj8_jnpcr0000gn/T//ccRI64Di.s:449    .text.i2c_ack_config:0000000000000000 i2c_ack_config
/var/folders/yy/83vjwp7d53j56dbzj8_jnpcr0000gn/T//ccRI64Di.s:452    .text.i2c_ack_config:0000000000000000 .L0 
/var/folders/yy/83vjwp7d53j56dbzj8_jnpcr0000gn/T//ccRI64Di.s:454    .text.i2c_ack_config:0000000000000000 .L0 
/var/folders/yy/83vjwp7d53j56dbzj8_jnpcr0000gn/T//ccRI64Di.s:455    .text.i2c_ack_config:0000000000000000 .L0 
/var/folders/yy/83vjwp7d53j56dbzj8_jnpcr0000gn/T//ccRI64Di.s:456    .text.i2c_ack_config:0000000000000000 .L0 
/var/folders/yy/83vjwp7d53j56dbzj8_jnpcr0000gn/T//ccRI64Di.s:459    .text.i2c_ack_config:0000000000000006 .L0 
/var/folders/yy/83vjwp7d53j56dbzj8_jnpcr0000gn/T//ccRI64Di.s:460    .text.i2c_ack_config:0000000000000006 .L0 
/var/folders/yy/83vjwp7d53j56dbzj8_jnpcr0000gn/T//ccRI64Di.s:464    .text.i2c_ack_config:000000000000000c .L0 
/var/folders/yy/83vjwp7d53j56dbzj8_jnpcr0000gn/T//ccRI64Di.s:466    .text.i2c_ack_config:000000000000000e .L0 
/var/folders/yy/83vjwp7d53j56dbzj8_jnpcr0000gn/T//ccRI64Di.s:469    .text.i2c_ack_config:0000000000000010 .L0 
/var/folders/yy/83vjwp7d53j56dbzj8_jnpcr0000gn/T//ccRI64Di.s:470    .text.i2c_ack_config:0000000000000010 .L0 
/var/folders/yy/83vjwp7d53j56dbzj8_jnpcr0000gn/T//ccRI64Di.s:473    .text.i2c_ack_config:0000000000000018 .L0 
/var/folders/yy/83vjwp7d53j56dbzj8_jnpcr0000gn/T//ccRI64Di.s:480    .text.i2c_ackpos_config:0000000000000000 i2c_ackpos_config
/var/folders/yy/83vjwp7d53j56dbzj8_jnpcr0000gn/T//ccRI64Di.s:483    .text.i2c_ackpos_config:0000000000000000 .L0 
/var/folders/yy/83vjwp7d53j56dbzj8_jnpcr0000gn/T//ccRI64Di.s:485    .text.i2c_ackpos_config:0000000000000000 .L0 
/var/folders/yy/83vjwp7d53j56dbzj8_jnpcr0000gn/T//ccRI64Di.s:486    .text.i2c_ackpos_config:0000000000000000 .L0 
/var/folders/yy/83vjwp7d53j56dbzj8_jnpcr0000gn/T//ccRI64Di.s:487    .text.i2c_ackpos_config:0000000000000000 .L0 
/var/folders/yy/83vjwp7d53j56dbzj8_jnpcr0000gn/T//ccRI64Di.s:489    .text.i2c_ackpos_config:0000000000000002 .L0 
/var/folders/yy/83vjwp7d53j56dbzj8_jnpcr0000gn/T//ccRI64Di.s:491    .text.i2c_ackpos_config:0000000000000004 .L0 
/var/folders/yy/83vjwp7d53j56dbzj8_jnpcr0000gn/T//ccRI64Di.s:492    .text.i2c_ackpos_config:0000000000000004 .L0 
/var/folders/yy/83vjwp7d53j56dbzj8_jnpcr0000gn/T//ccRI64Di.s:497    .text.i2c_ackpos_config:000000000000000c .L0 
/var/folders/yy/83vjwp7d53j56dbzj8_jnpcr0000gn/T//ccRI64Di.s:499    .text.i2c_ackpos_config:000000000000000e .L0 
/var/folders/yy/83vjwp7d53j56dbzj8_jnpcr0000gn/T//ccRI64Di.s:502    .text.i2c_ackpos_config:0000000000000010 .L0 
/var/folders/yy/83vjwp7d53j56dbzj8_jnpcr0000gn/T//ccRI64Di.s:503    .text.i2c_ackpos_config:0000000000000010 .L0 
/var/folders/yy/83vjwp7d53j56dbzj8_jnpcr0000gn/T//ccRI64Di.s:507    .text.i2c_ackpos_config:000000000000001a .L0 
/var/folders/yy/83vjwp7d53j56dbzj8_jnpcr0000gn/T//ccRI64Di.s:514    .text.i2c_master_addressing:0000000000000000 i2c_master_addressing
/var/folders/yy/83vjwp7d53j56dbzj8_jnpcr0000gn/T//ccRI64Di.s:517    .text.i2c_master_addressing:0000000000000000 .L0 
/var/folders/yy/83vjwp7d53j56dbzj8_jnpcr0000gn/T//ccRI64Di.s:519    .text.i2c_master_addressing:0000000000000000 .L0 
/var/folders/yy/83vjwp7d53j56dbzj8_jnpcr0000gn/T//ccRI64Di.s:520    .text.i2c_master_addressing:0000000000000000 .L0 
/var/folders/yy/83vjwp7d53j56dbzj8_jnpcr0000gn/T//ccRI64Di.s:521    .text.i2c_master_addressing:0000000000000000 .L0 
/var/folders/yy/83vjwp7d53j56dbzj8_jnpcr0000gn/T//ccRI64Di.s:523    .text.i2c_master_addressing:0000000000000002 .L0 
/var/folders/yy/83vjwp7d53j56dbzj8_jnpcr0000gn/T//ccRI64Di.s:525    .text.i2c_master_addressing:0000000000000006 .L0 
/var/folders/yy/83vjwp7d53j56dbzj8_jnpcr0000gn/T//ccRI64Di.s:527    .text.i2c_master_addressing:000000000000000a .L0 
/var/folders/yy/83vjwp7d53j56dbzj8_jnpcr0000gn/T//ccRI64Di.s:528    .text.i2c_master_addressing:000000000000000a .L0 
/var/folders/yy/83vjwp7d53j56dbzj8_jnpcr0000gn/T//ccRI64Di.s:532    .text.i2c_master_addressing:000000000000000e .L0 
/var/folders/yy/83vjwp7d53j56dbzj8_jnpcr0000gn/T//ccRI64Di.s:533    .text.i2c_master_addressing:000000000000000e .L0 
/var/folders/yy/83vjwp7d53j56dbzj8_jnpcr0000gn/T//ccRI64Di.s:535    .text.i2c_master_addressing:0000000000000010 .L0 
/var/folders/yy/83vjwp7d53j56dbzj8_jnpcr0000gn/T//ccRI64Di.s:536    .text.i2c_master_addressing:0000000000000012 .L0 
/var/folders/yy/83vjwp7d53j56dbzj8_jnpcr0000gn/T//ccRI64Di.s:543    .text.i2c_dualaddr_enable:0000000000000000 i2c_dualaddr_enable
/var/folders/yy/83vjwp7d53j56dbzj8_jnpcr0000gn/T//ccRI64Di.s:546    .text.i2c_dualaddr_enable:0000000000000000 .L0 
/var/folders/yy/83vjwp7d53j56dbzj8_jnpcr0000gn/T//ccRI64Di.s:548    .text.i2c_dualaddr_enable:0000000000000000 .L0 
/var/folders/yy/83vjwp7d53j56dbzj8_jnpcr0000gn/T//ccRI64Di.s:549    .text.i2c_dualaddr_enable:0000000000000000 .L0 
/var/folders/yy/83vjwp7d53j56dbzj8_jnpcr0000gn/T//ccRI64Di.s:550    .text.i2c_dualaddr_enable:0000000000000000 .L0 
/var/folders/yy/83vjwp7d53j56dbzj8_jnpcr0000gn/T//ccRI64Di.s:551    .text.i2c_dualaddr_enable:0000000000000000 .L0 
/var/folders/yy/83vjwp7d53j56dbzj8_jnpcr0000gn/T//ccRI64Di.s:554    .text.i2c_dualaddr_enable:0000000000000004 .L0 
/var/folders/yy/83vjwp7d53j56dbzj8_jnpcr0000gn/T//ccRI64Di.s:557    .text.i2c_dualaddr_enable:0000000000000008 .L0 
/var/folders/yy/83vjwp7d53j56dbzj8_jnpcr0000gn/T//ccRI64Di.s:559    .text.i2c_dualaddr_enable:000000000000000a .L0 
/var/folders/yy/83vjwp7d53j56dbzj8_jnpcr0000gn/T//ccRI64Di.s:560    .text.i2c_dualaddr_enable:000000000000000c .L0 
/var/folders/yy/83vjwp7d53j56dbzj8_jnpcr0000gn/T//ccRI64Di.s:567    .text.i2c_dualaddr_disable:0000000000000000 i2c_dualaddr_disable
/var/folders/yy/83vjwp7d53j56dbzj8_jnpcr0000gn/T//ccRI64Di.s:570    .text.i2c_dualaddr_disable:0000000000000000 .L0 
/var/folders/yy/83vjwp7d53j56dbzj8_jnpcr0000gn/T//ccRI64Di.s:572    .text.i2c_dualaddr_disable:0000000000000000 .L0 
/var/folders/yy/83vjwp7d53j56dbzj8_jnpcr0000gn/T//ccRI64Di.s:573    .text.i2c_dualaddr_disable:0000000000000000 .L0 
GAS LISTING /var/folders/yy/83vjwp7d53j56dbzj8_jnpcr0000gn/T//ccRI64Di.s 			page 41


/var/folders/yy/83vjwp7d53j56dbzj8_jnpcr0000gn/T//ccRI64Di.s:574    .text.i2c_dualaddr_disable:0000000000000000 .L0 
/var/folders/yy/83vjwp7d53j56dbzj8_jnpcr0000gn/T//ccRI64Di.s:578    .text.i2c_dualaddr_disable:0000000000000006 .L0 
/var/folders/yy/83vjwp7d53j56dbzj8_jnpcr0000gn/T//ccRI64Di.s:579    .text.i2c_dualaddr_disable:0000000000000008 .L0 
/var/folders/yy/83vjwp7d53j56dbzj8_jnpcr0000gn/T//ccRI64Di.s:586    .text.i2c_enable:0000000000000000 i2c_enable
/var/folders/yy/83vjwp7d53j56dbzj8_jnpcr0000gn/T//ccRI64Di.s:589    .text.i2c_enable:0000000000000000 .L0 
/var/folders/yy/83vjwp7d53j56dbzj8_jnpcr0000gn/T//ccRI64Di.s:591    .text.i2c_enable:0000000000000000 .L0 
/var/folders/yy/83vjwp7d53j56dbzj8_jnpcr0000gn/T//ccRI64Di.s:592    .text.i2c_enable:0000000000000000 .L0 
/var/folders/yy/83vjwp7d53j56dbzj8_jnpcr0000gn/T//ccRI64Di.s:593    .text.i2c_enable:0000000000000000 .L0 
/var/folders/yy/83vjwp7d53j56dbzj8_jnpcr0000gn/T//ccRI64Di.s:597    .text.i2c_enable:0000000000000008 .L0 
/var/folders/yy/83vjwp7d53j56dbzj8_jnpcr0000gn/T//ccRI64Di.s:598    .text.i2c_enable:000000000000000a .L0 
/var/folders/yy/83vjwp7d53j56dbzj8_jnpcr0000gn/T//ccRI64Di.s:605    .text.i2c_disable:0000000000000000 i2c_disable
/var/folders/yy/83vjwp7d53j56dbzj8_jnpcr0000gn/T//ccRI64Di.s:608    .text.i2c_disable:0000000000000000 .L0 
/var/folders/yy/83vjwp7d53j56dbzj8_jnpcr0000gn/T//ccRI64Di.s:610    .text.i2c_disable:0000000000000000 .L0 
/var/folders/yy/83vjwp7d53j56dbzj8_jnpcr0000gn/T//ccRI64Di.s:611    .text.i2c_disable:0000000000000000 .L0 
/var/folders/yy/83vjwp7d53j56dbzj8_jnpcr0000gn/T//ccRI64Di.s:612    .text.i2c_disable:0000000000000000 .L0 
/var/folders/yy/83vjwp7d53j56dbzj8_jnpcr0000gn/T//ccRI64Di.s:616    .text.i2c_disable:0000000000000006 .L0 
/var/folders/yy/83vjwp7d53j56dbzj8_jnpcr0000gn/T//ccRI64Di.s:617    .text.i2c_disable:0000000000000008 .L0 
/var/folders/yy/83vjwp7d53j56dbzj8_jnpcr0000gn/T//ccRI64Di.s:624    .text.i2c_start_on_bus:0000000000000000 i2c_start_on_bus
/var/folders/yy/83vjwp7d53j56dbzj8_jnpcr0000gn/T//ccRI64Di.s:627    .text.i2c_start_on_bus:0000000000000000 .L0 
/var/folders/yy/83vjwp7d53j56dbzj8_jnpcr0000gn/T//ccRI64Di.s:629    .text.i2c_start_on_bus:0000000000000000 .L0 
/var/folders/yy/83vjwp7d53j56dbzj8_jnpcr0000gn/T//ccRI64Di.s:630    .text.i2c_start_on_bus:0000000000000000 .L0 
/var/folders/yy/83vjwp7d53j56dbzj8_jnpcr0000gn/T//ccRI64Di.s:631    .text.i2c_start_on_bus:0000000000000000 .L0 
/var/folders/yy/83vjwp7d53j56dbzj8_jnpcr0000gn/T//ccRI64Di.s:635    .text.i2c_start_on_bus:0000000000000008 .L0 
/var/folders/yy/83vjwp7d53j56dbzj8_jnpcr0000gn/T//ccRI64Di.s:636    .text.i2c_start_on_bus:000000000000000a .L0 
/var/folders/yy/83vjwp7d53j56dbzj8_jnpcr0000gn/T//ccRI64Di.s:643    .text.i2c_stop_on_bus:0000000000000000 i2c_stop_on_bus
/var/folders/yy/83vjwp7d53j56dbzj8_jnpcr0000gn/T//ccRI64Di.s:646    .text.i2c_stop_on_bus:0000000000000000 .L0 
/var/folders/yy/83vjwp7d53j56dbzj8_jnpcr0000gn/T//ccRI64Di.s:648    .text.i2c_stop_on_bus:0000000000000000 .L0 
/var/folders/yy/83vjwp7d53j56dbzj8_jnpcr0000gn/T//ccRI64Di.s:649    .text.i2c_stop_on_bus:0000000000000000 .L0 
/var/folders/yy/83vjwp7d53j56dbzj8_jnpcr0000gn/T//ccRI64Di.s:650    .text.i2c_stop_on_bus:0000000000000000 .L0 
/var/folders/yy/83vjwp7d53j56dbzj8_jnpcr0000gn/T//ccRI64Di.s:654    .text.i2c_stop_on_bus:0000000000000008 .L0 
/var/folders/yy/83vjwp7d53j56dbzj8_jnpcr0000gn/T//ccRI64Di.s:655    .text.i2c_stop_on_bus:000000000000000a .L0 
/var/folders/yy/83vjwp7d53j56dbzj8_jnpcr0000gn/T//ccRI64Di.s:662    .text.i2c_data_transmit:0000000000000000 i2c_data_transmit
/var/folders/yy/83vjwp7d53j56dbzj8_jnpcr0000gn/T//ccRI64Di.s:665    .text.i2c_data_transmit:0000000000000000 .L0 
/var/folders/yy/83vjwp7d53j56dbzj8_jnpcr0000gn/T//ccRI64Di.s:667    .text.i2c_data_transmit:0000000000000000 .L0 
/var/folders/yy/83vjwp7d53j56dbzj8_jnpcr0000gn/T//ccRI64Di.s:668    .text.i2c_data_transmit:0000000000000000 .L0 
/var/folders/yy/83vjwp7d53j56dbzj8_jnpcr0000gn/T//ccRI64Di.s:669    .text.i2c_data_transmit:0000000000000000 .L0 
/var/folders/yy/83vjwp7d53j56dbzj8_jnpcr0000gn/T//ccRI64Di.s:671    .text.i2c_data_transmit:0000000000000002 .L0 
/var/folders/yy/83vjwp7d53j56dbzj8_jnpcr0000gn/T//ccRI64Di.s:672    .text.i2c_data_transmit:0000000000000004 .L0 
/var/folders/yy/83vjwp7d53j56dbzj8_jnpcr0000gn/T//ccRI64Di.s:679    .text.i2c_data_receive:0000000000000000 i2c_data_receive
/var/folders/yy/83vjwp7d53j56dbzj8_jnpcr0000gn/T//ccRI64Di.s:682    .text.i2c_data_receive:0000000000000000 .L0 
/var/folders/yy/83vjwp7d53j56dbzj8_jnpcr0000gn/T//ccRI64Di.s:684    .text.i2c_data_receive:0000000000000000 .L0 
/var/folders/yy/83vjwp7d53j56dbzj8_jnpcr0000gn/T//ccRI64Di.s:685    .text.i2c_data_receive:0000000000000000 .L0 
/var/folders/yy/83vjwp7d53j56dbzj8_jnpcr0000gn/T//ccRI64Di.s:686    .text.i2c_data_receive:0000000000000000 .L0 
/var/folders/yy/83vjwp7d53j56dbzj8_jnpcr0000gn/T//ccRI64Di.s:689    .text.i2c_data_receive:0000000000000002 .L0 
/var/folders/yy/83vjwp7d53j56dbzj8_jnpcr0000gn/T//ccRI64Di.s:691    .text.i2c_data_receive:0000000000000008 .L0 
/var/folders/yy/83vjwp7d53j56dbzj8_jnpcr0000gn/T//ccRI64Di.s:698    .text.i2c_dma_enable:0000000000000000 i2c_dma_enable
/var/folders/yy/83vjwp7d53j56dbzj8_jnpcr0000gn/T//ccRI64Di.s:701    .text.i2c_dma_enable:0000000000000000 .L0 
/var/folders/yy/83vjwp7d53j56dbzj8_jnpcr0000gn/T//ccRI64Di.s:703    .text.i2c_dma_enable:0000000000000000 .L0 
/var/folders/yy/83vjwp7d53j56dbzj8_jnpcr0000gn/T//ccRI64Di.s:704    .text.i2c_dma_enable:0000000000000000 .L0 
/var/folders/yy/83vjwp7d53j56dbzj8_jnpcr0000gn/T//ccRI64Di.s:705    .text.i2c_dma_enable:0000000000000000 .L0 
/var/folders/yy/83vjwp7d53j56dbzj8_jnpcr0000gn/T//ccRI64Di.s:706    .text.i2c_dma_enable:0000000000000000 .L0 
/var/folders/yy/83vjwp7d53j56dbzj8_jnpcr0000gn/T//ccRI64Di.s:709    .text.i2c_dma_enable:0000000000000002 .L0 
/var/folders/yy/83vjwp7d53j56dbzj8_jnpcr0000gn/T//ccRI64Di.s:710    .text.i2c_dma_enable:0000000000000002 .L0 
/var/folders/yy/83vjwp7d53j56dbzj8_jnpcr0000gn/T//ccRI64Di.s:715    .text.i2c_dma_enable:000000000000000a .L0 
/var/folders/yy/83vjwp7d53j56dbzj8_jnpcr0000gn/T//ccRI64Di.s:716    .text.i2c_dma_enable:000000000000000a .L0 
/var/folders/yy/83vjwp7d53j56dbzj8_jnpcr0000gn/T//ccRI64Di.s:719    .text.i2c_dma_enable:000000000000000c .L0 
/var/folders/yy/83vjwp7d53j56dbzj8_jnpcr0000gn/T//ccRI64Di.s:720    .text.i2c_dma_enable:000000000000000c .L0 
GAS LISTING /var/folders/yy/83vjwp7d53j56dbzj8_jnpcr0000gn/T//ccRI64Di.s 			page 42


/var/folders/yy/83vjwp7d53j56dbzj8_jnpcr0000gn/T//ccRI64Di.s:722    .text.i2c_dma_enable:000000000000000e .L0 
/var/folders/yy/83vjwp7d53j56dbzj8_jnpcr0000gn/T//ccRI64Di.s:723    .text.i2c_dma_enable:0000000000000010 .L0 
/var/folders/yy/83vjwp7d53j56dbzj8_jnpcr0000gn/T//ccRI64Di.s:730    .text.i2c_dma_last_transfer_config:0000000000000000 i2c_dma_last_transfer_config
/var/folders/yy/83vjwp7d53j56dbzj8_jnpcr0000gn/T//ccRI64Di.s:733    .text.i2c_dma_last_transfer_config:0000000000000000 .L0 
/var/folders/yy/83vjwp7d53j56dbzj8_jnpcr0000gn/T//ccRI64Di.s:735    .text.i2c_dma_last_transfer_config:0000000000000000 .L0 
/var/folders/yy/83vjwp7d53j56dbzj8_jnpcr0000gn/T//ccRI64Di.s:736    .text.i2c_dma_last_transfer_config:0000000000000000 .L0 
/var/folders/yy/83vjwp7d53j56dbzj8_jnpcr0000gn/T//ccRI64Di.s:737    .text.i2c_dma_last_transfer_config:0000000000000000 .L0 
/var/folders/yy/83vjwp7d53j56dbzj8_jnpcr0000gn/T//ccRI64Di.s:738    .text.i2c_dma_last_transfer_config:0000000000000000 .L0 
/var/folders/yy/83vjwp7d53j56dbzj8_jnpcr0000gn/T//ccRI64Di.s:741    .text.i2c_dma_last_transfer_config:0000000000000002 .L0 
/var/folders/yy/83vjwp7d53j56dbzj8_jnpcr0000gn/T//ccRI64Di.s:742    .text.i2c_dma_last_transfer_config:0000000000000002 .L0 
/var/folders/yy/83vjwp7d53j56dbzj8_jnpcr0000gn/T//ccRI64Di.s:747    .text.i2c_dma_last_transfer_config:0000000000000008 .L0 
/var/folders/yy/83vjwp7d53j56dbzj8_jnpcr0000gn/T//ccRI64Di.s:748    .text.i2c_dma_last_transfer_config:0000000000000008 .L0 
/var/folders/yy/83vjwp7d53j56dbzj8_jnpcr0000gn/T//ccRI64Di.s:751    .text.i2c_dma_last_transfer_config:000000000000000a .L0 
/var/folders/yy/83vjwp7d53j56dbzj8_jnpcr0000gn/T//ccRI64Di.s:752    .text.i2c_dma_last_transfer_config:000000000000000a .L0 
/var/folders/yy/83vjwp7d53j56dbzj8_jnpcr0000gn/T//ccRI64Di.s:754    .text.i2c_dma_last_transfer_config:000000000000000c .L0 
/var/folders/yy/83vjwp7d53j56dbzj8_jnpcr0000gn/T//ccRI64Di.s:755    .text.i2c_dma_last_transfer_config:000000000000000e .L0 
/var/folders/yy/83vjwp7d53j56dbzj8_jnpcr0000gn/T//ccRI64Di.s:762    .text.i2c_stretch_scl_low_config:0000000000000000 i2c_stretch_scl_low_config
/var/folders/yy/83vjwp7d53j56dbzj8_jnpcr0000gn/T//ccRI64Di.s:765    .text.i2c_stretch_scl_low_config:0000000000000000 .L0 
/var/folders/yy/83vjwp7d53j56dbzj8_jnpcr0000gn/T//ccRI64Di.s:767    .text.i2c_stretch_scl_low_config:0000000000000000 .L0 
/var/folders/yy/83vjwp7d53j56dbzj8_jnpcr0000gn/T//ccRI64Di.s:768    .text.i2c_stretch_scl_low_config:0000000000000000 .L0 
/var/folders/yy/83vjwp7d53j56dbzj8_jnpcr0000gn/T//ccRI64Di.s:769    .text.i2c_stretch_scl_low_config:0000000000000000 .L0 
/var/folders/yy/83vjwp7d53j56dbzj8_jnpcr0000gn/T//ccRI64Di.s:770    .text.i2c_stretch_scl_low_config:0000000000000000 .L0 
/var/folders/yy/83vjwp7d53j56dbzj8_jnpcr0000gn/T//ccRI64Di.s:773    .text.i2c_stretch_scl_low_config:0000000000000002 .L0 
/var/folders/yy/83vjwp7d53j56dbzj8_jnpcr0000gn/T//ccRI64Di.s:774    .text.i2c_stretch_scl_low_config:0000000000000002 .L0 
/var/folders/yy/83vjwp7d53j56dbzj8_jnpcr0000gn/T//ccRI64Di.s:777    .text.i2c_stretch_scl_low_config:0000000000000006 .L0 
/var/folders/yy/83vjwp7d53j56dbzj8_jnpcr0000gn/T//ccRI64Di.s:778    .text.i2c_stretch_scl_low_config:0000000000000006 .L0 
/var/folders/yy/83vjwp7d53j56dbzj8_jnpcr0000gn/T//ccRI64Di.s:781    .text.i2c_stretch_scl_low_config:0000000000000008 .L0 
/var/folders/yy/83vjwp7d53j56dbzj8_jnpcr0000gn/T//ccRI64Di.s:782    .text.i2c_stretch_scl_low_config:0000000000000008 .L0 
/var/folders/yy/83vjwp7d53j56dbzj8_jnpcr0000gn/T//ccRI64Di.s:784    .text.i2c_stretch_scl_low_config:000000000000000a .L0 
/var/folders/yy/83vjwp7d53j56dbzj8_jnpcr0000gn/T//ccRI64Di.s:785    .text.i2c_stretch_scl_low_config:000000000000000c .L0 
/var/folders/yy/83vjwp7d53j56dbzj8_jnpcr0000gn/T//ccRI64Di.s:792    .text.i2c_slave_response_to_gcall_config:0000000000000000 i2c_slave_response_to_gcall_config
/var/folders/yy/83vjwp7d53j56dbzj8_jnpcr0000gn/T//ccRI64Di.s:795    .text.i2c_slave_response_to_gcall_config:0000000000000000 .L0 
/var/folders/yy/83vjwp7d53j56dbzj8_jnpcr0000gn/T//ccRI64Di.s:797    .text.i2c_slave_response_to_gcall_config:0000000000000000 .L0 
/var/folders/yy/83vjwp7d53j56dbzj8_jnpcr0000gn/T//ccRI64Di.s:798    .text.i2c_slave_response_to_gcall_config:0000000000000000 .L0 
/var/folders/yy/83vjwp7d53j56dbzj8_jnpcr0000gn/T//ccRI64Di.s:799    .text.i2c_slave_response_to_gcall_config:0000000000000000 .L0 
/var/folders/yy/83vjwp7d53j56dbzj8_jnpcr0000gn/T//ccRI64Di.s:800    .text.i2c_slave_response_to_gcall_config:0000000000000000 .L0 
/var/folders/yy/83vjwp7d53j56dbzj8_jnpcr0000gn/T//ccRI64Di.s:803    .text.i2c_slave_response_to_gcall_config:0000000000000002 .L0 
/var/folders/yy/83vjwp7d53j56dbzj8_jnpcr0000gn/T//ccRI64Di.s:804    .text.i2c_slave_response_to_gcall_config:0000000000000002 .L0 
/var/folders/yy/83vjwp7d53j56dbzj8_jnpcr0000gn/T//ccRI64Di.s:807    .text.i2c_slave_response_to_gcall_config:0000000000000006 .L0 
/var/folders/yy/83vjwp7d53j56dbzj8_jnpcr0000gn/T//ccRI64Di.s:808    .text.i2c_slave_response_to_gcall_config:0000000000000006 .L0 
/var/folders/yy/83vjwp7d53j56dbzj8_jnpcr0000gn/T//ccRI64Di.s:811    .text.i2c_slave_response_to_gcall_config:0000000000000008 .L0 
/var/folders/yy/83vjwp7d53j56dbzj8_jnpcr0000gn/T//ccRI64Di.s:812    .text.i2c_slave_response_to_gcall_config:0000000000000008 .L0 
/var/folders/yy/83vjwp7d53j56dbzj8_jnpcr0000gn/T//ccRI64Di.s:814    .text.i2c_slave_response_to_gcall_config:000000000000000a .L0 
/var/folders/yy/83vjwp7d53j56dbzj8_jnpcr0000gn/T//ccRI64Di.s:815    .text.i2c_slave_response_to_gcall_config:000000000000000c .L0 
/var/folders/yy/83vjwp7d53j56dbzj8_jnpcr0000gn/T//ccRI64Di.s:822    .text.i2c_software_reset_config:0000000000000000 i2c_software_reset_config
/var/folders/yy/83vjwp7d53j56dbzj8_jnpcr0000gn/T//ccRI64Di.s:825    .text.i2c_software_reset_config:0000000000000000 .L0 
/var/folders/yy/83vjwp7d53j56dbzj8_jnpcr0000gn/T//ccRI64Di.s:827    .text.i2c_software_reset_config:0000000000000000 .L0 
/var/folders/yy/83vjwp7d53j56dbzj8_jnpcr0000gn/T//ccRI64Di.s:828    .text.i2c_software_reset_config:0000000000000000 .L0 
/var/folders/yy/83vjwp7d53j56dbzj8_jnpcr0000gn/T//ccRI64Di.s:829    .text.i2c_software_reset_config:0000000000000000 .L0 
/var/folders/yy/83vjwp7d53j56dbzj8_jnpcr0000gn/T//ccRI64Di.s:830    .text.i2c_software_reset_config:0000000000000000 .L0 
/var/folders/yy/83vjwp7d53j56dbzj8_jnpcr0000gn/T//ccRI64Di.s:833    .text.i2c_software_reset_config:0000000000000002 .L0 
/var/folders/yy/83vjwp7d53j56dbzj8_jnpcr0000gn/T//ccRI64Di.s:834    .text.i2c_software_reset_config:0000000000000002 .L0 
/var/folders/yy/83vjwp7d53j56dbzj8_jnpcr0000gn/T//ccRI64Di.s:839    .text.i2c_software_reset_config:0000000000000008 .L0 
/var/folders/yy/83vjwp7d53j56dbzj8_jnpcr0000gn/T//ccRI64Di.s:840    .text.i2c_software_reset_config:0000000000000008 .L0 
/var/folders/yy/83vjwp7d53j56dbzj8_jnpcr0000gn/T//ccRI64Di.s:843    .text.i2c_software_reset_config:000000000000000a .L0 
/var/folders/yy/83vjwp7d53j56dbzj8_jnpcr0000gn/T//ccRI64Di.s:844    .text.i2c_software_reset_config:000000000000000a .L0 
/var/folders/yy/83vjwp7d53j56dbzj8_jnpcr0000gn/T//ccRI64Di.s:846    .text.i2c_software_reset_config:000000000000000c .L0 
GAS LISTING /var/folders/yy/83vjwp7d53j56dbzj8_jnpcr0000gn/T//ccRI64Di.s 			page 43


/var/folders/yy/83vjwp7d53j56dbzj8_jnpcr0000gn/T//ccRI64Di.s:847    .text.i2c_software_reset_config:000000000000000e .L0 
/var/folders/yy/83vjwp7d53j56dbzj8_jnpcr0000gn/T//ccRI64Di.s:854    .text.i2c_pec_enable:0000000000000000 i2c_pec_enable
/var/folders/yy/83vjwp7d53j56dbzj8_jnpcr0000gn/T//ccRI64Di.s:857    .text.i2c_pec_enable:0000000000000000 .L0 
/var/folders/yy/83vjwp7d53j56dbzj8_jnpcr0000gn/T//ccRI64Di.s:859    .text.i2c_pec_enable:0000000000000000 .L0 
/var/folders/yy/83vjwp7d53j56dbzj8_jnpcr0000gn/T//ccRI64Di.s:860    .text.i2c_pec_enable:0000000000000000 .L0 
/var/folders/yy/83vjwp7d53j56dbzj8_jnpcr0000gn/T//ccRI64Di.s:861    .text.i2c_pec_enable:0000000000000000 .L0 
/var/folders/yy/83vjwp7d53j56dbzj8_jnpcr0000gn/T//ccRI64Di.s:862    .text.i2c_pec_enable:0000000000000000 .L0 
/var/folders/yy/83vjwp7d53j56dbzj8_jnpcr0000gn/T//ccRI64Di.s:865    .text.i2c_pec_enable:0000000000000002 .L0 
/var/folders/yy/83vjwp7d53j56dbzj8_jnpcr0000gn/T//ccRI64Di.s:866    .text.i2c_pec_enable:0000000000000002 .L0 
/var/folders/yy/83vjwp7d53j56dbzj8_jnpcr0000gn/T//ccRI64Di.s:869    .text.i2c_pec_enable:0000000000000006 .L0 
/var/folders/yy/83vjwp7d53j56dbzj8_jnpcr0000gn/T//ccRI64Di.s:870    .text.i2c_pec_enable:0000000000000006 .L0 
/var/folders/yy/83vjwp7d53j56dbzj8_jnpcr0000gn/T//ccRI64Di.s:873    .text.i2c_pec_enable:0000000000000008 .L0 
/var/folders/yy/83vjwp7d53j56dbzj8_jnpcr0000gn/T//ccRI64Di.s:874    .text.i2c_pec_enable:0000000000000008 .L0 
/var/folders/yy/83vjwp7d53j56dbzj8_jnpcr0000gn/T//ccRI64Di.s:876    .text.i2c_pec_enable:000000000000000a .L0 
/var/folders/yy/83vjwp7d53j56dbzj8_jnpcr0000gn/T//ccRI64Di.s:877    .text.i2c_pec_enable:000000000000000c .L0 
/var/folders/yy/83vjwp7d53j56dbzj8_jnpcr0000gn/T//ccRI64Di.s:884    .text.i2c_pec_transfer_enable:0000000000000000 i2c_pec_transfer_enable
/var/folders/yy/83vjwp7d53j56dbzj8_jnpcr0000gn/T//ccRI64Di.s:887    .text.i2c_pec_transfer_enable:0000000000000000 .L0 
/var/folders/yy/83vjwp7d53j56dbzj8_jnpcr0000gn/T//ccRI64Di.s:889    .text.i2c_pec_transfer_enable:0000000000000000 .L0 
/var/folders/yy/83vjwp7d53j56dbzj8_jnpcr0000gn/T//ccRI64Di.s:890    .text.i2c_pec_transfer_enable:0000000000000000 .L0 
/var/folders/yy/83vjwp7d53j56dbzj8_jnpcr0000gn/T//ccRI64Di.s:891    .text.i2c_pec_transfer_enable:0000000000000000 .L0 
/var/folders/yy/83vjwp7d53j56dbzj8_jnpcr0000gn/T//ccRI64Di.s:892    .text.i2c_pec_transfer_enable:0000000000000000 .L0 
/var/folders/yy/83vjwp7d53j56dbzj8_jnpcr0000gn/T//ccRI64Di.s:895    .text.i2c_pec_transfer_enable:0000000000000002 .L0 
/var/folders/yy/83vjwp7d53j56dbzj8_jnpcr0000gn/T//ccRI64Di.s:896    .text.i2c_pec_transfer_enable:0000000000000002 .L0 
/var/folders/yy/83vjwp7d53j56dbzj8_jnpcr0000gn/T//ccRI64Di.s:901    .text.i2c_pec_transfer_enable:0000000000000008 .L0 
/var/folders/yy/83vjwp7d53j56dbzj8_jnpcr0000gn/T//ccRI64Di.s:902    .text.i2c_pec_transfer_enable:0000000000000008 .L0 
/var/folders/yy/83vjwp7d53j56dbzj8_jnpcr0000gn/T//ccRI64Di.s:905    .text.i2c_pec_transfer_enable:000000000000000a .L0 
/var/folders/yy/83vjwp7d53j56dbzj8_jnpcr0000gn/T//ccRI64Di.s:906    .text.i2c_pec_transfer_enable:000000000000000a .L0 
/var/folders/yy/83vjwp7d53j56dbzj8_jnpcr0000gn/T//ccRI64Di.s:908    .text.i2c_pec_transfer_enable:000000000000000c .L0 
/var/folders/yy/83vjwp7d53j56dbzj8_jnpcr0000gn/T//ccRI64Di.s:909    .text.i2c_pec_transfer_enable:000000000000000e .L0 
/var/folders/yy/83vjwp7d53j56dbzj8_jnpcr0000gn/T//ccRI64Di.s:916    .text.i2c_pec_value_get:0000000000000000 i2c_pec_value_get
/var/folders/yy/83vjwp7d53j56dbzj8_jnpcr0000gn/T//ccRI64Di.s:919    .text.i2c_pec_value_get:0000000000000000 .L0 
/var/folders/yy/83vjwp7d53j56dbzj8_jnpcr0000gn/T//ccRI64Di.s:921    .text.i2c_pec_value_get:0000000000000000 .L0 
/var/folders/yy/83vjwp7d53j56dbzj8_jnpcr0000gn/T//ccRI64Di.s:922    .text.i2c_pec_value_get:0000000000000000 .L0 
/var/folders/yy/83vjwp7d53j56dbzj8_jnpcr0000gn/T//ccRI64Di.s:923    .text.i2c_pec_value_get:0000000000000000 .L0 
/var/folders/yy/83vjwp7d53j56dbzj8_jnpcr0000gn/T//ccRI64Di.s:926    .text.i2c_pec_value_get:0000000000000002 .L0 
/var/folders/yy/83vjwp7d53j56dbzj8_jnpcr0000gn/T//ccRI64Di.s:928    .text.i2c_pec_value_get:0000000000000004 .L0 
/var/folders/yy/83vjwp7d53j56dbzj8_jnpcr0000gn/T//ccRI64Di.s:930    .text.i2c_pec_value_get:000000000000000a .L0 
/var/folders/yy/83vjwp7d53j56dbzj8_jnpcr0000gn/T//ccRI64Di.s:937    .text.i2c_smbus_issue_alert:0000000000000000 i2c_smbus_issue_alert
/var/folders/yy/83vjwp7d53j56dbzj8_jnpcr0000gn/T//ccRI64Di.s:940    .text.i2c_smbus_issue_alert:0000000000000000 .L0 
/var/folders/yy/83vjwp7d53j56dbzj8_jnpcr0000gn/T//ccRI64Di.s:942    .text.i2c_smbus_issue_alert:0000000000000000 .L0 
/var/folders/yy/83vjwp7d53j56dbzj8_jnpcr0000gn/T//ccRI64Di.s:943    .text.i2c_smbus_issue_alert:0000000000000000 .L0 
/var/folders/yy/83vjwp7d53j56dbzj8_jnpcr0000gn/T//ccRI64Di.s:944    .text.i2c_smbus_issue_alert:0000000000000000 .L0 
/var/folders/yy/83vjwp7d53j56dbzj8_jnpcr0000gn/T//ccRI64Di.s:945    .text.i2c_smbus_issue_alert:0000000000000000 .L0 
/var/folders/yy/83vjwp7d53j56dbzj8_jnpcr0000gn/T//ccRI64Di.s:948    .text.i2c_smbus_issue_alert:0000000000000002 .L0 
/var/folders/yy/83vjwp7d53j56dbzj8_jnpcr0000gn/T//ccRI64Di.s:949    .text.i2c_smbus_issue_alert:0000000000000002 .L0 
/var/folders/yy/83vjwp7d53j56dbzj8_jnpcr0000gn/T//ccRI64Di.s:954    .text.i2c_smbus_issue_alert:0000000000000008 .L0 
/var/folders/yy/83vjwp7d53j56dbzj8_jnpcr0000gn/T//ccRI64Di.s:955    .text.i2c_smbus_issue_alert:0000000000000008 .L0 
/var/folders/yy/83vjwp7d53j56dbzj8_jnpcr0000gn/T//ccRI64Di.s:958    .text.i2c_smbus_issue_alert:000000000000000a .L0 
/var/folders/yy/83vjwp7d53j56dbzj8_jnpcr0000gn/T//ccRI64Di.s:959    .text.i2c_smbus_issue_alert:000000000000000a .L0 
/var/folders/yy/83vjwp7d53j56dbzj8_jnpcr0000gn/T//ccRI64Di.s:961    .text.i2c_smbus_issue_alert:000000000000000c .L0 
/var/folders/yy/83vjwp7d53j56dbzj8_jnpcr0000gn/T//ccRI64Di.s:962    .text.i2c_smbus_issue_alert:000000000000000e .L0 
/var/folders/yy/83vjwp7d53j56dbzj8_jnpcr0000gn/T//ccRI64Di.s:969    .text.i2c_smbus_arp_enable:0000000000000000 i2c_smbus_arp_enable
/var/folders/yy/83vjwp7d53j56dbzj8_jnpcr0000gn/T//ccRI64Di.s:972    .text.i2c_smbus_arp_enable:0000000000000000 .L0 
/var/folders/yy/83vjwp7d53j56dbzj8_jnpcr0000gn/T//ccRI64Di.s:974    .text.i2c_smbus_arp_enable:0000000000000000 .L0 
/var/folders/yy/83vjwp7d53j56dbzj8_jnpcr0000gn/T//ccRI64Di.s:975    .text.i2c_smbus_arp_enable:0000000000000000 .L0 
/var/folders/yy/83vjwp7d53j56dbzj8_jnpcr0000gn/T//ccRI64Di.s:976    .text.i2c_smbus_arp_enable:0000000000000000 .L0 
/var/folders/yy/83vjwp7d53j56dbzj8_jnpcr0000gn/T//ccRI64Di.s:977    .text.i2c_smbus_arp_enable:0000000000000000 .L0 
GAS LISTING /var/folders/yy/83vjwp7d53j56dbzj8_jnpcr0000gn/T//ccRI64Di.s 			page 44


/var/folders/yy/83vjwp7d53j56dbzj8_jnpcr0000gn/T//ccRI64Di.s:980    .text.i2c_smbus_arp_enable:0000000000000002 .L0 
/var/folders/yy/83vjwp7d53j56dbzj8_jnpcr0000gn/T//ccRI64Di.s:981    .text.i2c_smbus_arp_enable:0000000000000002 .L0 
/var/folders/yy/83vjwp7d53j56dbzj8_jnpcr0000gn/T//ccRI64Di.s:984    .text.i2c_smbus_arp_enable:0000000000000004 .L0 
/var/folders/yy/83vjwp7d53j56dbzj8_jnpcr0000gn/T//ccRI64Di.s:985    .text.i2c_smbus_arp_enable:0000000000000004 .L0 
/var/folders/yy/83vjwp7d53j56dbzj8_jnpcr0000gn/T//ccRI64Di.s:988    .text.i2c_smbus_arp_enable:0000000000000006 .L0 
/var/folders/yy/83vjwp7d53j56dbzj8_jnpcr0000gn/T//ccRI64Di.s:989    .text.i2c_smbus_arp_enable:0000000000000006 .L0 
/var/folders/yy/83vjwp7d53j56dbzj8_jnpcr0000gn/T//ccRI64Di.s:991    .text.i2c_smbus_arp_enable:0000000000000008 .L0 
/var/folders/yy/83vjwp7d53j56dbzj8_jnpcr0000gn/T//ccRI64Di.s:992    .text.i2c_smbus_arp_enable:000000000000000a .L0 
/var/folders/yy/83vjwp7d53j56dbzj8_jnpcr0000gn/T//ccRI64Di.s:999    .text.i2c_flag_get:0000000000000000 i2c_flag_get
/var/folders/yy/83vjwp7d53j56dbzj8_jnpcr0000gn/T//ccRI64Di.s:1002   .text.i2c_flag_get:0000000000000000 .L0 
/var/folders/yy/83vjwp7d53j56dbzj8_jnpcr0000gn/T//ccRI64Di.s:1004   .text.i2c_flag_get:0000000000000000 .L0 
/var/folders/yy/83vjwp7d53j56dbzj8_jnpcr0000gn/T//ccRI64Di.s:1005   .text.i2c_flag_get:0000000000000000 .L0 
/var/folders/yy/83vjwp7d53j56dbzj8_jnpcr0000gn/T//ccRI64Di.s:1006   .text.i2c_flag_get:0000000000000000 .L0 
/var/folders/yy/83vjwp7d53j56dbzj8_jnpcr0000gn/T//ccRI64Di.s:1012   .text.i2c_flag_get:000000000000000c .L0 
/var/folders/yy/83vjwp7d53j56dbzj8_jnpcr0000gn/T//ccRI64Di.s:1014   .text.i2c_flag_get:0000000000000010 .L0 
/var/folders/yy/83vjwp7d53j56dbzj8_jnpcr0000gn/T//ccRI64Di.s:1016   .text.i2c_flag_get:0000000000000014 .L0 
/var/folders/yy/83vjwp7d53j56dbzj8_jnpcr0000gn/T//ccRI64Di.s:1023   .text.i2c_flag_clear:0000000000000000 i2c_flag_clear
/var/folders/yy/83vjwp7d53j56dbzj8_jnpcr0000gn/T//ccRI64Di.s:1026   .text.i2c_flag_clear:0000000000000000 .L0 
/var/folders/yy/83vjwp7d53j56dbzj8_jnpcr0000gn/T//ccRI64Di.s:1028   .text.i2c_flag_clear:0000000000000000 .L0 
/var/folders/yy/83vjwp7d53j56dbzj8_jnpcr0000gn/T//ccRI64Di.s:1029   .text.i2c_flag_clear:0000000000000000 .L0 
/var/folders/yy/83vjwp7d53j56dbzj8_jnpcr0000gn/T//ccRI64Di.s:1030   .text.i2c_flag_clear:0000000000000000 .L0 
/var/folders/yy/83vjwp7d53j56dbzj8_jnpcr0000gn/T//ccRI64Di.s:1033   .text.i2c_flag_clear:0000000000000008 .L0 
/var/folders/yy/83vjwp7d53j56dbzj8_jnpcr0000gn/T//ccRI64Di.s:1035   .text.i2c_flag_clear:000000000000000a .L0 
/var/folders/yy/83vjwp7d53j56dbzj8_jnpcr0000gn/T//ccRI64Di.s:1039   .text.i2c_flag_clear:000000000000000e .L0 
/var/folders/yy/83vjwp7d53j56dbzj8_jnpcr0000gn/T//ccRI64Di.s:1040   .text.i2c_flag_clear:000000000000000e .L0 
/var/folders/yy/83vjwp7d53j56dbzj8_jnpcr0000gn/T//ccRI64Di.s:1046   .text.i2c_flag_clear:000000000000001a .L0 
/var/folders/yy/83vjwp7d53j56dbzj8_jnpcr0000gn/T//ccRI64Di.s:1049   .text.i2c_flag_clear:0000000000000020 .L0 
/var/folders/yy/83vjwp7d53j56dbzj8_jnpcr0000gn/T//ccRI64Di.s:1051   .text.i2c_flag_clear:0000000000000024 .L0 
/var/folders/yy/83vjwp7d53j56dbzj8_jnpcr0000gn/T//ccRI64Di.s:1054   .text.i2c_flag_clear:0000000000000028 .L0 
/var/folders/yy/83vjwp7d53j56dbzj8_jnpcr0000gn/T//ccRI64Di.s:1055   .text.i2c_flag_clear:000000000000002a .L0 
/var/folders/yy/83vjwp7d53j56dbzj8_jnpcr0000gn/T//ccRI64Di.s:1062   .text.i2c_interrupt_enable:0000000000000000 i2c_interrupt_enable
/var/folders/yy/83vjwp7d53j56dbzj8_jnpcr0000gn/T//ccRI64Di.s:1065   .text.i2c_interrupt_enable:0000000000000000 .L0 
/var/folders/yy/83vjwp7d53j56dbzj8_jnpcr0000gn/T//ccRI64Di.s:1067   .text.i2c_interrupt_enable:0000000000000000 .L0 
/var/folders/yy/83vjwp7d53j56dbzj8_jnpcr0000gn/T//ccRI64Di.s:1068   .text.i2c_interrupt_enable:0000000000000000 .L0 
/var/folders/yy/83vjwp7d53j56dbzj8_jnpcr0000gn/T//ccRI64Di.s:1069   .text.i2c_interrupt_enable:0000000000000000 .L0 
/var/folders/yy/83vjwp7d53j56dbzj8_jnpcr0000gn/T//ccRI64Di.s:1075   .text.i2c_interrupt_enable:000000000000000c .L0 
/var/folders/yy/83vjwp7d53j56dbzj8_jnpcr0000gn/T//ccRI64Di.s:1078   .text.i2c_interrupt_enable:0000000000000012 .L0 
/var/folders/yy/83vjwp7d53j56dbzj8_jnpcr0000gn/T//ccRI64Di.s:1081   .text.i2c_interrupt_enable:0000000000000016 .L0 
/var/folders/yy/83vjwp7d53j56dbzj8_jnpcr0000gn/T//ccRI64Di.s:1082   .text.i2c_interrupt_enable:0000000000000018 .L0 
/var/folders/yy/83vjwp7d53j56dbzj8_jnpcr0000gn/T//ccRI64Di.s:1089   .text.i2c_interrupt_disable:0000000000000000 i2c_interrupt_disable
/var/folders/yy/83vjwp7d53j56dbzj8_jnpcr0000gn/T//ccRI64Di.s:1092   .text.i2c_interrupt_disable:0000000000000000 .L0 
/var/folders/yy/83vjwp7d53j56dbzj8_jnpcr0000gn/T//ccRI64Di.s:1094   .text.i2c_interrupt_disable:0000000000000000 .L0 
/var/folders/yy/83vjwp7d53j56dbzj8_jnpcr0000gn/T//ccRI64Di.s:1095   .text.i2c_interrupt_disable:0000000000000000 .L0 
/var/folders/yy/83vjwp7d53j56dbzj8_jnpcr0000gn/T//ccRI64Di.s:1096   .text.i2c_interrupt_disable:0000000000000000 .L0 
/var/folders/yy/83vjwp7d53j56dbzj8_jnpcr0000gn/T//ccRI64Di.s:1102   .text.i2c_interrupt_disable:000000000000000c .L0 
/var/folders/yy/83vjwp7d53j56dbzj8_jnpcr0000gn/T//ccRI64Di.s:1105   .text.i2c_interrupt_disable:0000000000000012 .L0 
/var/folders/yy/83vjwp7d53j56dbzj8_jnpcr0000gn/T//ccRI64Di.s:1107   .text.i2c_interrupt_disable:0000000000000016 .L0 
/var/folders/yy/83vjwp7d53j56dbzj8_jnpcr0000gn/T//ccRI64Di.s:1110   .text.i2c_interrupt_disable:000000000000001a .L0 
/var/folders/yy/83vjwp7d53j56dbzj8_jnpcr0000gn/T//ccRI64Di.s:1111   .text.i2c_interrupt_disable:000000000000001c .L0 
/var/folders/yy/83vjwp7d53j56dbzj8_jnpcr0000gn/T//ccRI64Di.s:1118   .text.i2c_interrupt_flag_get:0000000000000000 i2c_interrupt_flag_get
/var/folders/yy/83vjwp7d53j56dbzj8_jnpcr0000gn/T//ccRI64Di.s:1121   .text.i2c_interrupt_flag_get:0000000000000000 .L0 
/var/folders/yy/83vjwp7d53j56dbzj8_jnpcr0000gn/T//ccRI64Di.s:1123   .text.i2c_interrupt_flag_get:0000000000000000 .L0 
/var/folders/yy/83vjwp7d53j56dbzj8_jnpcr0000gn/T//ccRI64Di.s:1124   .text.i2c_interrupt_flag_get:0000000000000000 .L0 
/var/folders/yy/83vjwp7d53j56dbzj8_jnpcr0000gn/T//ccRI64Di.s:1125   .text.i2c_interrupt_flag_get:0000000000000000 .L0 
/var/folders/yy/83vjwp7d53j56dbzj8_jnpcr0000gn/T//ccRI64Di.s:1126   .text.i2c_interrupt_flag_get:0000000000000000 .L0 
/var/folders/yy/83vjwp7d53j56dbzj8_jnpcr0000gn/T//ccRI64Di.s:1130   .text.i2c_interrupt_flag_get:000000000000000a .L0 
/var/folders/yy/83vjwp7d53j56dbzj8_jnpcr0000gn/T//ccRI64Di.s:1133   .text.i2c_interrupt_flag_get:000000000000000c .L0 
GAS LISTING /var/folders/yy/83vjwp7d53j56dbzj8_jnpcr0000gn/T//ccRI64Di.s 			page 45


/var/folders/yy/83vjwp7d53j56dbzj8_jnpcr0000gn/T//ccRI64Di.s:1134   .text.i2c_interrupt_flag_get:000000000000000c .L0 
/var/folders/yy/83vjwp7d53j56dbzj8_jnpcr0000gn/T//ccRI64Di.s:1136   .text.i2c_interrupt_flag_get:000000000000000e .L0 
/var/folders/yy/83vjwp7d53j56dbzj8_jnpcr0000gn/T//ccRI64Di.s:1139   .text.i2c_interrupt_flag_get:0000000000000014 .L0 
/var/folders/yy/83vjwp7d53j56dbzj8_jnpcr0000gn/T//ccRI64Di.s:1142   .text.i2c_interrupt_flag_get:0000000000000016 .L0 
/var/folders/yy/83vjwp7d53j56dbzj8_jnpcr0000gn/T//ccRI64Di.s:1143   .text.i2c_interrupt_flag_get:0000000000000016 .L0 
/var/folders/yy/83vjwp7d53j56dbzj8_jnpcr0000gn/T//ccRI64Di.s:1147   .text.i2c_interrupt_flag_get:000000000000001e .L0 
/var/folders/yy/83vjwp7d53j56dbzj8_jnpcr0000gn/T//ccRI64Di.s:1151   .text.i2c_interrupt_flag_get:0000000000000026 .L0 
/var/folders/yy/83vjwp7d53j56dbzj8_jnpcr0000gn/T//ccRI64Di.s:1154   .text.i2c_interrupt_flag_get:0000000000000028 .L0 
/var/folders/yy/83vjwp7d53j56dbzj8_jnpcr0000gn/T//ccRI64Di.s:1155   .text.i2c_interrupt_flag_get:0000000000000028 .L0 
/var/folders/yy/83vjwp7d53j56dbzj8_jnpcr0000gn/T//ccRI64Di.s:1163   .text.i2c_interrupt_flag_get:000000000000003a .L0 
/var/folders/yy/83vjwp7d53j56dbzj8_jnpcr0000gn/T//ccRI64Di.s:1164   .text.i2c_interrupt_flag_get:000000000000003a .L0 
/var/folders/yy/83vjwp7d53j56dbzj8_jnpcr0000gn/T//ccRI64Di.s:1166   .text.i2c_interrupt_flag_get:000000000000003c .L0 
/var/folders/yy/83vjwp7d53j56dbzj8_jnpcr0000gn/T//ccRI64Di.s:1169   .text.i2c_interrupt_flag_get:0000000000000040 .L0 
/var/folders/yy/83vjwp7d53j56dbzj8_jnpcr0000gn/T//ccRI64Di.s:1173   .text.i2c_interrupt_flag_get:0000000000000042 .L0 
/var/folders/yy/83vjwp7d53j56dbzj8_jnpcr0000gn/T//ccRI64Di.s:1178   .text.i2c_interrupt_flag_get:0000000000000046 .L0 
/var/folders/yy/83vjwp7d53j56dbzj8_jnpcr0000gn/T//ccRI64Di.s:1179   .text.i2c_interrupt_flag_get:0000000000000046 .L0 
/var/folders/yy/83vjwp7d53j56dbzj8_jnpcr0000gn/T//ccRI64Di.s:1182   .text.i2c_interrupt_flag_get:000000000000004a .L0 
/var/folders/yy/83vjwp7d53j56dbzj8_jnpcr0000gn/T//ccRI64Di.s:1184   .text.i2c_interrupt_flag_get:000000000000004c .L0 
/var/folders/yy/83vjwp7d53j56dbzj8_jnpcr0000gn/T//ccRI64Di.s:1189   .text.i2c_interrupt_flag_get:0000000000000050 .L0 
/var/folders/yy/83vjwp7d53j56dbzj8_jnpcr0000gn/T//ccRI64Di.s:1190   .text.i2c_interrupt_flag_get:0000000000000050 .L0 
/var/folders/yy/83vjwp7d53j56dbzj8_jnpcr0000gn/T//ccRI64Di.s:1193   .text.i2c_interrupt_flag_get:0000000000000056 .L0 
/var/folders/yy/83vjwp7d53j56dbzj8_jnpcr0000gn/T//ccRI64Di.s:1200   .text.i2c_interrupt_flag_clear:0000000000000000 i2c_interrupt_flag_clear
/var/folders/yy/83vjwp7d53j56dbzj8_jnpcr0000gn/T//ccRI64Di.s:1203   .text.i2c_interrupt_flag_clear:0000000000000000 .L0 
/var/folders/yy/83vjwp7d53j56dbzj8_jnpcr0000gn/T//ccRI64Di.s:1205   .text.i2c_interrupt_flag_clear:0000000000000000 .L0 
/var/folders/yy/83vjwp7d53j56dbzj8_jnpcr0000gn/T//ccRI64Di.s:1206   .text.i2c_interrupt_flag_clear:0000000000000000 .L0 
/var/folders/yy/83vjwp7d53j56dbzj8_jnpcr0000gn/T//ccRI64Di.s:1207   .text.i2c_interrupt_flag_clear:0000000000000000 .L0 
/var/folders/yy/83vjwp7d53j56dbzj8_jnpcr0000gn/T//ccRI64Di.s:1211   .text.i2c_interrupt_flag_clear:000000000000000c .L0 
/var/folders/yy/83vjwp7d53j56dbzj8_jnpcr0000gn/T//ccRI64Di.s:1213   .text.i2c_interrupt_flag_clear:000000000000000e .L0 
/var/folders/yy/83vjwp7d53j56dbzj8_jnpcr0000gn/T//ccRI64Di.s:1217   .text.i2c_interrupt_flag_clear:0000000000000012 .L0 
/var/folders/yy/83vjwp7d53j56dbzj8_jnpcr0000gn/T//ccRI64Di.s:1218   .text.i2c_interrupt_flag_clear:0000000000000012 .L0 
/var/folders/yy/83vjwp7d53j56dbzj8_jnpcr0000gn/T//ccRI64Di.s:1223   .text.i2c_interrupt_flag_clear:000000000000001a .L0 
/var/folders/yy/83vjwp7d53j56dbzj8_jnpcr0000gn/T//ccRI64Di.s:1228   .text.i2c_interrupt_flag_clear:0000000000000022 .L0 
/var/folders/yy/83vjwp7d53j56dbzj8_jnpcr0000gn/T//ccRI64Di.s:1230   .text.i2c_interrupt_flag_clear:0000000000000026 .L0 
/var/folders/yy/83vjwp7d53j56dbzj8_jnpcr0000gn/T//ccRI64Di.s:1233   .text.i2c_interrupt_flag_clear:000000000000002a .L0 
/var/folders/yy/83vjwp7d53j56dbzj8_jnpcr0000gn/T//ccRI64Di.s:1234   .text.i2c_interrupt_flag_clear:000000000000002c .L0 
/var/folders/yy/83vjwp7d53j56dbzj8_jnpcr0000gn/T//ccRI64Di.s:78     .text.i2c_deinit:0000000000000050 .L0 
/var/folders/yy/83vjwp7d53j56dbzj8_jnpcr0000gn/T//ccRI64Di.s:374    .text.i2c_clock_config:0000000000000142 .L0 
/var/folders/yy/83vjwp7d53j56dbzj8_jnpcr0000gn/T//ccRI64Di.s:414    .text.i2c_mode_addr_config:0000000000000012 .L0 
/var/folders/yy/83vjwp7d53j56dbzj8_jnpcr0000gn/T//ccRI64Di.s:445    .text.i2c_smbus_type_config:0000000000000016 .L0 
/var/folders/yy/83vjwp7d53j56dbzj8_jnpcr0000gn/T//ccRI64Di.s:476    .text.i2c_ack_config:0000000000000018 .L0 
/var/folders/yy/83vjwp7d53j56dbzj8_jnpcr0000gn/T//ccRI64Di.s:510    .text.i2c_ackpos_config:000000000000001a .L0 
/var/folders/yy/83vjwp7d53j56dbzj8_jnpcr0000gn/T//ccRI64Di.s:539    .text.i2c_master_addressing:0000000000000012 .L0 
/var/folders/yy/83vjwp7d53j56dbzj8_jnpcr0000gn/T//ccRI64Di.s:563    .text.i2c_dualaddr_enable:000000000000000c .L0 
/var/folders/yy/83vjwp7d53j56dbzj8_jnpcr0000gn/T//ccRI64Di.s:582    .text.i2c_dualaddr_disable:0000000000000008 .L0 
/var/folders/yy/83vjwp7d53j56dbzj8_jnpcr0000gn/T//ccRI64Di.s:601    .text.i2c_enable:000000000000000a .L0 
/var/folders/yy/83vjwp7d53j56dbzj8_jnpcr0000gn/T//ccRI64Di.s:620    .text.i2c_disable:0000000000000008 .L0 
/var/folders/yy/83vjwp7d53j56dbzj8_jnpcr0000gn/T//ccRI64Di.s:639    .text.i2c_start_on_bus:000000000000000a .L0 
/var/folders/yy/83vjwp7d53j56dbzj8_jnpcr0000gn/T//ccRI64Di.s:658    .text.i2c_stop_on_bus:000000000000000a .L0 
/var/folders/yy/83vjwp7d53j56dbzj8_jnpcr0000gn/T//ccRI64Di.s:675    .text.i2c_data_transmit:0000000000000004 .L0 
/var/folders/yy/83vjwp7d53j56dbzj8_jnpcr0000gn/T//ccRI64Di.s:694    .text.i2c_data_receive:0000000000000008 .L0 
/var/folders/yy/83vjwp7d53j56dbzj8_jnpcr0000gn/T//ccRI64Di.s:726    .text.i2c_dma_enable:0000000000000010 .L0 
/var/folders/yy/83vjwp7d53j56dbzj8_jnpcr0000gn/T//ccRI64Di.s:758    .text.i2c_dma_last_transfer_config:000000000000000e .L0 
/var/folders/yy/83vjwp7d53j56dbzj8_jnpcr0000gn/T//ccRI64Di.s:788    .text.i2c_stretch_scl_low_config:000000000000000c .L0 
/var/folders/yy/83vjwp7d53j56dbzj8_jnpcr0000gn/T//ccRI64Di.s:818    .text.i2c_slave_response_to_gcall_config:000000000000000c .L0 
/var/folders/yy/83vjwp7d53j56dbzj8_jnpcr0000gn/T//ccRI64Di.s:850    .text.i2c_software_reset_config:000000000000000e .L0 
/var/folders/yy/83vjwp7d53j56dbzj8_jnpcr0000gn/T//ccRI64Di.s:880    .text.i2c_pec_enable:000000000000000c .L0 
/var/folders/yy/83vjwp7d53j56dbzj8_jnpcr0000gn/T//ccRI64Di.s:912    .text.i2c_pec_transfer_enable:000000000000000e .L0 
GAS LISTING /var/folders/yy/83vjwp7d53j56dbzj8_jnpcr0000gn/T//ccRI64Di.s 			page 46


/var/folders/yy/83vjwp7d53j56dbzj8_jnpcr0000gn/T//ccRI64Di.s:933    .text.i2c_pec_value_get:000000000000000a .L0 
/var/folders/yy/83vjwp7d53j56dbzj8_jnpcr0000gn/T//ccRI64Di.s:965    .text.i2c_smbus_issue_alert:000000000000000e .L0 
/var/folders/yy/83vjwp7d53j56dbzj8_jnpcr0000gn/T//ccRI64Di.s:995    .text.i2c_smbus_arp_enable:000000000000000a .L0 
/var/folders/yy/83vjwp7d53j56dbzj8_jnpcr0000gn/T//ccRI64Di.s:1019   .text.i2c_flag_get:0000000000000014 .L0 
/var/folders/yy/83vjwp7d53j56dbzj8_jnpcr0000gn/T//ccRI64Di.s:1058   .text.i2c_flag_clear:000000000000002a .L0 
/var/folders/yy/83vjwp7d53j56dbzj8_jnpcr0000gn/T//ccRI64Di.s:1085   .text.i2c_interrupt_enable:0000000000000018 .L0 
/var/folders/yy/83vjwp7d53j56dbzj8_jnpcr0000gn/T//ccRI64Di.s:1114   .text.i2c_interrupt_disable:000000000000001c .L0 
/var/folders/yy/83vjwp7d53j56dbzj8_jnpcr0000gn/T//ccRI64Di.s:1196   .text.i2c_interrupt_flag_get:0000000000000056 .L0 
/var/folders/yy/83vjwp7d53j56dbzj8_jnpcr0000gn/T//ccRI64Di.s:1237   .text.i2c_interrupt_flag_clear:000000000000002c .L0 
                     .debug_frame:0000000000000000 .L0 
/var/folders/yy/83vjwp7d53j56dbzj8_jnpcr0000gn/T//ccRI64Di.s:43     .text.i2c_deinit:0000000000000022 .L2
/var/folders/yy/83vjwp7d53j56dbzj8_jnpcr0000gn/T//ccRI64Di.s:64     .text.i2c_deinit:000000000000003e .L3
/var/folders/yy/83vjwp7d53j56dbzj8_jnpcr0000gn/T//ccRI64Di.s:53     .text.i2c_deinit:0000000000000032 .L7
/var/folders/yy/83vjwp7d53j56dbzj8_jnpcr0000gn/T//ccRI64Di.s:131    .text.i2c_clock_config:0000000000000038 .L9
/var/folders/yy/83vjwp7d53j56dbzj8_jnpcr0000gn/T//ccRI64Di.s:223    .text.i2c_clock_config:000000000000008a .L10
/var/folders/yy/83vjwp7d53j56dbzj8_jnpcr0000gn/T//ccRI64Di.s:173    .text.i2c_clock_config:0000000000000060 .L11
/var/folders/yy/83vjwp7d53j56dbzj8_jnpcr0000gn/T//ccRI64Di.s:182    .text.i2c_clock_config:0000000000000068 .L12
/var/folders/yy/83vjwp7d53j56dbzj8_jnpcr0000gn/T//ccRI64Di.s:166    .text.i2c_clock_config:000000000000005c .L13
/var/folders/yy/83vjwp7d53j56dbzj8_jnpcr0000gn/T//ccRI64Di.s:199    .text.i2c_clock_config:0000000000000078 .L14
/var/folders/yy/83vjwp7d53j56dbzj8_jnpcr0000gn/T//ccRI64Di.s:302    .text.i2c_clock_config:00000000000000ea .L16
/var/folders/yy/83vjwp7d53j56dbzj8_jnpcr0000gn/T//ccRI64Di.s:286    .text.i2c_clock_config:00000000000000d8 .L17
/var/folders/yy/83vjwp7d53j56dbzj8_jnpcr0000gn/T//ccRI64Di.s:272    .text.i2c_clock_config:00000000000000ca .L19
/var/folders/yy/83vjwp7d53j56dbzj8_jnpcr0000gn/T//ccRI64Di.s:204    .text.i2c_clock_config:000000000000007e .L27
/var/folders/yy/83vjwp7d53j56dbzj8_jnpcr0000gn/T//ccRI64Di.s:261    .text.i2c_clock_config:00000000000000be .L25
/var/folders/yy/83vjwp7d53j56dbzj8_jnpcr0000gn/T//ccRI64Di.s:356    .text.i2c_clock_config:0000000000000130 .L20
/var/folders/yy/83vjwp7d53j56dbzj8_jnpcr0000gn/T//ccRI64Di.s:207    .text.i2c_clock_config:0000000000000080 .L8
/var/folders/yy/83vjwp7d53j56dbzj8_jnpcr0000gn/T//ccRI64Di.s:333    .text.i2c_clock_config:0000000000000112 .L26
/var/folders/yy/83vjwp7d53j56dbzj8_jnpcr0000gn/T//ccRI64Di.s:436    .text.i2c_smbus_type_config:0000000000000010 .L30
/var/folders/yy/83vjwp7d53j56dbzj8_jnpcr0000gn/T//ccRI64Di.s:431    .text.i2c_smbus_type_config:000000000000000c .L32
/var/folders/yy/83vjwp7d53j56dbzj8_jnpcr0000gn/T//ccRI64Di.s:467    .text.i2c_ack_config:0000000000000010 .L34
/var/folders/yy/83vjwp7d53j56dbzj8_jnpcr0000gn/T//ccRI64Di.s:462    .text.i2c_ack_config:000000000000000c .L36
/var/folders/yy/83vjwp7d53j56dbzj8_jnpcr0000gn/T//ccRI64Di.s:500    .text.i2c_ackpos_config:0000000000000010 .L38
/var/folders/yy/83vjwp7d53j56dbzj8_jnpcr0000gn/T//ccRI64Di.s:495    .text.i2c_ackpos_config:000000000000000c .L40
/var/folders/yy/83vjwp7d53j56dbzj8_jnpcr0000gn/T//ccRI64Di.s:530    .text.i2c_master_addressing:000000000000000e .L43
/var/folders/yy/83vjwp7d53j56dbzj8_jnpcr0000gn/T//ccRI64Di.s:1037   .text.i2c_flag_clear:000000000000000e .L64
/var/folders/yy/83vjwp7d53j56dbzj8_jnpcr0000gn/T//ccRI64Di.s:1176   .text.i2c_interrupt_flag_get:0000000000000046 .L69
/var/folders/yy/83vjwp7d53j56dbzj8_jnpcr0000gn/T//ccRI64Di.s:1171   .text.i2c_interrupt_flag_get:0000000000000042 .L68
/var/folders/yy/83vjwp7d53j56dbzj8_jnpcr0000gn/T//ccRI64Di.s:1187   .text.i2c_interrupt_flag_get:0000000000000050 .L71
/var/folders/yy/83vjwp7d53j56dbzj8_jnpcr0000gn/T//ccRI64Di.s:1215   .text.i2c_interrupt_flag_clear:0000000000000012 .L77
/var/folders/yy/83vjwp7d53j56dbzj8_jnpcr0000gn/T//ccRI64Di.s:2730   .debug_abbrev:0000000000000000 .Ldebug_abbrev0
/var/folders/yy/83vjwp7d53j56dbzj8_jnpcr0000gn/T//ccRI64Di.s:4483   .debug_str:00000000000005b5 .LASF157
/var/folders/yy/83vjwp7d53j56dbzj8_jnpcr0000gn/T//ccRI64Di.s:4547   .debug_str:00000000000007ea .LASF158
/var/folders/yy/83vjwp7d53j56dbzj8_jnpcr0000gn/T//ccRI64Di.s:4541   .debug_str:000000000000077d .LASF159
/var/folders/yy/83vjwp7d53j56dbzj8_jnpcr0000gn/T//ccRI64Di.s:4221   .debug_ranges:0000000000000000 .Ldebug_ranges0
/var/folders/yy/83vjwp7d53j56dbzj8_jnpcr0000gn/T//ccRI64Di.s:4287   .debug_line:0000000000000000 .Ldebug_line0
/var/folders/yy/83vjwp7d53j56dbzj8_jnpcr0000gn/T//ccRI64Di.s:4309   .debug_str:00000000000000be .LASF0
/var/folders/yy/83vjwp7d53j56dbzj8_jnpcr0000gn/T//ccRI64Di.s:4577   .debug_str:00000000000008e7 .LASF1
/var/folders/yy/83vjwp7d53j56dbzj8_jnpcr0000gn/T//ccRI64Di.s:4523   .debug_str:000000000000070c .LASF6
/var/folders/yy/83vjwp7d53j56dbzj8_jnpcr0000gn/T//ccRI64Di.s:4553   .debug_str:0000000000000844 .LASF2
/var/folders/yy/83vjwp7d53j56dbzj8_jnpcr0000gn/T//ccRI64Di.s:4491   .debug_str:000000000000066a .LASF3
/var/folders/yy/83vjwp7d53j56dbzj8_jnpcr0000gn/T//ccRI64Di.s:4581   .debug_str:00000000000008fb .LASF4
/var/folders/yy/83vjwp7d53j56dbzj8_jnpcr0000gn/T//ccRI64Di.s:4497   .debug_str:000000000000068c .LASF5
/var/folders/yy/83vjwp7d53j56dbzj8_jnpcr0000gn/T//ccRI64Di.s:4555   .debug_str:0000000000000852 .LASF7
/var/folders/yy/83vjwp7d53j56dbzj8_jnpcr0000gn/T//ccRI64Di.s:4539   .debug_str:000000000000076b .LASF8
/var/folders/yy/83vjwp7d53j56dbzj8_jnpcr0000gn/T//ccRI64Di.s:4439   .debug_str:0000000000000481 .LASF9
/var/folders/yy/83vjwp7d53j56dbzj8_jnpcr0000gn/T//ccRI64Di.s:4359   .debug_str:000000000000022c .LASF10
/var/folders/yy/83vjwp7d53j56dbzj8_jnpcr0000gn/T//ccRI64Di.s:4427   .debug_str:0000000000000433 .LASF11
GAS LISTING /var/folders/yy/83vjwp7d53j56dbzj8_jnpcr0000gn/T//ccRI64Di.s 			page 47


/var/folders/yy/83vjwp7d53j56dbzj8_jnpcr0000gn/T//ccRI64Di.s:4335   .debug_str:000000000000017c .LASF12
/var/folders/yy/83vjwp7d53j56dbzj8_jnpcr0000gn/T//ccRI64Di.s:4475   .debug_str:000000000000057a .LASF160
/var/folders/yy/83vjwp7d53j56dbzj8_jnpcr0000gn/T//ccRI64Di.s:4509   .debug_str:00000000000006c7 .LASF13
/var/folders/yy/83vjwp7d53j56dbzj8_jnpcr0000gn/T//ccRI64Di.s:4323   .debug_str:000000000000011c .LASF14
/var/folders/yy/83vjwp7d53j56dbzj8_jnpcr0000gn/T//ccRI64Di.s:4429   .debug_str:000000000000043b .LASF15
/var/folders/yy/83vjwp7d53j56dbzj8_jnpcr0000gn/T//ccRI64Di.s:4387   .debug_str:0000000000000313 .LASF16
/var/folders/yy/83vjwp7d53j56dbzj8_jnpcr0000gn/T//ccRI64Di.s:4575   .debug_str:00000000000008d9 .LASF17
/var/folders/yy/83vjwp7d53j56dbzj8_jnpcr0000gn/T//ccRI64Di.s:4437   .debug_str:0000000000000473 .LASF18
/var/folders/yy/83vjwp7d53j56dbzj8_jnpcr0000gn/T//ccRI64Di.s:4301   .debug_str:000000000000006e .LASF19
/var/folders/yy/83vjwp7d53j56dbzj8_jnpcr0000gn/T//ccRI64Di.s:4481   .debug_str:00000000000005a7 .LASF20
/var/folders/yy/83vjwp7d53j56dbzj8_jnpcr0000gn/T//ccRI64Di.s:4345   .debug_str:00000000000001bc .LASF21
/var/folders/yy/83vjwp7d53j56dbzj8_jnpcr0000gn/T//ccRI64Di.s:4565   .debug_str:000000000000089d .LASF22
/var/folders/yy/83vjwp7d53j56dbzj8_jnpcr0000gn/T//ccRI64Di.s:4311   .debug_str:00000000000000cb .LASF23
/var/folders/yy/83vjwp7d53j56dbzj8_jnpcr0000gn/T//ccRI64Di.s:4489   .debug_str:000000000000065e .LASF24
/var/folders/yy/83vjwp7d53j56dbzj8_jnpcr0000gn/T//ccRI64Di.s:4533   .debug_str:0000000000000747 .LASF25
/var/folders/yy/83vjwp7d53j56dbzj8_jnpcr0000gn/T//ccRI64Di.s:4395   .debug_str:0000000000000351 .LASF26
/var/folders/yy/83vjwp7d53j56dbzj8_jnpcr0000gn/T//ccRI64Di.s:4529   .debug_str:000000000000072d .LASF27
/var/folders/yy/83vjwp7d53j56dbzj8_jnpcr0000gn/T//ccRI64Di.s:4391   .debug_str:0000000000000330 .LASF28
/var/folders/yy/83vjwp7d53j56dbzj8_jnpcr0000gn/T//ccRI64Di.s:4563   .debug_str:0000000000000891 .LASF29
/var/folders/yy/83vjwp7d53j56dbzj8_jnpcr0000gn/T//ccRI64Di.s:4419   .debug_str:0000000000000400 .LASF30
/var/folders/yy/83vjwp7d53j56dbzj8_jnpcr0000gn/T//ccRI64Di.s:4501   .debug_str:000000000000069e .LASF31
/var/folders/yy/83vjwp7d53j56dbzj8_jnpcr0000gn/T//ccRI64Di.s:4371   .debug_str:0000000000000294 .LASF32
/var/folders/yy/83vjwp7d53j56dbzj8_jnpcr0000gn/T//ccRI64Di.s:4585   .debug_str:000000000000091c .LASF33
/var/folders/yy/83vjwp7d53j56dbzj8_jnpcr0000gn/T//ccRI64Di.s:4443   .debug_str:00000000000004a1 .LASF34
/var/folders/yy/83vjwp7d53j56dbzj8_jnpcr0000gn/T//ccRI64Di.s:4305   .debug_str:0000000000000099 .LASF35
/var/folders/yy/83vjwp7d53j56dbzj8_jnpcr0000gn/T//ccRI64Di.s:4493   .debug_str:0000000000000674 .LASF36
/var/folders/yy/83vjwp7d53j56dbzj8_jnpcr0000gn/T//ccRI64Di.s:4433   .debug_str:0000000000000456 .LASF37
/var/folders/yy/83vjwp7d53j56dbzj8_jnpcr0000gn/T//ccRI64Di.s:4297   .debug_str:0000000000000057 .LASF38
/var/folders/yy/83vjwp7d53j56dbzj8_jnpcr0000gn/T//ccRI64Di.s:4469   .debug_str:0000000000000555 .LASF39
/var/folders/yy/83vjwp7d53j56dbzj8_jnpcr0000gn/T//ccRI64Di.s:4333   .debug_str:000000000000016f .LASF40
/var/folders/yy/83vjwp7d53j56dbzj8_jnpcr0000gn/T//ccRI64Di.s:4531   .debug_str:000000000000073a .LASF41
/var/folders/yy/83vjwp7d53j56dbzj8_jnpcr0000gn/T//ccRI64Di.s:4383   .debug_str:00000000000002f3 .LASF42
/var/folders/yy/83vjwp7d53j56dbzj8_jnpcr0000gn/T//ccRI64Di.s:4573   .debug_str:00000000000008cd .LASF43
/var/folders/yy/83vjwp7d53j56dbzj8_jnpcr0000gn/T//ccRI64Di.s:4527   .debug_str:000000000000071f .LASF44
/var/folders/yy/83vjwp7d53j56dbzj8_jnpcr0000gn/T//ccRI64Di.s:4449   .debug_str:00000000000004d2 .LASF45
/var/folders/yy/83vjwp7d53j56dbzj8_jnpcr0000gn/T//ccRI64Di.s:4337   .debug_str:0000000000000185 .LASF46
/var/folders/yy/83vjwp7d53j56dbzj8_jnpcr0000gn/T//ccRI64Di.s:4461   .debug_str:000000000000052a .LASF47
/var/folders/yy/83vjwp7d53j56dbzj8_jnpcr0000gn/T//ccRI64Di.s:4379   .debug_str:00000000000002dc .LASF48
/var/folders/yy/83vjwp7d53j56dbzj8_jnpcr0000gn/T//ccRI64Di.s:4513   .debug_str:00000000000006dd .LASF49
/var/folders/yy/83vjwp7d53j56dbzj8_jnpcr0000gn/T//ccRI64Di.s:4515   .debug_str:00000000000006e5 .LASF50
/var/folders/yy/83vjwp7d53j56dbzj8_jnpcr0000gn/T//ccRI64Di.s:4471   .debug_str:0000000000000562 .LASF51
/var/folders/yy/83vjwp7d53j56dbzj8_jnpcr0000gn/T//ccRI64Di.s:4341   .debug_str:000000000000019b .LASF52
/var/folders/yy/83vjwp7d53j56dbzj8_jnpcr0000gn/T//ccRI64Di.s:4549   .debug_str:000000000000082e .LASF53
/var/folders/yy/83vjwp7d53j56dbzj8_jnpcr0000gn/T//ccRI64Di.s:4403   .debug_str:0000000000000387 .LASF54
/var/folders/yy/83vjwp7d53j56dbzj8_jnpcr0000gn/T//ccRI64Di.s:4365   .debug_str:0000000000000269 .LASF55
/var/folders/yy/83vjwp7d53j56dbzj8_jnpcr0000gn/T//ccRI64Di.s:4351   .debug_str:00000000000001e4 .LASF56
/var/folders/yy/83vjwp7d53j56dbzj8_jnpcr0000gn/T//ccRI64Di.s:4431   .debug_str:0000000000000448 .LASF57
/var/folders/yy/83vjwp7d53j56dbzj8_jnpcr0000gn/T//ccRI64Di.s:4397   .debug_str:000000000000035f .LASF58
/var/folders/yy/83vjwp7d53j56dbzj8_jnpcr0000gn/T//ccRI64Di.s:4503   .debug_str:00000000000006aa .LASF59
/var/folders/yy/83vjwp7d53j56dbzj8_jnpcr0000gn/T//ccRI64Di.s:4485   .debug_str:000000000000063d .LASF60
/var/folders/yy/83vjwp7d53j56dbzj8_jnpcr0000gn/T//ccRI64Di.s:4319   .debug_str:00000000000000f8 .LASF61
/var/folders/yy/83vjwp7d53j56dbzj8_jnpcr0000gn/T//ccRI64Di.s:4389   .debug_str:0000000000000321 .LASF62
/var/folders/yy/83vjwp7d53j56dbzj8_jnpcr0000gn/T//ccRI64Di.s:4405   .debug_str:0000000000000394 .LASF63
/var/folders/yy/83vjwp7d53j56dbzj8_jnpcr0000gn/T//ccRI64Di.s:4367   .debug_str:000000000000027c .LASF64
/var/folders/yy/83vjwp7d53j56dbzj8_jnpcr0000gn/T//ccRI64Di.s:4511   .debug_str:00000000000006cd .LASF65
/var/folders/yy/83vjwp7d53j56dbzj8_jnpcr0000gn/T//ccRI64Di.s:4381   .debug_str:00000000000002e3 .LASF66
/var/folders/yy/83vjwp7d53j56dbzj8_jnpcr0000gn/T//ccRI64Di.s:4487   .debug_str:000000000000064e .LASF67
GAS LISTING /var/folders/yy/83vjwp7d53j56dbzj8_jnpcr0000gn/T//ccRI64Di.s 			page 48


/var/folders/yy/83vjwp7d53j56dbzj8_jnpcr0000gn/T//ccRI64Di.s:4473   .debug_str:000000000000056e .LASF68
/var/folders/yy/83vjwp7d53j56dbzj8_jnpcr0000gn/T//ccRI64Di.s:4517   .debug_str:00000000000006ed .LASF69
/var/folders/yy/83vjwp7d53j56dbzj8_jnpcr0000gn/T//ccRI64Di.s:4605   .debug_str:00000000000009c0 .LASF70
/var/folders/yy/83vjwp7d53j56dbzj8_jnpcr0000gn/T//ccRI64Di.s:4479   .debug_str:0000000000000597 .LASF71
/var/folders/yy/83vjwp7d53j56dbzj8_jnpcr0000gn/T//ccRI64Di.s:4373   .debug_str:00000000000002a0 .LASF72
/var/folders/yy/83vjwp7d53j56dbzj8_jnpcr0000gn/T//ccRI64Di.s:4495   .debug_str:000000000000067e .LASF73
/var/folders/yy/83vjwp7d53j56dbzj8_jnpcr0000gn/T//ccRI64Di.s:4385   .debug_str:00000000000002ff .LASF74
/var/folders/yy/83vjwp7d53j56dbzj8_jnpcr0000gn/T//ccRI64Di.s:4413   .debug_str:00000000000003c4 .LASF75
/var/folders/yy/83vjwp7d53j56dbzj8_jnpcr0000gn/T//ccRI64Di.s:4361   .debug_str:0000000000000243 .LASF76
/var/folders/yy/83vjwp7d53j56dbzj8_jnpcr0000gn/T//ccRI64Di.s:4355   .debug_str:0000000000000206 .LASF77
/var/folders/yy/83vjwp7d53j56dbzj8_jnpcr0000gn/T//ccRI64Di.s:4393   .debug_str:000000000000033d .LASF78
/var/folders/yy/83vjwp7d53j56dbzj8_jnpcr0000gn/T//ccRI64Di.s:4561   .debug_str:000000000000087f .LASF79
/var/folders/yy/83vjwp7d53j56dbzj8_jnpcr0000gn/T//ccRI64Di.s:4343   .debug_str:00000000000001ab .LASF80
/var/folders/yy/83vjwp7d53j56dbzj8_jnpcr0000gn/T//ccRI64Di.s:4353   .debug_str:00000000000001f4 .LASF81
/var/folders/yy/83vjwp7d53j56dbzj8_jnpcr0000gn/T//ccRI64Di.s:4363   .debug_str:0000000000000254 .LASF82
/var/folders/yy/83vjwp7d53j56dbzj8_jnpcr0000gn/T//ccRI64Di.s:4441   .debug_str:000000000000048f .LASF83
/var/folders/yy/83vjwp7d53j56dbzj8_jnpcr0000gn/T//ccRI64Di.s:4609   .debug_str:00000000000009db .LASF84
/var/folders/yy/83vjwp7d53j56dbzj8_jnpcr0000gn/T//ccRI64Di.s:4451   .debug_str:00000000000004de .LASF85
/var/folders/yy/83vjwp7d53j56dbzj8_jnpcr0000gn/T//ccRI64Di.s:4587   .debug_str:0000000000000928 .LASF86
/var/folders/yy/83vjwp7d53j56dbzj8_jnpcr0000gn/T//ccRI64Di.s:4597   .debug_str:0000000000000984 .LASF87
/var/folders/yy/83vjwp7d53j56dbzj8_jnpcr0000gn/T//ccRI64Di.s:4425   .debug_str:000000000000041b .LASF88
/var/folders/yy/83vjwp7d53j56dbzj8_jnpcr0000gn/T//ccRI64Di.s:4315   .debug_str:00000000000000e3 .LASF89
/var/folders/yy/83vjwp7d53j56dbzj8_jnpcr0000gn/T//ccRI64Di.s:4603   .debug_str:00000000000009b5 .LASF90
/var/folders/yy/83vjwp7d53j56dbzj8_jnpcr0000gn/T//ccRI64Di.s:4313   .debug_str:00000000000000d7 .LASF91
/var/folders/yy/83vjwp7d53j56dbzj8_jnpcr0000gn/T//ccRI64Di.s:4569   .debug_str:00000000000008af .LASF92
/var/folders/yy/83vjwp7d53j56dbzj8_jnpcr0000gn/T//ccRI64Di.s:4593   .debug_str:0000000000000956 .LASF98
/var/folders/yy/83vjwp7d53j56dbzj8_jnpcr0000gn/T//ccRI64Di.s:1201   .text.i2c_interrupt_flag_clear:0000000000000000 .LFB32
/var/folders/yy/83vjwp7d53j56dbzj8_jnpcr0000gn/T//ccRI64Di.s:1235   .text.i2c_interrupt_flag_clear:000000000000002c .LFE32
/var/folders/yy/83vjwp7d53j56dbzj8_jnpcr0000gn/T//ccRI64Di.s:4571   .debug_str:00000000000008c2 .LASF93
/var/folders/yy/83vjwp7d53j56dbzj8_jnpcr0000gn/T//ccRI64Di.s:3207   .debug_loc:0000000000000000 .LLST45
/var/folders/yy/83vjwp7d53j56dbzj8_jnpcr0000gn/T//ccRI64Di.s:4347   .debug_str:00000000000001ca .LASF94
/var/folders/yy/83vjwp7d53j56dbzj8_jnpcr0000gn/T//ccRI64Di.s:3221   .debug_loc:0000000000000021 .LLST46
/var/folders/yy/83vjwp7d53j56dbzj8_jnpcr0000gn/T//ccRI64Di.s:4457   .debug_str:0000000000000509 .LASF104
/var/folders/yy/83vjwp7d53j56dbzj8_jnpcr0000gn/T//ccRI64Di.s:1119   .text.i2c_interrupt_flag_get:0000000000000000 .LFB31
/var/folders/yy/83vjwp7d53j56dbzj8_jnpcr0000gn/T//ccRI64Di.s:1194   .text.i2c_interrupt_flag_get:0000000000000056 .LFE31
/var/folders/yy/83vjwp7d53j56dbzj8_jnpcr0000gn/T//ccRI64Di.s:3235   .debug_loc:0000000000000042 .LLST40
/var/folders/yy/83vjwp7d53j56dbzj8_jnpcr0000gn/T//ccRI64Di.s:3249   .debug_loc:0000000000000063 .LLST41
/var/folders/yy/83vjwp7d53j56dbzj8_jnpcr0000gn/T//ccRI64Di.s:4459   .debug_str:0000000000000520 .LASF95
/var/folders/yy/83vjwp7d53j56dbzj8_jnpcr0000gn/T//ccRI64Di.s:3263   .debug_loc:0000000000000084 .LLST42
/var/folders/yy/83vjwp7d53j56dbzj8_jnpcr0000gn/T//ccRI64Di.s:4599   .debug_str:0000000000000998 .LASF96
/var/folders/yy/83vjwp7d53j56dbzj8_jnpcr0000gn/T//ccRI64Di.s:3284   .debug_loc:00000000000000ba .LLST43
/var/folders/yy/83vjwp7d53j56dbzj8_jnpcr0000gn/T//ccRI64Di.s:4521   .debug_str:0000000000000706 .LASF97
/var/folders/yy/83vjwp7d53j56dbzj8_jnpcr0000gn/T//ccRI64Di.s:3296   .debug_loc:00000000000000d9 .LLST44
/var/folders/yy/83vjwp7d53j56dbzj8_jnpcr0000gn/T//ccRI64Di.s:4401   .debug_str:0000000000000371 .LASF99
/var/folders/yy/83vjwp7d53j56dbzj8_jnpcr0000gn/T//ccRI64Di.s:1090   .text.i2c_interrupt_disable:0000000000000000 .LFB30
/var/folders/yy/83vjwp7d53j56dbzj8_jnpcr0000gn/T//ccRI64Di.s:1112   .text.i2c_interrupt_disable:000000000000001c .LFE30
/var/folders/yy/83vjwp7d53j56dbzj8_jnpcr0000gn/T//ccRI64Di.s:3334   .debug_loc:000000000000012a .LLST39
/var/folders/yy/83vjwp7d53j56dbzj8_jnpcr0000gn/T//ccRI64Di.s:4537   .debug_str:0000000000000761 .LASF100
/var/folders/yy/83vjwp7d53j56dbzj8_jnpcr0000gn/T//ccRI64Di.s:4589   .debug_str:000000000000093b .LASF101
/var/folders/yy/83vjwp7d53j56dbzj8_jnpcr0000gn/T//ccRI64Di.s:1063   .text.i2c_interrupt_enable:0000000000000000 .LFB29
/var/folders/yy/83vjwp7d53j56dbzj8_jnpcr0000gn/T//ccRI64Di.s:1083   .text.i2c_interrupt_enable:0000000000000018 .LFE29
/var/folders/yy/83vjwp7d53j56dbzj8_jnpcr0000gn/T//ccRI64Di.s:3348   .debug_loc:000000000000014b .LLST38
/var/folders/yy/83vjwp7d53j56dbzj8_jnpcr0000gn/T//ccRI64Di.s:4357   .debug_str:000000000000021d .LASF102
/var/folders/yy/83vjwp7d53j56dbzj8_jnpcr0000gn/T//ccRI64Di.s:1024   .text.i2c_flag_clear:0000000000000000 .LFB28
/var/folders/yy/83vjwp7d53j56dbzj8_jnpcr0000gn/T//ccRI64Di.s:1056   .text.i2c_flag_clear:000000000000002a .LFE28
/var/folders/yy/83vjwp7d53j56dbzj8_jnpcr0000gn/T//ccRI64Di.s:3362   .debug_loc:000000000000016c .LLST37
/var/folders/yy/83vjwp7d53j56dbzj8_jnpcr0000gn/T//ccRI64Di.s:4409   .debug_str:00000000000003b6 .LASF103
GAS LISTING /var/folders/yy/83vjwp7d53j56dbzj8_jnpcr0000gn/T//ccRI64Di.s 			page 49


/var/folders/yy/83vjwp7d53j56dbzj8_jnpcr0000gn/T//ccRI64Di.s:4477   .debug_str:000000000000058a .LASF105
/var/folders/yy/83vjwp7d53j56dbzj8_jnpcr0000gn/T//ccRI64Di.s:1000   .text.i2c_flag_get:0000000000000000 .LFB27
/var/folders/yy/83vjwp7d53j56dbzj8_jnpcr0000gn/T//ccRI64Di.s:1017   .text.i2c_flag_get:0000000000000014 .LFE27
/var/folders/yy/83vjwp7d53j56dbzj8_jnpcr0000gn/T//ccRI64Di.s:3376   .debug_loc:000000000000018d .LLST36
/var/folders/yy/83vjwp7d53j56dbzj8_jnpcr0000gn/T//ccRI64Di.s:4595   .debug_str:000000000000096f .LASF106
/var/folders/yy/83vjwp7d53j56dbzj8_jnpcr0000gn/T//ccRI64Di.s:970    .text.i2c_smbus_arp_enable:0000000000000000 .LFB26
/var/folders/yy/83vjwp7d53j56dbzj8_jnpcr0000gn/T//ccRI64Di.s:993    .text.i2c_smbus_arp_enable:000000000000000a .LFE26
/var/folders/yy/83vjwp7d53j56dbzj8_jnpcr0000gn/T//ccRI64Di.s:4317   .debug_str:00000000000000ef .LASF107
/var/folders/yy/83vjwp7d53j56dbzj8_jnpcr0000gn/T//ccRI64Di.s:3390   .debug_loc:00000000000001ae .LLST34
/var/folders/yy/83vjwp7d53j56dbzj8_jnpcr0000gn/T//ccRI64Di.s:3404   .debug_loc:00000000000001cf .LLST35
/var/folders/yy/83vjwp7d53j56dbzj8_jnpcr0000gn/T//ccRI64Di.s:4417   .debug_str:00000000000003ea .LASF108
/var/folders/yy/83vjwp7d53j56dbzj8_jnpcr0000gn/T//ccRI64Di.s:938    .text.i2c_smbus_issue_alert:0000000000000000 .LFB25
/var/folders/yy/83vjwp7d53j56dbzj8_jnpcr0000gn/T//ccRI64Di.s:963    .text.i2c_smbus_issue_alert:000000000000000e .LFE25
/var/folders/yy/83vjwp7d53j56dbzj8_jnpcr0000gn/T//ccRI64Di.s:4505   .debug_str:00000000000006b8 .LASF109
/var/folders/yy/83vjwp7d53j56dbzj8_jnpcr0000gn/T//ccRI64Di.s:3420   .debug_loc:00000000000001f9 .LLST32
/var/folders/yy/83vjwp7d53j56dbzj8_jnpcr0000gn/T//ccRI64Di.s:3434   .debug_loc:000000000000021a .LLST33
/var/folders/yy/83vjwp7d53j56dbzj8_jnpcr0000gn/T//ccRI64Di.s:4601   .debug_str:00000000000009a3 .LASF110
/var/folders/yy/83vjwp7d53j56dbzj8_jnpcr0000gn/T//ccRI64Di.s:917    .text.i2c_pec_value_get:0000000000000000 .LFB24
/var/folders/yy/83vjwp7d53j56dbzj8_jnpcr0000gn/T//ccRI64Di.s:931    .text.i2c_pec_value_get:000000000000000a .LFE24
/var/folders/yy/83vjwp7d53j56dbzj8_jnpcr0000gn/T//ccRI64Di.s:3450   .debug_loc:0000000000000244 .LLST31
/var/folders/yy/83vjwp7d53j56dbzj8_jnpcr0000gn/T//ccRI64Di.s:4289   .debug_str:0000000000000000 .LASF111
/var/folders/yy/83vjwp7d53j56dbzj8_jnpcr0000gn/T//ccRI64Di.s:885    .text.i2c_pec_transfer_enable:0000000000000000 .LFB23
/var/folders/yy/83vjwp7d53j56dbzj8_jnpcr0000gn/T//ccRI64Di.s:910    .text.i2c_pec_transfer_enable:000000000000000e .LFE23
/var/folders/yy/83vjwp7d53j56dbzj8_jnpcr0000gn/T//ccRI64Di.s:4339   .debug_str:0000000000000193 .LASF112
/var/folders/yy/83vjwp7d53j56dbzj8_jnpcr0000gn/T//ccRI64Di.s:3464   .debug_loc:0000000000000265 .LLST29
/var/folders/yy/83vjwp7d53j56dbzj8_jnpcr0000gn/T//ccRI64Di.s:3478   .debug_loc:0000000000000286 .LLST30
/var/folders/yy/83vjwp7d53j56dbzj8_jnpcr0000gn/T//ccRI64Di.s:4545   .debug_str:00000000000007db .LASF113
/var/folders/yy/83vjwp7d53j56dbzj8_jnpcr0000gn/T//ccRI64Di.s:855    .text.i2c_pec_enable:0000000000000000 .LFB22
/var/folders/yy/83vjwp7d53j56dbzj8_jnpcr0000gn/T//ccRI64Di.s:878    .text.i2c_pec_enable:000000000000000c .LFE22
/var/folders/yy/83vjwp7d53j56dbzj8_jnpcr0000gn/T//ccRI64Di.s:4411   .debug_str:00000000000003bb .LASF114
/var/folders/yy/83vjwp7d53j56dbzj8_jnpcr0000gn/T//ccRI64Di.s:3494   .debug_loc:00000000000002b0 .LLST27
/var/folders/yy/83vjwp7d53j56dbzj8_jnpcr0000gn/T//ccRI64Di.s:3508   .debug_loc:00000000000002d1 .LLST28
/var/folders/yy/83vjwp7d53j56dbzj8_jnpcr0000gn/T//ccRI64Di.s:4307   .debug_str:00000000000000a4 .LASF115
/var/folders/yy/83vjwp7d53j56dbzj8_jnpcr0000gn/T//ccRI64Di.s:823    .text.i2c_software_reset_config:0000000000000000 .LFB21
/var/folders/yy/83vjwp7d53j56dbzj8_jnpcr0000gn/T//ccRI64Di.s:848    .text.i2c_software_reset_config:000000000000000e .LFE21
/var/folders/yy/83vjwp7d53j56dbzj8_jnpcr0000gn/T//ccRI64Di.s:4291   .debug_str:0000000000000018 .LASF116
/var/folders/yy/83vjwp7d53j56dbzj8_jnpcr0000gn/T//ccRI64Di.s:3524   .debug_loc:00000000000002fb .LLST25
/var/folders/yy/83vjwp7d53j56dbzj8_jnpcr0000gn/T//ccRI64Di.s:3538   .debug_loc:000000000000031c .LLST26
/var/folders/yy/83vjwp7d53j56dbzj8_jnpcr0000gn/T//ccRI64Di.s:4295   .debug_str:0000000000000034 .LASF117
/var/folders/yy/83vjwp7d53j56dbzj8_jnpcr0000gn/T//ccRI64Di.s:793    .text.i2c_slave_response_to_gcall_config:0000000000000000 .LFB20
/var/folders/yy/83vjwp7d53j56dbzj8_jnpcr0000gn/T//ccRI64Di.s:816    .text.i2c_slave_response_to_gcall_config:000000000000000c .LFE20
/var/folders/yy/83vjwp7d53j56dbzj8_jnpcr0000gn/T//ccRI64Di.s:4299   .debug_str:0000000000000064 .LASF118
/var/folders/yy/83vjwp7d53j56dbzj8_jnpcr0000gn/T//ccRI64Di.s:3554   .debug_loc:0000000000000346 .LLST23
/var/folders/yy/83vjwp7d53j56dbzj8_jnpcr0000gn/T//ccRI64Di.s:3568   .debug_loc:0000000000000367 .LLST24
/var/folders/yy/83vjwp7d53j56dbzj8_jnpcr0000gn/T//ccRI64Di.s:4331   .debug_str:0000000000000154 .LASF119
/var/folders/yy/83vjwp7d53j56dbzj8_jnpcr0000gn/T//ccRI64Di.s:763    .text.i2c_stretch_scl_low_config:0000000000000000 .LFB19
/var/folders/yy/83vjwp7d53j56dbzj8_jnpcr0000gn/T//ccRI64Di.s:786    .text.i2c_stretch_scl_low_config:000000000000000c .LFE19
/var/folders/yy/83vjwp7d53j56dbzj8_jnpcr0000gn/T//ccRI64Di.s:4557   .debug_str:000000000000085d .LASF120
/var/folders/yy/83vjwp7d53j56dbzj8_jnpcr0000gn/T//ccRI64Di.s:3584   .debug_loc:0000000000000391 .LLST21
/var/folders/yy/83vjwp7d53j56dbzj8_jnpcr0000gn/T//ccRI64Di.s:3598   .debug_loc:00000000000003b2 .LLST22
/var/folders/yy/83vjwp7d53j56dbzj8_jnpcr0000gn/T//ccRI64Di.s:4303   .debug_str:000000000000007c .LASF121
/var/folders/yy/83vjwp7d53j56dbzj8_jnpcr0000gn/T//ccRI64Di.s:731    .text.i2c_dma_last_transfer_config:0000000000000000 .LFB18
/var/folders/yy/83vjwp7d53j56dbzj8_jnpcr0000gn/T//ccRI64Di.s:756    .text.i2c_dma_last_transfer_config:000000000000000e .LFE18
/var/folders/yy/83vjwp7d53j56dbzj8_jnpcr0000gn/T//ccRI64Di.s:4579   .debug_str:00000000000008f3 .LASF122
/var/folders/yy/83vjwp7d53j56dbzj8_jnpcr0000gn/T//ccRI64Di.s:3614   .debug_loc:00000000000003dc .LLST19
/var/folders/yy/83vjwp7d53j56dbzj8_jnpcr0000gn/T//ccRI64Di.s:3628   .debug_loc:00000000000003fd .LLST20
/var/folders/yy/83vjwp7d53j56dbzj8_jnpcr0000gn/T//ccRI64Di.s:4325   .debug_str:0000000000000127 .LASF123
GAS LISTING /var/folders/yy/83vjwp7d53j56dbzj8_jnpcr0000gn/T//ccRI64Di.s 			page 50


/var/folders/yy/83vjwp7d53j56dbzj8_jnpcr0000gn/T//ccRI64Di.s:699    .text.i2c_dma_enable:0000000000000000 .LFB17
/var/folders/yy/83vjwp7d53j56dbzj8_jnpcr0000gn/T//ccRI64Di.s:724    .text.i2c_dma_enable:0000000000000010 .LFE17
/var/folders/yy/83vjwp7d53j56dbzj8_jnpcr0000gn/T//ccRI64Di.s:4369   .debug_str:000000000000028b .LASF124
/var/folders/yy/83vjwp7d53j56dbzj8_jnpcr0000gn/T//ccRI64Di.s:3644   .debug_loc:0000000000000427 .LLST17
/var/folders/yy/83vjwp7d53j56dbzj8_jnpcr0000gn/T//ccRI64Di.s:3658   .debug_loc:0000000000000448 .LLST18
/var/folders/yy/83vjwp7d53j56dbzj8_jnpcr0000gn/T//ccRI64Di.s:4349   .debug_str:00000000000001d3 .LASF125
/var/folders/yy/83vjwp7d53j56dbzj8_jnpcr0000gn/T//ccRI64Di.s:680    .text.i2c_data_receive:0000000000000000 .LFB16
/var/folders/yy/83vjwp7d53j56dbzj8_jnpcr0000gn/T//ccRI64Di.s:692    .text.i2c_data_receive:0000000000000008 .LFE16
/var/folders/yy/83vjwp7d53j56dbzj8_jnpcr0000gn/T//ccRI64Di.s:3674   .debug_loc:0000000000000472 .LLST16
/var/folders/yy/83vjwp7d53j56dbzj8_jnpcr0000gn/T//ccRI64Di.s:4407   .debug_str:00000000000003a4 .LASF126
/var/folders/yy/83vjwp7d53j56dbzj8_jnpcr0000gn/T//ccRI64Di.s:663    .text.i2c_data_transmit:0000000000000000 .LFB15
/var/folders/yy/83vjwp7d53j56dbzj8_jnpcr0000gn/T//ccRI64Di.s:673    .text.i2c_data_transmit:0000000000000004 .LFE15
/var/folders/yy/83vjwp7d53j56dbzj8_jnpcr0000gn/T//ccRI64Di.s:4421   .debug_str:000000000000040c .LASF127
/var/folders/yy/83vjwp7d53j56dbzj8_jnpcr0000gn/T//ccRI64Di.s:4435   .debug_str:0000000000000463 .LASF128
/var/folders/yy/83vjwp7d53j56dbzj8_jnpcr0000gn/T//ccRI64Di.s:644    .text.i2c_stop_on_bus:0000000000000000 .LFB14
/var/folders/yy/83vjwp7d53j56dbzj8_jnpcr0000gn/T//ccRI64Di.s:656    .text.i2c_stop_on_bus:000000000000000a .LFE14
/var/folders/yy/83vjwp7d53j56dbzj8_jnpcr0000gn/T//ccRI64Di.s:4445   .debug_str:00000000000004ac .LASF129
/var/folders/yy/83vjwp7d53j56dbzj8_jnpcr0000gn/T//ccRI64Di.s:625    .text.i2c_start_on_bus:0000000000000000 .LFB13
/var/folders/yy/83vjwp7d53j56dbzj8_jnpcr0000gn/T//ccRI64Di.s:637    .text.i2c_start_on_bus:000000000000000a .LFE13
/var/folders/yy/83vjwp7d53j56dbzj8_jnpcr0000gn/T//ccRI64Di.s:4535   .debug_str:0000000000000755 .LASF130
/var/folders/yy/83vjwp7d53j56dbzj8_jnpcr0000gn/T//ccRI64Di.s:606    .text.i2c_disable:0000000000000000 .LFB12
/var/folders/yy/83vjwp7d53j56dbzj8_jnpcr0000gn/T//ccRI64Di.s:618    .text.i2c_disable:0000000000000008 .LFE12
/var/folders/yy/83vjwp7d53j56dbzj8_jnpcr0000gn/T//ccRI64Di.s:4519   .debug_str:00000000000006fb .LASF131
/var/folders/yy/83vjwp7d53j56dbzj8_jnpcr0000gn/T//ccRI64Di.s:587    .text.i2c_enable:0000000000000000 .LFB11
/var/folders/yy/83vjwp7d53j56dbzj8_jnpcr0000gn/T//ccRI64Di.s:599    .text.i2c_enable:000000000000000a .LFE11
/var/folders/yy/83vjwp7d53j56dbzj8_jnpcr0000gn/T//ccRI64Di.s:4293   .debug_str:000000000000001f .LASF132
/var/folders/yy/83vjwp7d53j56dbzj8_jnpcr0000gn/T//ccRI64Di.s:568    .text.i2c_dualaddr_disable:0000000000000000 .LFB10
/var/folders/yy/83vjwp7d53j56dbzj8_jnpcr0000gn/T//ccRI64Di.s:580    .text.i2c_dualaddr_disable:0000000000000008 .LFE10
/var/folders/yy/83vjwp7d53j56dbzj8_jnpcr0000gn/T//ccRI64Di.s:4377   .debug_str:00000000000002c8 .LASF133
/var/folders/yy/83vjwp7d53j56dbzj8_jnpcr0000gn/T//ccRI64Di.s:544    .text.i2c_dualaddr_enable:0000000000000000 .LFB9
/var/folders/yy/83vjwp7d53j56dbzj8_jnpcr0000gn/T//ccRI64Di.s:561    .text.i2c_dualaddr_enable:000000000000000c .LFE9
/var/folders/yy/83vjwp7d53j56dbzj8_jnpcr0000gn/T//ccRI64Di.s:4525   .debug_str:0000000000000716 .LASF134
/var/folders/yy/83vjwp7d53j56dbzj8_jnpcr0000gn/T//ccRI64Di.s:3688   .debug_loc:0000000000000493 .LLST15
/var/folders/yy/83vjwp7d53j56dbzj8_jnpcr0000gn/T//ccRI64Di.s:4559   .debug_str:0000000000000869 .LASF135
/var/folders/yy/83vjwp7d53j56dbzj8_jnpcr0000gn/T//ccRI64Di.s:515    .text.i2c_master_addressing:0000000000000000 .LFB8
/var/folders/yy/83vjwp7d53j56dbzj8_jnpcr0000gn/T//ccRI64Di.s:537    .text.i2c_master_addressing:0000000000000012 .LFE8
/var/folders/yy/83vjwp7d53j56dbzj8_jnpcr0000gn/T//ccRI64Di.s:4567   .debug_str:00000000000008aa .LASF136
/var/folders/yy/83vjwp7d53j56dbzj8_jnpcr0000gn/T//ccRI64Di.s:3718   .debug_loc:00000000000004d2 .LLST14
/var/folders/yy/83vjwp7d53j56dbzj8_jnpcr0000gn/T//ccRI64Di.s:4583   .debug_str:000000000000090e .LASF137
/var/folders/yy/83vjwp7d53j56dbzj8_jnpcr0000gn/T//ccRI64Di.s:4455   .debug_str:00000000000004f7 .LASF138
/var/folders/yy/83vjwp7d53j56dbzj8_jnpcr0000gn/T//ccRI64Di.s:481    .text.i2c_ackpos_config:0000000000000000 .LFB7
/var/folders/yy/83vjwp7d53j56dbzj8_jnpcr0000gn/T//ccRI64Di.s:508    .text.i2c_ackpos_config:000000000000001a .LFE7
/var/folders/yy/83vjwp7d53j56dbzj8_jnpcr0000gn/T//ccRI64Di.s:4543   .debug_str:00000000000007cc .LASF139
/var/folders/yy/83vjwp7d53j56dbzj8_jnpcr0000gn/T//ccRI64Di.s:450    .text.i2c_ack_config:0000000000000000 .LFB6
/var/folders/yy/83vjwp7d53j56dbzj8_jnpcr0000gn/T//ccRI64Di.s:474    .text.i2c_ack_config:0000000000000018 .LFE6
/var/folders/yy/83vjwp7d53j56dbzj8_jnpcr0000gn/T//ccRI64Di.s:4321   .debug_str:0000000000000106 .LASF140
/var/folders/yy/83vjwp7d53j56dbzj8_jnpcr0000gn/T//ccRI64Di.s:419    .text.i2c_smbus_type_config:0000000000000000 .LFB5
/var/folders/yy/83vjwp7d53j56dbzj8_jnpcr0000gn/T//ccRI64Di.s:443    .text.i2c_smbus_type_config:0000000000000016 .LFE5
/var/folders/yy/83vjwp7d53j56dbzj8_jnpcr0000gn/T//ccRI64Di.s:4551   .debug_str:000000000000083f .LASF141
/var/folders/yy/83vjwp7d53j56dbzj8_jnpcr0000gn/T//ccRI64Di.s:4447   .debug_str:00000000000004bd .LASF142
/var/folders/yy/83vjwp7d53j56dbzj8_jnpcr0000gn/T//ccRI64Di.s:379    .text.i2c_mode_addr_config:0000000000000000 .LFB4
/var/folders/yy/83vjwp7d53j56dbzj8_jnpcr0000gn/T//ccRI64Di.s:412    .text.i2c_mode_addr_config:0000000000000012 .LFE4
/var/folders/yy/83vjwp7d53j56dbzj8_jnpcr0000gn/T//ccRI64Di.s:4327   .debug_str:0000000000000136 .LASF143
/var/folders/yy/83vjwp7d53j56dbzj8_jnpcr0000gn/T//ccRI64Di.s:3729   .debug_loc:00000000000004f0 .LLST11
/var/folders/yy/83vjwp7d53j56dbzj8_jnpcr0000gn/T//ccRI64Di.s:4423   .debug_str:0000000000000411 .LASF144
/var/folders/yy/83vjwp7d53j56dbzj8_jnpcr0000gn/T//ccRI64Di.s:3743   .debug_loc:0000000000000511 .LLST12
/var/folders/yy/83vjwp7d53j56dbzj8_jnpcr0000gn/T//ccRI64Di.s:3757   .debug_loc:0000000000000532 .LLST13
GAS LISTING /var/folders/yy/83vjwp7d53j56dbzj8_jnpcr0000gn/T//ccRI64Di.s 			page 51


/var/folders/yy/83vjwp7d53j56dbzj8_jnpcr0000gn/T//ccRI64Di.s:4415   .debug_str:00000000000003d9 .LASF145
/var/folders/yy/83vjwp7d53j56dbzj8_jnpcr0000gn/T//ccRI64Di.s:83     .text.i2c_clock_config:0000000000000000 .LFB3
/var/folders/yy/83vjwp7d53j56dbzj8_jnpcr0000gn/T//ccRI64Di.s:372    .text.i2c_clock_config:0000000000000142 .LFE3
/var/folders/yy/83vjwp7d53j56dbzj8_jnpcr0000gn/T//ccRI64Di.s:3773   .debug_loc:000000000000055c .LLST2
/var/folders/yy/83vjwp7d53j56dbzj8_jnpcr0000gn/T//ccRI64Di.s:3796   .debug_loc:0000000000000594 .LLST3
/var/folders/yy/83vjwp7d53j56dbzj8_jnpcr0000gn/T//ccRI64Di.s:4499   .debug_str:0000000000000695 .LASF146
/var/folders/yy/83vjwp7d53j56dbzj8_jnpcr0000gn/T//ccRI64Di.s:3818   .debug_loc:00000000000005cb .LLST4
/var/folders/yy/83vjwp7d53j56dbzj8_jnpcr0000gn/T//ccRI64Di.s:4467   .debug_str:000000000000054d .LASF147
/var/folders/yy/83vjwp7d53j56dbzj8_jnpcr0000gn/T//ccRI64Di.s:3880   .debug_loc:000000000000065b .LLST5
/var/folders/yy/83vjwp7d53j56dbzj8_jnpcr0000gn/T//ccRI64Di.s:4591   .debug_str:0000000000000950 .LASF148
/var/folders/yy/83vjwp7d53j56dbzj8_jnpcr0000gn/T//ccRI64Di.s:3902   .debug_loc:0000000000000692 .LLST6
/var/folders/yy/83vjwp7d53j56dbzj8_jnpcr0000gn/T//ccRI64Di.s:4453   .debug_str:00000000000004f2 .LASF149
/var/folders/yy/83vjwp7d53j56dbzj8_jnpcr0000gn/T//ccRI64Di.s:3925   .debug_loc:00000000000006d1 .LLST7
/var/folders/yy/83vjwp7d53j56dbzj8_jnpcr0000gn/T//ccRI64Di.s:4399   .debug_str:000000000000036c .LASF150
/var/folders/yy/83vjwp7d53j56dbzj8_jnpcr0000gn/T//ccRI64Di.s:3999   .debug_loc:000000000000074c .LLST8
/var/folders/yy/83vjwp7d53j56dbzj8_jnpcr0000gn/T//ccRI64Di.s:4465   .debug_str:0000000000000544 .LASF151
/var/folders/yy/83vjwp7d53j56dbzj8_jnpcr0000gn/T//ccRI64Di.s:4018   .debug_loc:0000000000000780 .LLST9
/var/folders/yy/83vjwp7d53j56dbzj8_jnpcr0000gn/T//ccRI64Di.s:4507   .debug_str:00000000000006c2 .LASF152
/var/folders/yy/83vjwp7d53j56dbzj8_jnpcr0000gn/T//ccRI64Di.s:4063   .debug_loc:00000000000007d4 .LLST10
/var/folders/yy/83vjwp7d53j56dbzj8_jnpcr0000gn/T//ccRI64Di.s:110    .text.i2c_clock_config:0000000000000018 .LVL8
/var/folders/yy/83vjwp7d53j56dbzj8_jnpcr0000gn/T//ccRI64Di.s:4607   .debug_str:00000000000009d0 .LASF153
/var/folders/yy/83vjwp7d53j56dbzj8_jnpcr0000gn/T//ccRI64Di.s:14     .text.i2c_deinit:0000000000000000 .LFB2
/var/folders/yy/83vjwp7d53j56dbzj8_jnpcr0000gn/T//ccRI64Di.s:76     .text.i2c_deinit:0000000000000050 .LFE2
/var/folders/yy/83vjwp7d53j56dbzj8_jnpcr0000gn/T//ccRI64Di.s:4090   .debug_loc:0000000000000817 .LLST0
/var/folders/yy/83vjwp7d53j56dbzj8_jnpcr0000gn/T//ccRI64Di.s:4123   .debug_loc:0000000000000867 .LLST1
/var/folders/yy/83vjwp7d53j56dbzj8_jnpcr0000gn/T//ccRI64Di.s:50     .text.i2c_deinit:000000000000002e .LVL2
/var/folders/yy/83vjwp7d53j56dbzj8_jnpcr0000gn/T//ccRI64Di.s:63     .text.i2c_deinit:000000000000003e .LVL3
/var/folders/yy/83vjwp7d53j56dbzj8_jnpcr0000gn/T//ccRI64Di.s:71     .text.i2c_deinit:000000000000004a .LVL5
/var/folders/yy/83vjwp7d53j56dbzj8_jnpcr0000gn/T//ccRI64Di.s:4463   .debug_str:0000000000000531 .LASF154
/var/folders/yy/83vjwp7d53j56dbzj8_jnpcr0000gn/T//ccRI64Di.s:4375   .debug_str:00000000000002b0 .LASF155
/var/folders/yy/83vjwp7d53j56dbzj8_jnpcr0000gn/T//ccRI64Di.s:4329   .debug_str:000000000000013b .LASF156
/var/folders/yy/83vjwp7d53j56dbzj8_jnpcr0000gn/T//ccRI64Di.s:1204   .text.i2c_interrupt_flag_clear:0000000000000000 .LVL124
/var/folders/yy/83vjwp7d53j56dbzj8_jnpcr0000gn/T//ccRI64Di.s:1220   .text.i2c_interrupt_flag_clear:0000000000000018 .LVL125
/var/folders/yy/83vjwp7d53j56dbzj8_jnpcr0000gn/T//ccRI64Di.s:1224   .text.i2c_interrupt_flag_clear:000000000000001c .LVL126
/var/folders/yy/83vjwp7d53j56dbzj8_jnpcr0000gn/T//ccRI64Di.s:1122   .text.i2c_interrupt_flag_get:0000000000000000 .LVL112
/var/folders/yy/83vjwp7d53j56dbzj8_jnpcr0000gn/T//ccRI64Di.s:1148   .text.i2c_interrupt_flag_get:0000000000000022 .LVL115
/var/folders/yy/83vjwp7d53j56dbzj8_jnpcr0000gn/T//ccRI64Di.s:1158   .text.i2c_interrupt_flag_get:000000000000002e .LVL117
/var/folders/yy/83vjwp7d53j56dbzj8_jnpcr0000gn/T//ccRI64Di.s:1140   .text.i2c_interrupt_flag_get:0000000000000016 .LVL114
/var/folders/yy/83vjwp7d53j56dbzj8_jnpcr0000gn/T//ccRI64Di.s:1167   .text.i2c_interrupt_flag_get:0000000000000040 .LVL118
/var/folders/yy/83vjwp7d53j56dbzj8_jnpcr0000gn/T//ccRI64Di.s:1175   .text.i2c_interrupt_flag_get:0000000000000046 .LVL120
/var/folders/yy/83vjwp7d53j56dbzj8_jnpcr0000gn/T//ccRI64Di.s:1180   .text.i2c_interrupt_flag_get:000000000000004a .LVL121
/var/folders/yy/83vjwp7d53j56dbzj8_jnpcr0000gn/T//ccRI64Di.s:1186   .text.i2c_interrupt_flag_get:0000000000000050 .LVL122
/var/folders/yy/83vjwp7d53j56dbzj8_jnpcr0000gn/T//ccRI64Di.s:1152   .text.i2c_interrupt_flag_get:0000000000000028 .LVL116
/var/folders/yy/83vjwp7d53j56dbzj8_jnpcr0000gn/T//ccRI64Di.s:1131   .text.i2c_interrupt_flag_get:000000000000000c .LVL113
/var/folders/yy/83vjwp7d53j56dbzj8_jnpcr0000gn/T//ccRI64Di.s:1170   .text.i2c_interrupt_flag_get:0000000000000042 .LVL119
/var/folders/yy/83vjwp7d53j56dbzj8_jnpcr0000gn/T//ccRI64Di.s:1191   .text.i2c_interrupt_flag_get:0000000000000054 .LVL123
/var/folders/yy/83vjwp7d53j56dbzj8_jnpcr0000gn/T//ccRI64Di.s:1093   .text.i2c_interrupt_disable:0000000000000000 .LVL110
/var/folders/yy/83vjwp7d53j56dbzj8_jnpcr0000gn/T//ccRI64Di.s:1099   .text.i2c_interrupt_disable:000000000000000a .LVL111
/var/folders/yy/83vjwp7d53j56dbzj8_jnpcr0000gn/T//ccRI64Di.s:1066   .text.i2c_interrupt_enable:0000000000000000 .LVL108
/var/folders/yy/83vjwp7d53j56dbzj8_jnpcr0000gn/T//ccRI64Di.s:1072   .text.i2c_interrupt_enable:000000000000000a .LVL109
/var/folders/yy/83vjwp7d53j56dbzj8_jnpcr0000gn/T//ccRI64Di.s:1027   .text.i2c_flag_clear:0000000000000000 .LVL106
/var/folders/yy/83vjwp7d53j56dbzj8_jnpcr0000gn/T//ccRI64Di.s:1043   .text.i2c_flag_clear:0000000000000018 .LVL107
/var/folders/yy/83vjwp7d53j56dbzj8_jnpcr0000gn/T//ccRI64Di.s:1003   .text.i2c_flag_get:0000000000000000 .LVL104
/var/folders/yy/83vjwp7d53j56dbzj8_jnpcr0000gn/T//ccRI64Di.s:1009   .text.i2c_flag_get:000000000000000a .LVL105
/var/folders/yy/83vjwp7d53j56dbzj8_jnpcr0000gn/T//ccRI64Di.s:973    .text.i2c_smbus_arp_enable:0000000000000000 .LVL100
/var/folders/yy/83vjwp7d53j56dbzj8_jnpcr0000gn/T//ccRI64Di.s:986    .text.i2c_smbus_arp_enable:0000000000000006 .LVL103
/var/folders/yy/83vjwp7d53j56dbzj8_jnpcr0000gn/T//ccRI64Di.s:978    .text.i2c_smbus_arp_enable:0000000000000002 .LVL101
GAS LISTING /var/folders/yy/83vjwp7d53j56dbzj8_jnpcr0000gn/T//ccRI64Di.s 			page 52


/var/folders/yy/83vjwp7d53j56dbzj8_jnpcr0000gn/T//ccRI64Di.s:941    .text.i2c_smbus_issue_alert:0000000000000000 .LVL96
/var/folders/yy/83vjwp7d53j56dbzj8_jnpcr0000gn/T//ccRI64Di.s:956    .text.i2c_smbus_issue_alert:000000000000000a .LVL99
/var/folders/yy/83vjwp7d53j56dbzj8_jnpcr0000gn/T//ccRI64Di.s:946    .text.i2c_smbus_issue_alert:0000000000000002 .LVL97
/var/folders/yy/83vjwp7d53j56dbzj8_jnpcr0000gn/T//ccRI64Di.s:920    .text.i2c_pec_value_get:0000000000000000 .LVL94
/var/folders/yy/83vjwp7d53j56dbzj8_jnpcr0000gn/T//ccRI64Di.s:924    .text.i2c_pec_value_get:0000000000000002 .LVL95
/var/folders/yy/83vjwp7d53j56dbzj8_jnpcr0000gn/T//ccRI64Di.s:888    .text.i2c_pec_transfer_enable:0000000000000000 .LVL90
/var/folders/yy/83vjwp7d53j56dbzj8_jnpcr0000gn/T//ccRI64Di.s:903    .text.i2c_pec_transfer_enable:000000000000000a .LVL93
/var/folders/yy/83vjwp7d53j56dbzj8_jnpcr0000gn/T//ccRI64Di.s:893    .text.i2c_pec_transfer_enable:0000000000000002 .LVL91
/var/folders/yy/83vjwp7d53j56dbzj8_jnpcr0000gn/T//ccRI64Di.s:858    .text.i2c_pec_enable:0000000000000000 .LVL86
/var/folders/yy/83vjwp7d53j56dbzj8_jnpcr0000gn/T//ccRI64Di.s:871    .text.i2c_pec_enable:0000000000000008 .LVL89
/var/folders/yy/83vjwp7d53j56dbzj8_jnpcr0000gn/T//ccRI64Di.s:863    .text.i2c_pec_enable:0000000000000002 .LVL87
/var/folders/yy/83vjwp7d53j56dbzj8_jnpcr0000gn/T//ccRI64Di.s:826    .text.i2c_software_reset_config:0000000000000000 .LVL82
/var/folders/yy/83vjwp7d53j56dbzj8_jnpcr0000gn/T//ccRI64Di.s:841    .text.i2c_software_reset_config:000000000000000a .LVL85
/var/folders/yy/83vjwp7d53j56dbzj8_jnpcr0000gn/T//ccRI64Di.s:831    .text.i2c_software_reset_config:0000000000000002 .LVL83
/var/folders/yy/83vjwp7d53j56dbzj8_jnpcr0000gn/T//ccRI64Di.s:796    .text.i2c_slave_response_to_gcall_config:0000000000000000 .LVL78
/var/folders/yy/83vjwp7d53j56dbzj8_jnpcr0000gn/T//ccRI64Di.s:809    .text.i2c_slave_response_to_gcall_config:0000000000000008 .LVL81
/var/folders/yy/83vjwp7d53j56dbzj8_jnpcr0000gn/T//ccRI64Di.s:801    .text.i2c_slave_response_to_gcall_config:0000000000000002 .LVL79
/var/folders/yy/83vjwp7d53j56dbzj8_jnpcr0000gn/T//ccRI64Di.s:766    .text.i2c_stretch_scl_low_config:0000000000000000 .LVL74
/var/folders/yy/83vjwp7d53j56dbzj8_jnpcr0000gn/T//ccRI64Di.s:779    .text.i2c_stretch_scl_low_config:0000000000000008 .LVL77
/var/folders/yy/83vjwp7d53j56dbzj8_jnpcr0000gn/T//ccRI64Di.s:771    .text.i2c_stretch_scl_low_config:0000000000000002 .LVL75
/var/folders/yy/83vjwp7d53j56dbzj8_jnpcr0000gn/T//ccRI64Di.s:734    .text.i2c_dma_last_transfer_config:0000000000000000 .LVL70
/var/folders/yy/83vjwp7d53j56dbzj8_jnpcr0000gn/T//ccRI64Di.s:749    .text.i2c_dma_last_transfer_config:000000000000000a .LVL73
/var/folders/yy/83vjwp7d53j56dbzj8_jnpcr0000gn/T//ccRI64Di.s:739    .text.i2c_dma_last_transfer_config:0000000000000002 .LVL71
/var/folders/yy/83vjwp7d53j56dbzj8_jnpcr0000gn/T//ccRI64Di.s:702    .text.i2c_dma_enable:0000000000000000 .LVL66
/var/folders/yy/83vjwp7d53j56dbzj8_jnpcr0000gn/T//ccRI64Di.s:717    .text.i2c_dma_enable:000000000000000c .LVL69
/var/folders/yy/83vjwp7d53j56dbzj8_jnpcr0000gn/T//ccRI64Di.s:707    .text.i2c_dma_enable:0000000000000002 .LVL67
/var/folders/yy/83vjwp7d53j56dbzj8_jnpcr0000gn/T//ccRI64Di.s:683    .text.i2c_data_receive:0000000000000000 .LVL64
/var/folders/yy/83vjwp7d53j56dbzj8_jnpcr0000gn/T//ccRI64Di.s:687    .text.i2c_data_receive:0000000000000002 .LVL65
/var/folders/yy/83vjwp7d53j56dbzj8_jnpcr0000gn/T//ccRI64Di.s:547    .text.i2c_dualaddr_enable:0000000000000000 .LVL55
/var/folders/yy/83vjwp7d53j56dbzj8_jnpcr0000gn/T//ccRI64Di.s:552    .text.i2c_dualaddr_enable:0000000000000004 .LVL56
/var/folders/yy/83vjwp7d53j56dbzj8_jnpcr0000gn/T//ccRI64Di.s:555    .text.i2c_dualaddr_enable:0000000000000008 .LVL57
/var/folders/yy/83vjwp7d53j56dbzj8_jnpcr0000gn/T//ccRI64Di.s:518    .text.i2c_master_addressing:0000000000000000 .LVL53
/var/folders/yy/83vjwp7d53j56dbzj8_jnpcr0000gn/T//ccRI64Di.s:529    .text.i2c_master_addressing:000000000000000e .LVL54
/var/folders/yy/83vjwp7d53j56dbzj8_jnpcr0000gn/T//ccRI64Di.s:382    .text.i2c_mode_addr_config:0000000000000000 .LVL44
/var/folders/yy/83vjwp7d53j56dbzj8_jnpcr0000gn/T//ccRI64Di.s:400    .text.i2c_mode_addr_config:000000000000000c .LVL48
/var/folders/yy/83vjwp7d53j56dbzj8_jnpcr0000gn/T//ccRI64Di.s:391    .text.i2c_mode_addr_config:0000000000000006 .LVL46
/var/folders/yy/83vjwp7d53j56dbzj8_jnpcr0000gn/T//ccRI64Di.s:405    .text.i2c_mode_addr_config:000000000000000e .LVL49
/var/folders/yy/83vjwp7d53j56dbzj8_jnpcr0000gn/T//ccRI64Di.s:387    .text.i2c_mode_addr_config:0000000000000002 .LVL45
/var/folders/yy/83vjwp7d53j56dbzj8_jnpcr0000gn/T//ccRI64Di.s:92     .text.i2c_clock_config:0000000000000002 .LCFI5
/var/folders/yy/83vjwp7d53j56dbzj8_jnpcr0000gn/T//ccRI64Di.s:218    .text.i2c_clock_config:0000000000000088 .LCFI6
/var/folders/yy/83vjwp7d53j56dbzj8_jnpcr0000gn/T//ccRI64Di.s:224    .text.i2c_clock_config:000000000000008a .LCFI7
/var/folders/yy/83vjwp7d53j56dbzj8_jnpcr0000gn/T//ccRI64Di.s:86     .text.i2c_clock_config:0000000000000000 .LVL6
/var/folders/yy/83vjwp7d53j56dbzj8_jnpcr0000gn/T//ccRI64Di.s:99     .text.i2c_clock_config:0000000000000008 .LVL7
/var/folders/yy/83vjwp7d53j56dbzj8_jnpcr0000gn/T//ccRI64Di.s:214    .text.i2c_clock_config:0000000000000084 .LVL23
/var/folders/yy/83vjwp7d53j56dbzj8_jnpcr0000gn/T//ccRI64Di.s:222    .text.i2c_clock_config:000000000000008a .LVL25
/var/folders/yy/83vjwp7d53j56dbzj8_jnpcr0000gn/T//ccRI64Di.s:186    .text.i2c_clock_config:000000000000006a .LVL20
/var/folders/yy/83vjwp7d53j56dbzj8_jnpcr0000gn/T//ccRI64Di.s:251    .text.i2c_clock_config:00000000000000b2 .LVL28
/var/folders/yy/83vjwp7d53j56dbzj8_jnpcr0000gn/T//ccRI64Di.s:285    .text.i2c_clock_config:00000000000000d8 .LVL32
/var/folders/yy/83vjwp7d53j56dbzj8_jnpcr0000gn/T//ccRI64Di.s:291    .text.i2c_clock_config:00000000000000de .LVL33
/var/folders/yy/83vjwp7d53j56dbzj8_jnpcr0000gn/T//ccRI64Di.s:301    .text.i2c_clock_config:00000000000000ea .LVL35
/var/folders/yy/83vjwp7d53j56dbzj8_jnpcr0000gn/T//ccRI64Di.s:323    .text.i2c_clock_config:0000000000000106 .LVL38
/var/folders/yy/83vjwp7d53j56dbzj8_jnpcr0000gn/T//ccRI64Di.s:355    .text.i2c_clock_config:0000000000000130 .LVL41
/var/folders/yy/83vjwp7d53j56dbzj8_jnpcr0000gn/T//ccRI64Di.s:361    .text.i2c_clock_config:0000000000000136 .LVL42
/var/folders/yy/83vjwp7d53j56dbzj8_jnpcr0000gn/T//ccRI64Di.s:220    .text.i2c_clock_config:0000000000000088 .LVL24
/var/folders/yy/83vjwp7d53j56dbzj8_jnpcr0000gn/T//ccRI64Di.s:191    .text.i2c_clock_config:000000000000006e .LVL21
/var/folders/yy/83vjwp7d53j56dbzj8_jnpcr0000gn/T//ccRI64Di.s:259    .text.i2c_clock_config:00000000000000be .LVL29
/var/folders/yy/83vjwp7d53j56dbzj8_jnpcr0000gn/T//ccRI64Di.s:298    .text.i2c_clock_config:00000000000000e8 .LVL34
GAS LISTING /var/folders/yy/83vjwp7d53j56dbzj8_jnpcr0000gn/T//ccRI64Di.s 			page 53


/var/folders/yy/83vjwp7d53j56dbzj8_jnpcr0000gn/T//ccRI64Di.s:331    .text.i2c_clock_config:0000000000000112 .LVL39
/var/folders/yy/83vjwp7d53j56dbzj8_jnpcr0000gn/T//ccRI64Di.s:368    .text.i2c_clock_config:0000000000000140 .LVL43
/var/folders/yy/83vjwp7d53j56dbzj8_jnpcr0000gn/T//ccRI64Di.s:198    .text.i2c_clock_config:0000000000000078 .LVL22
/var/folders/yy/83vjwp7d53j56dbzj8_jnpcr0000gn/T//ccRI64Di.s:283    .text.i2c_clock_config:00000000000000d6 .LVL31
/var/folders/yy/83vjwp7d53j56dbzj8_jnpcr0000gn/T//ccRI64Di.s:346    .text.i2c_clock_config:0000000000000120 .LVL40
/var/folders/yy/83vjwp7d53j56dbzj8_jnpcr0000gn/T//ccRI64Di.s:122    .text.i2c_clock_config:000000000000002c .LVL9
/var/folders/yy/83vjwp7d53j56dbzj8_jnpcr0000gn/T//ccRI64Di.s:132    .text.i2c_clock_config:0000000000000038 .LVL10
/var/folders/yy/83vjwp7d53j56dbzj8_jnpcr0000gn/T//ccRI64Di.s:157    .text.i2c_clock_config:0000000000000050 .LVL15
/var/folders/yy/83vjwp7d53j56dbzj8_jnpcr0000gn/T//ccRI64Di.s:235    .text.i2c_clock_config:000000000000009e .LVL26
/var/folders/yy/83vjwp7d53j56dbzj8_jnpcr0000gn/T//ccRI64Di.s:307    .text.i2c_clock_config:00000000000000f2 .LVL36
/var/folders/yy/83vjwp7d53j56dbzj8_jnpcr0000gn/T//ccRI64Di.s:165    .text.i2c_clock_config:000000000000005c .LVL16
/var/folders/yy/83vjwp7d53j56dbzj8_jnpcr0000gn/T//ccRI64Di.s:172    .text.i2c_clock_config:0000000000000060 .LVL18
/var/folders/yy/83vjwp7d53j56dbzj8_jnpcr0000gn/T//ccRI64Di.s:181    .text.i2c_clock_config:0000000000000068 .LVL19
/var/folders/yy/83vjwp7d53j56dbzj8_jnpcr0000gn/T//ccRI64Di.s:136    .text.i2c_clock_config:000000000000003a .LVL11
/var/folders/yy/83vjwp7d53j56dbzj8_jnpcr0000gn/T//ccRI64Di.s:151    .text.i2c_clock_config:0000000000000044 .LVL14
/var/folders/yy/83vjwp7d53j56dbzj8_jnpcr0000gn/T//ccRI64Di.s:170    .text.i2c_clock_config:000000000000005e .LVL17
/var/folders/yy/83vjwp7d53j56dbzj8_jnpcr0000gn/T//ccRI64Di.s:243    .text.i2c_clock_config:00000000000000aa .LVL27
/var/folders/yy/83vjwp7d53j56dbzj8_jnpcr0000gn/T//ccRI64Di.s:315    .text.i2c_clock_config:00000000000000fe .LVL37
/var/folders/yy/83vjwp7d53j56dbzj8_jnpcr0000gn/T//ccRI64Di.s:22     .text.i2c_deinit:0000000000000002 .LCFI0
/var/folders/yy/83vjwp7d53j56dbzj8_jnpcr0000gn/T//ccRI64Di.s:40     .text.i2c_deinit:0000000000000020 .LCFI1
/var/folders/yy/83vjwp7d53j56dbzj8_jnpcr0000gn/T//ccRI64Di.s:44     .text.i2c_deinit:0000000000000022 .LCFI2
/var/folders/yy/83vjwp7d53j56dbzj8_jnpcr0000gn/T//ccRI64Di.s:59     .text.i2c_deinit:0000000000000036 .LCFI3
/var/folders/yy/83vjwp7d53j56dbzj8_jnpcr0000gn/T//ccRI64Di.s:65     .text.i2c_deinit:000000000000003e .LCFI4
/var/folders/yy/83vjwp7d53j56dbzj8_jnpcr0000gn/T//ccRI64Di.s:18     .text.i2c_deinit:0000000000000000 .LVL0
/var/folders/yy/83vjwp7d53j56dbzj8_jnpcr0000gn/T//ccRI64Di.s:48     .text.i2c_deinit:0000000000000026 .LVL1
/var/folders/yy/83vjwp7d53j56dbzj8_jnpcr0000gn/T//ccRI64Di.s:69     .text.i2c_deinit:0000000000000042 .LVL4
/var/folders/yy/83vjwp7d53j56dbzj8_jnpcr0000gn/T//ccRI64Di.s:1246   .debug_info:0000000000000000 .Ldebug_info0

UNDEFINED SYMBOLS
rcu_periph_reset_enable
rcu_periph_reset_disable
rcu_clock_freq_get
