GAS LISTING /var/folders/yy/83vjwp7d53j56dbzj8_jnpcr0000gn/T//cchrdQkX.s 			page 1


   1              		.file	"main.c"
   2              		.option nopic
   3              		.attribute arch, "rv32i2p0_m2p0_a2p0_c2p0"
   4              		.attribute unaligned_access, 0
   5              		.attribute stack_align, 16
   6              		.text
   7              	.Ltext0:
   8              		.cfi_sections	.debug_frame
   9              		.comm	dataBuffer,22,4
  10              		.globl	last_Sample_buffer
  11              		.globl	commands
  12              		.globl	delays
  13              		.globl	states
  14              		.globl	write
  15              		.globl	ind_radio
  16              		.globl	read_buf_radio
  17              		.globl	read_buf
  18              		.comm	rxbuffer,8,4
  19              		.comm	rxCount,1,1
  20              		.globl	start_time
  21              		.globl	milli
  22              		.globl	seconds
  23              		.globl	minutes
  24              		.globl	emg
  25              		.globl	pDatabuffer
  26              		.section	.text.write_handle_raw,"ax",@progbits
  27              		.align	1
  28              		.globl	write_handle_raw
  30              	write_handle_raw:
  31              	.LFB7:
  32              		.file 1 "main.c"
   1:main.c        **** #include "gd32vf103.h"
   2:main.c        **** #include "usb_serial_if.h"
   3:main.c        **** #include "usb_delay.h"
   4:main.c        **** #include "usart.h"
   5:main.c        **** #include <stdlib.h>
   6:main.c        **** #include <string.h>
   7:main.c        **** #include "rn4871.h"
   8:main.c        **** #include "radioHead.h"
   9:main.c        **** #include "systick.h"
  10:main.c        **** #include "gd32v_tf_card_if.h"
  11:main.c        **** #include "ff.h"
  12:main.c        **** #include "gd32v_mpu6500_if.h"
  13:main.c        **** #include "dma.h"
  14:main.c        **** #include "mpu6500_registers.h"
  15:main.c        **** #include "mpu6500_driver.h"
  16:main.c        **** #include "queue.h"
  17:main.c        **** #include "tf_card.h"
  18:main.c        **** #include "state.h"
  19:main.c        **** 
  20:main.c        **** #define BUFFER_SIZE 512
  21:main.c        **** #define ANALOG_PORT              GPIOA
  22:main.c        **** #define ANALOG_PIN               GPIO_PIN_3
  23:main.c        **** #define ANALOG_CHANNEL           ADC_CHANNEL_3
  24:main.c        **** 
  25:main.c        **** /* Filename should be at most 8 chars long and the extension should be at most 3 */
  26:main.c        **** //FILENAMES INCLUDE RIGHTL.CSV, LEFTL.CSV, CHEST.CSV 
GAS LISTING /var/folders/yy/83vjwp7d53j56dbzj8_jnpcr0000gn/T//cchrdQkX.s 			page 2


  27:main.c        **** #define FILENAME "RIGHTL.CSV"
  28:main.c        **** //#define FILENAME "LEFTL.CSV"
  29:main.c        **** //#define FILENAME "CHEST.CSV"
  30:main.c        **** 
  31:main.c        **** int16_t last_Sample_buffer[8] = {0};
  32:main.c        **** 
  33:main.c        **** void ledInit (void);
  34:main.c        **** void led_on_B1();
  35:main.c        **** void led_off_B1();
  36:main.c        **** void led_on_B0();
  37:main.c        **** void led_off_B0();
  38:main.c        **** void timer_interrupt_config();
  39:main.c        **** void init_ADC_EMG();
  40:main.c        **** void init_mpu(void);
  41:main.c        **** int millis(void);
  42:main.c        **** void append_newLine(char *string, int length);
  43:main.c        **** int append_int_to_string(char *string, int integer);
  44:main.c        **** int int_to_string(char *string, int integer);
  45:main.c        **** void formatTime(char *output, int minutes, int seconds, int milliseconds);
  46:main.c        **** 
  47:main.c        **** const char *commands[] = {
  48:main.c        ****     "start0",
  49:main.c        ****     "start1",
  50:main.c        ****     "start2",
  51:main.c        ****     "stopp0",
  52:main.c        ****     "stopp1",
  53:main.c        ****     "stopp2"
  54:main.c        **** };
  55:main.c        **** 
  56:main.c        **** const int delays[] = {
  57:main.c        ****     300,
  58:main.c        ****     200,
  59:main.c        ****     100,
  60:main.c        ****     300,
  61:main.c        ****     200,
  62:main.c        ****     100
  63:main.c        **** };
  64:main.c        **** 
  65:main.c        **** const int states[] = {
  66:main.c        ****     START,
  67:main.c        ****     START,
  68:main.c        ****     START,
  69:main.c        ****     STOP,
  70:main.c        ****     STOP,
  71:main.c        ****     STOP
  72:main.c        **** };
  73:main.c        **** 
  74:main.c        **** 
  75:main.c        **** 
  76:main.c        **** int write = 0;
  77:main.c        **** int ind_radio = 0;
  78:main.c        **** char read_buf_radio[80] = {'\0'};
  79:main.c        **** char read_buf[80] = {'\0'};
  80:main.c        **** 
  81:main.c        **** uint8_t rxbuffer[8];
  82:main.c        **** uint8_t rxCount;
  83:main.c        **** 
GAS LISTING /var/folders/yy/83vjwp7d53j56dbzj8_jnpcr0000gn/T//cchrdQkX.s 			page 3


  84:main.c        **** volatile int start_time = 0;
  85:main.c        **** volatile int16_t milli = 0;
  86:main.c        **** volatile int32_t seconds = 0;
  87:main.c        **** volatile int16_t minutes = 0;
  88:main.c        **** volatile int32_t emg = 0;              
  89:main.c        **** uint8_t* pDatabuffer = (uint8_t*)&dataBuffer;
  90:main.c        **** 
  91:main.c        **** void write_handle_raw(uint16_t handle, uint8_t* byte_data, uint8_t size){
  33              		.loc 1 91 73
  34              		.cfi_startproc
  35              	.LVL0:
  92:main.c        **** 	uint8_t string_buffer[128] = {'\0'};
  36              		.loc 1 92 2
  91:main.c        **** 	uint8_t string_buffer[128] = {'\0'};
  37              		.loc 1 91 73 is_stmt 0
  38 0000 5171     		addi	sp,sp,-240
  39              	.LCFI0:
  40              		.cfi_def_cfa_offset 240
  41 0002 A2D5     		sw	s0,232(sp)
  42 0004 CAD1     		sw	s2,224(sp)
  43 0006 2AC6     		sw	a0,12(sp)
  44              		.cfi_offset 8, -8
  45              		.cfi_offset 18, -16
  46 0008 2E89     		mv	s2,a1
  47 000a 3284     		mv	s0,a2
  48              		.loc 1 92 10
  49 000c 8145     		li	a1,0
  50              	.LVL1:
  51 000e 13060008 		li	a2,128
  52              	.LVL2:
  53 0012 8810     		addi	a0,sp,96
  54              	.LVL3:
  91:main.c        **** 	uint8_t string_buffer[128] = {'\0'};
  55              		.loc 1 91 73
  56 0014 86D7     		sw	ra,236(sp)
  57 0016 A6D3     		sw	s1,228(sp)
  58              		.cfi_offset 1, -4
  59              		.cfi_offset 9, -12
  60              		.loc 1 92 10
  61 0018 97000000 		call	memset
  61      E7800000 
  62              	.LVL4:
  93:main.c        **** 	uint8_t data_buffer[(20*2)+15] = {'\0'};
  63              		.loc 1 93 2 is_stmt 1
  64              		.loc 1 93 10 is_stmt 0
  65 0020 13067003 		li	a2,55
  66 0024 8145     		li	a1,0
  67 0026 2810     		addi	a0,sp,40
  68 0028 97000000 		call	memset
  68      E7800000 
  69              	.LVL5:
  94:main.c        **** 	const uint8_t lut_hex[] = "0123456789ABCDEF";
  70              		.loc 1 94 2 is_stmt 1
  71              		.loc 1 94 16 is_stmt 0
  72 0030 B7040000 		lui	s1,%hi(.LANCHOR0)
  73 0034 93850400 		addi	a1,s1,%lo(.LANCHOR0)
  74 0038 4546     		li	a2,17
GAS LISTING /var/folders/yy/83vjwp7d53j56dbzj8_jnpcr0000gn/T//cchrdQkX.s 			page 4


  75 003a 93850503 		addi	a1,a1,48
  76 003e 4808     		addi	a0,sp,20
  77 0040 97000000 		call	memcpy
  77      E7800000 
  78              	.LVL6:
  95:main.c        **** 	for(int i = 0; i < size; i++){
  79              		.loc 1 95 2 is_stmt 1
  80              	.LBB2:
  81              		.loc 1 95 6
  82              		.loc 1 95 2 is_stmt 0
  83 0048 B246     		lw	a3,12(sp)
  84 004a 3010     		addi	a2,sp,40
  85              		.loc 1 95 10
  86 004c 0147     		li	a4,0
  87 004e 93850400 		addi	a1,s1,%lo(.LANCHOR0)
  88              	.LVL7:
  89              	.L2:
  90              		.loc 1 95 2 discriminator 1
  91 0052 63448704 		bgt	s0,a4,.L3
  92              	.LBE2:
  96:main.c        **** 		data_buffer[i*2] = lut_hex[byte_data[i] / 16];
  97:main.c        **** 		data_buffer[(i*2)+1] = lut_hex[byte_data[i] % 16];
  98:main.c        **** 	}
  99:main.c        **** 	data_buffer[size*2] = '\0';
  93              		.loc 1 99 2 is_stmt 1
  94              		.loc 1 99 22 is_stmt 0
  95 0056 9C11     		addi	a5,sp,224
  96 0058 0604     		slli	s0,s0,1
 100:main.c        **** 	sprintf(string_buffer, "%s%.4x,%s\r\n", "SHW,", handle, data_buffer);
  97              		.loc 1 100 2
  98 005a 37060000 		lui	a2,%hi(.LC7)
  99:main.c        **** 	sprintf(string_buffer, "%s%.4x,%s\r\n", "SHW,", handle, data_buffer);
  99              		.loc 1 99 22
 100 005e 3E94     		add	s0,a5,s0
 101              		.loc 1 100 2
 102 0060 3810     		addi	a4,sp,40
 103              	.LVL8:
 104 0062 13060600 		addi	a2,a2,%lo(.LC7)
 105 0066 9385C504 		addi	a1,a1,76
 106 006a 8810     		addi	a0,sp,96
  99:main.c        **** 	sprintf(string_buffer, "%s%.4x,%s\r\n", "SHW,", handle, data_buffer);
 107              		.loc 1 99 22
 108 006c 230404F4 		sb	zero,-184(s0)
 109              		.loc 1 100 2 is_stmt 1
 110 0070 97000000 		call	sprintf
 110      E7800000 
 111              	.LVL9:
 101:main.c        **** 	lio_send_bt(string_buffer, strlen(string_buffer));
 112              		.loc 1 101 2
 113              		.loc 1 101 29 is_stmt 0
 114 0078 8810     		addi	a0,sp,96
 115 007a 97000000 		call	strlen
 115      E7800000 
 116              	.LVL10:
 117              		.loc 1 101 2
 118 0082 AA85     		mv	a1,a0
 119 0084 8810     		addi	a0,sp,96
GAS LISTING /var/folders/yy/83vjwp7d53j56dbzj8_jnpcr0000gn/T//cchrdQkX.s 			page 5


 120 0086 97000000 		call	lio_send_bt
 120      E7800000 
 121              	.LVL11:
 102:main.c        **** }
 122              		.loc 1 102 1
 123 008e BE50     		lw	ra,236(sp)
 124              		.cfi_remember_state
 125              		.cfi_restore 1
 126 0090 2E54     		lw	s0,232(sp)
 127              		.cfi_restore 8
 128 0092 9E54     		lw	s1,228(sp)
 129              		.cfi_restore 9
 130 0094 0E59     		lw	s2,224(sp)
 131              		.cfi_restore 18
 132              	.LVL12:
 133 0096 6D61     		addi	sp,sp,240
 134              	.LCFI1:
 135              		.cfi_def_cfa_offset 0
 136 0098 8280     		jr	ra
 137              	.LVL13:
 138              	.L3:
 139              	.LCFI2:
 140              		.cfi_restore_state
 141              	.LBB3:
  96:main.c        **** 		data_buffer[(i*2)+1] = lut_hex[byte_data[i] % 16];
 142              		.loc 1 96 3 is_stmt 1 discriminator 3
  96:main.c        **** 		data_buffer[(i*2)+1] = lut_hex[byte_data[i] % 16];
 143              		.loc 1 96 39 is_stmt 0 discriminator 3
 144 009a B307E900 		add	a5,s2,a4
 145 009e 83C70700 		lbu	a5,0(a5)
  96:main.c        **** 		data_buffer[(i*2)+1] = lut_hex[byte_data[i] % 16];
 146              		.loc 1 96 29 discriminator 3
 147 00a2 8411     		addi	s1,sp,224
  95:main.c        **** 		data_buffer[i*2] = lut_hex[byte_data[i] / 16];
 148              		.loc 1 95 28 discriminator 3
 149 00a4 0507     		addi	a4,a4,1
 150              	.LVL14:
  96:main.c        **** 		data_buffer[(i*2)+1] = lut_hex[byte_data[i] % 16];
 151              		.loc 1 96 43 discriminator 3
 152 00a6 13D54700 		srli	a0,a5,4
  97:main.c        **** 	}
 153              		.loc 1 97 47 discriminator 3
 154 00aa BD8B     		andi	a5,a5,15
  96:main.c        **** 		data_buffer[(i*2)+1] = lut_hex[byte_data[i] % 16];
 155              		.loc 1 96 29 discriminator 3
 156 00ac 2695     		add	a0,s1,a0
  97:main.c        **** 	}
 157              		.loc 1 97 33 discriminator 3
 158 00ae A697     		add	a5,s1,a5
  96:main.c        **** 		data_buffer[(i*2)+1] = lut_hex[byte_data[i] % 16];
 159              		.loc 1 96 20 discriminator 3
 160 00b0 034545F3 		lbu	a0,-204(a0)
  97:main.c        **** 	}
 161              		.loc 1 97 24 discriminator 3
 162 00b4 83C747F3 		lbu	a5,-204(a5)
 163 00b8 0906     		addi	a2,a2,2
  96:main.c        **** 		data_buffer[(i*2)+1] = lut_hex[byte_data[i] % 16];
GAS LISTING /var/folders/yy/83vjwp7d53j56dbzj8_jnpcr0000gn/T//cchrdQkX.s 			page 6


 164              		.loc 1 96 20 discriminator 3
 165 00ba 230FA6FE 		sb	a0,-2(a2)
  97:main.c        **** 	}
 166              		.loc 1 97 3 is_stmt 1 discriminator 3
 167              	.LVL15:
  97:main.c        **** 	}
 168              		.loc 1 97 24 is_stmt 0 discriminator 3
 169 00be A30FF6FE 		sb	a5,-1(a2)
 170 00c2 41BF     		j	.L2
 171              	.LBE3:
 172              		.cfi_endproc
 173              	.LFE7:
 175              		.section	.text.send_data_to_phone,"ax",@progbits
 176              		.align	1
 177              		.globl	send_data_to_phone
 179              	send_data_to_phone:
 180              	.LFB8:
 103:main.c        **** 
 104:main.c        **** void send_data_to_phone(uint16_t handle, int16_t value){
 181              		.loc 1 104 56 is_stmt 1
 182              		.cfi_startproc
 183              	.LVL16:
 105:main.c        ****     uint8_t bytes[2] = {0};
 184              		.loc 1 105 5
 106:main.c        ****     bytes[0] = (uint8_t)((value >> 8) & 0xFF);  // Extract high byte 
 185              		.loc 1 106 5
 107:main.c        ****     bytes[1] = (uint8_t)(value & 0xFF);   // Extract low byte
 186              		.loc 1 107 5
 106:main.c        ****     bytes[0] = (uint8_t)((value >> 8) & 0xFF);  // Extract high byte 
 187              		.loc 1 106 14 is_stmt 0
 188 0000 93978500 		slli	a5,a1,8
 189 0004 C205     		slli	a1,a1,16
 190              	.LVL17:
 191 0006 C181     		srli	a1,a1,16
 192 0008 A181     		srli	a1,a1,8
 104:main.c        ****     uint8_t bytes[2] = {0};
 193              		.loc 1 104 56
 194 000a 0111     		addi	sp,sp,-32
 195              	.LCFI3:
 196              		.cfi_def_cfa_offset 32
 106:main.c        ****     bytes[0] = (uint8_t)((value >> 8) & 0xFF);  // Extract high byte 
 197              		.loc 1 106 14
 198 000c DD8D     		or	a1,a5,a1
 199 000e 2316B100 		sh	a1,12(sp)
 108:main.c        ****     write_handle_raw(handle,bytes,2);
 200              		.loc 1 108 5 is_stmt 1
 201 0012 0946     		li	a2,2
 202 0014 6C00     		addi	a1,sp,12
 104:main.c        ****     uint8_t bytes[2] = {0};
 203              		.loc 1 104 56 is_stmt 0
 204 0016 06CE     		sw	ra,28(sp)
 205              		.cfi_offset 1, -4
 206              		.loc 1 108 5
 207 0018 97000000 		call	write_handle_raw
 207      E7800000 
 208              	.LVL18:
 109:main.c        **** }
GAS LISTING /var/folders/yy/83vjwp7d53j56dbzj8_jnpcr0000gn/T//cchrdQkX.s 			page 7


 209              		.loc 1 109 1
 210 0020 F240     		lw	ra,28(sp)
 211              		.cfi_restore 1
 212 0022 0561     		addi	sp,sp,32
 213              	.LCFI4:
 214              		.cfi_def_cfa_offset 0
 215 0024 8280     		jr	ra
 216              		.cfi_endproc
 217              	.LFE8:
 219              		.globl	handles
 220              		.section	.text.stagger_data_to_phone,"ax",@progbits
 221              		.align	1
 222              		.globl	stagger_data_to_phone
 224              	stagger_data_to_phone:
 225              	.LFB9:
 110:main.c        **** 
 111:main.c        **** uint16_t handles[] = {
 112:main.c        ****     Handle_ACC_X,
 113:main.c        ****     Handle_ACC_Y,
 114:main.c        ****     Handle_ACC_Z,
 115:main.c        ****     Handle_GYRO_X,
 116:main.c        ****     Handle_GYRO_Y,
 117:main.c        ****     Handle_GYRO_Z,
 118:main.c        ****     Handle_EMG
 119:main.c        **** };
 120:main.c        **** 
 121:main.c        **** void stagger_data_to_phone(int16_t seconds) {
 226              		.loc 1 121 45 is_stmt 1
 227              		.cfi_startproc
 228              	.LVL19:
 122:main.c        ****     int16_t value = 0;
 229              		.loc 1 122 5
 123:main.c        ****     int emg = 0;
 230              		.loc 1 123 5
 124:main.c        **** 
 125:main.c        ****     // Calculate the index based on seconds, cycling through handles
 126:main.c        ****     int index = (seconds - 1) % 7; // Adjust the size according to the number of handles
 231              		.loc 1 126 5
 232              		.loc 1 126 9 is_stmt 0
 233 0000 9D47     		li	a5,7
 234              		.loc 1 126 26
 235 0002 7D15     		addi	a0,a0,-1
 236              	.LVL20:
 237              		.loc 1 126 9
 238 0004 3365F502 		rem	a0,a0,a5
 239              	.LVL21:
 127:main.c        **** 
 128:main.c        ****     // Send data to the handle corresponding to the index
 129:main.c        ****     value = last_Sample_buffer[index];
 240              		.loc 1 129 5 is_stmt 1
 130:main.c        **** 
 131:main.c        ****     send_data_to_phone(handles[index], value);
 241              		.loc 1 131 5
 129:main.c        **** 
 242              		.loc 1 129 11 is_stmt 0
 243 0008 37070000 		lui	a4,%hi(.LANCHOR1)
 244              		.loc 1 131 5
GAS LISTING /var/folders/yy/83vjwp7d53j56dbzj8_jnpcr0000gn/T//cchrdQkX.s 			page 8


 245 000c B7070000 		lui	a5,%hi(.LANCHOR2)
 129:main.c        **** 
 246              		.loc 1 129 11
 247 0010 13070700 		addi	a4,a4,%lo(.LANCHOR1)
 248              		.loc 1 131 5
 249 0014 93870700 		addi	a5,a5,%lo(.LANCHOR2)
 129:main.c        **** 
 250              		.loc 1 129 11
 251 0018 0605     		slli	a0,a0,1
 252              	.LVL22:
 253 001a 2A97     		add	a4,a4,a0
 254              		.loc 1 131 5
 255 001c 3E95     		add	a0,a5,a0
 256 001e 83150700 		lh	a1,0(a4)
 257 0022 03550500 		lhu	a0,0(a0)
 258 0026 17030000 		tail	send_data_to_phone
 258      67000300 
 259              	.LVL23:
 260              		.cfi_endproc
 261              	.LFE9:
 263              		.section	.text.reboot_BT,"ax",@progbits
 264              		.align	1
 265              		.globl	reboot_BT
 267              	reboot_BT:
 268              	.LFB10:
 132:main.c        **** }
 133:main.c        **** 
 134:main.c        **** void reboot_BT(){
 269              		.loc 1 134 17 is_stmt 1
 270              		.cfi_startproc
 135:main.c        ****     lio_send_bt("R,1\r",4);//reboot bluetooth
 271              		.loc 1 135 5
 272 0000 37050000 		lui	a0,%hi(.LC9)
 134:main.c        ****     lio_send_bt("R,1\r",4);//reboot bluetooth
 273              		.loc 1 134 17 is_stmt 0
 274 0004 4111     		addi	sp,sp,-16
 275              	.LCFI5:
 276              		.cfi_def_cfa_offset 16
 277              		.loc 1 135 5
 278 0006 9145     		li	a1,4
 279 0008 13050500 		addi	a0,a0,%lo(.LC9)
 134:main.c        ****     lio_send_bt("R,1\r",4);//reboot bluetooth
 280              		.loc 1 134 17
 281 000c 06C6     		sw	ra,12(sp)
 282              		.cfi_offset 1, -4
 283              		.loc 1 135 5
 284 000e 97000000 		call	lio_send_bt
 284      E7800000 
 285              	.LVL24:
 136:main.c        ****     delay_1ms(50);
 286              		.loc 1 136 5 is_stmt 1
 137:main.c        **** }
 287              		.loc 1 137 1 is_stmt 0
 288 0016 B240     		lw	ra,12(sp)
 289              		.cfi_restore 1
 136:main.c        ****     delay_1ms(50);
 290              		.loc 1 136 5
GAS LISTING /var/folders/yy/83vjwp7d53j56dbzj8_jnpcr0000gn/T//cchrdQkX.s 			page 9


 291 0018 13052003 		li	a0,50
 292              		.loc 1 137 1
 293 001c 4101     		addi	sp,sp,16
 294              	.LCFI6:
 295              		.cfi_def_cfa_offset 0
 136:main.c        ****     delay_1ms(50);
 296              		.loc 1 136 5
 297 001e 17030000 		tail	delay_1ms
 297      67000300 
 298              	.LVL25:
 299              		.cfi_endproc
 300              	.LFE10:
 302              		.section	.text.startup.main,"ax",@progbits
 303              		.align	1
 304              		.globl	main
 306              	main:
 307              	.LFB11:
 138:main.c        **** 
 139:main.c        **** int main(void){
 308              		.loc 1 139 15 is_stmt 1
 309              		.cfi_startproc
 140:main.c        ****     init_q();
 310              		.loc 1 140 5
 139:main.c        ****     init_q();
 311              		.loc 1 139 15 is_stmt 0
 312 0000 13010181 		addi	sp,sp,-2032
 313              	.LCFI7:
 314              		.cfi_def_cfa_offset 2032
 315 0004 2326117E 		sw	ra,2028(sp)
 316 0008 2324817E 		sw	s0,2024(sp)
 317 000c 2322917E 		sw	s1,2020(sp)
 318 0010 2320217F 		sw	s2,2016(sp)
 319 0014 232E317D 		sw	s3,2012(sp)
 320 0018 232A517D 		sw	s5,2004(sp)
 321 001c 2328617D 		sw	s6,2000(sp)
 322 0020 2326717D 		sw	s7,1996(sp)
 323 0024 2324817D 		sw	s8,1992(sp)
 324 0028 2322917D 		sw	s9,1988(sp)
 325 002c 2320A17D 		sw	s10,1984(sp)
 326 0030 232C417D 		sw	s4,2008(sp)
 327 0034 232EB17B 		sw	s11,1980(sp)
 328 0038 13010191 		addi	sp,sp,-1776
 329              	.LCFI8:
 330              		.cfi_def_cfa_offset 3808
 331              		.cfi_offset 1, -4
 332              		.cfi_offset 8, -8
 333              		.cfi_offset 9, -12
 334              		.cfi_offset 18, -16
 335              		.cfi_offset 19, -20
 336              		.cfi_offset 21, -28
 337              		.cfi_offset 22, -32
 338              		.cfi_offset 23, -36
 339              		.cfi_offset 24, -40
 340              		.cfi_offset 25, -44
 341              		.cfi_offset 26, -48
 342              		.cfi_offset 20, -24
 343              		.cfi_offset 27, -52
GAS LISTING /var/folders/yy/83vjwp7d53j56dbzj8_jnpcr0000gn/T//cchrdQkX.s 			page 10


 344              		.loc 1 140 5
 345 003c 97000000 		call	init_q
 345      E7800000 
 346              	.LVL26:
 141:main.c        ****     init_ADC_EMG();
 347              		.loc 1 141 5 is_stmt 1
 348 0044 97000000 		call	init_ADC_EMG
 348      E7800000 
 349              	.LVL27:
 142:main.c        ****     //configure_usb_serial(); //måste vara före lio_init_bt
 143:main.c        ****     lio_init_bt();
 350              		.loc 1 143 5
 351 004c 97000000 		call	lio_init_bt
 351      E7800000 
 352              	.LVL28:
 144:main.c        ****     ledInit();
 353              		.loc 1 144 5
 354 0054 97000000 		call	ledInit
 354      E7800000 
 355              	.LVL29:
 145:main.c        ****     usb_delay_1ms(1);
 356              		.loc 1 145 5
 357 005c 0545     		li	a0,1
 358 005e 97000000 		call	usb_delay_1ms
 358      E7800000 
 359              	.LVL30:
 146:main.c        ****     int rxcount=0;
 360              		.loc 1 146 5
 147:main.c        ****     /* Handle for the mounted filesystem */
 148:main.c        ****     FATFS fs;
 361              		.loc 1 148 5
 149:main.c        **** 
 150:main.c        ****     /* FatFs return code */
 151:main.c        ****     volatile FRESULT fr;
 362              		.loc 1 151 5
 152:main.c        **** 
 153:main.c        ****     /* File handle */
 154:main.c        ****     FIL fil;
 363              		.loc 1 154 5
 155:main.c        **** 
 156:main.c        ****     /* Used for bytes written */
 157:main.c        ****     UINT bw = 0;
 364              		.loc 1 157 5
 158:main.c        ****     
 159:main.c        ****     /* Sets a valid date for when writing to file */
 160:main.c        ****     set_fattime(1980, 1, 1, 0, 0, 0); // 1980 Jan 1st, 00:00:00
 365              		.loc 1 160 5 is_stmt 0
 366 0066 0147     		li	a4,0
 367 0068 8146     		li	a3,0
 368 006a 8147     		li	a5,0
 369 006c 0546     		li	a2,1
 370 006e 8545     		li	a1,1
 371 0070 1305C07B 		li	a0,1980
 157:main.c        ****     
 372              		.loc 1 157 10
 373 0074 02C8     		sw	zero,16(sp)
 374              		.loc 1 160 5 is_stmt 1
GAS LISTING /var/folders/yy/83vjwp7d53j56dbzj8_jnpcr0000gn/T//cchrdQkX.s 			page 11


 375 0076 97000000 		call	set_fattime
 375      E7800000 
 376              	.LVL31:
 161:main.c        ****     delay_1ms(100);
 377              		.loc 1 161 5
 378 007e 13054006 		li	a0,100
 379 0082 97000000 		call	delay_1ms
 379      E7800000 
 380              	.LVL32:
 162:main.c        **** 
 163:main.c        ****     /* This function "mounts" the SD-card which makes the filesystem available */
 164:main.c        ****     fr = f_mount(&fs, "test", 1); // Mount storage device
 381              		.loc 1 164 5
 382              		.loc 1 164 10 is_stmt 0
 383 008a 8564     		li	s1,4096
 157:main.c        ****     
 384              		.loc 1 157 10
 385 008c 7D74     		li	s0,-4096
 386              		.loc 1 164 10
 387 008e 938704EA 		addi	a5,s1,-352
 388 0092 8A97     		add	a5,a5,sp
 389 0094 1305043D 		addi	a0,s0,976
 390 0098 370B0000 		lui	s6,%hi(.LC10)
 391 009c 0546     		li	a2,1
 392 009e 93050B00 		addi	a1,s6,%lo(.LC10)
 393 00a2 3E95     		add	a0,a5,a0
 394 00a4 97000000 		call	f_mount
 394      E7800000 
 395              	.LVL33:
 165:main.c        ****     f_sync(&fil);
 396              		.loc 1 165 5
 397 00ac 938704EA 		addi	a5,s1,-352
 398 00b0 8A97     		add	a5,a5,sp
 164:main.c        ****     f_sync(&fil);
 399              		.loc 1 164 8
 400 00b2 2AC6     		sw	a0,12(sp)
 401              		.loc 1 165 5 is_stmt 1
 402 00b4 1305841A 		addi	a0,s0,424
 403 00b8 3E95     		add	a0,a5,a0
 404 00ba 97000000 		call	f_sync
 404      E7800000 
 405              	.LVL34:
 166:main.c        **** 
 167:main.c        ****     /* This function opens a file. In this case, we are creating a file which we want to write to *
 168:main.c        ****     
 169:main.c        ****     delay_1ms(400);
 406              		.loc 1 169 5
 407 00c2 13050019 		li	a0,400
 408 00c6 97000000 		call	delay_1ms
 408      E7800000 
 409              	.LVL35:
 170:main.c        **** 
 171:main.c        ****     init_mpu();
 410              		.loc 1 171 5
 411 00ce 97000000 		call	init_mpu
 411      E7800000 
 412              	.LVL36:
GAS LISTING /var/folders/yy/83vjwp7d53j56dbzj8_jnpcr0000gn/T//cchrdQkX.s 			page 12


 172:main.c        **** 
 173:main.c        ****     rcu_periph_clock_enable(RCU_DMA0);
 413              		.loc 1 173 5
 414 00d6 13050050 		li	a0,1280
 415 00da 97000000 		call	rcu_periph_clock_enable
 415      E7800000 
 416              	.LVL37:
 174:main.c        **** 
 175:main.c        ****     delay_1ms(20);
 417              		.loc 1 175 5
 418 00e2 5145     		li	a0,20
 419 00e4 97000000 		call	delay_1ms
 419      E7800000 
 420              	.LVL38:
 176:main.c        **** 
 177:main.c        ****     char write_to_sd[2560] = {'\0'};
 421              		.loc 1 177 5
 422              		.loc 1 177 10 is_stmt 0
 423 00ec 0566     		li	a2,4096
 424 00ee 130606A0 		addi	a2,a2,-1536
 425 00f2 8145     		li	a1,0
 426 00f4 1305014A 		addi	a0,sp,1184
 427 00f8 97000000 		call	memset
 427      E7800000 
 428              	.LVL39:
 178:main.c        ****     char buf[BUFFER_SIZE] = {'\0'};
 429              		.loc 1 178 5 is_stmt 1
 179:main.c        ****     
 180:main.c        **** /*     while (!usb_serial_available()) {
 181:main.c        ****         usb_delay_1ms(100);
 182:main.c        ****     } */
 183:main.c        ****     init_radio();
 430              		.loc 1 183 5
 184:main.c        ****      
 185:main.c        ****     write = 0;
 431              		.loc 1 185 11 is_stmt 0
 432 0100 37090000 		lui	s2,%hi(.LANCHOR3)
 183:main.c        ****      
 433              		.loc 1 183 5
 434 0104 97000000 		call	init_radio
 434      E7800000 
 435              	.LVL40:
 436              		.loc 1 185 5 is_stmt 1
 437              		.loc 1 185 11 is_stmt 0
 438 010c 23200900 		sw	zero,%lo(.LANCHOR3)(s2)
 186:main.c        **** 
 187:main.c        ****     int blink = 0;
 439              		.loc 1 187 5 is_stmt 1
 440              	.LVL41:
 188:main.c        ****     int onOff = 0;
 441              		.loc 1 188 5
 189:main.c        ****     reboot_BT();
 442              		.loc 1 189 5
 443 0110 97000000 		call	reboot_BT
 443      E7800000 
 444              	.LVL42:
 190:main.c        ****     enter_command_mode();
GAS LISTING /var/folders/yy/83vjwp7d53j56dbzj8_jnpcr0000gn/T//cchrdQkX.s 			page 13


 445              		.loc 1 190 5
 446 0118 97000000 		call	enter_command_mode
 446      E7800000 
 447              	.LVL43:
 191:main.c        ****     send_data_to_phone(Handle_start_stop,0);
 448              		.loc 1 191 5
 449 0120 8145     		li	a1,0
 450 0122 13055007 		li	a0,117
 451 0126 97000000 		call	send_data_to_phone
 451      E7800000 
 452              	.LVL44:
 453              	.LBB4:
 192:main.c        ****     while(1){
 193:main.c        ****         switch (get_state()){
 194:main.c        ****             case START:
 195:main.c        ****                 timer_interrupt_disable(TIMER1, TIMER_INT_CH0);
 196:main.c        ****                 eclic_global_interrupt_disable();    
 197:main.c        ****                 fr = f_mount(&fs, "test", 1); // Mount storage device
 198:main.c        ****                 f_sync(&fil);
 199:main.c        ****                 
 200:main.c        ****                 fr = f_open(&fil, FILENAME, FA_WRITE | FA_CREATE_ALWAYS);
 454              		.loc 1 200 22 is_stmt 0
 455 012e B70B0000 		lui	s7,%hi(.LANCHOR0)
 201:main.c        ****                 clear_queues();
 202:main.c        ****                 /* Write the header to the file */
 203:main.c        ****                 char header[] = "Time;X-acc;Y-acc;Z-acc;X-deg/s;Y-deg/s;Z-deg/s;EMG\n";
 204:main.c        ****                 //clear queue
 205:main.c        ****                 enqueue_string(header);
 206:main.c        **** 
 207:main.c        ****                 milli = 0;
 208:main.c        ****                 seconds = 0;
 209:main.c        ****                 minutes = 0;
 210:main.c        **** 
 211:main.c        ****                 while(millis() < start_time);
 212:main.c        ****                 //START IMU DMA
 213:main.c        ****                 i2c_dma_master_read_register(I2C0, MPU6500_ADDR, MPU6500_ACCEL_XOUT_H);
 214:main.c        ****                 //ENABLE interrupts for data collection
 215:main.c        ****                 set_state(RUNNING);
 216:main.c        ****                 write = 1;
 217:main.c        ****                 timer_interrupt_config();
 218:main.c        ****                 config_clic_irqs();
 219:main.c        ****                 //SKicka till telefon "Jag startar nu"
 220:main.c        ****                 send_data_to_phone(Handle_start_stop,1);
 221:main.c        ****                 eclic_global_interrupt_enable();  
 222:main.c        ****                 break;
 223:main.c        **** 
 224:main.c        ****             case STOP:
 225:main.c        ****                 //STOP CONTROL
 226:main.c        ****                 timer_interrupt_disable(TIMER1, TIMER_INT_CH0);
 227:main.c        ****                 eclic_global_interrupt_disable();
 228:main.c        ****                 //Skicka till telefon jag stoppar nu
 229:main.c        ****                 send_data_to_phone(Handle_start_stop,0);
 230:main.c        ****                 write_to_sd[0] = '\0';
 231:main.c        ****                 while(empty_string_queue(write_to_sd, 10)){
 232:main.c        ****                     f_write(&fil, write_to_sd, strlen(write_to_sd), &bw); // testa byt strlen till 
 456              		.loc 1 232 21
 457 0132 938704EA 		addi	a5,s1,-352
GAS LISTING /var/folders/yy/83vjwp7d53j56dbzj8_jnpcr0000gn/T//cchrdQkX.s 			page 14


 200:main.c        ****                 clear_queues();
 458              		.loc 1 200 22
 459 0136 938B0B00 		addi	s7,s7,%lo(.LANCHOR0)
 460              		.loc 1 232 21
 461 013a 930A0417 		addi	s5,s0,368
 462 013e 8A97     		add	a5,a5,sp
 463              	.LBE4:
 188:main.c        ****     reboot_BT();
 464              		.loc 1 188 9
 465 0140 014C     		li	s8,0
 187:main.c        ****     int onOff = 0;
 466              		.loc 1 187 9
 467 0142 8149     		li	s3,0
 468 0144 13090900 		addi	s2,s2,%lo(.LANCHOR3)
 469              	.LBB5:
 200:main.c        ****                 clear_queues();
 470              		.loc 1 200 22
 471 0148 938C8B06 		addi	s9,s7,104
 207:main.c        ****                 seconds = 0;
 472              		.loc 1 207 23
 473 014c 370D0000 		lui	s10,%hi(.LANCHOR4)
 474              		.loc 1 232 21
 475 0150 BE9A     		add	s5,a5,s5
 476              	.LVL45:
 477              	.L20:
 478              	.LBE5:
 192:main.c        ****         switch (get_state()){
 479              		.loc 1 192 5 is_stmt 1
 193:main.c        ****             case START:
 480              		.loc 1 193 9
 193:main.c        ****             case START:
 481              		.loc 1 193 17 is_stmt 0
 482 0152 97000000 		call	get_state
 482      E7800000 
 483              	.LVL46:
 193:main.c        ****             case START:
 484              		.loc 1 193 9
 485 015a 8547     		li	a5,1
 486 015c 6300F50A 		beq	a0,a5,.L11
 487 0160 8947     		li	a5,2
 488 0162 6300F51A 		beq	a0,a5,.L12
 489 0166 75F5     		bne	a0,zero,.L20
 490              	.LBB6:
 233:main.c        ****                     f_sync(&fil);
 234:main.c        ****                     write_to_sd[0] = '\0';
 235:main.c        ****                 }    
 236:main.c        **** 
 237:main.c        ****                 f_close(&fil);
 238:main.c        ****                 set_state(RUNNING);
 239:main.c        ****                 write = 0;
 240:main.c        ****                 eclic_global_interrupt_enable();
 241:main.c        ****                      
 242:main.c        ****                 break;
 243:main.c        **** 
 244:main.c        ****             case RUNNING:
 245:main.c        ****                 //RUNNING CONTROL
 246:main.c        ****                 blink++;
GAS LISTING /var/folders/yy/83vjwp7d53j56dbzj8_jnpcr0000gn/T//cchrdQkX.s 			page 15


 491              		.loc 1 246 17 is_stmt 1
 247:main.c        ****                 if (blink == 1000000){
 492              		.loc 1 247 20 is_stmt 0
 493 0168 B7470F00 		li	a5,999424
 246:main.c        ****                 if (blink == 1000000){
 494              		.loc 1 246 22
 495 016c 8509     		addi	s3,s3,1
 496              	.LVL47:
 497              		.loc 1 247 17 is_stmt 1
 498              		.loc 1 247 20 is_stmt 0
 499 016e 93870724 		addi	a5,a5,576
 500 0172 639AF900 		bne	s3,a5,.L18
 248:main.c        ****                     blink = 0;
 501              		.loc 1 248 21 is_stmt 1
 502              	.LVL48:
 249:main.c        ****                     if(onOff){
 503              		.loc 1 249 21
 504              		.loc 1 249 23 is_stmt 0
 505 0176 630C0C22 		beq	s8,zero,.L19
 250:main.c        ****                         led_on_B0();
 506              		.loc 1 250 25 is_stmt 1
 507 017a 97000000 		call	led_on_B0
 507      E7800000 
 508              	.LVL49:
 251:main.c        ****                         onOff = 0;
 509              		.loc 1 251 25
 510              		.loc 1 251 31 is_stmt 0
 511 0182 014C     		li	s8,0
 248:main.c        ****                     if(onOff){
 512              		.loc 1 248 27
 513 0184 8149     		li	s3,0
 514              	.LVL50:
 515              	.L18:
 252:main.c        ****                     }else{
 253:main.c        ****                         led_off_B0();
 254:main.c        ****                         onOff = 1;
 255:main.c        ****                     }
 256:main.c        ****                 }
 257:main.c        ****                 //BREAK IF PROGRAM SHOULDNT WRITE
 258:main.c        ****                 if(!write){
 516              		.loc 1 258 17 is_stmt 1
 517              		.loc 1 258 19 is_stmt 0
 518 0186 83270900 		lw	a5,0(s2)
 519 018a E1D7     		beq	a5,zero,.L20
 259:main.c        ****                     break;
 260:main.c        ****                 }
 261:main.c        ****                 
 262:main.c        ****                 if(queue_str_len() > 5){ //Behövs högre hastighet så kan vi öka denna 5:an
 520              		.loc 1 262 17 is_stmt 1
 521              		.loc 1 262 20 is_stmt 0
 522 018c 97000000 		call	queue_str_len
 522      E7800000 
 523              	.LVL51:
 524              		.loc 1 262 19
 525 0194 9547     		li	a5,5
 526 0196 E3DEA7FA 		ble	a0,a5,.L20
 263:main.c        ****                     memset(write_to_sd, '\0', sizeof(write_to_sd));
GAS LISTING /var/folders/yy/83vjwp7d53j56dbzj8_jnpcr0000gn/T//cchrdQkX.s 			page 16


 527              		.loc 1 263 21 is_stmt 1
 528 019a 8567     		li	a5,4096
 529 019c 938707EA 		addi	a5,a5,-352
 530 01a0 8A97     		add	a5,a5,sp
 531 01a2 93040460 		addi	s1,s0,1536
 532 01a6 BE94     		add	s1,a5,s1
 533 01a8 0566     		li	a2,4096
 534 01aa 8145     		li	a1,0
 535 01ac 130606A0 		addi	a2,a2,-1536
 536 01b0 2685     		mv	a0,s1
 537 01b2 97000000 		call	memset
 537      E7800000 
 538              	.LVL52:
 264:main.c        ****                     if (dequeue_string(write_to_sd, 5)) { //Behövs högre hastighet så kan vi ök
 539              		.loc 1 264 21
 540              		.loc 1 264 25 is_stmt 0
 541 01ba 9545     		li	a1,5
 542 01bc 2685     		mv	a0,s1
 543 01be 97000000 		call	dequeue_string
 543      E7800000 
 544              	.LVL53:
 545              		.loc 1 264 24
 546 01c6 51D5     		beq	a0,zero,.L20
 265:main.c        ****                         f_write(&fil, write_to_sd, strlen(write_to_sd), &bw);
 547              		.loc 1 265 25 is_stmt 1
 548 01c8 2685     		mv	a0,s1
 549 01ca 97000000 		call	strlen
 549      E7800000 
 550              	.LVL54:
 551 01d2 8567     		li	a5,4096
 552 01d4 938707EA 		addi	a5,a5,-352
 553 01d8 8A97     		add	a5,a5,sp
 554 01da 130A841A 		addi	s4,s0,424
 555 01de 3E9A     		add	s4,a5,s4
 556 01e0 2A86     		mv	a2,a0
 557 01e2 D686     		mv	a3,s5
 558 01e4 A685     		mv	a1,s1
 559 01e6 5285     		mv	a0,s4
 560 01e8 97000000 		call	f_write
 560      E7800000 
 561              	.LVL55:
 266:main.c        ****                         f_sync(&fil);
 562              		.loc 1 266 25
 563 01f0 5285     		mv	a0,s4
 564 01f2 97000000 		call	f_sync
 564      E7800000 
 565              	.LVL56:
 566              	.LBE6:
 193:main.c        ****             case START:
 567              		.loc 1 193 9 is_stmt 0
 568 01fa A1BF     		j	.L20
 569              	.L11:
 570              	.LBB7:
 195:main.c        ****                 eclic_global_interrupt_disable();    
 571              		.loc 1 195 17 is_stmt 1
 572 01fc 8945     		li	a1,2
 573 01fe 37050040 		li	a0,1073741824
GAS LISTING /var/folders/yy/83vjwp7d53j56dbzj8_jnpcr0000gn/T//cchrdQkX.s 			page 17


 574 0202 97000000 		call	timer_interrupt_disable
 574      E7800000 
 575              	.LVL57:
 196:main.c        ****                 fr = f_mount(&fs, "test", 1); // Mount storage device
 576              		.loc 1 196 17
 197:main.c        ****                 f_sync(&fil);
 577              		.loc 1 197 22 is_stmt 0
 578 020a 056A     		li	s4,4096
 196:main.c        ****                 fr = f_mount(&fs, "test", 1); // Mount storage device
 579              		.loc 1 196 17
 580 020c 97000000 		call	eclic_global_interrupt_disable
 580      E7800000 
 581              	.LVL58:
 197:main.c        ****                 f_sync(&fil);
 582              		.loc 1 197 17 is_stmt 1
 197:main.c        ****                 f_sync(&fil);
 583              		.loc 1 197 22 is_stmt 0
 584 0214 93070AEA 		addi	a5,s4,-352
 585 0218 8A97     		add	a5,a5,sp
 586 021a 1305043D 		addi	a0,s0,976
 587 021e 0546     		li	a2,1
 588 0220 93050B00 		addi	a1,s6,%lo(.LC10)
 589 0224 3E95     		add	a0,a5,a0
 590 0226 97000000 		call	f_mount
 590      E7800000 
 591              	.LVL59:
 198:main.c        ****                 
 592              		.loc 1 198 17
 593 022e 93070AEA 		addi	a5,s4,-352
 594 0232 8A97     		add	a5,a5,sp
 595 0234 9304841A 		addi	s1,s0,424
 596 0238 BE94     		add	s1,a5,s1
 197:main.c        ****                 f_sync(&fil);
 597              		.loc 1 197 20
 598 023a 2AC6     		sw	a0,12(sp)
 198:main.c        ****                 
 599              		.loc 1 198 17 is_stmt 1
 600 023c 2685     		mv	a0,s1
 601 023e 97000000 		call	f_sync
 601      E7800000 
 602              	.LVL60:
 200:main.c        ****                 clear_queues();
 603              		.loc 1 200 17
 200:main.c        ****                 clear_queues();
 604              		.loc 1 200 22 is_stmt 0
 605 0246 2946     		li	a2,10
 606 0248 E685     		mv	a1,s9
 607 024a 2685     		mv	a0,s1
 608 024c 97000000 		call	f_open
 608      E7800000 
 609              	.LVL61:
 200:main.c        ****                 clear_queues();
 610              		.loc 1 200 20
 611 0254 2AC6     		sw	a0,12(sp)
 201:main.c        ****                 /* Write the header to the file */
 612              		.loc 1 201 17 is_stmt 1
 613 0256 97000000 		call	clear_queues
GAS LISTING /var/folders/yy/83vjwp7d53j56dbzj8_jnpcr0000gn/T//cchrdQkX.s 			page 18


 613      E7800000 
 614              	.LVL62:
 203:main.c        ****                 //clear queue
 615              		.loc 1 203 17
 203:main.c        ****                 //clear queue
 616              		.loc 1 203 22 is_stmt 0
 617 025e 13064003 		li	a2,52
 618 0262 93854B07 		addi	a1,s7,116
 619 0266 4808     		addi	a0,sp,20
 620 0268 97000000 		call	memcpy
 620      E7800000 
 621              	.LVL63:
 205:main.c        **** 
 622              		.loc 1 205 17 is_stmt 1
 623 0270 93070AEA 		addi	a5,s4,-352
 624 0274 8A97     		add	a5,a5,sp
 625 0276 13054417 		addi	a0,s0,372
 626 027a 3E95     		add	a0,a5,a0
 627 027c 97000000 		call	enqueue_string
 627      E7800000 
 628              	.LVL64:
 207:main.c        ****                 seconds = 0;
 629              		.loc 1 207 17
 207:main.c        ****                 seconds = 0;
 630              		.loc 1 207 23 is_stmt 0
 631 0284 93070D00 		addi	a5,s10,%lo(.LANCHOR4)
 632 0288 23900700 		sh	zero,0(a5)
 208:main.c        ****                 minutes = 0;
 633              		.loc 1 208 17 is_stmt 1
 208:main.c        ****                 minutes = 0;
 634              		.loc 1 208 25 is_stmt 0
 635 028c B7070000 		lui	a5,%hi(.LANCHOR5)
 636 0290 23A00700 		sw	zero,%lo(.LANCHOR5)(a5)
 209:main.c        **** 
 637              		.loc 1 209 17 is_stmt 1
 209:main.c        **** 
 638              		.loc 1 209 25 is_stmt 0
 639 0294 B7070000 		lui	a5,%hi(.LANCHOR6)
 640 0298 23900700 		sh	zero,%lo(.LANCHOR6)(a5)
 211:main.c        ****                 //START IMU DMA
 641              		.loc 1 211 17 is_stmt 1
 211:main.c        ****                 //START IMU DMA
 642              		.loc 1 211 32 is_stmt 0
 643 029c B7040000 		lui	s1,%hi(.LANCHOR7)
 644              	.L15:
 211:main.c        ****                 //START IMU DMA
 645              		.loc 1 211 45 is_stmt 1 discriminator 1
 211:main.c        ****                 //START IMU DMA
 646              		.loc 1 211 23 is_stmt 0 discriminator 1
 647 02a0 97000000 		call	millis
 647      E7800000 
 648              	.LVL65:
 211:main.c        ****                 //START IMU DMA
 649              		.loc 1 211 32 discriminator 1
 650 02a8 93870400 		addi	a5,s1,%lo(.LANCHOR7)
 651 02ac 9C43     		lw	a5,0(a5)
 211:main.c        ****                 //START IMU DMA
GAS LISTING /var/folders/yy/83vjwp7d53j56dbzj8_jnpcr0000gn/T//cchrdQkX.s 			page 19


 652              		.loc 1 211 22 discriminator 1
 653 02ae E349F5FE 		blt	a0,a5,.L15
 213:main.c        ****                 //ENABLE interrupts for data collection
 654              		.loc 1 213 17 is_stmt 1
 655 02b2 37550040 		li	a0,1073762304
 656 02b6 1306B003 		li	a2,59
 657 02ba 93059006 		li	a1,105
 658 02be 13050540 		addi	a0,a0,1024
 659 02c2 97000000 		call	i2c_dma_master_read_register
 659      E7800000 
 660              	.LVL66:
 215:main.c        ****                 write = 1;
 661              		.loc 1 215 17
 662 02ca 0145     		li	a0,0
 663 02cc 97000000 		call	set_state
 663      E7800000 
 664              	.LVL67:
 216:main.c        ****                 timer_interrupt_config();
 665              		.loc 1 216 17
 216:main.c        ****                 timer_interrupt_config();
 666              		.loc 1 216 23 is_stmt 0
 667 02d4 8547     		li	a5,1
 668 02d6 2320F900 		sw	a5,0(s2)
 217:main.c        ****                 config_clic_irqs();
 669              		.loc 1 217 17 is_stmt 1
 670 02da 97000000 		call	timer_interrupt_config
 670      E7800000 
 671              	.LVL68:
 218:main.c        ****                 //SKicka till telefon "Jag startar nu"
 672              		.loc 1 218 17
 673 02e2 97000000 		call	config_clic_irqs
 673      E7800000 
 674              	.LVL69:
 220:main.c        ****                 eclic_global_interrupt_enable();  
 675              		.loc 1 220 17
 676 02ea 8545     		li	a1,1
 677 02ec 13055007 		li	a0,117
 678 02f0 97000000 		call	send_data_to_phone
 678      E7800000 
 679              	.LVL70:
 221:main.c        ****                 break;
 680              		.loc 1 221 17
 681 02f8 97000000 		call	eclic_global_interrupt_enable
 681      E7800000 
 682              	.LVL71:
 222:main.c        **** 
 683              		.loc 1 222 17
 684 0300 89BD     		j	.L20
 685              	.L12:
 226:main.c        ****                 eclic_global_interrupt_disable();
 686              		.loc 1 226 17
 687 0302 8945     		li	a1,2
 688 0304 37050040 		li	a0,1073741824
 689 0308 97000000 		call	timer_interrupt_disable
 689      E7800000 
 690              	.LVL72:
 227:main.c        ****                 //Skicka till telefon jag stoppar nu
GAS LISTING /var/folders/yy/83vjwp7d53j56dbzj8_jnpcr0000gn/T//cchrdQkX.s 			page 20


 691              		.loc 1 227 17
 692 0310 97000000 		call	eclic_global_interrupt_disable
 692      E7800000 
 693              	.LVL73:
 229:main.c        ****                 write_to_sd[0] = '\0';
 694              		.loc 1 229 17
 695 0318 8145     		li	a1,0
 696 031a 13055007 		li	a0,117
 697 031e 97000000 		call	send_data_to_phone
 697      E7800000 
 698              	.LVL74:
 230:main.c        ****                 while(empty_string_queue(write_to_sd, 10)){
 699              		.loc 1 230 17
 230:main.c        ****                 while(empty_string_queue(write_to_sd, 10)){
 700              		.loc 1 230 32 is_stmt 0
 701 0326 0567     		li	a4,4096
 702 0328 930707EA 		addi	a5,a4,-352
 703 032c 8A97     		add	a5,a5,sp
 231:main.c        ****                     f_write(&fil, write_to_sd, strlen(write_to_sd), &bw); // testa byt strlen till 
 704              		.loc 1 231 23
 705 032e 930607EA 		addi	a3,a4,-352
 230:main.c        ****                 while(empty_string_queue(write_to_sd, 10)){
 706              		.loc 1 230 32
 707 0332 A297     		add	a5,a5,s0
 231:main.c        ****                     f_write(&fil, write_to_sd, strlen(write_to_sd), &bw); // testa byt strlen till 
 708              		.loc 1 231 23
 709 0334 8A96     		add	a3,a3,sp
 710 0336 93040460 		addi	s1,s0,1536
 232:main.c        ****                     f_sync(&fil);
 711              		.loc 1 232 21
 712 033a 130A841A 		addi	s4,s0,424
 230:main.c        ****                 while(empty_string_queue(write_to_sd, 10)){
 713              		.loc 1 230 32
 714 033e 23800760 		sb	zero,1536(a5)
 231:main.c        ****                     f_write(&fil, write_to_sd, strlen(write_to_sd), &bw); // testa byt strlen till 
 715              		.loc 1 231 17 is_stmt 1
 231:main.c        ****                     f_write(&fil, write_to_sd, strlen(write_to_sd), &bw); // testa byt strlen till 
 716              		.loc 1 231 23 is_stmt 0
 717 0342 B694     		add	s1,a3,s1
 232:main.c        ****                     f_sync(&fil);
 718              		.loc 1 232 21
 719 0344 369A     		add	s4,a3,s4
 234:main.c        ****                 }    
 720              		.loc 1 234 36
 721 0346 BE8D     		mv	s11,a5
 722              	.L16:
 231:main.c        ****                     f_write(&fil, write_to_sd, strlen(write_to_sd), &bw); // testa byt strlen till 
 723              		.loc 1 231 23
 724 0348 A945     		li	a1,10
 725 034a 2685     		mv	a0,s1
 726 034c 97000000 		call	empty_string_queue
 726      E7800000 
 727              	.LVL75:
 231:main.c        ****                     f_write(&fil, write_to_sd, strlen(write_to_sd), &bw); // testa byt strlen till 
 728              		.loc 1 231 22
 729 0354 05E9     		bne	a0,zero,.L17
 237:main.c        ****                 set_state(RUNNING);
GAS LISTING /var/folders/yy/83vjwp7d53j56dbzj8_jnpcr0000gn/T//cchrdQkX.s 			page 21


 730              		.loc 1 237 17 is_stmt 1
 731 0356 8567     		li	a5,4096
 732 0358 938707EA 		addi	a5,a5,-352
 733 035c 8A97     		add	a5,a5,sp
 734 035e 1305841A 		addi	a0,s0,424
 735 0362 3E95     		add	a0,a5,a0
 736 0364 97000000 		call	f_close
 736      E7800000 
 737              	.LVL76:
 238:main.c        ****                 write = 0;
 738              		.loc 1 238 17
 739 036c 0145     		li	a0,0
 740 036e 97000000 		call	set_state
 740      E7800000 
 741              	.LVL77:
 239:main.c        ****                 eclic_global_interrupt_enable();
 742              		.loc 1 239 17
 239:main.c        ****                 eclic_global_interrupt_enable();
 743              		.loc 1 239 23 is_stmt 0
 744 0376 23200900 		sw	zero,0(s2)
 240:main.c        ****                      
 745              		.loc 1 240 17 is_stmt 1
 746 037a 97000000 		call	eclic_global_interrupt_enable
 746      E7800000 
 747              	.LVL78:
 242:main.c        **** 
 748              		.loc 1 242 17
 749 0382 C1BB     		j	.L20
 750              	.L17:
 232:main.c        ****                     f_sync(&fil);
 751              		.loc 1 232 21
 752 0384 2685     		mv	a0,s1
 753 0386 97000000 		call	strlen
 753      E7800000 
 754              	.LVL79:
 755 038e 2A86     		mv	a2,a0
 756 0390 D686     		mv	a3,s5
 757 0392 A685     		mv	a1,s1
 758 0394 5285     		mv	a0,s4
 759 0396 97000000 		call	f_write
 759      E7800000 
 760              	.LVL80:
 233:main.c        ****                     write_to_sd[0] = '\0';
 761              		.loc 1 233 21
 762 039e 5285     		mv	a0,s4
 763 03a0 97000000 		call	f_sync
 763      E7800000 
 764              	.LVL81:
 234:main.c        ****                 }    
 765              		.loc 1 234 21
 234:main.c        ****                 }    
 766              		.loc 1 234 36 is_stmt 0
 767 03a8 23800D60 		sb	zero,1536(s11)
 768 03ac 71BF     		j	.L16
 769              	.LVL82:
 770              	.L19:
 253:main.c        ****                         onOff = 1;
GAS LISTING /var/folders/yy/83vjwp7d53j56dbzj8_jnpcr0000gn/T//cchrdQkX.s 			page 22


 771              		.loc 1 253 25 is_stmt 1
 772 03ae 97000000 		call	led_off_B0
 772      E7800000 
 773              	.LVL83:
 254:main.c        ****                     }
 774              		.loc 1 254 25
 248:main.c        ****                     if(onOff){
 775              		.loc 1 248 27 is_stmt 0
 776 03b6 8149     		li	s3,0
 254:main.c        ****                     }
 777              		.loc 1 254 31
 778 03b8 054C     		li	s8,1
 779 03ba F1B3     		j	.L18
 780              	.LBE7:
 781              		.cfi_endproc
 782              	.LFE11:
 784              		.section	.text.TIMER1_IRQHandler,"ax",@progbits
 785              		.align	1
 786              		.globl	TIMER1_IRQHandler
 788              	TIMER1_IRQHandler:
 789              	.LFB12:
 267:main.c        ****                     }
 268:main.c        ****                 }
 269:main.c        ****                 break;
 270:main.c        ****             default:
 271:main.c        ****                 break;
 272:main.c        ****         }
 273:main.c        ****     }
 274:main.c        **** }
 275:main.c        **** 
 276:main.c        **** void TIMER1_IRQHandler(void){
 790              		.loc 1 276 29 is_stmt 1
 791              		.cfi_startproc
 277:main.c        ****     char buf[64] = {'\0'};
 792              		.loc 1 277 5
 276:main.c        ****     char buf[64] = {'\0'};
 793              		.loc 1 276 29 is_stmt 0
 794 0000 1D71     		addi	sp,sp,-96
 795              	.LCFI9:
 796              		.cfi_def_cfa_offset 96
 797              		.loc 1 277 10
 798 0002 13060004 		li	a2,64
 799 0006 8145     		li	a1,0
 800 0008 0A85     		mv	a0,sp
 276:main.c        ****     char buf[64] = {'\0'};
 801              		.loc 1 276 29
 802 000a 86CE     		sw	ra,92(sp)
 803 000c A2CC     		sw	s0,88(sp)
 804 000e A6CA     		sw	s1,84(sp)
 805 0010 CAC8     		sw	s2,80(sp)
 806 0012 CEC6     		sw	s3,76(sp)
 807              		.cfi_offset 1, -4
 808              		.cfi_offset 8, -8
 809              		.cfi_offset 9, -12
 810              		.cfi_offset 18, -16
 811              		.cfi_offset 19, -20
 812              		.loc 1 277 10
GAS LISTING /var/folders/yy/83vjwp7d53j56dbzj8_jnpcr0000gn/T//cchrdQkX.s 			page 23


 813 0014 97000000 		call	memset
 813      E7800000 
 814              	.LVL84:
 278:main.c        ****     int buf_size = 0;   
 815              		.loc 1 278 5 is_stmt 1
 279:main.c        ****     dma_vector_t vector_write;
 816              		.loc 1 279 5
 280:main.c        ****     /* Check which channel triggered the interrupt */
 281:main.c        ****     if(SET == timer_interrupt_flag_get(TIMER1, TIMER_INT_CH0)){
 817              		.loc 1 281 5
 818              		.loc 1 281 15 is_stmt 0
 819 001c 8945     		li	a1,2
 820 001e 37050040 		li	a0,1073741824
 821 0022 97000000 		call	timer_interrupt_flag_get
 821      E7800000 
 822              	.LVL85:
 823              		.loc 1 281 7
 824 002a 8547     		li	a5,1
 825 002c 6314F51C 		bne	a0,a5,.L29
 282:main.c        ****         //led_on_B1();
 283:main.c        ****         milli++;
 826              		.loc 1 283 9 is_stmt 1
 827              		.loc 1 283 14 is_stmt 0
 828 0030 B7040000 		lui	s1,%hi(.LANCHOR4)
 829 0034 13870400 		addi	a4,s1,%lo(.LANCHOR4)
 830 0038 83570700 		lhu	a5,0(a4)
 831 003c 37040000 		lui	s0,%hi(.LANCHOR5)
 832 0040 93840400 		addi	s1,s1,%lo(.LANCHOR4)
 833 0044 8507     		addi	a5,a5,1
 834 0046 C207     		slli	a5,a5,16
 835 0048 C187     		srai	a5,a5,16
 836 004a 2310F700 		sh	a5,0(a4)
 284:main.c        ****         if(milli == 1000){
 837              		.loc 1 284 9 is_stmt 1
 838              		.loc 1 284 18 is_stmt 0
 839 004e 83570700 		lhu	a5,0(a4)
 840              		.loc 1 284 11
 841 0052 1307803E 		li	a4,1000
 842 0056 13040400 		addi	s0,s0,%lo(.LANCHOR5)
 843              		.loc 1 284 18
 844 005a C207     		slli	a5,a5,16
 845 005c C187     		srai	a5,a5,16
 846              		.loc 1 284 11
 847 005e 6397E700 		bne	a5,a4,.L31
 285:main.c        ****             milli = 0;
 848              		.loc 1 285 13 is_stmt 1
 849              		.loc 1 285 19 is_stmt 0
 850 0062 23900400 		sh	zero,0(s1)
 286:main.c        ****             seconds++;
 851              		.loc 1 286 13 is_stmt 1
 852              		.loc 1 286 20 is_stmt 0
 853 0066 1C40     		lw	a5,0(s0)
 854 0068 8507     		addi	a5,a5,1
 855 006a 1CC0     		sw	a5,0(s0)
 856              	.L31:
 287:main.c        ****             //skicka data till telefon
 288:main.c        ****         }
GAS LISTING /var/folders/yy/83vjwp7d53j56dbzj8_jnpcr0000gn/T//cchrdQkX.s 			page 24


 289:main.c        ****         if(seconds==60){
 857              		.loc 1 289 9 is_stmt 1
 858              		.loc 1 289 19 is_stmt 0
 859 006c 1840     		lw	a4,0(s0)
 860 006e B7090000 		lui	s3,%hi(.LANCHOR6)
 861              		.loc 1 289 11
 862 0072 9307C003 		li	a5,60
 863 0076 93890900 		addi	s3,s3,%lo(.LANCHOR6)
 864 007a 631BF700 		bne	a4,a5,.L32
 290:main.c        ****             seconds = 0;
 865              		.loc 1 290 13 is_stmt 1
 866              		.loc 1 290 21 is_stmt 0
 867 007e 23200400 		sw	zero,0(s0)
 291:main.c        ****             minutes++;
 868              		.loc 1 291 13 is_stmt 1
 869              		.loc 1 291 20 is_stmt 0
 870 0082 83D70900 		lhu	a5,0(s3)
 871 0086 8507     		addi	a5,a5,1
 872 0088 C207     		slli	a5,a5,16
 873 008a C187     		srai	a5,a5,16
 874 008c 2390F900 		sh	a5,0(s3)
 875              	.L32:
 292:main.c        ****         }
 293:main.c        ****         if(milli == 0){ //Right leg
 876              		.loc 1 293 9 is_stmt 1
 877              		.loc 1 293 18 is_stmt 0
 878 0090 83D70400 		lhu	a5,0(s1)
 879 0094 C207     		slli	a5,a5,16
 880 0096 C187     		srai	a5,a5,16
 881              		.loc 1 293 11
 882 0098 81EB     		bne	a5,zero,.L33
 294:main.c        ****             stagger_data_to_phone(seconds);
 883              		.loc 1 294 13 is_stmt 1
 884 009a 0840     		lw	a0,0(s0)
 885 009c 4205     		slli	a0,a0,16
 886 009e 4185     		srai	a0,a0,16
 887 00a0 97000000 		call	stagger_data_to_phone
 887      E7800000 
 888              	.LVL86:
 889              	.L33:
 295:main.c        ****         }
 296:main.c        ****         //if(milli == 200){ //Left leg
 297:main.c        ****         //    stagger_data_to_phone(seconds);
 298:main.c        ****         //}
 299:main.c        ****         //if(milli == 400){ //Chest
 300:main.c        ****         //    stagger_data_to_phone(seconds);
 301:main.c        ****         //}
 302:main.c        ****         
 303:main.c        ****         
 304:main.c        ****         emg = ADC_RDATA(ADC0);
 890              		.loc 1 304 9
 891              		.loc 1 304 15 is_stmt 0
 892 00a8 37290140 		li	s2,1073815552
 893 00ac 0327C944 		lw	a4,1100(s2)
 894              		.loc 1 304 13
 895 00b0 B7070000 		lui	a5,%hi(.LANCHOR8)
 305:main.c        **** 
GAS LISTING /var/folders/yy/83vjwp7d53j56dbzj8_jnpcr0000gn/T//cchrdQkX.s 			page 25


 306:main.c        ****         formatTime(buf,minutes,seconds,milli);
 896              		.loc 1 306 9
 897 00b4 0A85     		mv	a0,sp
 304:main.c        **** 
 898              		.loc 1 304 13
 899 00b6 23A0E700 		sw	a4,%lo(.LANCHOR8)(a5)
 900              		.loc 1 306 9 is_stmt 1
 901 00ba 83D50900 		lhu	a1,0(s3)
 902 00be 1040     		lw	a2,0(s0)
 903 00c0 83D60400 		lhu	a3,0(s1)
 904 00c4 C205     		slli	a1,a1,16
 905 00c6 C185     		srai	a1,a1,16
 906 00c8 C206     		slli	a3,a3,16
 907 00ca C186     		srai	a3,a3,16
 908 00cc 97000000 		call	formatTime
 908      E7800000 
 909              	.LVL87:
 307:main.c        ****         last_Sample_buffer[0] = (int16_t)((*(pDatabuffer + 0  ) << 8) | *(pDatabuffer + 1  ));
 910              		.loc 1 307 9
 911              		.loc 1 307 44 is_stmt 0
 912 00d4 B7070000 		lui	a5,%hi(.LANCHOR9)
 913 00d8 83A70700 		lw	a5,%lo(.LANCHOR9)(a5)
 914              		.loc 1 307 31
 915 00dc 37040000 		lui	s0,%hi(.LANCHOR1)
 916 00e0 13040400 		addi	s0,s0,%lo(.LANCHOR1)
 917              		.loc 1 307 44
 918 00e4 83C50700 		lbu	a1,0(a5)
 919              		.loc 1 307 73
 920 00e8 03C71700 		lbu	a4,1(a5)
 308:main.c        ****         last_Sample_buffer[1] = (int16_t)((*(pDatabuffer + 2  ) << 8) | *(pDatabuffer + 3  ));
 309:main.c        ****         last_Sample_buffer[2] = (int16_t)((*(pDatabuffer + 4  ) << 8) | *(pDatabuffer + 5  ));
 310:main.c        ****         last_Sample_buffer[3] = (int16_t)((*(pDatabuffer + 8  ) << 8) | *(pDatabuffer + 9  ));
 311:main.c        ****         last_Sample_buffer[4] = (int16_t)((*(pDatabuffer + 10 ) << 8) | *(pDatabuffer + 11 ));
 312:main.c        ****         last_Sample_buffer[5] = (int16_t)((*(pDatabuffer + 12 ) << 8) | *(pDatabuffer + 13 ));
 313:main.c        ****         last_Sample_buffer[6] = ADC_RDATA(ADC0);
 314:main.c        **** 
 315:main.c        ****         append_int_to_string(buf, last_Sample_buffer[0]);
 921              		.loc 1 315 9
 922 00ec 0A85     		mv	a0,sp
 307:main.c        ****         last_Sample_buffer[0] = (int16_t)((*(pDatabuffer + 0  ) << 8) | *(pDatabuffer + 1  ));
 923              		.loc 1 307 65
 924 00ee A205     		slli	a1,a1,8
 307:main.c        ****         last_Sample_buffer[0] = (int16_t)((*(pDatabuffer + 0  ) << 8) | *(pDatabuffer + 1  ));
 925              		.loc 1 307 33
 926 00f0 D98D     		or	a1,a1,a4
 927 00f2 C205     		slli	a1,a1,16
 928 00f4 C185     		srai	a1,a1,16
 307:main.c        ****         last_Sample_buffer[0] = (int16_t)((*(pDatabuffer + 0  ) << 8) | *(pDatabuffer + 1  ));
 929              		.loc 1 307 31
 930 00f6 2310B400 		sh	a1,0(s0)
 308:main.c        ****         last_Sample_buffer[1] = (int16_t)((*(pDatabuffer + 2  ) << 8) | *(pDatabuffer + 3  ));
 931              		.loc 1 308 9 is_stmt 1
 308:main.c        ****         last_Sample_buffer[1] = (int16_t)((*(pDatabuffer + 2  ) << 8) | *(pDatabuffer + 3  ));
 932              		.loc 1 308 44 is_stmt 0
 933 00fa 03C72700 		lbu	a4,2(a5)
 308:main.c        ****         last_Sample_buffer[1] = (int16_t)((*(pDatabuffer + 2  ) << 8) | *(pDatabuffer + 3  ));
 934              		.loc 1 308 73
GAS LISTING /var/folders/yy/83vjwp7d53j56dbzj8_jnpcr0000gn/T//cchrdQkX.s 			page 26


 935 00fe 83C63700 		lbu	a3,3(a5)
 308:main.c        ****         last_Sample_buffer[1] = (int16_t)((*(pDatabuffer + 2  ) << 8) | *(pDatabuffer + 3  ));
 936              		.loc 1 308 65
 937 0102 2207     		slli	a4,a4,8
 308:main.c        ****         last_Sample_buffer[1] = (int16_t)((*(pDatabuffer + 2  ) << 8) | *(pDatabuffer + 3  ));
 938              		.loc 1 308 33
 939 0104 558F     		or	a4,a4,a3
 308:main.c        ****         last_Sample_buffer[1] = (int16_t)((*(pDatabuffer + 2  ) << 8) | *(pDatabuffer + 3  ));
 940              		.loc 1 308 31
 941 0106 2311E400 		sh	a4,2(s0)
 309:main.c        ****         last_Sample_buffer[3] = (int16_t)((*(pDatabuffer + 8  ) << 8) | *(pDatabuffer + 9  ));
 942              		.loc 1 309 9 is_stmt 1
 309:main.c        ****         last_Sample_buffer[3] = (int16_t)((*(pDatabuffer + 8  ) << 8) | *(pDatabuffer + 9  ));
 943              		.loc 1 309 44 is_stmt 0
 944 010a 03C74700 		lbu	a4,4(a5)
 309:main.c        ****         last_Sample_buffer[3] = (int16_t)((*(pDatabuffer + 8  ) << 8) | *(pDatabuffer + 9  ));
 945              		.loc 1 309 73
 946 010e 83C65700 		lbu	a3,5(a5)
 309:main.c        ****         last_Sample_buffer[3] = (int16_t)((*(pDatabuffer + 8  ) << 8) | *(pDatabuffer + 9  ));
 947              		.loc 1 309 65
 948 0112 2207     		slli	a4,a4,8
 309:main.c        ****         last_Sample_buffer[3] = (int16_t)((*(pDatabuffer + 8  ) << 8) | *(pDatabuffer + 9  ));
 949              		.loc 1 309 33
 950 0114 558F     		or	a4,a4,a3
 309:main.c        ****         last_Sample_buffer[3] = (int16_t)((*(pDatabuffer + 8  ) << 8) | *(pDatabuffer + 9  ));
 951              		.loc 1 309 31
 952 0116 2312E400 		sh	a4,4(s0)
 310:main.c        ****         last_Sample_buffer[4] = (int16_t)((*(pDatabuffer + 10 ) << 8) | *(pDatabuffer + 11 ));
 953              		.loc 1 310 9 is_stmt 1
 310:main.c        ****         last_Sample_buffer[4] = (int16_t)((*(pDatabuffer + 10 ) << 8) | *(pDatabuffer + 11 ));
 954              		.loc 1 310 44 is_stmt 0
 955 011a 03C78700 		lbu	a4,8(a5)
 310:main.c        ****         last_Sample_buffer[4] = (int16_t)((*(pDatabuffer + 10 ) << 8) | *(pDatabuffer + 11 ));
 956              		.loc 1 310 73
 957 011e 83C69700 		lbu	a3,9(a5)
 310:main.c        ****         last_Sample_buffer[4] = (int16_t)((*(pDatabuffer + 10 ) << 8) | *(pDatabuffer + 11 ));
 958              		.loc 1 310 65
 959 0122 2207     		slli	a4,a4,8
 310:main.c        ****         last_Sample_buffer[4] = (int16_t)((*(pDatabuffer + 10 ) << 8) | *(pDatabuffer + 11 ));
 960              		.loc 1 310 33
 961 0124 558F     		or	a4,a4,a3
 310:main.c        ****         last_Sample_buffer[4] = (int16_t)((*(pDatabuffer + 10 ) << 8) | *(pDatabuffer + 11 ));
 962              		.loc 1 310 31
 963 0126 2313E400 		sh	a4,6(s0)
 311:main.c        ****         last_Sample_buffer[5] = (int16_t)((*(pDatabuffer + 12 ) << 8) | *(pDatabuffer + 13 ));
 964              		.loc 1 311 9 is_stmt 1
 311:main.c        ****         last_Sample_buffer[5] = (int16_t)((*(pDatabuffer + 12 ) << 8) | *(pDatabuffer + 13 ));
 965              		.loc 1 311 44 is_stmt 0
 966 012a 03C7A700 		lbu	a4,10(a5)
 311:main.c        ****         last_Sample_buffer[5] = (int16_t)((*(pDatabuffer + 12 ) << 8) | *(pDatabuffer + 13 ));
 967              		.loc 1 311 73
 968 012e 83C6B700 		lbu	a3,11(a5)
 311:main.c        ****         last_Sample_buffer[5] = (int16_t)((*(pDatabuffer + 12 ) << 8) | *(pDatabuffer + 13 ));
 969              		.loc 1 311 65
 970 0132 2207     		slli	a4,a4,8
 311:main.c        ****         last_Sample_buffer[5] = (int16_t)((*(pDatabuffer + 12 ) << 8) | *(pDatabuffer + 13 ));
 971              		.loc 1 311 33
GAS LISTING /var/folders/yy/83vjwp7d53j56dbzj8_jnpcr0000gn/T//cchrdQkX.s 			page 27


 972 0134 558F     		or	a4,a4,a3
 311:main.c        ****         last_Sample_buffer[5] = (int16_t)((*(pDatabuffer + 12 ) << 8) | *(pDatabuffer + 13 ));
 973              		.loc 1 311 31
 974 0136 2314E400 		sh	a4,8(s0)
 312:main.c        ****         last_Sample_buffer[6] = ADC_RDATA(ADC0);
 975              		.loc 1 312 9 is_stmt 1
 312:main.c        ****         last_Sample_buffer[6] = ADC_RDATA(ADC0);
 976              		.loc 1 312 44 is_stmt 0
 977 013a 03C7C700 		lbu	a4,12(a5)
 312:main.c        ****         last_Sample_buffer[6] = ADC_RDATA(ADC0);
 978              		.loc 1 312 73
 979 013e 83C7D700 		lbu	a5,13(a5)
 312:main.c        ****         last_Sample_buffer[6] = ADC_RDATA(ADC0);
 980              		.loc 1 312 65
 981 0142 2207     		slli	a4,a4,8
 312:main.c        ****         last_Sample_buffer[6] = ADC_RDATA(ADC0);
 982              		.loc 1 312 33
 983 0144 D98F     		or	a5,a4,a5
 312:main.c        ****         last_Sample_buffer[6] = ADC_RDATA(ADC0);
 984              		.loc 1 312 31
 985 0146 2315F400 		sh	a5,10(s0)
 313:main.c        **** 
 986              		.loc 1 313 9 is_stmt 1
 313:main.c        **** 
 987              		.loc 1 313 33 is_stmt 0
 988 014a 8327C944 		lw	a5,1100(s2)
 313:main.c        **** 
 989              		.loc 1 313 31
 990 014e 2316F400 		sh	a5,12(s0)
 991              		.loc 1 315 9 is_stmt 1
 992 0152 97000000 		call	append_int_to_string
 992      E7800000 
 993              	.LVL88:
 316:main.c        ****         append_int_to_string(buf, last_Sample_buffer[1]);
 994              		.loc 1 316 9
 995 015a 83152400 		lh	a1,2(s0)
 996 015e 0A85     		mv	a0,sp
 997 0160 97000000 		call	append_int_to_string
 997      E7800000 
 998              	.LVL89:
 317:main.c        ****         append_int_to_string(buf, last_Sample_buffer[2]);
 999              		.loc 1 317 9
 1000 0168 83154400 		lh	a1,4(s0)
 1001 016c 0A85     		mv	a0,sp
 1002 016e 97000000 		call	append_int_to_string
 1002      E7800000 
 1003              	.LVL90:
 318:main.c        ****         append_int_to_string(buf, last_Sample_buffer[3]);
 1004              		.loc 1 318 9
 1005 0176 83156400 		lh	a1,6(s0)
 1006 017a 0A85     		mv	a0,sp
 1007 017c 97000000 		call	append_int_to_string
 1007      E7800000 
 1008              	.LVL91:
 319:main.c        ****         append_int_to_string(buf, last_Sample_buffer[4]);
 1009              		.loc 1 319 9
 1010 0184 83158400 		lh	a1,8(s0)
GAS LISTING /var/folders/yy/83vjwp7d53j56dbzj8_jnpcr0000gn/T//cchrdQkX.s 			page 28


 1011 0188 0A85     		mv	a0,sp
 1012 018a 97000000 		call	append_int_to_string
 1012      E7800000 
 1013              	.LVL92:
 320:main.c        ****         append_int_to_string(buf, last_Sample_buffer[5]);
 1014              		.loc 1 320 9
 1015 0192 8315A400 		lh	a1,10(s0)
 1016 0196 0A85     		mv	a0,sp
 1017 0198 97000000 		call	append_int_to_string
 1017      E7800000 
 1018              	.LVL93:
 321:main.c        ****         append_int_to_string(buf, last_Sample_buffer[6]);
 1019              		.loc 1 321 9
 1020 01a0 8315C400 		lh	a1,12(s0)
 1021 01a4 0A85     		mv	a0,sp
 1022 01a6 97000000 		call	append_int_to_string
 1022      E7800000 
 1023              	.LVL94:
 322:main.c        **** 
 323:main.c        ****         append_newLine(buf, strlen(buf)); //Testa byt strlen till buf_size för bättre prestanda
 1024              		.loc 1 323 9
 1025              		.loc 1 323 29 is_stmt 0
 1026 01ae 0A85     		mv	a0,sp
 1027 01b0 97000000 		call	strlen
 1027      E7800000 
 1028              	.LVL95:
 1029              		.loc 1 323 9
 1030 01b8 AA85     		mv	a1,a0
 1031 01ba 0A85     		mv	a0,sp
 1032 01bc 97000000 		call	append_newLine
 1032      E7800000 
 1033              	.LVL96:
 324:main.c        ****         enqueue_string(buf);
 1034              		.loc 1 324 9 is_stmt 1
 1035 01c4 0A85     		mv	a0,sp
 1036 01c6 97000000 		call	enqueue_string
 1036      E7800000 
 1037              	.LVL97:
 325:main.c        **** 
 326:main.c        ****         i2c_dma_master_read_register(I2C0, MPU6500_ADDR, MPU6500_ACCEL_XOUT_H);
 1038              		.loc 1 326 9
 1039 01ce 37550040 		li	a0,1073762304
 1040 01d2 93059006 		li	a1,105
 1041 01d6 13050540 		addi	a0,a0,1024
 1042 01da 1306B003 		li	a2,59
 1043 01de 97000000 		call	i2c_dma_master_read_register
 1043      E7800000 
 1044              	.LVL98:
 327:main.c        ****         timer_interrupt_flag_clear(TIMER1, TIMER_INT_CH0);
 1045              		.loc 1 327 9
 1046 01e6 8945     		li	a1,2
 1047 01e8 37050040 		li	a0,1073741824
 1048 01ec 97000000 		call	timer_interrupt_flag_clear
 1048      E7800000 
 1049              	.LVL99:
 1050              	.L29:
 328:main.c        ****         //led_off_B1();
GAS LISTING /var/folders/yy/83vjwp7d53j56dbzj8_jnpcr0000gn/T//cchrdQkX.s 			page 29


 329:main.c        ****     }
 330:main.c        **** }
 1051              		.loc 1 330 1 is_stmt 0
 1052 01f4 F640     		lw	ra,92(sp)
 1053              		.cfi_restore 1
 1054 01f6 6644     		lw	s0,88(sp)
 1055              		.cfi_restore 8
 1056 01f8 D644     		lw	s1,84(sp)
 1057              		.cfi_restore 9
 1058 01fa 4649     		lw	s2,80(sp)
 1059              		.cfi_restore 18
 1060 01fc B649     		lw	s3,76(sp)
 1061              		.cfi_restore 19
 1062 01fe 2561     		addi	sp,sp,96
 1063              	.LCFI10:
 1064              		.cfi_def_cfa_offset 0
 1065 0200 8280     		jr	ra
 1066              		.cfi_endproc
 1067              	.LFE12:
 1069              		.section	.text.USART2_IRQHandler,"ax",@progbits
 1070              		.align	1
 1071              		.globl	USART2_IRQHandler
 1073              	USART2_IRQHandler:
 1074              	.LFB13:
 331:main.c        **** 
 332:main.c        **** void USART2_IRQHandler(void){
 1075              		.loc 1 332 29 is_stmt 1
 1076              		.cfi_startproc
 333:main.c        ****     if(RESET != usart_interrupt_flag_get(USART2, USART_INT_FLAG_RBNE)){
 1077              		.loc 1 333 5
 332:main.c        ****     if(RESET != usart_interrupt_flag_get(USART2, USART_INT_FLAG_RBNE)){
 1078              		.loc 1 332 29 is_stmt 0
 1079 0000 0111     		addi	sp,sp,-32
 1080              	.LCFI11:
 1081              		.cfi_def_cfa_offset 32
 1082 0002 26CA     		sw	s1,20(sp)
 1083 0004 4AC8     		sw	s2,16(sp)
 1084              		.cfi_offset 9, -12
 1085              		.cfi_offset 18, -16
 1086              		.loc 1 333 17
 1087 0006 B7540040 		li	s1,1073762304
 1088 000a 37090500 		li	s2,327680
 1089 000e 93055930 		addi	a1,s2,773
 1090 0012 13850480 		addi	a0,s1,-2048
 332:main.c        ****     if(RESET != usart_interrupt_flag_get(USART2, USART_INT_FLAG_RBNE)){
 1091              		.loc 1 332 29
 1092 0016 06CE     		sw	ra,28(sp)
 1093 0018 22CC     		sw	s0,24(sp)
 1094 001a 4EC6     		sw	s3,12(sp)
 1095              		.cfi_offset 1, -4
 1096              		.cfi_offset 8, -8
 1097              		.cfi_offset 19, -20
 1098              		.loc 1 333 17
 1099 001c 97000000 		call	usart_interrupt_flag_get
 1099      E7800000 
 1100              	.LVL100:
 1101              		.loc 1 333 7
GAS LISTING /var/folders/yy/83vjwp7d53j56dbzj8_jnpcr0000gn/T//cchrdQkX.s 			page 30


 1102 0024 630D0510 		beq	a0,zero,.L35
 334:main.c        ****         start_time = millis() + 1000;
 1103              		.loc 1 334 9 is_stmt 1
 1104              		.loc 1 334 22 is_stmt 0
 1105 0028 97000000 		call	millis
 1105      E7800000 
 1106              	.LVL101:
 1107              		.loc 1 334 20
 1108 0030 B7070000 		lui	a5,%hi(.LANCHOR7)
 1109              		.loc 1 334 31
 1110 0034 1305853E 		addi	a0,a0,1000
 1111              		.loc 1 334 20
 1112 0038 23A0A700 		sw	a0,%lo(.LANCHOR7)(a5)
 335:main.c        ****         rxbuffer[rxCount++] = usart_data_receive(USART2);
 1113              		.loc 1 335 9 is_stmt 1
 1114              		.loc 1 335 31 is_stmt 0
 1115 003c 13850480 		addi	a0,s1,-2048
 1116 0040 97000000 		call	usart_data_receive
 1116      E7800000 
 1117              	.LVL102:
 1118              		.loc 1 335 25
 1119 0048 37070000 		lui	a4,%hi(rxCount)
 1120 004c 83470700 		lbu	a5,%lo(rxCount)(a4)
 1121              		.loc 1 335 29
 1122 0050 37040000 		lui	s0,%hi(rxbuffer)
 1123 0054 BA89     		mv	s3,a4
 1124              		.loc 1 335 25
 1125 0056 93861700 		addi	a3,a5,1
 1126 005a 2300D700 		sb	a3,%lo(rxCount)(a4)
 1127              		.loc 1 335 29
 1128 005e 93060400 		addi	a3,s0,%lo(rxbuffer)
 1129 0062 B697     		add	a5,a3,a5
 1130 0064 2380A700 		sb	a0,0(a5)
 336:main.c        ****         if(rxbuffer[0] != 's'){
 1131              		.loc 1 336 9 is_stmt 1
 1132              		.loc 1 336 11 is_stmt 0
 1133 0068 83C60600 		lbu	a3,0(a3)
 1134 006c 93073007 		li	a5,115
 1135 0070 6384F602 		beq	a3,a5,.L38
 337:main.c        ****             rxCount = 0;
 1136              		.loc 1 337 13 is_stmt 1
 338:main.c        ****             memset(rxbuffer, '\0', sizeof(rxbuffer));
 1137              		.loc 1 338 13 is_stmt 0
 1138 0074 8145     		li	a1,0
 1139 0076 2146     		li	a2,8
 1140 0078 13050400 		addi	a0,s0,%lo(rxbuffer)
 337:main.c        ****             rxCount = 0;
 1141              		.loc 1 337 21
 1142 007c 23000700 		sb	zero,%lo(rxCount)(a4)
 1143              		.loc 1 338 13 is_stmt 1
 1144 0080 97000000 		call	memset
 1144      E7800000 
 1145              	.LVL103:
 339:main.c        ****             usart_interrupt_flag_clear(USART2, USART_INT_FLAG_RBNE);
 1146              		.loc 1 339 13
 1147 0088 93055930 		addi	a1,s2,773
 1148 008c 13850480 		addi	a0,s1,-2048
GAS LISTING /var/folders/yy/83vjwp7d53j56dbzj8_jnpcr0000gn/T//cchrdQkX.s 			page 31


 1149 0090 97000000 		call	usart_interrupt_flag_clear
 1149      E7800000 
 1150              	.LVL104:
 1151              	.L38:
 340:main.c        ****         }
 341:main.c        ****         if(rxCount == 6){
 1152              		.loc 1 341 9
 1153              		.loc 1 341 11 is_stmt 0
 1154 0098 03C70900 		lbu	a4,%lo(rxCount)(s3)
 1155 009c 9947     		li	a5,6
 1156 009e 6310F70A 		bne	a4,a5,.L35
 342:main.c        ****             if(!strcmp(rxbuffer, "start0")) {
 1157              		.loc 1 342 13 is_stmt 1
 1158              		.loc 1 342 17 is_stmt 0
 1159 00a2 B7050000 		lui	a1,%hi(.LC0)
 1160 00a6 93850500 		addi	a1,a1,%lo(.LC0)
 1161 00aa 13050400 		addi	a0,s0,%lo(rxbuffer)
 1162 00ae 97000000 		call	strcmp
 1162      E7800000 
 1163              	.LVL105:
 1164              		.loc 1 342 15
 1165 00b6 39E9     		bne	a0,zero,.L40
 343:main.c        ****                 set_state(START);
 1166              		.loc 1 343 17 is_stmt 1
 1167 00b8 0545     		li	a0,1
 1168 00ba 97000000 		call	set_state
 1168      E7800000 
 1169              	.LVL106:
 344:main.c        ****                 led_on_B1();
 1170              		.loc 1 344 17
 1171 00c2 97000000 		call	led_on_B1
 1171      E7800000 
 1172              	.LVL107:
 345:main.c        ****                 write = 1;
 1173              		.loc 1 345 17
 1174              		.loc 1 345 23 is_stmt 0
 1175 00ca B7070000 		lui	a5,%hi(.LANCHOR3)
 1176 00ce 0547     		li	a4,1
 1177 00d0 23A0E700 		sw	a4,%lo(.LANCHOR3)(a5)
 1178              	.L41:
 346:main.c        ****             }else if(!strcmp(rxbuffer, "stopp0")){
 347:main.c        ****                 //set start time millis thingy
 348:main.c        ****                 set_state(STOP);
 349:main.c        ****                 led_off_B1();
 350:main.c        ****                 write = 0;
 351:main.c        ****             }
 352:main.c        ****             rxCount = 0;
 1179              		.loc 1 352 13 is_stmt 1
 353:main.c        ****             memset(rxbuffer, '\0', sizeof(rxbuffer));
 1180              		.loc 1 353 13 is_stmt 0
 1181 00d4 8145     		li	a1,0
 1182 00d6 13050400 		addi	a0,s0,%lo(rxbuffer)
 1183 00da 2146     		li	a2,8
 352:main.c        ****             memset(rxbuffer, '\0', sizeof(rxbuffer));
 1184              		.loc 1 352 21
 1185 00dc 23800900 		sb	zero,%lo(rxCount)(s3)
 1186              		.loc 1 353 13 is_stmt 1
GAS LISTING /var/folders/yy/83vjwp7d53j56dbzj8_jnpcr0000gn/T//cchrdQkX.s 			page 32


 1187 00e0 97000000 		call	memset
 1187      E7800000 
 1188              	.LVL108:
 354:main.c        ****             usart_interrupt_flag_clear(USART2, USART_INT_FLAG_RBNE);
 1189              		.loc 1 354 13
 355:main.c        ****         }
 356:main.c        ****     }
 357:main.c        **** }
 1190              		.loc 1 357 1 is_stmt 0
 1191 00e8 6244     		lw	s0,24(sp)
 1192              		.cfi_remember_state
 1193              		.cfi_restore 8
 1194 00ea F240     		lw	ra,28(sp)
 1195              		.cfi_restore 1
 1196 00ec D244     		lw	s1,20(sp)
 1197              		.cfi_restore 9
 1198 00ee 4249     		lw	s2,16(sp)
 1199              		.cfi_restore 18
 1200 00f0 B249     		lw	s3,12(sp)
 1201              		.cfi_restore 19
 354:main.c        ****             usart_interrupt_flag_clear(USART2, USART_INT_FLAG_RBNE);
 1202              		.loc 1 354 13
 1203 00f2 B7050500 		li	a1,327680
 1204 00f6 37550040 		li	a0,1073762304
 1205              		.loc 1 357 1
 354:main.c        ****             usart_interrupt_flag_clear(USART2, USART_INT_FLAG_RBNE);
 1206              		.loc 1 354 13
 1207 00fa 93855530 		addi	a1,a1,773
 1208 00fe 13050580 		addi	a0,a0,-2048
 1209              		.loc 1 357 1
 1210 0102 0561     		addi	sp,sp,32
 1211              	.LCFI12:
 1212              		.cfi_def_cfa_offset 0
 354:main.c        ****             usart_interrupt_flag_clear(USART2, USART_INT_FLAG_RBNE);
 1213              		.loc 1 354 13
 1214 0104 17030000 		tail	usart_interrupt_flag_clear
 1214      67000300 
 1215              	.LVL109:
 1216              	.L40:
 1217              	.LCFI13:
 1218              		.cfi_restore_state
 346:main.c        ****                 //set start time millis thingy
 1219              		.loc 1 346 19 is_stmt 1
 346:main.c        ****                 //set start time millis thingy
 1220              		.loc 1 346 23 is_stmt 0
 1221 010c B7050000 		lui	a1,%hi(.LC3)
 1222 0110 93850500 		addi	a1,a1,%lo(.LC3)
 1223 0114 13050400 		addi	a0,s0,%lo(rxbuffer)
 1224 0118 97000000 		call	strcmp
 1224      E7800000 
 1225              	.LVL110:
 346:main.c        ****                 //set start time millis thingy
 1226              		.loc 1 346 21
 1227 0120 55F9     		bne	a0,zero,.L41
 348:main.c        ****                 led_off_B1();
 1228              		.loc 1 348 17 is_stmt 1
 1229 0122 0945     		li	a0,2
GAS LISTING /var/folders/yy/83vjwp7d53j56dbzj8_jnpcr0000gn/T//cchrdQkX.s 			page 33


 1230 0124 97000000 		call	set_state
 1230      E7800000 
 1231              	.LVL111:
 349:main.c        ****                 write = 0;
 1232              		.loc 1 349 17
 1233 012c 97000000 		call	led_off_B1
 1233      E7800000 
 1234              	.LVL112:
 350:main.c        ****             }
 1235              		.loc 1 350 17
 350:main.c        ****             }
 1236              		.loc 1 350 23 is_stmt 0
 1237 0134 B7070000 		lui	a5,%hi(.LANCHOR3)
 1238 0138 23A00700 		sw	zero,%lo(.LANCHOR3)(a5)
 1239 013c 61BF     		j	.L41
 1240              	.L35:
 1241              		.loc 1 357 1
 1242 013e F240     		lw	ra,28(sp)
 1243              		.cfi_restore 1
 1244 0140 6244     		lw	s0,24(sp)
 1245              		.cfi_restore 8
 1246 0142 D244     		lw	s1,20(sp)
 1247              		.cfi_restore 9
 1248 0144 4249     		lw	s2,16(sp)
 1249              		.cfi_restore 18
 1250 0146 B249     		lw	s3,12(sp)
 1251              		.cfi_restore 19
 1252 0148 0561     		addi	sp,sp,32
 1253              	.LCFI14:
 1254              		.cfi_def_cfa_offset 0
 1255 014a 8280     		jr	ra
 1256              		.cfi_endproc
 1257              	.LFE13:
 1259              		.section	.text.ledInit,"ax",@progbits
 1260              		.align	1
 1261              		.globl	ledInit
 1263              	ledInit:
 1264              	.LFB14:
 358:main.c        **** 
 359:main.c        **** void ledInit (void){
 1265              		.loc 1 359 20 is_stmt 1
 1266              		.cfi_startproc
 360:main.c        ****     rcu_periph_clock_enable(RCU_GPIOB);
 1267              		.loc 1 360 5
 359:main.c        ****     rcu_periph_clock_enable(RCU_GPIOB);
 1268              		.loc 1 359 20 is_stmt 0
 1269 0000 4111     		addi	sp,sp,-16
 1270              	.LCFI15:
 1271              		.cfi_def_cfa_offset 16
 1272              		.loc 1 360 5
 1273 0002 13053060 		li	a0,1539
 359:main.c        ****     rcu_periph_clock_enable(RCU_GPIOB);
 1274              		.loc 1 359 20
 1275 0006 06C6     		sw	ra,12(sp)
 1276              		.cfi_offset 1, -4
 1277              		.loc 1 360 5
 1278 0008 97000000 		call	rcu_periph_clock_enable
GAS LISTING /var/folders/yy/83vjwp7d53j56dbzj8_jnpcr0000gn/T//cchrdQkX.s 			page 34


 1278      E7800000 
 1279              	.LVL113:
 361:main.c        **** 	gpio_init(GPIOB, GPIO_MODE_OUT_PP, GPIO_OSPEED_50MHZ, GPIO_PIN_0 | GPIO_PIN_1);
 1280              		.loc 1 361 2 is_stmt 1
 362:main.c        **** }
 1281              		.loc 1 362 1 is_stmt 0
 1282 0010 B240     		lw	ra,12(sp)
 1283              		.cfi_restore 1
 361:main.c        **** 	gpio_init(GPIOB, GPIO_MODE_OUT_PP, GPIO_OSPEED_50MHZ, GPIO_PIN_0 | GPIO_PIN_1);
 1284              		.loc 1 361 2
 1285 0012 37150140 		li	a0,1073811456
 1286              		.loc 1 362 1
 361:main.c        **** 	gpio_init(GPIOB, GPIO_MODE_OUT_PP, GPIO_OSPEED_50MHZ, GPIO_PIN_0 | GPIO_PIN_1);
 1287              		.loc 1 361 2
 1288 0016 8D46     		li	a3,3
 1289 0018 0D46     		li	a2,3
 1290 001a C145     		li	a1,16
 1291 001c 130505C0 		addi	a0,a0,-1024
 1292              		.loc 1 362 1
 1293 0020 4101     		addi	sp,sp,16
 1294              	.LCFI16:
 1295              		.cfi_def_cfa_offset 0
 361:main.c        **** 	gpio_init(GPIOB, GPIO_MODE_OUT_PP, GPIO_OSPEED_50MHZ, GPIO_PIN_0 | GPIO_PIN_1);
 1296              		.loc 1 361 2
 1297 0022 17030000 		tail	gpio_init
 1297      67000300 
 1298              	.LVL114:
 1299              		.cfi_endproc
 1300              	.LFE14:
 1302              		.section	.text.led_on_B1,"ax",@progbits
 1303              		.align	1
 1304              		.globl	led_on_B1
 1306              	led_on_B1:
 1307              	.LFB15:
 363:main.c        **** 
 364:main.c        **** void led_on_B1(){
 1308              		.loc 1 364 17 is_stmt 1
 1309              		.cfi_startproc
 365:main.c        ****     gpio_bit_write(GPIOB, GPIO_PIN_1, 1);
 1310              		.loc 1 365 5
 1311 0000 37150140 		li	a0,1073811456
 1312 0004 0546     		li	a2,1
 1313 0006 8945     		li	a1,2
 1314 0008 130505C0 		addi	a0,a0,-1024
 1315 000c 17030000 		tail	gpio_bit_write
 1315      67000300 
 1316              	.LVL115:
 1317              		.cfi_endproc
 1318              	.LFE15:
 1320              		.section	.text.led_off_B1,"ax",@progbits
 1321              		.align	1
 1322              		.globl	led_off_B1
 1324              	led_off_B1:
 1325              	.LFB16:
 366:main.c        **** }
 367:main.c        **** void led_off_B1(){
 1326              		.loc 1 367 18
GAS LISTING /var/folders/yy/83vjwp7d53j56dbzj8_jnpcr0000gn/T//cchrdQkX.s 			page 35


 1327              		.cfi_startproc
 368:main.c        ****     gpio_bit_write(GPIOB, GPIO_PIN_1, 0);
 1328              		.loc 1 368 5
 1329 0000 37150140 		li	a0,1073811456
 1330 0004 0146     		li	a2,0
 1331 0006 8945     		li	a1,2
 1332 0008 130505C0 		addi	a0,a0,-1024
 1333 000c 17030000 		tail	gpio_bit_write
 1333      67000300 
 1334              	.LVL116:
 1335              		.cfi_endproc
 1336              	.LFE16:
 1338              		.section	.text.led_on_B0,"ax",@progbits
 1339              		.align	1
 1340              		.globl	led_on_B0
 1342              	led_on_B0:
 1343              	.LFB17:
 369:main.c        **** }
 370:main.c        **** 
 371:main.c        **** void led_on_B0(){
 1344              		.loc 1 371 17
 1345              		.cfi_startproc
 372:main.c        ****     gpio_bit_write(GPIOB, GPIO_PIN_0, 1);
 1346              		.loc 1 372 5
 1347 0000 37150140 		li	a0,1073811456
 1348 0004 0546     		li	a2,1
 1349 0006 8545     		li	a1,1
 1350 0008 130505C0 		addi	a0,a0,-1024
 1351 000c 17030000 		tail	gpio_bit_write
 1351      67000300 
 1352              	.LVL117:
 1353              		.cfi_endproc
 1354              	.LFE17:
 1356              		.section	.text.led_off_B0,"ax",@progbits
 1357              		.align	1
 1358              		.globl	led_off_B0
 1360              	led_off_B0:
 1361              	.LFB18:
 373:main.c        **** }
 374:main.c        **** void led_off_B0(){
 1362              		.loc 1 374 18
 1363              		.cfi_startproc
 375:main.c        ****     gpio_bit_write(GPIOB, GPIO_PIN_0, 0);
 1364              		.loc 1 375 5
 1365 0000 37150140 		li	a0,1073811456
 1366 0004 0146     		li	a2,0
 1367 0006 8545     		li	a1,1
 1368 0008 130505C0 		addi	a0,a0,-1024
 1369 000c 17030000 		tail	gpio_bit_write
 1369      67000300 
 1370              	.LVL118:
 1371              		.cfi_endproc
 1372              	.LFE18:
 1374              		.section	.text.timer_interrupt_config,"ax",@progbits
 1375              		.align	1
 1376              		.globl	timer_interrupt_config
 1378              	timer_interrupt_config:
GAS LISTING /var/folders/yy/83vjwp7d53j56dbzj8_jnpcr0000gn/T//cchrdQkX.s 			page 36


 1379              	.LFB19:
 376:main.c        **** }
 377:main.c        **** 
 378:main.c        **** void timer_interrupt_config(){
 1380              		.loc 1 378 30
 1381              		.cfi_startproc
 379:main.c        ****     /* This configuration has a lot in common with the PWM configuration since both relies on a tim
 380:main.c        ****        this time though instead of generating a puls each timer period we get an interrupt. This ex
 381:main.c        ****        generates an interrupt each millisecond to update a counter and when an even count of 1000 (
 382:main.c        ****        the interrupt will toggle an LED. */
 383:main.c        **** 
 384:main.c        ****     /* Configuration structs */ 
 385:main.c        ****     timer_oc_parameter_struct timer_ocinitpara;
 1382              		.loc 1 385 5
 386:main.c        ****     timer_parameter_struct timer_initpara;
 1383              		.loc 1 386 5
 387:main.c        **** 
 388:main.c        ****     /* Enable the TIMER1 interrupt request */
 389:main.c        ****     eclic_irq_enable(TIMER1_IRQn,1,0);
 1384              		.loc 1 389 5
 378:main.c        ****     /* This configuration has a lot in common with the PWM configuration since both relies on a tim
 1385              		.loc 1 378 30 is_stmt 0
 1386 0000 7971     		addi	sp,sp,-48
 1387              	.LCFI17:
 1388              		.cfi_def_cfa_offset 48
 1389              		.loc 1 389 5
 1390 0002 0146     		li	a2,0
 1391 0004 8545     		li	a1,1
 1392 0006 1305F002 		li	a0,47
 378:main.c        ****     /* This configuration has a lot in common with the PWM configuration since both relies on a tim
 1393              		.loc 1 378 30
 1394 000a 06D6     		sw	ra,44(sp)
 1395 000c 22D4     		sw	s0,40(sp)
 1396 000e 26D2     		sw	s1,36(sp)
 1397              		.cfi_offset 1, -4
 1398              		.cfi_offset 8, -8
 1399              		.cfi_offset 9, -12
 1400              		.loc 1 389 5
 1401 0010 97000000 		call	eclic_irq_enable
 1401      E7800000 
 1402              	.LVL119:
 390:main.c        ****     
 391:main.c        ****     /* Enable the peripheral clock. */
 392:main.c        ****     rcu_periph_clock_enable(RCU_TIMER1);
 1403              		.loc 1 392 5 is_stmt 1
 1404 0018 13050070 		li	a0,1792
 1405 001c 97000000 		call	rcu_periph_clock_enable
 1405      E7800000 
 1406              	.LVL120:
 393:main.c        **** 
 394:main.c        ****     /* Reset the timer */
 395:main.c        ****     timer_deinit(TIMER1);
 1407              		.loc 1 395 5
 1408 0024 37050040 		li	a0,1073741824
 1409 0028 97000000 		call	timer_deinit
 1409      E7800000 
 1410              	.LVL121:
GAS LISTING /var/folders/yy/83vjwp7d53j56dbzj8_jnpcr0000gn/T//cchrdQkX.s 			page 37


 396:main.c        **** 
 397:main.c        ****     /* initialize timer configuration struct */
 398:main.c        ****     timer_struct_para_init(&timer_initpara);
 1411              		.loc 1 398 5
 1412 0030 0808     		addi	a0,sp,16
 1413 0032 97000000 		call	timer_struct_para_init
 1413      E7800000 
 1414              	.LVL122:
 399:main.c        **** 
 400:main.c        ****     /* TIMER1 configuration */
 401:main.c        ****     /* Frequency = core clock / ((1+prescaler)*period) = 108MHz / (2*54000) = 1KHz */
 402:main.c        ****     timer_initpara.prescaler         = 1;
 1415              		.loc 1 402 5
 403:main.c        ****     timer_initpara.alignedmode       = TIMER_COUNTER_EDGE;
 1416              		.loc 1 403 5
 404:main.c        ****     timer_initpara.counterdirection  = TIMER_COUNTER_UP;
 1417              		.loc 1 404 5
 405:main.c        ****     timer_initpara.period            = SystemCoreClock/2000;
 1418              		.loc 1 405 55 is_stmt 0
 1419 003a 37040000 		lui	s0,%hi(SystemCoreClock)
 1420 003e 83270400 		lw	a5,%lo(SystemCoreClock)(s0)
 1421 0042 1307007D 		li	a4,2000
 406:main.c        ****     timer_initpara.clockdivision     = TIMER_CKDIV_DIV1;
 407:main.c        ****     timer_init(TIMER1, &timer_initpara);
 1422              		.loc 1 407 5
 1423 0046 0C08     		addi	a1,sp,16
 405:main.c        ****     timer_initpara.period            = SystemCoreClock/2000;
 1424              		.loc 1 405 55
 1425 0048 B3D7E702 		divu	a5,a5,a4
 402:main.c        ****     timer_initpara.alignedmode       = TIMER_COUNTER_EDGE;
 1426              		.loc 1 402 38
 1427 004c 8544     		li	s1,1
 1428              		.loc 1 407 5
 1429 004e 37050040 		li	a0,1073741824
 402:main.c        ****     timer_initpara.alignedmode       = TIMER_COUNTER_EDGE;
 1430              		.loc 1 402 38
 1431 0052 26C8     		sw	s1,16(sp)
 404:main.c        ****     timer_initpara.period            = SystemCoreClock/2000;
 1432              		.loc 1 404 38
 1433 0054 231A0100 		sh	zero,20(sp)
 405:main.c        ****     timer_initpara.clockdivision     = TIMER_CKDIV_DIV1;
 1434              		.loc 1 405 5 is_stmt 1
 406:main.c        ****     timer_init(TIMER1, &timer_initpara);
 1435              		.loc 1 406 38 is_stmt 0
 1436 0058 231E0100 		sh	zero,28(sp)
 405:main.c        ****     timer_initpara.clockdivision     = TIMER_CKDIV_DIV1;
 1437              		.loc 1 405 38
 1438 005c 3ECC     		sw	a5,24(sp)
 406:main.c        ****     timer_init(TIMER1, &timer_initpara);
 1439              		.loc 1 406 5 is_stmt 1
 1440              		.loc 1 407 5
 1441 005e 97000000 		call	timer_init
 1441      E7800000 
 1442              	.LVL123:
 408:main.c        **** 
 409:main.c        ****     /* initialize TIMER channel output parameter struct */
 410:main.c        ****     timer_channel_output_struct_para_init(&timer_ocinitpara);
GAS LISTING /var/folders/yy/83vjwp7d53j56dbzj8_jnpcr0000gn/T//cchrdQkX.s 			page 38


 1443              		.loc 1 410 5
 1444 0066 4800     		addi	a0,sp,4
 1445 0068 97000000 		call	timer_channel_output_struct_para_init
 1445      E7800000 
 1446              	.LVL124:
 411:main.c        **** 
 412:main.c        ****     /* Set the channel configuration */
 413:main.c        ****     timer_ocinitpara.outputstate  = TIMER_CCX_ENABLE;
 1447              		.loc 1 413 5
 414:main.c        ****     timer_ocinitpara.ocpolarity   = TIMER_OC_POLARITY_HIGH;
 415:main.c        ****     timer_ocinitpara.ocidlestate  = TIMER_OC_IDLE_STATE_LOW;
 416:main.c        ****     timer_channel_output_config(TIMER1, TIMER_CH_0, &timer_ocinitpara);
 1448              		.loc 1 416 5 is_stmt 0
 1449 0070 5000     		addi	a2,sp,4
 1450 0072 8145     		li	a1,0
 1451 0074 37050040 		li	a0,1073741824
 413:main.c        ****     timer_ocinitpara.ocpolarity   = TIMER_OC_POLARITY_HIGH;
 1452              		.loc 1 413 35
 1453 0078 23129100 		sh	s1,4(sp)
 414:main.c        ****     timer_ocinitpara.ocpolarity   = TIMER_OC_POLARITY_HIGH;
 1454              		.loc 1 414 5 is_stmt 1
 414:main.c        ****     timer_ocinitpara.ocpolarity   = TIMER_OC_POLARITY_HIGH;
 1455              		.loc 1 414 35 is_stmt 0
 1456 007c 23140100 		sh	zero,8(sp)
 415:main.c        ****     timer_channel_output_config(TIMER1, TIMER_CH_0, &timer_ocinitpara);
 1457              		.loc 1 415 5 is_stmt 1
 415:main.c        ****     timer_channel_output_config(TIMER1, TIMER_CH_0, &timer_ocinitpara);
 1458              		.loc 1 415 35 is_stmt 0
 1459 0080 23160100 		sh	zero,12(sp)
 1460              		.loc 1 416 5 is_stmt 1
 1461 0084 97000000 		call	timer_channel_output_config
 1461      E7800000 
 1462              	.LVL125:
 417:main.c        ****     
 418:main.c        ****     /* CH0 configuration in OC timing mode */
 419:main.c        ****     timer_channel_output_pulse_value_config(TIMER1, TIMER_CH_0, SystemCoreClock/4000);
 1463              		.loc 1 419 5
 1464 008c 03260400 		lw	a2,%lo(SystemCoreClock)(s0)
 1465 0090 8567     		li	a5,4096
 1466 0092 938707FA 		addi	a5,a5,-96
 1467 0096 3356F602 		divu	a2,a2,a5
 1468 009a 8145     		li	a1,0
 1469 009c 37050040 		li	a0,1073741824
 1470 00a0 97000000 		call	timer_channel_output_pulse_value_config
 1470      E7800000 
 1471              	.LVL126:
 420:main.c        ****     timer_channel_output_mode_config(TIMER1, TIMER_CH_0, TIMER_OC_MODE_TIMING);
 1472              		.loc 1 420 5
 1473 00a8 0146     		li	a2,0
 1474 00aa 8145     		li	a1,0
 1475 00ac 37050040 		li	a0,1073741824
 1476 00b0 97000000 		call	timer_channel_output_mode_config
 1476      E7800000 
 1477              	.LVL127:
 421:main.c        ****     timer_channel_output_shadow_config(TIMER1, TIMER_CH_0, TIMER_OC_SHADOW_DISABLE);
 1478              		.loc 1 421 5
 1479 00b8 0146     		li	a2,0
GAS LISTING /var/folders/yy/83vjwp7d53j56dbzj8_jnpcr0000gn/T//cchrdQkX.s 			page 39


 1480 00ba 8145     		li	a1,0
 1481 00bc 37050040 		li	a0,1073741824
 1482 00c0 97000000 		call	timer_channel_output_shadow_config
 1482      E7800000 
 1483              	.LVL128:
 422:main.c        **** 
 423:main.c        ****     /* Enable interrupt on the channel */
 424:main.c        ****     timer_interrupt_enable(TIMER1, TIMER_INT_CH0);
 1484              		.loc 1 424 5
 1485 00c8 8945     		li	a1,2
 1486 00ca 37050040 		li	a0,1073741824
 1487 00ce 97000000 		call	timer_interrupt_enable
 1487      E7800000 
 1488              	.LVL129:
 425:main.c        ****     /* Make sure interrupt flag is clear */
 426:main.c        ****     timer_interrupt_flag_clear(TIMER1, TIMER_INT_CH0);
 1489              		.loc 1 426 5
 1490 00d6 8945     		li	a1,2
 1491 00d8 37050040 		li	a0,1073741824
 1492 00dc 97000000 		call	timer_interrupt_flag_clear
 1492      E7800000 
 1493              	.LVL130:
 427:main.c        **** 
 428:main.c        ****     /* Start the timer */
 429:main.c        ****     timer_enable(TIMER1);
 1494              		.loc 1 429 5
 1495 00e4 37050040 		li	a0,1073741824
 1496 00e8 97000000 		call	timer_enable
 1496      E7800000 
 1497              	.LVL131:
 430:main.c        **** }
 1498              		.loc 1 430 1 is_stmt 0
 1499 00f0 B250     		lw	ra,44(sp)
 1500              		.cfi_restore 1
 1501 00f2 2254     		lw	s0,40(sp)
 1502              		.cfi_restore 8
 1503 00f4 9254     		lw	s1,36(sp)
 1504              		.cfi_restore 9
 1505 00f6 4561     		addi	sp,sp,48
 1506              	.LCFI18:
 1507              		.cfi_def_cfa_offset 0
 1508 00f8 8280     		jr	ra
 1509              		.cfi_endproc
 1510              	.LFE19:
 1512              		.section	.text.formatTime,"ax",@progbits
 1513              		.align	1
 1514              		.globl	formatTime
 1516              	formatTime:
 1517              	.LFB20:
 431:main.c        **** 
 432:main.c        **** void formatTime(char *output, int minutes, int seconds, int milliseconds) {
 1518              		.loc 1 432 75 is_stmt 1
 1519              		.cfi_startproc
 1520              	.LVL132:
 433:main.c        ****     // Format minutes
 434:main.c        ****     output[0] = (minutes / 10) + '0';
 1521              		.loc 1 434 5
GAS LISTING /var/folders/yy/83vjwp7d53j56dbzj8_jnpcr0000gn/T//cchrdQkX.s 			page 40


 1522              		.loc 1 434 26 is_stmt 0
 1523 0000 A947     		li	a5,10
 1524 0002 33C7F502 		div	a4,a1,a5
 435:main.c        ****     output[1] = (minutes % 10) + '0';
 436:main.c        **** 
 437:main.c        ****     // Add a period
 438:main.c        ****     output[2] = '.';
 439:main.c        **** 
 440:main.c        ****     // Format seconds
 441:main.c        ****     output[3] = (seconds / 10) + '0';
 442:main.c        ****     output[4] = (seconds % 10) + '0';
 443:main.c        **** 
 444:main.c        ****     // Add a period
 445:main.c        ****     output[5] = '.';
 446:main.c        **** 
 447:main.c        ****     // Format milliseconds
 448:main.c        ****     output[6] = ((milliseconds / 100) % 10) + '0';
 449:main.c        ****     output[7] = ((milliseconds / 10) % 10) + '0';
 450:main.c        ****     output[8] = (milliseconds % 10) + '0';
 451:main.c        **** 
 452:main.c        ****     // Add a semicolon and null terminator
 453:main.c        ****     output[9] = ';';
 454:main.c        ****     output[10] = '\0';
 1525              		.loc 1 454 16
 1526 0006 23050500 		sb	zero,10(a0)
 434:main.c        ****     output[1] = (minutes % 10) + '0';
 1527              		.loc 1 434 32
 1528 000a 13070703 		addi	a4,a4,48
 434:main.c        ****     output[1] = (minutes % 10) + '0';
 1529              		.loc 1 434 15
 1530 000e 2300E500 		sb	a4,0(a0)
 435:main.c        ****     output[1] = (minutes % 10) + '0';
 1531              		.loc 1 435 5 is_stmt 1
 441:main.c        ****     output[4] = (seconds % 10) + '0';
 1532              		.loc 1 441 26 is_stmt 0
 1533 0012 3347F602 		div	a4,a2,a5
 441:main.c        ****     output[4] = (seconds % 10) + '0';
 1534              		.loc 1 441 32
 1535 0016 13070703 		addi	a4,a4,48
 441:main.c        ****     output[4] = (seconds % 10) + '0';
 1536              		.loc 1 441 15
 1537 001a A301E500 		sb	a4,3(a0)
 448:main.c        ****     output[7] = ((milliseconds / 10) % 10) + '0';
 1538              		.loc 1 448 32
 1539 001e 13074006 		li	a4,100
 1540 0022 33C7E602 		div	a4,a3,a4
 448:main.c        ****     output[7] = ((milliseconds / 10) % 10) + '0';
 1541              		.loc 1 448 39
 1542 0026 3367F702 		rem	a4,a4,a5
 448:main.c        ****     output[7] = ((milliseconds / 10) % 10) + '0';
 1543              		.loc 1 448 45
 1544 002a 13070703 		addi	a4,a4,48
 448:main.c        ****     output[7] = ((milliseconds / 10) % 10) + '0';
 1545              		.loc 1 448 15
 1546 002e 2303E500 		sb	a4,6(a0)
 449:main.c        ****     output[8] = (milliseconds % 10) + '0';
 1547              		.loc 1 449 32
GAS LISTING /var/folders/yy/83vjwp7d53j56dbzj8_jnpcr0000gn/T//cchrdQkX.s 			page 41


 1548 0032 33C7F602 		div	a4,a3,a5
 435:main.c        **** 
 1549              		.loc 1 435 26
 1550 0036 B3E5F502 		rem	a1,a1,a5
 1551              	.LVL133:
 442:main.c        **** 
 1552              		.loc 1 442 26
 1553 003a 3366F602 		rem	a2,a2,a5
 1554              	.LVL134:
 435:main.c        **** 
 1555              		.loc 1 435 32
 1556 003e 93850503 		addi	a1,a1,48
 435:main.c        **** 
 1557              		.loc 1 435 15
 1558 0042 A300B500 		sb	a1,1(a0)
 438:main.c        **** 
 1559              		.loc 1 438 5 is_stmt 1
 438:main.c        **** 
 1560              		.loc 1 438 15 is_stmt 0
 1561 0046 9305E002 		li	a1,46
 1562 004a 2301B500 		sb	a1,2(a0)
 441:main.c        ****     output[4] = (seconds % 10) + '0';
 1563              		.loc 1 441 5 is_stmt 1
 442:main.c        **** 
 1564              		.loc 1 442 5
 445:main.c        **** 
 1565              		.loc 1 445 15 is_stmt 0
 1566 004e A302B500 		sb	a1,5(a0)
 449:main.c        ****     output[8] = (milliseconds % 10) + '0';
 1567              		.loc 1 449 38
 1568 0052 3367F702 		rem	a4,a4,a5
 442:main.c        **** 
 1569              		.loc 1 442 32
 1570 0056 13060603 		addi	a2,a2,48
 442:main.c        **** 
 1571              		.loc 1 442 15
 1572 005a 2302C500 		sb	a2,4(a0)
 445:main.c        **** 
 1573              		.loc 1 445 5 is_stmt 1
 448:main.c        ****     output[7] = ((milliseconds / 10) % 10) + '0';
 1574              		.loc 1 448 5
 449:main.c        ****     output[8] = (milliseconds % 10) + '0';
 1575              		.loc 1 449 5
 450:main.c        **** 
 1576              		.loc 1 450 31 is_stmt 0
 1577 005e B3E6F602 		rem	a3,a3,a5
 1578              	.LVL135:
 449:main.c        ****     output[8] = (milliseconds % 10) + '0';
 1579              		.loc 1 449 44
 1580 0062 13070703 		addi	a4,a4,48
 453:main.c        ****     output[10] = '\0';
 1581              		.loc 1 453 15
 1582 0066 9307B003 		li	a5,59
 449:main.c        ****     output[8] = (milliseconds % 10) + '0';
 1583              		.loc 1 449 15
 1584 006a A303E500 		sb	a4,7(a0)
 450:main.c        **** 
GAS LISTING /var/folders/yy/83vjwp7d53j56dbzj8_jnpcr0000gn/T//cchrdQkX.s 			page 42


 1585              		.loc 1 450 5 is_stmt 1
 453:main.c        ****     output[10] = '\0';
 1586              		.loc 1 453 15 is_stmt 0
 1587 006e A304F500 		sb	a5,9(a0)
 450:main.c        **** 
 1588              		.loc 1 450 37
 1589 0072 93860603 		addi	a3,a3,48
 450:main.c        **** 
 1590              		.loc 1 450 15
 1591 0076 2304D500 		sb	a3,8(a0)
 453:main.c        ****     output[10] = '\0';
 1592              		.loc 1 453 5 is_stmt 1
 1593              		.loc 1 454 5
 455:main.c        **** }
 1594              		.loc 1 455 1 is_stmt 0
 1595 007a 8280     		ret
 1596              		.cfi_endproc
 1597              	.LFE20:
 1599              		.section	.text.int_to_string,"ax",@progbits
 1600              		.align	1
 1601              		.globl	int_to_string
 1603              	int_to_string:
 1604              	.LFB21:
 456:main.c        **** 
 457:main.c        **** int int_to_string(char *string, int integer){
 1605              		.loc 1 457 45 is_stmt 1
 1606              		.cfi_startproc
 1607              	.LVL136:
 458:main.c        ****     int i = 0;
 1608              		.loc 1 458 5
 459:main.c        ****     int divider = 1000;
 1609              		.loc 1 459 5
 460:main.c        ****     if(integer < 0){
 1610              		.loc 1 460 5
 457:main.c        ****     int i = 0;
 1611              		.loc 1 457 45 is_stmt 0
 1612 0000 AA87     		mv	a5,a0
 1613              		.loc 1 460 7
 1614 0002 63D30506 		bge	a1,zero,.L53
 461:main.c        ****         string[i++] = '-';
 1615              		.loc 1 461 9 is_stmt 1
 1616              	.LVL137:
 1617              		.loc 1 461 21 is_stmt 0
 1618 0006 1307D002 		li	a4,45
 1619 000a 2300E500 		sb	a4,0(a0)
 462:main.c        ****         integer = -integer;
 1620              		.loc 1 462 9 is_stmt 1
 1621              		.loc 1 462 17 is_stmt 0
 1622 000e B305B040 		neg	a1,a1
 1623              	.LVL138:
 461:main.c        ****         string[i++] = '-';
 1624              		.loc 1 461 17
 1625 0012 0547     		li	a4,1
 1626              	.LVL139:
 1627              	.L54:
 463:main.c        ****     }else if(integer == 0){
 464:main.c        ****         string[i++] = '0';
GAS LISTING /var/folders/yy/83vjwp7d53j56dbzj8_jnpcr0000gn/T//cchrdQkX.s 			page 43


 465:main.c        ****         string[i++] = ';';
 466:main.c        ****         string[i] = '\0';
 467:main.c        ****         return i;
 468:main.c        ****     }
 469:main.c        ****     int og_num = integer;
 1628              		.loc 1 469 5 is_stmt 1
 470:main.c        ****     while (integer >= divider * 10) {
 1629              		.loc 1 470 5
 459:main.c        ****     if(integer < 0){
 1630              		.loc 1 459 9 is_stmt 0
 1631 0014 9306803E 		li	a3,1000
 1632              		.loc 1 470 31
 1633 0018 2945     		li	a0,10
 1634              	.LVL140:
 1635              	.L56:
 1636 001a 3386A602 		mul	a2,a3,a0
 1637              		.loc 1 470 11
 1638 001e 63D3C506 		ble	a2,a1,.L61
 1639 0022 2E85     		mv	a0,a1
 1640              	.LBB8:
 471:main.c        ****         divider *= 10; 
 472:main.c        ****     }
 473:main.c        **** 
 474:main.c        ****     while(divider){
 475:main.c        ****         char digit = (integer/divider)+ '0';
 476:main.c        ****         if(digit != '0' || og_num > integer){
 1641              		.loc 1 476 11
 1642 0024 93080003 		li	a7,48
 477:main.c        ****             string[i++] = digit; 
 478:main.c        ****         }
 479:main.c        ****         
 480:main.c        ****         integer %= divider;
 481:main.c        ****         divider /= 10;
 1643              		.loc 1 481 17
 1644 0028 2948     		li	a6,10
 1645              	.LVL141:
 1646              	.L59:
 475:main.c        ****         if(digit != '0' || og_num > integer){
 1647              		.loc 1 475 9 is_stmt 1
 475:main.c        ****         if(digit != '0' || og_num > integer){
 1648              		.loc 1 475 30 is_stmt 0
 1649 002a 3346D502 		div	a2,a0,a3
 475:main.c        ****         if(digit != '0' || og_num > integer){
 1650              		.loc 1 475 14
 1651 002e 13060603 		addi	a2,a2,48
 1652 0032 1376F60F 		andi	a2,a2,0xff
 1653              	.LVL142:
 476:main.c        ****             string[i++] = digit; 
 1654              		.loc 1 476 9 is_stmt 1
 476:main.c        ****             string[i++] = digit; 
 1655              		.loc 1 476 11 is_stmt 0
 1656 0036 63141601 		bne	a2,a7,.L57
 476:main.c        ****             string[i++] = digit; 
 1657              		.loc 1 476 25 discriminator 1
 1658 003a 6357B500 		ble	a1,a0,.L58
 1659              	.L57:
 477:main.c        ****             string[i++] = digit; 
GAS LISTING /var/folders/yy/83vjwp7d53j56dbzj8_jnpcr0000gn/T//cchrdQkX.s 			page 44


 1660              		.loc 1 477 13 is_stmt 1
 1661              	.LVL143:
 477:main.c        ****             string[i++] = digit; 
 1662              		.loc 1 477 25 is_stmt 0
 1663 003e 3383E700 		add	t1,a5,a4
 1664 0042 2300C300 		sb	a2,0(t1)
 477:main.c        ****             string[i++] = digit; 
 1665              		.loc 1 477 21
 1666 0046 0507     		addi	a4,a4,1
 1667              	.LVL144:
 1668              	.L58:
 480:main.c        ****         divider /= 10;
 1669              		.loc 1 480 9 is_stmt 1
 480:main.c        ****         divider /= 10;
 1670              		.loc 1 480 17 is_stmt 0
 1671 0048 3365D502 		rem	a0,a0,a3
 1672              	.LVL145:
 1673              		.loc 1 481 9 is_stmt 1
 1674              		.loc 1 481 17 is_stmt 0
 1675 004c B3C60603 		div	a3,a3,a6
 1676              	.LVL146:
 1677              	.LBE8:
 474:main.c        ****         char digit = (integer/divider)+ '0';
 1678              		.loc 1 474 10
 1679 0050 E9FE     		bne	a3,zero,.L59
 482:main.c        ****     }
 483:main.c        ****     string[i++] = ';';
 1680              		.loc 1 483 5 is_stmt 1
 1681              		.loc 1 483 13 is_stmt 0
 1682 0052 13051700 		addi	a0,a4,1
 1683              	.LVL147:
 1684              		.loc 1 483 17
 1685 0056 9306B003 		li	a3,59
 1686              	.LVL148:
 1687 005a 3E97     		add	a4,a5,a4
 1688 005c 2300D700 		sb	a3,0(a4)
 484:main.c        ****     string[i] = '\0';
 1689              		.loc 1 484 5 is_stmt 1
 1690              		.loc 1 484 15 is_stmt 0
 1691 0060 AA97     		add	a5,a5,a0
 1692              	.LVL149:
 1693 0062 23800700 		sb	zero,0(a5)
 485:main.c        ****     return i;
 1694              		.loc 1 485 5 is_stmt 1
 486:main.c        **** }
 1695              		.loc 1 486 1 is_stmt 0
 1696 0066 8280     		ret
 1697              	.LVL150:
 1698              	.L53:
 463:main.c        ****         string[i++] = '0';
 1699              		.loc 1 463 11 is_stmt 1
 458:main.c        ****     int divider = 1000;
 1700              		.loc 1 458 9 is_stmt 0
 1701 0068 0147     		li	a4,0
 463:main.c        ****         string[i++] = '0';
 1702              		.loc 1 463 13
 1703 006a CDF5     		bne	a1,zero,.L54
GAS LISTING /var/folders/yy/83vjwp7d53j56dbzj8_jnpcr0000gn/T//cchrdQkX.s 			page 45


 464:main.c        ****         string[i++] = ';';
 1704              		.loc 1 464 9 is_stmt 1
 1705              	.LVL151:
 464:main.c        ****         string[i++] = ';';
 1706              		.loc 1 464 21 is_stmt 0
 1707 006c 13070003 		li	a4,48
 1708 0070 2300E500 		sb	a4,0(a0)
 465:main.c        ****         string[i] = '\0';
 1709              		.loc 1 465 9 is_stmt 1
 1710              	.LVL152:
 465:main.c        ****         string[i] = '\0';
 1711              		.loc 1 465 21 is_stmt 0
 1712 0074 1307B003 		li	a4,59
 1713 0078 A300E500 		sb	a4,1(a0)
 466:main.c        ****         return i;
 1714              		.loc 1 466 9 is_stmt 1
 466:main.c        ****         return i;
 1715              		.loc 1 466 19 is_stmt 0
 1716 007c 23010500 		sb	zero,2(a0)
 467:main.c        ****     }
 1717              		.loc 1 467 9 is_stmt 1
 467:main.c        ****     }
 1718              		.loc 1 467 16 is_stmt 0
 1719 0080 0945     		li	a0,2
 1720              	.LVL153:
 1721 0082 8280     		ret
 1722              	.LVL154:
 1723              	.L61:
 1724 0084 B286     		mv	a3,a2
 1725              	.LVL155:
 1726 0086 51BF     		j	.L56
 1727              		.cfi_endproc
 1728              	.LFE21:
 1730              		.section	.text.append_int_to_string,"ax",@progbits
 1731              		.align	1
 1732              		.globl	append_int_to_string
 1734              	append_int_to_string:
 1735              	.LFB22:
 487:main.c        **** 
 488:main.c        **** int append_int_to_string(char *string, int integer){
 1736              		.loc 1 488 52 is_stmt 1
 1737              		.cfi_startproc
 1738              	.LVL156:
 489:main.c        ****     char temp[20] = {'\0'};
 1739              		.loc 1 489 5
 488:main.c        ****     char temp[20] = {'\0'};
 1740              		.loc 1 488 52 is_stmt 0
 1741 0000 7971     		addi	sp,sp,-48
 1742              	.LCFI19:
 1743              		.cfi_def_cfa_offset 48
 1744 0002 22D4     		sw	s0,40(sp)
 1745              		.cfi_offset 8, -8
 1746 0004 2A84     		mv	s0,a0
 490:main.c        ****     int_to_string(temp, integer);
 1747              		.loc 1 490 5
 1748 0006 6800     		addi	a0,sp,12
 1749              	.LVL157:
GAS LISTING /var/folders/yy/83vjwp7d53j56dbzj8_jnpcr0000gn/T//cchrdQkX.s 			page 46


 488:main.c        ****     char temp[20] = {'\0'};
 1750              		.loc 1 488 52
 1751 0008 06D6     		sw	ra,44(sp)
 1752              		.cfi_offset 1, -4
 489:main.c        ****     char temp[20] = {'\0'};
 1753              		.loc 1 489 10
 1754 000a 02C6     		sw	zero,12(sp)
 1755 000c 02C8     		sw	zero,16(sp)
 1756 000e 02CA     		sw	zero,20(sp)
 1757 0010 02CC     		sw	zero,24(sp)
 1758 0012 02CE     		sw	zero,28(sp)
 1759              		.loc 1 490 5 is_stmt 1
 1760 0014 97000000 		call	int_to_string
 1760      E7800000 
 1761              	.LVL158:
 491:main.c        ****     int len = fuseStrings(string, temp);
 1762              		.loc 1 491 5
 1763              		.loc 1 491 15 is_stmt 0
 1764 001c 6C00     		addi	a1,sp,12
 1765 001e 2285     		mv	a0,s0
 1766 0020 97000000 		call	fuseStrings
 1766      E7800000 
 1767              	.LVL159:
 492:main.c        ****     return len;
 1768              		.loc 1 492 5 is_stmt 1
 493:main.c        **** }
 1769              		.loc 1 493 1 is_stmt 0
 1770 0028 B250     		lw	ra,44(sp)
 1771              		.cfi_restore 1
 1772 002a 2254     		lw	s0,40(sp)
 1773              		.cfi_restore 8
 1774              	.LVL160:
 1775 002c 4561     		addi	sp,sp,48
 1776              	.LCFI20:
 1777              		.cfi_def_cfa_offset 0
 1778 002e 8280     		jr	ra
 1779              		.cfi_endproc
 1780              	.LFE22:
 1782              		.section	.text.append_newLine,"ax",@progbits
 1783              		.align	1
 1784              		.globl	append_newLine
 1786              	append_newLine:
 1787              	.LFB23:
 494:main.c        **** 
 495:main.c        **** void append_newLine(char *string, int length) {
 1788              		.loc 1 495 47 is_stmt 1
 1789              		.cfi_startproc
 1790              	.LVL161:
 496:main.c        ****     string[length-1] = '\n';
 1791              		.loc 1 496 5
 1792              		.loc 1 496 22 is_stmt 0
 1793 0000 AA95     		add	a1,a0,a1
 1794              	.LVL162:
 1795 0002 A947     		li	a5,10
 1796 0004 A38FF5FE 		sb	a5,-1(a1)
 497:main.c        ****     string[length] = '\0'; // Add a null terminator at the new end
 1797              		.loc 1 497 5 is_stmt 1
GAS LISTING /var/folders/yy/83vjwp7d53j56dbzj8_jnpcr0000gn/T//cchrdQkX.s 			page 47


 1798              		.loc 1 497 20 is_stmt 0
 1799 0008 23800500 		sb	zero,0(a1)
 498:main.c        **** }
 1800              		.loc 1 498 1
 1801 000c 8280     		ret
 1802              		.cfi_endproc
 1803              	.LFE23:
 1805              		.globl	__floatundidf
 1806              		.globl	__muldf3
 1807              		.globl	__floatunsidf
 1808              		.globl	__divdf3
 1809              		.globl	__fixdfsi
 1810              		.section	.text.millis,"ax",@progbits
 1811              		.align	1
 1812              		.globl	millis
 1814              	millis:
 1815              	.LFB24:
 499:main.c        **** 
 500:main.c        **** int millis(void) {
 1816              		.loc 1 500 18 is_stmt 1
 1817              		.cfi_startproc
 501:main.c        ****     uint64_t mtime = get_timer_value();
 1818              		.loc 1 501 5
 500:main.c        ****     uint64_t mtime = get_timer_value();
 1819              		.loc 1 500 18 is_stmt 0
 1820 0000 4111     		addi	sp,sp,-16
 1821              	.LCFI21:
 1822              		.cfi_def_cfa_offset 16
 1823 0002 06C6     		sw	ra,12(sp)
 1824 0004 22C4     		sw	s0,8(sp)
 1825 0006 26C2     		sw	s1,4(sp)
 1826              		.cfi_offset 1, -4
 1827              		.cfi_offset 8, -8
 1828              		.cfi_offset 9, -12
 1829              		.loc 1 501 22
 1830 0008 97000000 		call	get_timer_value
 1830      E7800000 
 1831              	.LVL163:
 502:main.c        ****     return ((mtime * 4000.0) / SystemCoreClock); // Adjusted for seconds and milliseconds
 1832              		.loc 1 502 5 is_stmt 1
 1833              		.loc 1 502 20 is_stmt 0
 1834 0010 97000000 		call	__floatundidf
 1834      E7800000 
 1835              	.LVL164:
 1836 0018 B7070000 		lui	a5,%hi(.LANCHOR0+168)
 1837 001c 03A6870A 		lw	a2,%lo(.LANCHOR0+168)(a5)
 1838 0020 83A6C70A 		lw	a3,%lo(.LANCHOR0+172)(a5)
 1839 0024 97000000 		call	__muldf3
 1839      E7800000 
 1840              	.LVL165:
 1841              		.loc 1 502 30
 1842 002c B7070000 		lui	a5,%hi(SystemCoreClock)
 1843              		.loc 1 502 20
 1844 0030 2A84     		mv	s0,a0
 1845              		.loc 1 502 30
 1846 0032 03A50700 		lw	a0,%lo(SystemCoreClock)(a5)
 1847              		.loc 1 502 20
GAS LISTING /var/folders/yy/83vjwp7d53j56dbzj8_jnpcr0000gn/T//cchrdQkX.s 			page 48


 1848 0036 AE84     		mv	s1,a1
 1849              		.loc 1 502 30
 1850 0038 97000000 		call	__floatunsidf
 1850      E7800000 
 1851              	.LVL166:
 1852 0040 2A86     		mv	a2,a0
 1853 0042 AE86     		mv	a3,a1
 1854 0044 2285     		mv	a0,s0
 1855 0046 A685     		mv	a1,s1
 1856 0048 97000000 		call	__divdf3
 1856      E7800000 
 1857              	.LVL167:
 1858 0050 97000000 		call	__fixdfsi
 1858      E7800000 
 1859              	.LVL168:
 503:main.c        **** }
 1860              		.loc 1 503 1
 1861 0058 B240     		lw	ra,12(sp)
 1862              		.cfi_restore 1
 1863 005a 2244     		lw	s0,8(sp)
 1864              		.cfi_restore 8
 1865 005c 9244     		lw	s1,4(sp)
 1866              		.cfi_restore 9
 1867 005e 4101     		addi	sp,sp,16
 1868              	.LCFI22:
 1869              		.cfi_def_cfa_offset 0
 1870 0060 8280     		jr	ra
 1871              		.cfi_endproc
 1872              	.LFE24:
 1874              		.section	.text.init_mpu,"ax",@progbits
 1875              		.align	1
 1876              		.globl	init_mpu
 1878              	init_mpu:
 1879              	.LFB25:
 504:main.c        **** 
 505:main.c        **** void init_mpu(void){
 1880              		.loc 1 505 20 is_stmt 1
 1881              		.cfi_startproc
 506:main.c        ****     rcu_periph_clock_enable(RCU_GPIOB);
 1882              		.loc 1 506 5
 505:main.c        ****     rcu_periph_clock_enable(RCU_GPIOB);
 1883              		.loc 1 505 20 is_stmt 0
 1884 0000 4111     		addi	sp,sp,-16
 1885              	.LCFI23:
 1886              		.cfi_def_cfa_offset 16
 1887              		.loc 1 506 5
 1888 0002 13053060 		li	a0,1539
 505:main.c        ****     rcu_periph_clock_enable(RCU_GPIOB);
 1889              		.loc 1 505 20
 1890 0006 06C6     		sw	ra,12(sp)
 1891              		.cfi_offset 1, -4
 1892              		.loc 1 506 5
 1893 0008 97000000 		call	rcu_periph_clock_enable
 1893      E7800000 
 1894              	.LVL169:
 507:main.c        ****     rcu_periph_clock_enable(RCU_I2C0);
 1895              		.loc 1 507 5 is_stmt 1
GAS LISTING /var/folders/yy/83vjwp7d53j56dbzj8_jnpcr0000gn/T//cchrdQkX.s 			page 49


 1896 0010 13055071 		li	a0,1813
 1897 0014 97000000 		call	rcu_periph_clock_enable
 1897      E7800000 
 1898              	.LVL170:
 508:main.c        ****     gpio_init(GPIOB, GPIO_MODE_AF_OD, GPIO_OSPEED_50MHZ, GPIO_PIN_6 | GPIO_PIN_7); //led?
 1899              		.loc 1 508 5
 1900 001c 37150140 		li	a0,1073811456
 1901 0020 9306000C 		li	a3,192
 1902 0024 0D46     		li	a2,3
 1903 0026 F145     		li	a1,28
 1904 0028 130505C0 		addi	a0,a0,-1024
 1905 002c 97000000 		call	gpio_init
 1905      E7800000 
 1906              	.LVL171:
 509:main.c        **** 
 510:main.c        ****     mpu6500_install(I2C0);
 1907              		.loc 1 510 5
 1908 0034 37550040 		li	a0,1073762304
 1909 0038 13050540 		addi	a0,a0,1024
 1910 003c 97000000 		call	mpu6500_install
 1910      E7800000 
 1911              	.LVL172:
 511:main.c        **** 
 512:main.c        ****     delay_1ms(100);   
 1912              		.loc 1 512 5
 513:main.c        **** }
 1913              		.loc 1 513 1 is_stmt 0
 1914 0044 B240     		lw	ra,12(sp)
 1915              		.cfi_restore 1
 512:main.c        **** }
 1916              		.loc 1 512 5
 1917 0046 13054006 		li	a0,100
 1918              		.loc 1 513 1
 1919 004a 4101     		addi	sp,sp,16
 1920              	.LCFI24:
 1921              		.cfi_def_cfa_offset 0
 512:main.c        **** }
 1922              		.loc 1 512 5
 1923 004c 17030000 		tail	delay_1ms
 1923      67000300 
 1924              	.LVL173:
 1925              		.cfi_endproc
 1926              	.LFE25:
 1928              		.section	.text.init_ADC_EMG,"ax",@progbits
 1929              		.align	1
 1930              		.globl	init_ADC_EMG
 1932              	init_ADC_EMG:
 1933              	.LFB26:
 514:main.c        **** 
 515:main.c        **** void init_ADC_EMG(){
 1934              		.loc 1 515 20 is_stmt 1
 1935              		.cfi_startproc
 516:main.c        ****     /* enable GPIOA clock */
 517:main.c        ****     rcu_periph_clock_enable(RCU_GPIOA);
 1936              		.loc 1 517 5
 515:main.c        ****     /* enable GPIOA clock */
 1937              		.loc 1 515 20 is_stmt 0
GAS LISTING /var/folders/yy/83vjwp7d53j56dbzj8_jnpcr0000gn/T//cchrdQkX.s 			page 50


 1938 0000 4111     		addi	sp,sp,-16
 1939              	.LCFI25:
 1940              		.cfi_def_cfa_offset 16
 1941              		.loc 1 517 5
 1942 0002 13052060 		li	a0,1538
 515:main.c        ****     /* enable GPIOA clock */
 1943              		.loc 1 515 20
 1944 0006 06C6     		sw	ra,12(sp)
 1945 0008 22C4     		sw	s0,8(sp)
 1946              		.cfi_offset 1, -4
 1947              		.cfi_offset 8, -8
 1948              		.loc 1 517 5
 1949 000a 97000000 		call	rcu_periph_clock_enable
 1949      E7800000 
 1950              	.LVL174:
 518:main.c        ****     /* Initialize the GPIO that will be used for ADC. A0-A7 and B0-B1 are connected to an ADC-chann
 519:main.c        ****     gpio_init(ANALOG_PORT, GPIO_MODE_AIN, GPIO_OSPEED_50MHZ, ANALOG_PIN); //A3
 1951              		.loc 1 519 5 is_stmt 1
 1952 0012 37150140 		li	a0,1073811456
 1953 0016 A146     		li	a3,8
 1954 0018 0D46     		li	a2,3
 1955 001a 8145     		li	a1,0
 1956 001c 13050580 		addi	a0,a0,-2048
 1957 0020 97000000 		call	gpio_init
 1957      E7800000 
 1958              	.LVL175:
 520:main.c        ****     /* enable ADC clock */
 521:main.c        ****     rcu_periph_clock_enable(RCU_ADC0);
 1959              		.loc 1 521 5
 1960 0028 13059060 		li	a0,1545
 1961 002c 97000000 		call	rcu_periph_clock_enable
 1961      E7800000 
 1962              	.LVL176:
 522:main.c        **** 
 523:main.c        ****     /* Select the clock frequency that will be used for the ADC core. Refer to README for more info
 524:main.c        ****     rcu_adc_clock_config(RCU_CKADC_CKAPB2_DIV8);
 1963              		.loc 1 524 5
 1964 0034 0D45     		li	a0,3
 525:main.c        **** 
 526:main.c        ****     /* Reset ADC0 configuration. GD32VF103 has two internal ADCs (ADC0, ADC1). */
 527:main.c        ****     adc_deinit(ADC0);
 1965              		.loc 1 527 5 is_stmt 0
 1966 0036 37240140 		li	s0,1073815552
 524:main.c        **** 
 1967              		.loc 1 524 5
 1968 003a 97000000 		call	rcu_adc_clock_config
 1968      E7800000 
 1969              	.LVL177:
 1970              		.loc 1 527 5 is_stmt 1
 1971 0042 13050440 		addi	a0,s0,1024
 1972 0046 97000000 		call	adc_deinit
 1972      E7800000 
 1973              	.LVL178:
 528:main.c        **** 
 529:main.c        ****     /* Set the ADCs to work independently. Refer to the manual for the different parallel modes ava
 530:main.c        ****     adc_mode_config(ADC_MODE_FREE);
 1974              		.loc 1 530 5
GAS LISTING /var/folders/yy/83vjwp7d53j56dbzj8_jnpcr0000gn/T//cchrdQkX.s 			page 51


 1975 004e 0145     		li	a0,0
 1976 0050 97000000 		call	adc_mode_config
 1976      E7800000 
 1977              	.LVL179:
 531:main.c        **** 
 532:main.c        ****     /* Set the conversion mode to continuous. Continious mode lets the ADC take measurements contin
 533:main.c        ****        an external trigger. */
 534:main.c        ****     adc_special_function_config(ADC0, ADC_CONTINUOUS_MODE, ENABLE);
 1978              		.loc 1 534 5
 1979 0058 0546     		li	a2,1
 1980 005a 13050440 		addi	a0,s0,1024
 1981 005e 8945     		li	a1,2
 1982 0060 97000000 		call	adc_special_function_config
 1982      E7800000 
 1983              	.LVL180:
 535:main.c        **** 
 536:main.c        ****     /* Sets where padding is applied to the measurement. Data alignment right puts padding bits abo
 537:main.c        ****     adc_data_alignment_config(ADC0, ADC_DATAALIGN_RIGHT);
 1984              		.loc 1 537 5
 1985 0068 13050440 		addi	a0,s0,1024
 1986 006c 8145     		li	a1,0
 1987 006e 97000000 		call	adc_data_alignment_config
 1987      E7800000 
 1988              	.LVL181:
 538:main.c        **** 
 539:main.c        ****     /* Selects how many channels to convert each time. This can be used to "queue" multiple channel
 540:main.c        ****     adc_channel_length_config(ADC0, ADC_REGULAR_CHANNEL, 1);
 1989              		.loc 1 540 5
 1990 0076 13050440 		addi	a0,s0,1024
 1991 007a 0546     		li	a2,1
 1992 007c 8545     		li	a1,1
 1993 007e 97000000 		call	adc_channel_length_config
 1993      E7800000 
 1994              	.LVL182:
 541:main.c        **** 
 542:main.c        ****     /* Set the channel as the first "queued" conversion each time the ADC is activated. */
 543:main.c        ****     adc_regular_channel_config(ADC0, 0, ANALOG_CHANNEL, ADC_SAMPLETIME_28POINT5);
 1995              		.loc 1 543 5
 1996 0086 8D46     		li	a3,3
 1997 0088 13050440 		addi	a0,s0,1024
 1998 008c 0D46     		li	a2,3
 1999 008e 8145     		li	a1,0
 2000 0090 97000000 		call	adc_regular_channel_config
 2000      E7800000 
 2001              	.LVL183:
 544:main.c        **** 
 545:main.c        ****     /* Since we are using continious conversion we do not want to use an external trigger. */
 546:main.c        ****     adc_external_trigger_source_config(ADC0, ADC_REGULAR_CHANNEL, ADC0_1_EXTTRIG_REGULAR_NONE);
 2002              		.loc 1 546 5
 2003 0098 13050440 		addi	a0,s0,1024
 2004 009c 37060E00 		li	a2,917504
 2005 00a0 8545     		li	a1,1
 2006 00a2 97000000 		call	adc_external_trigger_source_config
 2006      E7800000 
 2007              	.LVL184:
 547:main.c        ****     adc_external_trigger_config(ADC0, ADC_REGULAR_CHANNEL, ENABLE);
 2008              		.loc 1 547 5
GAS LISTING /var/folders/yy/83vjwp7d53j56dbzj8_jnpcr0000gn/T//cchrdQkX.s 			page 52


 2009 00aa 8545     		li	a1,1
 2010 00ac 0546     		li	a2,1
 2011 00ae 13050440 		addi	a0,s0,1024
 2012 00b2 97000000 		call	adc_external_trigger_config
 2012      E7800000 
 2013              	.LVL185:
 548:main.c        **** 
 549:main.c        ****     /* Enable ADC.*/
 550:main.c        ****     adc_enable(ADC0);
 2014              		.loc 1 550 5
 2015 00ba 13050440 		addi	a0,s0,1024
 2016 00be 97000000 		call	adc_enable
 2016      E7800000 
 2017              	.LVL186:
 551:main.c        **** 
 552:main.c        ****     /* Let ADC stabilize */
 553:main.c        ****     delay_1ms(1);
 2018              		.loc 1 553 5
 2019 00c6 0545     		li	a0,1
 2020 00c8 97000000 		call	delay_1ms
 2020      E7800000 
 2021              	.LVL187:
 554:main.c        **** 
 555:main.c        ****     /* Calibrates the ADC against an internal source. */
 556:main.c        ****     adc_calibration_enable(ADC0);
 2022              		.loc 1 556 5
 2023 00d0 13050440 		addi	a0,s0,1024
 2024 00d4 97000000 		call	adc_calibration_enable
 2024      E7800000 
 2025              	.LVL188:
 557:main.c        **** 
 558:main.c        ****     /* Start converting */
 559:main.c        ****     adc_software_trigger_enable(ADC0, ADC_REGULAR_CHANNEL);
 2026              		.loc 1 559 5
 2027 00dc 13050440 		addi	a0,s0,1024
 560:main.c        **** }...
 2028              		.loc 1 560 1 is_stmt 0
 2029 00e0 2244     		lw	s0,8(sp)
 2030              		.cfi_restore 8
 2031 00e2 B240     		lw	ra,12(sp)
 2032              		.cfi_restore 1
 559:main.c        ****     adc_software_trigger_enable(ADC0, ADC_REGULAR_CHANNEL);
 2033              		.loc 1 559 5
 2034 00e4 8545     		li	a1,1
 2035              		.loc 1 560 1
 2036 00e6 4101     		addi	sp,sp,16
 2037              	.LCFI26:
 2038              		.cfi_def_cfa_offset 0
 559:main.c        ****     adc_software_trigger_enable(ADC0, ADC_REGULAR_CHANNEL);
 2039              		.loc 1 559 5
 2040 00e8 17030000 		tail	adc_software_trigger_enable
 2040      67000300 
 2041              	.LVL189:
 2042              		.cfi_endproc
 2043              	.LFE26:
 2045              		.section	.rodata
 2046              		.align	3
GAS LISTING /var/folders/yy/83vjwp7d53j56dbzj8_jnpcr0000gn/T//cchrdQkX.s 			page 53


 2047              		.set	.LANCHOR0,. + 0
 2048              	.LC0:
 2049 0000 73746172 		.string	"start0"
 2049      743000
 2050 0007 00       		.zero	1
 2051              	.LC1:
 2052 0008 73746172 		.string	"start1"
 2052      743100
 2053 000f 00       		.zero	1
 2054              	.LC2:
 2055 0010 73746172 		.string	"start2"
 2055      743200
 2056 0017 00       		.zero	1
 2057              	.LC3:
 2058 0018 73746F70 		.string	"stopp0"
 2058      703000
 2059 001f 00       		.zero	1
 2060              	.LC4:
 2061 0020 73746F70 		.string	"stopp1"
 2061      703100
 2062 0027 00       		.zero	1
 2063              	.LC5:
 2064 0028 73746F70 		.string	"stopp2"
 2064      703200
 2065 002f 00       		.zero	1
 2066              	.LC6:
 2067 0030 30313233 		.string	"0123456789ABCDEF"
 2067      34353637 
 2067      38394142 
 2067      43444546 
 2067      00
 2068 0041 000000   		.zero	3
 2069              	.LC7:
 2070 0044 5348572C 		.string	"SHW,"
 2070      00
 2071 0049 000000   		.zero	3
 2072              	.LC8:
 2073 004c 2573252E 		.string	"%s%.4x,%s\r\n"
 2073      34782C25 
 2073      730D0A00 
 2074              	.LC9:
 2075 0058 522C310D 		.string	"R,1\r"
 2075      00
 2076 005d 000000   		.zero	3
 2077              	.LC10:
 2078 0060 74657374 		.string	"test"
 2078      00
 2079 0065 000000   		.zero	3
 2080              	.LC11:
 2081 0068 52494748 		.string	"RIGHTL.CSV"
 2081      544C2E43 
 2081      535600
 2082 0073 00       		.zero	1
 2083              	.LC12:
 2084 0074 54696D65 		.string	"Time;X-acc;Y-acc;Z-acc;X-deg/s;Y-deg/s;Z-deg/s;EMG\n"
 2084      3B582D61 
 2084      63633B59 
GAS LISTING /var/folders/yy/83vjwp7d53j56dbzj8_jnpcr0000gn/T//cchrdQkX.s 			page 54


 2084      2D616363 
 2084      3B5A2D61 
 2085              	.LC13:
 2086 00a8 00000000 		.word	0
 2087 00ac 0040AF40 		.word	1085227008
 2088              		.section	.bss.last_Sample_buffer,"aw",@nobits
 2089              		.align	2
 2090              		.set	.LANCHOR1,. + 0
 2093              	last_Sample_buffer:
 2094 0000 00000000 		.zero	16
 2094      00000000 
 2094      00000000 
 2094      00000000 
 2095              		.section	.bss.read_buf,"aw",@nobits
 2096              		.align	2
 2099              	read_buf:
 2100 0000 00000000 		.zero	80
 2100      00000000 
 2100      00000000 
 2100      00000000 
 2100      00000000 
 2101              		.section	.bss.read_buf_radio,"aw",@nobits
 2102              		.align	2
 2105              	read_buf_radio:
 2106 0000 00000000 		.zero	80
 2106      00000000 
 2106      00000000 
 2106      00000000 
 2106      00000000 
 2107              		.section	.data.commands,"aw"
 2108              		.align	2
 2111              	commands:
 2112 0000 00000000 		.word	.LC0
 2113 0004 00000000 		.word	.LC1
 2114 0008 00000000 		.word	.LC2
 2115 000c 00000000 		.word	.LC3
 2116 0010 00000000 		.word	.LC4
 2117 0014 00000000 		.word	.LC5
 2118              		.section	.data.handles,"aw"
 2119              		.align	2
 2120              		.set	.LANCHOR2,. + 0
 2123              	handles:
 2124 0000 9200     		.half	146
 2125 0002 9500     		.half	149
 2126 0004 9800     		.half	152
 2127 0006 9B00     		.half	155
 2128 0008 9E00     		.half	158
 2129 000a A100     		.half	161
 2130 000c A400     		.half	164
 2131              		.section	.rodata.delays,"a"
 2132              		.align	2
 2135              	delays:
 2136 0000 2C010000 		.word	300
 2137 0004 C8000000 		.word	200
 2138 0008 64000000 		.word	100
 2139 000c 2C010000 		.word	300
 2140 0010 C8000000 		.word	200
GAS LISTING /var/folders/yy/83vjwp7d53j56dbzj8_jnpcr0000gn/T//cchrdQkX.s 			page 55


 2141 0014 64000000 		.word	100
 2142              		.section	.rodata.states,"a"
 2143              		.align	2
 2146              	states:
 2147 0000 01000000 		.word	1
 2148 0004 01000000 		.word	1
 2149 0008 01000000 		.word	1
 2150 000c 02000000 		.word	2
 2151 0010 02000000 		.word	2
 2152 0014 02000000 		.word	2
 2153              		.section	.sbss.emg,"aw",@nobits
 2154              		.align	2
 2155              		.set	.LANCHOR8,. + 0
 2158              	emg:
 2159 0000 00000000 		.zero	4
 2160              		.section	.sbss.ind_radio,"aw",@nobits
 2161              		.align	2
 2164              	ind_radio:
 2165 0000 00000000 		.zero	4
 2166              		.section	.sbss.milli,"aw",@nobits
 2167              		.align	1
 2168              		.set	.LANCHOR4,. + 0
 2171              	milli:
 2172 0000 0000     		.zero	2
 2173              		.section	.sbss.minutes,"aw",@nobits
 2174              		.align	1
 2175              		.set	.LANCHOR6,. + 0
 2178              	minutes:
 2179 0000 0000     		.zero	2
 2180              		.section	.sbss.seconds,"aw",@nobits
 2181              		.align	2
 2182              		.set	.LANCHOR5,. + 0
 2185              	seconds:
 2186 0000 00000000 		.zero	4
 2187              		.section	.sbss.start_time,"aw",@nobits
 2188              		.align	2
 2189              		.set	.LANCHOR7,. + 0
 2192              	start_time:
 2193 0000 00000000 		.zero	4
 2194              		.section	.sbss.write,"aw",@nobits
 2195              		.align	2
 2196              		.set	.LANCHOR3,. + 0
 2199              	write:
 2200 0000 00000000 		.zero	4
 2201              		.section	.sdata.pDatabuffer,"aw"
 2202              		.align	2
 2203              		.set	.LANCHOR9,. + 0
 2206              	pDatabuffer:
 2207 0000 00000000 		.word	dataBuffer
 2208              		.text
 2209              	.Letext0:
 2210              		.file 2 "/Users/gulda/Documents/risc-v/toolchain-gd32v-v200-osx/compiler/riscv64-unknown-elf/inclu
 2211              		.file 3 "/Users/gulda/Documents/risc-v/toolchain-gd32v-v200-osx/compiler/riscv64-unknown-elf/inclu
 2212              		.file 4 "../../firmware/GD32VF103_standard_peripheral/gd32vf103.h"
 2213              		.file 5 "../../firmware/GD32VF103_standard_peripheral/Include/gd32vf103_rcu.h"
 2214              		.file 6 "../../firmware/GD32VF103_standard_peripheral/Include/gd32vf103_timer.h"
 2215              		.file 7 "../../firmware/GD32VF103_standard_peripheral/Include/gd32vf103_usart.h"
GAS LISTING /var/folders/yy/83vjwp7d53j56dbzj8_jnpcr0000gn/T//cchrdQkX.s 			page 56


 2216              		.file 8 "lib/usbcdc/include/drv_usb_regs.h"
 2217              		.file 9 "../../firmware/GD32VF103_standard_peripheral/system_gd32vf103.h"
 2218              		.file 10 "lib/usbcdc/include/usb_ch9_std.h"
 2219              		.file 11 "lib/usbcdc/include/drv_usb_core.h"
 2220              		.file 12 "lib/usbcdc/include/drv_usb_dev.h"
 2221              		.file 13 "/Users/gulda/Documents/risc-v/toolchain-gd32v-v200-osx/compiler/lib/gcc/riscv64-unknown-
 2222              		.file 14 "/Users/gulda/Documents/risc-v/toolchain-gd32v-v200-osx/compiler/riscv64-unknown-elf/incl
 2223              		.file 15 "/Users/gulda/Documents/risc-v/toolchain-gd32v-v200-osx/compiler/riscv64-unknown-elf/incl
 2224              		.file 16 "/Users/gulda/Documents/risc-v/toolchain-gd32v-v200-osx/compiler/riscv64-unknown-elf/incl
 2225              		.file 17 "lib/usbcdc/include/cdc_acm_core.h"
 2226              		.file 18 "/Users/gulda/Documents/risc-v/toolchain-gd32v-v200-osx/compiler/riscv64-unknown-elf/incl
 2227              		.file 19 "lib/usbcdc/include/usb_serial_if.h"
 2228              		.file 20 "lib/fatfs/include/ff.h"
 2229              		.file 21 "lib/dma/include/dma.h"
 2230              		.file 22 "state.h"
 2231              		.file 23 "../../firmware/GD32VF103_standard_peripheral/Include/gd32vf103_gpio.h"
 2232              		.file 24 "../../firmware/GD32VF103_standard_peripheral/Include/gd32vf103_adc.h"
 2233              		.file 25 "lib/systick/include/systick.h"
 2234              		.file 26 "lib/mpu/include/gd32v_mpu6500_if.h"
 2235              		.file 27 "../../firmware/RISCV/drivers/n200_func.h"
 2236              		.file 28 "lib/queue/include/queue.h"
 2237              		.file 29 "../../firmware/GD32VF103_standard_peripheral/Include/gd32vf103_eclic.h"
 2238              		.file 30 "/Users/gulda/Documents/risc-v/toolchain-gd32v-v200-osx/compiler/riscv64-unknown-elf/incl
 2239              		.file 31 "<built-in>"
 2240              		.file 32 "rn4871.h"
 2241              		.file 33 "lib/usbcdc/include/usb_delay.h"
 2242              		.file 34 "lib/fatfs/include/gd32v_tf_card_if.h"
 2243              		.file 35 "radioHead.h"
 2244              		.file 36 "/Users/gulda/Documents/risc-v/toolchain-gd32v-v200-osx/compiler/riscv64-unknown-elf/incl
GAS LISTING /var/folders/yy/83vjwp7d53j56dbzj8_jnpcr0000gn/T//cchrdQkX.s 			page 57

