GAS LISTING /var/folders/yy/83vjwp7d53j56dbzj8_jnpcr0000gn/T//ccpUaYJc.s 			page 1


   1              		.file	"radioHead.c"
   2              		.option nopic
   3              		.attribute arch, "rv32i2p0_m2p0_a2p0_c2p0"
   4              		.attribute unaligned_access, 0
   5              		.attribute stack_align, 16
   6              		.text
   7              	.Ltext0:
   8              		.cfi_sections	.debug_frame
   9              		.section	.text.init_radio,"ax",@progbits
  10              		.align	1
  11              		.globl	init_radio
  13              	init_radio:
  14              	.LFB2:
  15              		.file 1 "radioHead.c"
   1:radioHead.c   **** #include "gd32vf103.h"
   2:radioHead.c   **** #include "radioHead.h"
   3:radioHead.c   **** #include "systick.h"
   4:radioHead.c   **** 
   5:radioHead.c   **** 
   6:radioHead.c   **** char rx_radio_buffer[1024] = {'\0'};
   7:radioHead.c   **** char tx_radio_buffer[1024] = {'\0'};
   8:radioHead.c   **** 
   9:radioHead.c   **** void init_radio(){
  16              		.loc 1 9 18
  17              		.cfi_startproc
  10:radioHead.c   ****     dma_parameter_struct dma_init_struct;
  18              		.loc 1 10 5
  11:radioHead.c   ****     /* enable DMA0 */
  12:radioHead.c   ****     rcu_periph_clock_enable(RCU_DMA0);
  19              		.loc 1 12 5
   9:radioHead.c   ****     dma_parameter_struct dma_init_struct;
  20              		.loc 1 9 18 is_stmt 0
  21 0000 4111     		addi	sp,sp,-16
  22              	.LCFI0:
  23              		.cfi_def_cfa_offset 16
  24              		.loc 1 12 5
  25 0002 13050050 		li	a0,1280
   9:radioHead.c   ****     dma_parameter_struct dma_init_struct;
  26              		.loc 1 9 18
  27 0006 06C6     		sw	ra,12(sp)
  28 0008 22C4     		sw	s0,8(sp)
  29              		.cfi_offset 1, -4
  30              		.cfi_offset 8, -8
  31              		.loc 1 12 5
  32 000a 97000000 		call	rcu_periph_clock_enable
  32      E7800000 
  33              	.LVL0:
  13:radioHead.c   ****     /* initialize USART */
  14:radioHead.c   ****     rcu_periph_clock_enable(RCU_GPIOB);
  34              		.loc 1 14 5 is_stmt 1
  35 0012 13053060 		li	a0,1539
  36 0016 97000000 		call	rcu_periph_clock_enable
  36      E7800000 
  37              	.LVL1:
  15:radioHead.c   **** 
  16:radioHead.c   ****     /* enable USART clock */
  17:radioHead.c   ****     rcu_periph_clock_enable(RCU_USART2);
GAS LISTING /var/folders/yy/83vjwp7d53j56dbzj8_jnpcr0000gn/T//ccpUaYJc.s 			page 2


  38              		.loc 1 17 5
  39 001e 13052071 		li	a0,1810
  40 0022 97000000 		call	rcu_periph_clock_enable
  40      E7800000 
  41              	.LVL2:
  18:radioHead.c   **** 
  19:radioHead.c   ****     /* connect port to USARTx_Tx */
  20:radioHead.c   ****     gpio_init(GPIOB, GPIO_MODE_AF_PP, GPIO_OSPEED_50MHZ, GPIO_PIN_10); //PP for no half duplex
  42              		.loc 1 20 5
  43 002a 37140140 		li	s0,1073811456
  44 002e 130504C0 		addi	a0,s0,-1024
  45 0032 93060040 		li	a3,1024
  46 0036 0D46     		li	a2,3
  47 0038 E145     		li	a1,24
  48 003a 97000000 		call	gpio_init
  48      E7800000 
  49              	.LVL3:
  21:radioHead.c   **** 
  22:radioHead.c   ****     /* connect port to USARTx_Rx */
  23:radioHead.c   ****     gpio_init(GPIOB, GPIO_MODE_IN_FLOATING, GPIO_OSPEED_50MHZ, GPIO_PIN_11);
  50              		.loc 1 23 5
  51 0042 8566     		li	a3,4096
  52 0044 93860680 		addi	a3,a3,-2048
  53 0048 0D46     		li	a2,3
  54 004a 9145     		li	a1,4
  55 004c 130504C0 		addi	a0,s0,-1024
  56 0050 97000000 		call	gpio_init
  56      E7800000 
  57              	.LVL4:
  24:radioHead.c   **** 
  25:radioHead.c   ****     /* USART configure */
  26:radioHead.c   ****     usart_deinit(USART2);
  58              		.loc 1 26 5
  59 0058 37540040 		li	s0,1073762304
  60 005c 13050480 		addi	a0,s0,-2048
  61 0060 97000000 		call	usart_deinit
  61      E7800000 
  62              	.LVL5:
  27:radioHead.c   ****     usart_baudrate_set(USART2, 1200);
  63              		.loc 1 27 5
  64 0068 13050480 		addi	a0,s0,-2048
  65 006c 9305004B 		li	a1,1200
  66 0070 97000000 		call	usart_baudrate_set
  66      E7800000 
  67              	.LVL6:
  28:radioHead.c   ****     usart_word_length_set(USART2, USART_WL_8BIT);
  68              		.loc 1 28 5
  69 0078 13050480 		addi	a0,s0,-2048
  70 007c 8145     		li	a1,0
  71 007e 97000000 		call	usart_word_length_set
  71      E7800000 
  72              	.LVL7:
  29:radioHead.c   ****     usart_stop_bit_set(USART2, USART_STB_1BIT);
  73              		.loc 1 29 5
  74 0086 13050480 		addi	a0,s0,-2048
  75 008a 8145     		li	a1,0
  76 008c 97000000 		call	usart_stop_bit_set
GAS LISTING /var/folders/yy/83vjwp7d53j56dbzj8_jnpcr0000gn/T//ccpUaYJc.s 			page 3


  76      E7800000 
  77              	.LVL8:
  30:radioHead.c   ****     usart_parity_config(USART2, USART_PM_NONE);
  78              		.loc 1 30 5
  79 0094 13050480 		addi	a0,s0,-2048
  80 0098 8145     		li	a1,0
  81 009a 97000000 		call	usart_parity_config
  81      E7800000 
  82              	.LVL9:
  31:radioHead.c   ****     usart_hardware_flow_rts_config(USART2, USART_RTS_DISABLE);
  83              		.loc 1 31 5
  84 00a2 13050480 		addi	a0,s0,-2048
  85 00a6 8145     		li	a1,0
  86 00a8 97000000 		call	usart_hardware_flow_rts_config
  86      E7800000 
  87              	.LVL10:
  32:radioHead.c   ****     usart_hardware_flow_cts_config(USART2, USART_CTS_DISABLE);
  88              		.loc 1 32 5
  89 00b0 13050480 		addi	a0,s0,-2048
  90 00b4 8145     		li	a1,0
  91 00b6 97000000 		call	usart_hardware_flow_cts_config
  91      E7800000 
  92              	.LVL11:
  33:radioHead.c   ****     usart_receive_config(USART2, USART_RECEIVE_ENABLE);
  93              		.loc 1 33 5
  94 00be 13050480 		addi	a0,s0,-2048
  95 00c2 9145     		li	a1,4
  96 00c4 97000000 		call	usart_receive_config
  96      E7800000 
  97              	.LVL12:
  34:radioHead.c   ****     usart_transmit_config(USART2, USART_TRANSMIT_ENABLE);
  98              		.loc 1 34 5
  99 00cc A145     		li	a1,8
 100 00ce 13050480 		addi	a0,s0,-2048
 101 00d2 97000000 		call	usart_transmit_config
 101      E7800000 
 102              	.LVL13:
  35:radioHead.c   **** 
  36:radioHead.c   ****     eclic_global_interrupt_enable();
 103              		.loc 1 36 5
 104 00da 97000000 		call	eclic_global_interrupt_enable
 104      E7800000 
 105              	.LVL14:
  37:radioHead.c   ****     eclic_priority_group_set(ECLIC_PRIGROUP_LEVEL3_PRIO1);
 106              		.loc 1 37 5
 107 00e2 0D45     		li	a0,3
 108 00e4 97000000 		call	eclic_priority_group_set
 108      E7800000 
 109              	.LVL15:
  38:radioHead.c   ****     eclic_irq_enable(USART2_IRQn, 1, 0);
 110              		.loc 1 38 5
 111 00ec 0146     		li	a2,0
 112 00ee 8545     		li	a1,1
 113 00f0 1305A003 		li	a0,58
 114 00f4 97000000 		call	eclic_irq_enable
 114      E7800000 
 115              	.LVL16:
GAS LISTING /var/folders/yy/83vjwp7d53j56dbzj8_jnpcr0000gn/T//ccpUaYJc.s 			page 4


  39:radioHead.c   **** 
  40:radioHead.c   ****     usart_interrupt_enable(USART2, USART_INT_RBNE); 
 116              		.loc 1 40 5
 117 00fc 13050480 		addi	a0,s0,-2048
 118 0100 93055030 		li	a1,773
 119 0104 97000000 		call	usart_interrupt_enable
 119      E7800000 
 120              	.LVL17:
  41:radioHead.c   **** 
  42:radioHead.c   ****     usart_enable(USART2);
 121              		.loc 1 42 5
 122 010c 13050480 		addi	a0,s0,-2048
  43:radioHead.c   **** 
  44:radioHead.c   **** //     usart_dma_transmit_config(USART2, USART_DENT_ENABLE);
  45:radioHead.c   **** //    usart_dma_receive_config(USART2, USART_DENR_ENABLE);
  46:radioHead.c   **** //
  47:radioHead.c   **** //    dma_deinit(DMA0, DMA_CH2);
  48:radioHead.c   **** //    dma_init_struct.direction = DMA_PERIPHERAL_TO_MEMORY;
  49:radioHead.c   **** //    dma_init_struct.memory_addr = (uint32_t)rx_radio_buffer;
  50:radioHead.c   **** //    dma_init_struct.memory_inc = DMA_MEMORY_INCREASE_ENABLE;
  51:radioHead.c   **** //    dma_init_struct.memory_width = DMA_MEMORY_WIDTH_8BIT;
  52:radioHead.c   **** //    dma_init_struct.number = 1024;
  53:radioHead.c   **** //    dma_init_struct.periph_addr = (uint32_t)&USART_DATA(USART2);
  54:radioHead.c   **** //    dma_init_struct.periph_inc = DMA_PERIPH_INCREASE_DISABLE;
  55:radioHead.c   **** //    dma_init_struct.periph_width = DMA_PERIPHERAL_WIDTH_8BIT;
  56:radioHead.c   **** //    dma_init_struct.priority = DMA_PRIORITY_ULTRA_HIGH;
  57:radioHead.c   **** //    dma_init(DMA0, DMA_CH2, &dma_init_struct);
  58:radioHead.c   **** //        /* configure DMA mode */
  59:radioHead.c   **** //    dma_circulation_disable(DMA0, DMA_CH2);
  60:radioHead.c   **** //        /* enable DMA channel4 */
  61:radioHead.c   **** //    dma_channel_enable(DMA0, DMA_CH2); 
  62:radioHead.c   **** 
  63:radioHead.c   **** }
 123              		.loc 1 63 1 is_stmt 0
 124 0110 2244     		lw	s0,8(sp)
 125              		.cfi_restore 8
 126 0112 B240     		lw	ra,12(sp)
 127              		.cfi_restore 1
 128 0114 4101     		addi	sp,sp,16
 129              	.LCFI1:
 130              		.cfi_def_cfa_offset 0
  42:radioHead.c   **** 
 131              		.loc 1 42 5
 132 0116 17030000 		tail	usart_enable
 132      67000300 
 133              	.LVL18:
 134              		.cfi_endproc
 135              	.LFE2:
 137              		.section	.text.read_radio,"ax",@progbits
 138              		.align	1
 139              		.globl	read_radio
 141              	read_radio:
 142              	.LFB3:
  64:radioHead.c   **** 
  65:radioHead.c   **** size_t read_radio(char* buffer, uint32_t size){
 143              		.loc 1 65 47 is_stmt 1
 144              		.cfi_startproc
GAS LISTING /var/folders/yy/83vjwp7d53j56dbzj8_jnpcr0000gn/T//ccpUaYJc.s 			page 5


 145              	.LVL19:
  66:radioHead.c   ****     if(rx_radio_buffer[0] != 0){
 146              		.loc 1 66 5
  65:radioHead.c   ****     if(rx_radio_buffer[0] != 0){
 147              		.loc 1 65 47 is_stmt 0
 148 0000 7971     		addi	sp,sp,-48
 149              	.LCFI2:
 150              		.cfi_def_cfa_offset 48
 151 0002 26D2     		sw	s1,36(sp)
 152              		.cfi_offset 9, -12
 153              		.loc 1 66 23
 154 0004 B7040000 		lui	s1,%hi(.LANCHOR0)
 155              		.loc 1 66 7
 156 0008 83C70400 		lbu	a5,%lo(.LANCHOR0)(s1)
  65:radioHead.c   ****     if(rx_radio_buffer[0] != 0){
 157              		.loc 1 65 47
 158 000c 22D4     		sw	s0,40(sp)
 159 000e 06D6     		sw	ra,44(sp)
 160              		.cfi_offset 8, -8
 161              		.cfi_offset 1, -4
  67:radioHead.c   ****         int i = 0;
  68:radioHead.c   ****         for(; i < 1024 && rx_radio_buffer[i] != 0 && i < size - 1; i++){
  69:radioHead.c   ****             /* buffer[i] = rx_radio_buffer[i];
  70:radioHead.c   ****             rx_radio_buffer[i] = 0; */
  71:radioHead.c   ****         }
  72:radioHead.c   ****         buffer[i] = '\0';
  73:radioHead.c   ****     
  74:radioHead.c   **** 
  75:radioHead.c   **** 
  76:radioHead.c   **** 
  77:radioHead.c   ****         dma_parameter_struct dma_init_struct;
  78:radioHead.c   **** 
  79:radioHead.c   ****         dma_deinit(DMA0, DMA_CH2);
  80:radioHead.c   ****         dma_init_struct.direction = DMA_PERIPHERAL_TO_MEMORY;
  81:radioHead.c   ****         dma_init_struct.memory_addr = (uint32_t)rx_radio_buffer;
  82:radioHead.c   ****         dma_init_struct.memory_inc = DMA_MEMORY_INCREASE_ENABLE;
  83:radioHead.c   ****         dma_init_struct.memory_width = DMA_MEMORY_WIDTH_8BIT;
  84:radioHead.c   ****         dma_init_struct.number = 1024;
  85:radioHead.c   ****         dma_init_struct.periph_addr = (uint32_t)&USART_DATA(USART2);
  86:radioHead.c   ****         dma_init_struct.periph_inc = DMA_PERIPH_INCREASE_DISABLE;
  87:radioHead.c   ****         dma_init_struct.periph_width = DMA_PERIPHERAL_WIDTH_8BIT;
  88:radioHead.c   ****         dma_init_struct.priority = DMA_PRIORITY_ULTRA_HIGH;
  89:radioHead.c   ****         dma_init(DMA0, DMA_CH2, &dma_init_struct);
  90:radioHead.c   ****         dma_circulation_disable(DMA0, DMA_CH2);
  91:radioHead.c   ****         dma_channel_enable(DMA0, DMA_CH2);
  92:radioHead.c   ****         return i;
  93:radioHead.c   ****     }
  94:radioHead.c   ****     return 0;
 162              		.loc 1 94 12
 163 0010 0144     		li	s0,0
  66:radioHead.c   ****         int i = 0;
 164              		.loc 1 66 7
 165 0012 C9C7     		beq	a5,zero,.L3
 166 0014 93840400 		addi	s1,s1,%lo(.LANCHOR0)
 167              	.LBB2:
  67:radioHead.c   ****         int i = 0;
 168              		.loc 1 67 13
GAS LISTING /var/folders/yy/83vjwp7d53j56dbzj8_jnpcr0000gn/T//ccpUaYJc.s 			page 6


 169 0018 8147     		li	a5,0
  68:radioHead.c   ****             /* buffer[i] = rx_radio_buffer[i];
 170              		.loc 1 68 63
 171 001a FD15     		addi	a1,a1,-1
 172              	.LVL20:
  68:radioHead.c   ****             /* buffer[i] = rx_radio_buffer[i];
 173              		.loc 1 68 9
 174 001c 13070040 		li	a4,1024
 175              	.L4:
 176              	.LVL21:
  68:radioHead.c   ****             /* buffer[i] = rx_radio_buffer[i];
 177              		.loc 1 68 51 discriminator 3
 178 0020 63FAB700 		bleu	a1,a5,.L6
  71:radioHead.c   ****         buffer[i] = '\0';
 179              		.loc 1 71 9 is_stmt 1 discriminator 4
  68:radioHead.c   ****             /* buffer[i] = rx_radio_buffer[i];
 180              		.loc 1 68 69 is_stmt 0 discriminator 4
 181 0024 8507     		addi	a5,a5,1
 182              	.LVL22:
  68:radioHead.c   ****             /* buffer[i] = rx_radio_buffer[i];
 183              		.loc 1 68 9 discriminator 4
 184 0026 6387E700 		beq	a5,a4,.L6
  68:radioHead.c   ****             /* buffer[i] = rx_radio_buffer[i];
 185              		.loc 1 68 42 discriminator 2
 186 002a B386F400 		add	a3,s1,a5
  68:radioHead.c   ****             /* buffer[i] = rx_radio_buffer[i];
 187              		.loc 1 68 24 discriminator 2
 188 002e 83C60600 		lbu	a3,0(a3)
 189 0032 FDF6     		bne	a3,zero,.L4
 190              	.L6:
  72:radioHead.c   ****     
 191              		.loc 1 72 9 is_stmt 1
  72:radioHead.c   ****     
 192              		.loc 1 72 19 is_stmt 0
 193 0034 3E95     		add	a0,a0,a5
 194              	.LVL23:
 195 0036 23000500 		sb	zero,0(a0)
  77:radioHead.c   **** 
 196              		.loc 1 77 9 is_stmt 1
  79:radioHead.c   ****         dma_init_struct.direction = DMA_PERIPHERAL_TO_MEMORY;
 197              		.loc 1 79 9
 198 003a 8945     		li	a1,2
 199              	.LVL24:
 200 003c 37050240 		li	a0,1073872896
  72:radioHead.c   ****     
 201              		.loc 1 72 15 is_stmt 0
 202 0040 3E84     		mv	s0,a5
  79:radioHead.c   ****         dma_init_struct.direction = DMA_PERIPHERAL_TO_MEMORY;
 203              		.loc 1 79 9
 204 0042 97000000 		call	dma_deinit
 204      E7800000 
 205              	.LVL25:
  80:radioHead.c   ****         dma_init_struct.memory_addr = (uint32_t)rx_radio_buffer;
 206              		.loc 1 80 9 is_stmt 1
  81:radioHead.c   ****         dma_init_struct.memory_inc = DMA_MEMORY_INCREASE_ENABLE;
 207              		.loc 1 81 9
  85:radioHead.c   ****         dma_init_struct.periph_inc = DMA_PERIPH_INCREASE_DISABLE;
GAS LISTING /var/folders/yy/83vjwp7d53j56dbzj8_jnpcr0000gn/T//ccpUaYJc.s 			page 7


 208              		.loc 1 85 37 is_stmt 0
 209 004a B7570040 		li	a5,1073762304
 210 004e 93874780 		addi	a5,a5,-2044
 211 0052 3EC2     		sw	a5,4(sp)
  84:radioHead.c   ****         dma_init_struct.periph_addr = (uint32_t)&USART_DATA(USART2);
 212              		.loc 1 84 32
 213 0054 93070040 		li	a5,1024
 214 0058 3ECA     		sw	a5,20(sp)
  88:radioHead.c   ****         dma_init(DMA0, DMA_CH2, &dma_init_struct);
 215              		.loc 1 88 34
 216 005a 8D67     		li	a5,12288
 217 005c 3ECC     		sw	a5,24(sp)
  89:radioHead.c   ****         dma_circulation_disable(DMA0, DMA_CH2);
 218              		.loc 1 89 9
 219 005e 5000     		addi	a2,sp,4
  86:radioHead.c   ****         dma_init_struct.periph_width = DMA_PERIPHERAL_WIDTH_8BIT;
 220              		.loc 1 86 36
 221 0060 93070010 		li	a5,256
  89:radioHead.c   ****         dma_circulation_disable(DMA0, DMA_CH2);
 222              		.loc 1 89 9
 223 0064 8945     		li	a1,2
 224 0066 37050240 		li	a0,1073872896
  86:radioHead.c   ****         dma_init_struct.periph_width = DMA_PERIPHERAL_WIDTH_8BIT;
 225              		.loc 1 86 36
 226 006a 231EF100 		sh	a5,28(sp)
  81:radioHead.c   ****         dma_init_struct.memory_inc = DMA_MEMORY_INCREASE_ENABLE;
 227              		.loc 1 81 37
 228 006e 26C6     		sw	s1,12(sp)
  82:radioHead.c   ****         dma_init_struct.memory_width = DMA_MEMORY_WIDTH_8BIT;
 229              		.loc 1 82 9 is_stmt 1
  83:radioHead.c   ****         dma_init_struct.number = 1024;
 230              		.loc 1 83 9
  84:radioHead.c   ****         dma_init_struct.periph_addr = (uint32_t)&USART_DATA(USART2);
 231              		.loc 1 84 9
  85:radioHead.c   ****         dma_init_struct.periph_inc = DMA_PERIPH_INCREASE_DISABLE;
 232              		.loc 1 85 9
  86:radioHead.c   ****         dma_init_struct.periph_width = DMA_PERIPHERAL_WIDTH_8BIT;
 233              		.loc 1 86 9
  87:radioHead.c   ****         dma_init_struct.priority = DMA_PRIORITY_ULTRA_HIGH;
 234              		.loc 1 87 9
  87:radioHead.c   ****         dma_init_struct.priority = DMA_PRIORITY_ULTRA_HIGH;
 235              		.loc 1 87 38 is_stmt 0
 236 0070 02C4     		sw	zero,8(sp)
  88:radioHead.c   ****         dma_init(DMA0, DMA_CH2, &dma_init_struct);
 237              		.loc 1 88 9 is_stmt 1
  83:radioHead.c   ****         dma_init_struct.number = 1024;
 238              		.loc 1 83 38 is_stmt 0
 239 0072 02C8     		sw	zero,16(sp)
  80:radioHead.c   ****         dma_init_struct.memory_addr = (uint32_t)rx_radio_buffer;
 240              		.loc 1 80 35
 241 0074 230F0100 		sb	zero,30(sp)
  89:radioHead.c   ****         dma_circulation_disable(DMA0, DMA_CH2);
 242              		.loc 1 89 9 is_stmt 1
 243 0078 97000000 		call	dma_init
 243      E7800000 
 244              	.LVL26:
  90:radioHead.c   ****         dma_channel_enable(DMA0, DMA_CH2);
GAS LISTING /var/folders/yy/83vjwp7d53j56dbzj8_jnpcr0000gn/T//ccpUaYJc.s 			page 8


 245              		.loc 1 90 9
 246 0080 8945     		li	a1,2
 247 0082 37050240 		li	a0,1073872896
 248 0086 97000000 		call	dma_circulation_disable
 248      E7800000 
 249              	.LVL27:
  91:radioHead.c   ****         return i;
 250              		.loc 1 91 9
 251 008e 8945     		li	a1,2
 252 0090 37050240 		li	a0,1073872896
 253 0094 97000000 		call	dma_channel_enable
 253      E7800000 
 254              	.LVL28:
  92:radioHead.c   ****     }
 255              		.loc 1 92 9
 256              	.L3:
 257              	.LBE2:
  95:radioHead.c   **** }
 258              		.loc 1 95 1 is_stmt 0
 259 009c 2285     		mv	a0,s0
 260 009e B250     		lw	ra,44(sp)
 261              		.cfi_restore 1
 262 00a0 2254     		lw	s0,40(sp)
 263              		.cfi_restore 8
 264 00a2 9254     		lw	s1,36(sp)
 265              		.cfi_restore 9
 266 00a4 4561     		addi	sp,sp,48
 267              	.LCFI3:
 268              		.cfi_def_cfa_offset 0
 269 00a6 8280     		jr	ra
 270              		.cfi_endproc
 271              	.LFE3:
 273              		.section	.text.send_radio,"ax",@progbits
 274              		.align	1
 275              		.globl	send_radio
 277              	send_radio:
 278              	.LFB4:
  96:radioHead.c   **** 
  97:radioHead.c   **** size_t send_radio(char* message, uint32_t size){
 279              		.loc 1 97 48 is_stmt 1
 280              		.cfi_startproc
 281              	.LVL29:
  98:radioHead.c   ****     for(int i = 0; i < size && i < 1024; i++) {
 282              		.loc 1 98 5
 283              	.LBB3:
 284              		.loc 1 98 9
 285              	.LBE3:
  97:radioHead.c   ****     for(int i = 0; i < size && i < 1024; i++) {
 286              		.loc 1 97 48 is_stmt 0
 287 0000 7971     		addi	sp,sp,-48
 288              	.LCFI4:
 289              		.cfi_def_cfa_offset 48
 290 0002 22D4     		sw	s0,40(sp)
 291              		.cfi_offset 8, -8
 292 0004 37040000 		lui	s0,%hi(.LANCHOR1)
 293 0008 26D2     		sw	s1,36(sp)
 294 000a 06D6     		sw	ra,44(sp)
GAS LISTING /var/folders/yy/83vjwp7d53j56dbzj8_jnpcr0000gn/T//ccpUaYJc.s 			page 9


 295              		.cfi_offset 9, -12
 296              		.cfi_offset 1, -4
  97:radioHead.c   ****     for(int i = 0; i < size && i < 1024; i++) {
 297              		.loc 1 97 48
 298 000c AE84     		mv	s1,a1
 299              	.LBB4:
 300              		.loc 1 98 13
 301 000e 8147     		li	a5,0
 302 0010 13040400 		addi	s0,s0,%lo(.LANCHOR1)
 303              		.loc 1 98 29
 304 0014 13070040 		li	a4,1024
 305              	.LVL30:
 306              	.L14:
 307              		.loc 1 98 5 discriminator 1
 308 0018 63849700 		beq	a5,s1,.L15
 309              		.loc 1 98 29 discriminator 3
 310 001c 6396E706 		bne	a5,a4,.L16
 311              	.L15:
 312              	.LBE4:
  99:radioHead.c   ****         tx_radio_buffer[i] = message[i];
 100:radioHead.c   ****     }
 101:radioHead.c   **** 
 102:radioHead.c   ****     dma_parameter_struct dma_init_struct;
 313              		.loc 1 102 5 is_stmt 1
 103:radioHead.c   ****     dma_deinit(DMA0, DMA_CH1);
 314              		.loc 1 103 5
 315 0020 8545     		li	a1,1
 316              	.LVL31:
 317 0022 37050240 		li	a0,1073872896
 318              	.LVL32:
 319 0026 97000000 		call	dma_deinit
 319      E7800000 
 320              	.LVL33:
 104:radioHead.c   ****     dma_init_struct.direction = DMA_MEMORY_TO_PERIPHERAL;
 321              		.loc 1 104 5
 105:radioHead.c   ****     dma_init_struct.memory_addr = (uint32_t)tx_radio_buffer;
 322              		.loc 1 105 5
 106:radioHead.c   ****     dma_init_struct.memory_inc = DMA_MEMORY_INCREASE_ENABLE;
 107:radioHead.c   ****     dma_init_struct.memory_width = DMA_MEMORY_WIDTH_8BIT;
 108:radioHead.c   ****     dma_init_struct.number = size;
 109:radioHead.c   ****     dma_init_struct.periph_addr = (uint32_t)&USART_DATA(USART2);
 323              		.loc 1 109 33 is_stmt 0
 324 002e B7570040 		li	a5,1073762304
 325 0032 93874780 		addi	a5,a5,-2044
 326 0036 3EC2     		sw	a5,4(sp)
 110:radioHead.c   ****     dma_init_struct.periph_inc = DMA_PERIPH_INCREASE_DISABLE;
 111:radioHead.c   ****     dma_init_struct.periph_width = DMA_PERIPHERAL_WIDTH_8BIT;
 112:radioHead.c   ****     dma_init_struct.priority = DMA_PRIORITY_ULTRA_HIGH;
 327              		.loc 1 112 30
 328 0038 8D67     		li	a5,12288
 329 003a 3ECC     		sw	a5,24(sp)
 110:radioHead.c   ****     dma_init_struct.periph_inc = DMA_PERIPH_INCREASE_DISABLE;
 330              		.loc 1 110 32
 331 003c 93070010 		li	a5,256
 113:radioHead.c   ****     dma_init(DMA0, DMA_CH1, &dma_init_struct);
 332              		.loc 1 113 5
 333 0040 5000     		addi	a2,sp,4
GAS LISTING /var/folders/yy/83vjwp7d53j56dbzj8_jnpcr0000gn/T//ccpUaYJc.s 			page 10


 110:radioHead.c   ****     dma_init_struct.periph_inc = DMA_PERIPH_INCREASE_DISABLE;
 334              		.loc 1 110 32
 335 0042 231EF100 		sh	a5,28(sp)
 336              		.loc 1 113 5
 337 0046 8545     		li	a1,1
 104:radioHead.c   ****     dma_init_struct.memory_addr = (uint32_t)tx_radio_buffer;
 338              		.loc 1 104 31
 339 0048 8547     		li	a5,1
 340              		.loc 1 113 5
 341 004a 37050240 		li	a0,1073872896
 104:radioHead.c   ****     dma_init_struct.memory_addr = (uint32_t)tx_radio_buffer;
 342              		.loc 1 104 31
 343 004e 230FF100 		sb	a5,30(sp)
 105:radioHead.c   ****     dma_init_struct.memory_inc = DMA_MEMORY_INCREASE_ENABLE;
 344              		.loc 1 105 33
 345 0052 22C6     		sw	s0,12(sp)
 106:radioHead.c   ****     dma_init_struct.memory_width = DMA_MEMORY_WIDTH_8BIT;
 346              		.loc 1 106 5 is_stmt 1
 107:radioHead.c   ****     dma_init_struct.number = size;
 347              		.loc 1 107 5
 108:radioHead.c   ****     dma_init_struct.periph_addr = (uint32_t)&USART_DATA(USART2);
 348              		.loc 1 108 28 is_stmt 0
 349 0054 26CA     		sw	s1,20(sp)
 107:radioHead.c   ****     dma_init_struct.number = size;
 350              		.loc 1 107 34
 351 0056 02C8     		sw	zero,16(sp)
 108:radioHead.c   ****     dma_init_struct.periph_addr = (uint32_t)&USART_DATA(USART2);
 352              		.loc 1 108 5 is_stmt 1
 109:radioHead.c   ****     dma_init_struct.periph_inc = DMA_PERIPH_INCREASE_DISABLE;
 353              		.loc 1 109 5
 110:radioHead.c   ****     dma_init_struct.periph_width = DMA_PERIPHERAL_WIDTH_8BIT;
 354              		.loc 1 110 5
 111:radioHead.c   ****     dma_init_struct.priority = DMA_PRIORITY_ULTRA_HIGH;
 355              		.loc 1 111 5
 111:radioHead.c   ****     dma_init_struct.priority = DMA_PRIORITY_ULTRA_HIGH;
 356              		.loc 1 111 34 is_stmt 0
 357 0058 02C4     		sw	zero,8(sp)
 112:radioHead.c   ****     dma_init(DMA0, DMA_CH1, &dma_init_struct);
 358              		.loc 1 112 5 is_stmt 1
 359              		.loc 1 113 5
 360 005a 97000000 		call	dma_init
 360      E7800000 
 361              	.LVL34:
 114:radioHead.c   ****     /* configure DMA mode */
 115:radioHead.c   ****     dma_circulation_disable(DMA0, DMA_CH1);
 362              		.loc 1 115 5
 363 0062 8545     		li	a1,1
 364 0064 37050240 		li	a0,1073872896
 365 0068 97000000 		call	dma_circulation_disable
 365      E7800000 
 366              	.LVL35:
 116:radioHead.c   ****     /* enable DMA channel3 */
 117:radioHead.c   ****     dma_channel_enable(DMA0, DMA_CH1);
 367              		.loc 1 117 5
 368 0070 37050240 		li	a0,1073872896
 369 0074 8545     		li	a1,1
 370 0076 97000000 		call	dma_channel_enable
GAS LISTING /var/folders/yy/83vjwp7d53j56dbzj8_jnpcr0000gn/T//ccpUaYJc.s 			page 11


 370      E7800000 
 371              	.LVL36:
 118:radioHead.c   **** }
 372              		.loc 1 118 1 is_stmt 0
 373 007e B250     		lw	ra,44(sp)
 374              		.cfi_remember_state
 375              		.cfi_restore 1
 376 0080 2254     		lw	s0,40(sp)
 377              		.cfi_restore 8
 378 0082 9254     		lw	s1,36(sp)
 379              		.cfi_restore 9
 380              	.LVL37:
 381 0084 4561     		addi	sp,sp,48
 382              	.LCFI5:
 383              		.cfi_def_cfa_offset 0
 384 0086 8280     		jr	ra
 385              	.LVL38:
 386              	.L16:
 387              	.LCFI6:
 388              		.cfi_restore_state
 389              	.LBB5:
  99:radioHead.c   ****     }
 390              		.loc 1 99 9 is_stmt 1 discriminator 4
  99:radioHead.c   ****     }
 391              		.loc 1 99 37 is_stmt 0 discriminator 4
 392 0088 B306F500 		add	a3,a0,a5
 393 008c 03C60600 		lbu	a2,0(a3)
  99:radioHead.c   ****     }
 394              		.loc 1 99 28 discriminator 4
 395 0090 B306F400 		add	a3,s0,a5
  98:radioHead.c   ****         tx_radio_buffer[i] = message[i];
 396              		.loc 1 98 43 discriminator 4
 397 0094 8507     		addi	a5,a5,1
 398              	.LVL39:
  99:radioHead.c   ****     }
 399              		.loc 1 99 28 discriminator 4
 400 0096 2380C600 		sb	a2,0(a3)
 401 009a BDBF     		j	.L14
 402              	.LBE5:
 403              		.cfi_endproc
 404              	.LFE4:
 406              		.section	.text.init_radio_gaga,"ax",@progbits
 407              		.align	1
 408              		.globl	init_radio_gaga
 410              	init_radio_gaga:
 411              	.LFB5:
 119:radioHead.c   **** 
 120:radioHead.c   **** void init_radio_gaga(){
 412              		.loc 1 120 23 is_stmt 1
 413              		.cfi_startproc
 121:radioHead.c   ****     USART_GP(USART2)    |= 0x01;
 414              		.loc 1 121 5
 415              		.loc 1 121 25 is_stmt 0
 416 0000 B7570040 		li	a5,1073762304
 417 0004 03A78781 		lw	a4,-2024(a5)
 122:radioHead.c   ****     USART_CTL2(USART2)  &= ~(0x04);
 123:radioHead.c   ****     USART_CTL2(USART2)  |= 0x02; 
GAS LISTING /var/folders/yy/83vjwp7d53j56dbzj8_jnpcr0000gn/T//ccpUaYJc.s 			page 12


 124:radioHead.c   ****     USART_CTL1(USART2)  &= ~(0x7800);
 418              		.loc 1 124 25
 419 0008 E176     		li	a3,-32768
 420 000a 9386F67F 		addi	a3,a3,2047
 121:radioHead.c   ****     USART_GP(USART2)    |= 0x01;
 421              		.loc 1 121 25
 422 000e 13671700 		ori	a4,a4,1
 423 0012 23ACE780 		sw	a4,-2024(a5)
 122:radioHead.c   ****     USART_CTL2(USART2)  &= ~(0x04);
 424              		.loc 1 122 5 is_stmt 1
 122:radioHead.c   ****     USART_CTL2(USART2)  &= ~(0x04);
 425              		.loc 1 122 25 is_stmt 0
 426 0016 03A74781 		lw	a4,-2028(a5)
 427 001a 6D9B     		andi	a4,a4,-5
 428 001c 23AAE780 		sw	a4,-2028(a5)
 123:radioHead.c   ****     USART_CTL1(USART2)  &= ~(0x7800);
 429              		.loc 1 123 5 is_stmt 1
 123:radioHead.c   ****     USART_CTL1(USART2)  &= ~(0x7800);
 430              		.loc 1 123 25 is_stmt 0
 431 0020 03A74781 		lw	a4,-2028(a5)
 432 0024 13672700 		ori	a4,a4,2
 433 0028 23AAE780 		sw	a4,-2028(a5)
 434              		.loc 1 124 5 is_stmt 1
 435              		.loc 1 124 25 is_stmt 0
 436 002c 03A70781 		lw	a4,-2032(a5)
 437 0030 758F     		and	a4,a4,a3
 438 0032 23A8E780 		sw	a4,-2032(a5)
 125:radioHead.c   ****     USART_CTL2(USART2)  &= ~(0x28);
 439              		.loc 1 125 5 is_stmt 1
 440              		.loc 1 125 25 is_stmt 0
 441 0036 03A74781 		lw	a4,-2028(a5)
 442 003a 137777FD 		andi	a4,a4,-41
 443 003e 23AAE780 		sw	a4,-2028(a5)
 126:radioHead.c   **** }...
 444              		.loc 1 126 1
 445 0042 8280     		ret
 446              		.cfi_endproc
 447              	.LFE5:
 449              		.globl	tx_radio_buffer
 450              		.globl	rx_radio_buffer
 451              		.section	.bss.rx_radio_buffer,"aw",@nobits
 452              		.align	2
 453              		.set	.LANCHOR0,. + 0
 456              	rx_radio_buffer:
 457 0000 00000000 		.zero	1024
 457      00000000 
 457      00000000 
 457      00000000 
 457      00000000 
 458              		.section	.bss.tx_radio_buffer,"aw",@nobits
 459              		.align	2
 460              		.set	.LANCHOR1,. + 0
 463              	tx_radio_buffer:
 464 0000 00000000 		.zero	1024
 464      00000000 
 464      00000000 
 464      00000000 
GAS LISTING /var/folders/yy/83vjwp7d53j56dbzj8_jnpcr0000gn/T//ccpUaYJc.s 			page 13


 464      00000000 
 465              		.text
 466              	.Letext0:
 467              		.file 2 "/Users/gulda/Documents/risc-v/toolchain-gd32v-v200-osx/compiler/riscv64-unknown-elf/inclu
 468              		.file 3 "/Users/gulda/Documents/risc-v/toolchain-gd32v-v200-osx/compiler/riscv64-unknown-elf/inclu
 469              		.file 4 "../../firmware/GD32VF103_standard_peripheral/Include/gd32vf103_dma.h"
 470              		.file 5 "../../firmware/GD32VF103_standard_peripheral/Include/gd32vf103_rcu.h"
 471              		.file 6 "../../firmware/GD32VF103_standard_peripheral/Include/gd32vf103_usart.h"
 472              		.file 7 "/Users/gulda/Documents/risc-v/toolchain-gd32v-v200-osx/compiler/lib/gcc/riscv64-unknown-e
 473              		.file 8 "../../firmware/GD32VF103_standard_peripheral/system_gd32vf103.h"
 474              		.file 9 "../../firmware/GD32VF103_standard_peripheral/Include/gd32vf103_gpio.h"
 475              		.file 10 "../../firmware/GD32VF103_standard_peripheral/Include/gd32vf103_eclic.h"
 476              		.file 11 "../../firmware/GD32VF103_standard_peripheral/gd32vf103.h"
GAS LISTING /var/folders/yy/83vjwp7d53j56dbzj8_jnpcr0000gn/T//ccpUaYJc.s 			page 14

