GAS LISTING /var/folders/yy/83vjwp7d53j56dbzj8_jnpcr0000gn/T//cc8FPEFo.s 			page 1


   1              		.file	"rn4871.c"
   2              		.option nopic
   3              		.attribute arch, "rv32i2p0_m2p0_a2p0_c2p0"
   4              		.attribute unaligned_access, 0
   5              		.attribute stack_align, 16
   6              		.text
   7              	.Ltext0:
   8              		.cfi_sections	.debug_frame
   9              		.globl	rx_dma_buffer
  10              		.globl	tx_dma_buffer
  11              		.section	.text.UUID_parser,"ax",@progbits
  12              		.align	1
  14              	UUID_parser:
  15              	.LFB7:
  16              		.file 1 "rn4871.c"
   1:rn4871.c      **** #include "rn4871.h"
   2:rn4871.c      **** #include "usb_delay.h"
   3:rn4871.c      **** #include "string.h"
   4:rn4871.c      **** 
   5:rn4871.c      **** char rx_dma_buffer[LIO_BT_BUFFER_SIZE] = {'\0'};
   6:rn4871.c      **** char tx_dma_buffer[LIO_BT_BUFFER_SIZE] = {'\0'}; 
   7:rn4871.c      **** 
   8:rn4871.c      **** 
   9:rn4871.c      **** 
  10:rn4871.c      **** static void UUID_parser(char *UUID) {
  17              		.loc 1 10 37
  18              		.cfi_startproc
  19              	.LVL0:
  11:rn4871.c      ****     if (UUID == NULL) {
  20              		.loc 1 11 5
  21              		.loc 1 11 8 is_stmt 0
  22 0000 09C5     		beq	a0,zero,.L1
  23 0002 17030000 		tail	UUID_parser.part.0
  23      67000300 
  24              	.LVL1:
  25              	.L1:
  12:rn4871.c      ****         return; // Handle invalid input
  13:rn4871.c      ****     }
  14:rn4871.c      **** 
  15:rn4871.c      ****     char *readPtr = UUID; // Read pointer
  16:rn4871.c      ****     char *writePtr = UUID; // Write pointer
  17:rn4871.c      **** 
  18:rn4871.c      ****     while (*readPtr != '\0') {
  19:rn4871.c      ****         if (*readPtr != '-') {
  20:rn4871.c      ****             *writePtr = *readPtr;
  21:rn4871.c      ****             writePtr++;
  22:rn4871.c      ****         }
  23:rn4871.c      ****         readPtr++;
  24:rn4871.c      ****     }
  25:rn4871.c      **** 
  26:rn4871.c      ****     *writePtr = '\0'; // Null-terminate the modified string
  27:rn4871.c      **** }
  26              		.loc 1 27 1
  27 000a 8280     		ret
  28              		.cfi_endproc
  29              	.LFE7:
  31              		.section	.text.UUID_Flipper,"ax",@progbits
GAS LISTING /var/folders/yy/83vjwp7d53j56dbzj8_jnpcr0000gn/T//cc8FPEFo.s 			page 2


  32              		.align	1
  34              	UUID_Flipper:
  35              	.LFB8:
  28:rn4871.c      **** 
  29:rn4871.c      **** static void UUID_Flipper(char *input, char *output) {
  36              		.loc 1 29 53 is_stmt 1
  37              		.cfi_startproc
  38              	.LVL2:
  30:rn4871.c      ****     int len = strlen(input);
  39              		.loc 1 30 5
  29:rn4871.c      ****     int len = strlen(input);
  40              		.loc 1 29 53 is_stmt 0
  41 0000 0111     		addi	sp,sp,-32
  42              	.LCFI0:
  43              		.cfi_def_cfa_offset 32
  44 0002 22CC     		sw	s0,24(sp)
  45 0004 2EC6     		sw	a1,12(sp)
  46              		.cfi_offset 8, -8
  47 0006 2A84     		mv	s0,a0
  48 0008 06CE     		sw	ra,28(sp)
  49              		.cfi_offset 1, -4
  50              		.loc 1 30 15
  51 000a 97000000 		call	strlen
  51      E7800000 
  52              	.LVL3:
  31:rn4871.c      ****     for (int i = 0; i < len; i += 2) {
  53              		.loc 1 31 5 is_stmt 1
  54              	.LBB11:
  55              		.loc 1 31 10
  56 0012 B245     		lw	a1,12(sp)
  57              		.loc 1 31 5 is_stmt 0
  58 0014 A287     		mv	a5,s0
  59 0016 AA95     		add	a1,a1,a0
  60 0018 2E87     		mv	a4,a1
  61              	.LVL4:
  62              	.L4:
  63              		.loc 1 31 5 discriminator 1
  64 001a B3868740 		sub	a3,a5,s0
  65 001e 7917     		addi	a4,a4,-2
  66 0020 63C8A600 		bgt	a0,a3,.L5
  67              	.LBE11:
  32:rn4871.c      ****         output[len - i - 2] = input[i];
  33:rn4871.c      ****         output[len - i - 1] = input[i + 1];
  34:rn4871.c      ****     }
  35:rn4871.c      ****     output[len] = '\0';
  68              		.loc 1 35 5 is_stmt 1
  69              		.loc 1 35 17 is_stmt 0
  70 0024 23800500 		sb	zero,0(a1)
  36:rn4871.c      **** }
  71              		.loc 1 36 1
  72 0028 F240     		lw	ra,28(sp)
  73              		.cfi_remember_state
  74              		.cfi_restore 1
  75 002a 6244     		lw	s0,24(sp)
  76              		.cfi_restore 8
  77              	.LVL5:
  78 002c 0561     		addi	sp,sp,32
GAS LISTING /var/folders/yy/83vjwp7d53j56dbzj8_jnpcr0000gn/T//cc8FPEFo.s 			page 3


  79              	.LCFI1:
  80              		.cfi_def_cfa_offset 0
  81              	.LVL6:
  82 002e 8280     		jr	ra
  83              	.LVL7:
  84              	.L5:
  85              	.LCFI2:
  86              		.cfi_restore_state
  87              	.LBB12:
  32:rn4871.c      ****         output[len - i - 2] = input[i];
  88              		.loc 1 32 9 is_stmt 1 discriminator 3
  32:rn4871.c      ****         output[len - i - 2] = input[i];
  89              		.loc 1 32 36 is_stmt 0 discriminator 3
  90 0030 83C60700 		lbu	a3,0(a5)
  91 0034 8907     		addi	a5,a5,2
  92              	.LVL8:
  32:rn4871.c      ****         output[len - i - 2] = input[i];
  93              		.loc 1 32 29 discriminator 3
  94 0036 2300D700 		sb	a3,0(a4)
  33:rn4871.c      ****     }
  95              		.loc 1 33 9 is_stmt 1 discriminator 3
  33:rn4871.c      ****     }
  96              		.loc 1 33 36 is_stmt 0 discriminator 3
  97 003a 83C6F7FF 		lbu	a3,-1(a5)
  33:rn4871.c      ****     }
  98              		.loc 1 33 29 discriminator 3
  99 003e A300D700 		sb	a3,1(a4)
 100              	.LVL9:
 101 0042 E1BF     		j	.L4
 102              	.LBE12:
 103              		.cfi_endproc
 104              	.LFE8:
 106              		.section	.text.enter_command_mode,"ax",@progbits
 107              		.align	1
 108              		.globl	enter_command_mode
 110              	enter_command_mode:
 111              	.LFB9:
  37:rn4871.c      **** 
  38:rn4871.c      **** void enter_command_mode(void){
 112              		.loc 1 38 30 is_stmt 1
 113              		.cfi_startproc
  39:rn4871.c      ****     usb_delay_1ms(1000);
 114              		.loc 1 39 5
  38:rn4871.c      ****     usb_delay_1ms(1000);
 115              		.loc 1 38 30 is_stmt 0
 116 0000 0111     		addi	sp,sp,-32
 117              	.LCFI3:
 118              		.cfi_def_cfa_offset 32
 119              		.loc 1 39 5
 120 0002 1305803E 		li	a0,1000
  38:rn4871.c      ****     usb_delay_1ms(1000);
 121              		.loc 1 38 30
 122 0006 06CE     		sw	ra,28(sp)
 123              		.cfi_offset 1, -4
 124              		.loc 1 39 5
 125 0008 97000000 		call	usb_delay_1ms
 125      E7800000 
GAS LISTING /var/folders/yy/83vjwp7d53j56dbzj8_jnpcr0000gn/T//cc8FPEFo.s 			page 4


 126              	.LVL10:
  40:rn4871.c      ****     char command_mode[] = "$$$";
 127              		.loc 1 40 5 is_stmt 1
 128              		.loc 1 40 10 is_stmt 0
 129 0010 B7272400 		li	a5,2367488
 130 0014 93874742 		addi	a5,a5,1060
  41:rn4871.c      ****     lio_send_bt(command_mode, 3);
 131              		.loc 1 41 5
 132 0018 8D45     		li	a1,3
 133 001a 6800     		addi	a0,sp,12
  40:rn4871.c      ****     char command_mode[] = "$$$";
 134              		.loc 1 40 10
 135 001c 3EC6     		sw	a5,12(sp)
 136              		.loc 1 41 5 is_stmt 1
 137 001e 97000000 		call	lio_send_bt
 137      E7800000 
 138              	.LVL11:
  42:rn4871.c      ****     usb_delay_1ms(1000);
 139              		.loc 1 42 5
 140 0026 1305803E 		li	a0,1000
 141 002a 97000000 		call	usb_delay_1ms
 141      E7800000 
 142              	.LVL12:
  43:rn4871.c      ****     command_mode[0] = '\r';
 143              		.loc 1 43 5
 144              		.loc 1 43 21 is_stmt 0
 145 0032 B547     		li	a5,13
  44:rn4871.c      ****     lio_send_bt(command_mode, 1);
 146              		.loc 1 44 5
 147 0034 6800     		addi	a0,sp,12
 148 0036 8545     		li	a1,1
  43:rn4871.c      ****     command_mode[0] = '\r';
 149              		.loc 1 43 21
 150 0038 2306F100 		sb	a5,12(sp)
 151              		.loc 1 44 5 is_stmt 1
 152 003c 97000000 		call	lio_send_bt
 152      E7800000 
 153              	.LVL13:
  45:rn4871.c      **** }
 154              		.loc 1 45 1 is_stmt 0
 155 0044 F240     		lw	ra,28(sp)
 156              		.cfi_restore 1
 157 0046 0561     		addi	sp,sp,32
 158              	.LCFI4:
 159              		.cfi_def_cfa_offset 0
 160 0048 8280     		jr	ra
 161              		.cfi_endproc
 162              	.LFE9:
 164              		.section	.text.lio_init_bt,"ax",@progbits
 165              		.align	1
 166              		.globl	lio_init_bt
 168              	lio_init_bt:
 169              	.LFB10:
  46:rn4871.c      **** 
  47:rn4871.c      **** void lio_init_bt(){
 170              		.loc 1 47 19 is_stmt 1
 171              		.cfi_startproc
GAS LISTING /var/folders/yy/83vjwp7d53j56dbzj8_jnpcr0000gn/T//cc8FPEFo.s 			page 5


  48:rn4871.c      ****     dma_parameter_struct dma_init_struct;
 172              		.loc 1 48 5
  49:rn4871.c      ****     /* enable DMA0 */
  50:rn4871.c      ****     rcu_periph_clock_enable(RCU_DMA0);
 173              		.loc 1 50 5
  47:rn4871.c      ****     dma_parameter_struct dma_init_struct;
 174              		.loc 1 47 19 is_stmt 0
 175 0000 7971     		addi	sp,sp,-48
 176              	.LCFI5:
 177              		.cfi_def_cfa_offset 48
 178              		.loc 1 50 5
 179 0002 13050050 		li	a0,1280
  47:rn4871.c      ****     dma_parameter_struct dma_init_struct;
 180              		.loc 1 47 19
 181 0006 06D6     		sw	ra,44(sp)
 182 0008 22D4     		sw	s0,40(sp)
 183              		.cfi_offset 1, -4
 184              		.cfi_offset 8, -8
 185              		.loc 1 50 5
 186 000a 97000000 		call	rcu_periph_clock_enable
 186      E7800000 
 187              	.LVL14:
  51:rn4871.c      ****     /* initialize USART */
  52:rn4871.c      ****     rcu_periph_clock_enable(RCU_GPIOA);
 188              		.loc 1 52 5 is_stmt 1
 189 0012 13052060 		li	a0,1538
 190 0016 97000000 		call	rcu_periph_clock_enable
 190      E7800000 
 191              	.LVL15:
  53:rn4871.c      **** 
  54:rn4871.c      ****     /* enable USART clock */
  55:rn4871.c      ****     rcu_periph_clock_enable(RCU_USART0);
 192              		.loc 1 55 5
 193 001e 1305E060 		li	a0,1550
 194 0022 97000000 		call	rcu_periph_clock_enable
 194      E7800000 
 195              	.LVL16:
  56:rn4871.c      **** 
  57:rn4871.c      ****     /* connect port to USARTx_Tx */
  58:rn4871.c      ****     gpio_init(GPIOA, GPIO_MODE_AF_PP, GPIO_OSPEED_50MHZ, GPIO_PIN_9);
 196              		.loc 1 58 5
 197 002a 37140140 		li	s0,1073811456
 198 002e 13050480 		addi	a0,s0,-2048
 199 0032 93060020 		li	a3,512
 200 0036 0D46     		li	a2,3
 201 0038 E145     		li	a1,24
 202 003a 97000000 		call	gpio_init
 202      E7800000 
 203              	.LVL17:
  59:rn4871.c      **** 
  60:rn4871.c      ****     /* connect port to USARTx_Rx */
  61:rn4871.c      ****     gpio_init(GPIOA, GPIO_MODE_IN_FLOATING, GPIO_OSPEED_50MHZ, GPIO_PIN_10);
 204              		.loc 1 61 5
 205 0042 93060040 		li	a3,1024
 206 0046 0D46     		li	a2,3
 207 0048 9145     		li	a1,4
 208 004a 13050480 		addi	a0,s0,-2048
GAS LISTING /var/folders/yy/83vjwp7d53j56dbzj8_jnpcr0000gn/T//cc8FPEFo.s 			page 6


 209 004e 97000000 		call	gpio_init
 209      E7800000 
 210              	.LVL18:
  62:rn4871.c      **** 
  63:rn4871.c      ****     /* USART configure */
  64:rn4871.c      ****     usart_deinit(USART0);
 211              		.loc 1 64 5
 212 0056 37440140 		li	s0,1073823744
 213 005a 13050480 		addi	a0,s0,-2048
 214 005e 97000000 		call	usart_deinit
 214      E7800000 
 215              	.LVL19:
  65:rn4871.c      ****     usart_baudrate_set(USART0, 115200U);
 216              		.loc 1 65 5
 217 0066 F165     		li	a1,114688
 218 0068 13050480 		addi	a0,s0,-2048
 219 006c 93850520 		addi	a1,a1,512
 220 0070 97000000 		call	usart_baudrate_set
 220      E7800000 
 221              	.LVL20:
  66:rn4871.c      ****     usart_word_length_set(USART0, USART_WL_8BIT);
 222              		.loc 1 66 5
 223 0078 13050480 		addi	a0,s0,-2048
 224 007c 8145     		li	a1,0
 225 007e 97000000 		call	usart_word_length_set
 225      E7800000 
 226              	.LVL21:
  67:rn4871.c      ****     usart_stop_bit_set(USART0, USART_STB_1BIT);
 227              		.loc 1 67 5
 228 0086 13050480 		addi	a0,s0,-2048
 229 008a 8145     		li	a1,0
 230 008c 97000000 		call	usart_stop_bit_set
 230      E7800000 
 231              	.LVL22:
  68:rn4871.c      ****     usart_parity_config(USART0, USART_PM_NONE);
 232              		.loc 1 68 5
 233 0094 13050480 		addi	a0,s0,-2048
 234 0098 8145     		li	a1,0
 235 009a 97000000 		call	usart_parity_config
 235      E7800000 
 236              	.LVL23:
  69:rn4871.c      ****     usart_hardware_flow_rts_config(USART0, USART_RTS_DISABLE);
 237              		.loc 1 69 5
 238 00a2 13050480 		addi	a0,s0,-2048
 239 00a6 8145     		li	a1,0
 240 00a8 97000000 		call	usart_hardware_flow_rts_config
 240      E7800000 
 241              	.LVL24:
  70:rn4871.c      ****     usart_hardware_flow_cts_config(USART0, USART_CTS_DISABLE);
 242              		.loc 1 70 5
 243 00b0 13050480 		addi	a0,s0,-2048
 244 00b4 8145     		li	a1,0
 245 00b6 97000000 		call	usart_hardware_flow_cts_config
 245      E7800000 
 246              	.LVL25:
  71:rn4871.c      ****     usart_receive_config(USART0, USART_RECEIVE_ENABLE);
 247              		.loc 1 71 5
GAS LISTING /var/folders/yy/83vjwp7d53j56dbzj8_jnpcr0000gn/T//cc8FPEFo.s 			page 7


 248 00be 13050480 		addi	a0,s0,-2048
 249 00c2 9145     		li	a1,4
 250 00c4 97000000 		call	usart_receive_config
 250      E7800000 
 251              	.LVL26:
  72:rn4871.c      ****     usart_transmit_config(USART0, USART_TRANSMIT_ENABLE);
 252              		.loc 1 72 5
 253 00cc A145     		li	a1,8
 254 00ce 13050480 		addi	a0,s0,-2048
 255 00d2 97000000 		call	usart_transmit_config
 255      E7800000 
 256              	.LVL27:
  73:rn4871.c      ****     usart_enable(USART0);
 257              		.loc 1 73 5
 258 00da 13050480 		addi	a0,s0,-2048
 259 00de 97000000 		call	usart_enable
 259      E7800000 
 260              	.LVL28:
  74:rn4871.c      **** 
  75:rn4871.c      ****     usart_dma_transmit_config(USART0, USART_DENT_ENABLE);
 261              		.loc 1 75 5
 262 00e6 13050480 		addi	a0,s0,-2048
 263 00ea 93050008 		li	a1,128
 264 00ee 97000000 		call	usart_dma_transmit_config
 264      E7800000 
 265              	.LVL29:
  76:rn4871.c      ****     usart_dma_receive_config(USART0, USART_DENR_ENABLE);
 266              		.loc 1 76 5
 267 00f6 13050480 		addi	a0,s0,-2048
 268 00fa 93050004 		li	a1,64
 269 00fe 97000000 		call	usart_dma_receive_config
 269      E7800000 
 270              	.LVL30:
  77:rn4871.c      **** 
  78:rn4871.c      ****    
  79:rn4871.c      **** 
  80:rn4871.c      ****     dma_deinit(DMA0, DMA_CH4);
 271              		.loc 1 80 5
 272 0106 9145     		li	a1,4
 273 0108 37050240 		li	a0,1073872896
 274 010c 97000000 		call	dma_deinit
 274      E7800000 
 275              	.LVL31:
  81:rn4871.c      ****     dma_init_struct.direction = DMA_PERIPHERAL_TO_MEMORY;
 276              		.loc 1 81 5
  82:rn4871.c      ****     dma_init_struct.memory_addr = (uint32_t)rx_dma_buffer;
 277              		.loc 1 82 5
 278              		.loc 1 82 35 is_stmt 0
 279 0114 B7070000 		lui	a5,%hi(.LANCHOR0)
 280 0118 93870700 		addi	a5,a5,%lo(.LANCHOR0)
 281              		.loc 1 82 33
 282 011c 3EC6     		sw	a5,12(sp)
  83:rn4871.c      ****     dma_init_struct.memory_inc = DMA_MEMORY_INCREASE_ENABLE;
 283              		.loc 1 83 5 is_stmt 1
  84:rn4871.c      ****     dma_init_struct.memory_width = DMA_MEMORY_WIDTH_8BIT;
 284              		.loc 1 84 5
  85:rn4871.c      ****     dma_init_struct.number = LIO_BT_BUFFER_SIZE;
GAS LISTING /var/folders/yy/83vjwp7d53j56dbzj8_jnpcr0000gn/T//cc8FPEFo.s 			page 8


 285              		.loc 1 85 5
  86:rn4871.c      ****     dma_init_struct.periph_addr = (uint32_t)&USART_DATA(USART0);
 286              		.loc 1 86 5
  85:rn4871.c      ****     dma_init_struct.number = LIO_BT_BUFFER_SIZE;
 287              		.loc 1 85 28 is_stmt 0
 288 011e 93070040 		li	a5,1024
 289 0122 3ECA     		sw	a5,20(sp)
  87:rn4871.c      ****     dma_init_struct.periph_inc = DMA_PERIPH_INCREASE_DISABLE;
  88:rn4871.c      ****     dma_init_struct.periph_width = DMA_PERIPHERAL_WIDTH_8BIT;
  89:rn4871.c      ****     dma_init_struct.priority = DMA_PRIORITY_ULTRA_HIGH;
 290              		.loc 1 89 30
 291 0124 8D67     		li	a5,12288
  90:rn4871.c      ****     dma_init(DMA0, DMA_CH4, &dma_init_struct);
 292              		.loc 1 90 5
 293 0126 5000     		addi	a2,sp,4
  89:rn4871.c      ****     dma_init(DMA0, DMA_CH4, &dma_init_struct);
 294              		.loc 1 89 30
 295 0128 3ECC     		sw	a5,24(sp)
  86:rn4871.c      ****     dma_init_struct.periph_inc = DMA_PERIPH_INCREASE_DISABLE;
 296              		.loc 1 86 33
 297 012a 13044480 		addi	s0,s0,-2044
  87:rn4871.c      ****     dma_init_struct.periph_width = DMA_PERIPHERAL_WIDTH_8BIT;
 298              		.loc 1 87 32
 299 012e 93070010 		li	a5,256
 300              		.loc 1 90 5
 301 0132 9145     		li	a1,4
 302 0134 37050240 		li	a0,1073872896
  87:rn4871.c      ****     dma_init_struct.periph_width = DMA_PERIPHERAL_WIDTH_8BIT;
 303              		.loc 1 87 32
 304 0138 231EF100 		sh	a5,28(sp)
  86:rn4871.c      ****     dma_init_struct.periph_inc = DMA_PERIPH_INCREASE_DISABLE;
 305              		.loc 1 86 33
 306 013c 22C2     		sw	s0,4(sp)
  87:rn4871.c      ****     dma_init_struct.periph_width = DMA_PERIPHERAL_WIDTH_8BIT;
 307              		.loc 1 87 5 is_stmt 1
  88:rn4871.c      ****     dma_init_struct.priority = DMA_PRIORITY_ULTRA_HIGH;
 308              		.loc 1 88 5
  88:rn4871.c      ****     dma_init_struct.priority = DMA_PRIORITY_ULTRA_HIGH;
 309              		.loc 1 88 34 is_stmt 0
 310 013e 02C4     		sw	zero,8(sp)
  89:rn4871.c      ****     dma_init(DMA0, DMA_CH4, &dma_init_struct);
 311              		.loc 1 89 5 is_stmt 1
  84:rn4871.c      ****     dma_init_struct.number = LIO_BT_BUFFER_SIZE;
 312              		.loc 1 84 34 is_stmt 0
 313 0140 02C8     		sw	zero,16(sp)
  81:rn4871.c      ****     dma_init_struct.memory_addr = (uint32_t)rx_dma_buffer;
 314              		.loc 1 81 31
 315 0142 230F0100 		sb	zero,30(sp)
 316              		.loc 1 90 5 is_stmt 1
 317 0146 97000000 		call	dma_init
 317      E7800000 
 318              	.LVL32:
  91:rn4871.c      ****         /* configure DMA mode */
  92:rn4871.c      ****     dma_circulation_disable(DMA0, DMA_CH4);
 319              		.loc 1 92 5
 320 014e 9145     		li	a1,4
 321 0150 37050240 		li	a0,1073872896
GAS LISTING /var/folders/yy/83vjwp7d53j56dbzj8_jnpcr0000gn/T//cc8FPEFo.s 			page 9


 322 0154 97000000 		call	dma_circulation_disable
 322      E7800000 
 323              	.LVL33:
  93:rn4871.c      ****         /* enable DMA channel4 */
  94:rn4871.c      ****     dma_channel_enable(DMA0, DMA_CH4);
 324              		.loc 1 94 5
 325 015c 9145     		li	a1,4
 326 015e 37050240 		li	a0,1073872896
 327 0162 97000000 		call	dma_channel_enable
 327      E7800000 
 328              	.LVL34:
  95:rn4871.c      **** }
 329              		.loc 1 95 1 is_stmt 0
 330 016a B250     		lw	ra,44(sp)
 331              		.cfi_restore 1
 332 016c 2254     		lw	s0,40(sp)
 333              		.cfi_restore 8
 334 016e 4561     		addi	sp,sp,48
 335              	.LCFI6:
 336              		.cfi_def_cfa_offset 0
 337 0170 8280     		jr	ra
 338              		.cfi_endproc
 339              	.LFE10:
 341              		.section	.text.lio_read_bt,"ax",@progbits
 342              		.align	1
 343              		.globl	lio_read_bt
 345              	lio_read_bt:
 346              	.LFB11:
  96:rn4871.c      **** 
  97:rn4871.c      **** size_t lio_read_bt(char* buffer, uint32_t size){
 347              		.loc 1 97 48 is_stmt 1
 348              		.cfi_startproc
 349              	.LVL35:
  98:rn4871.c      ****     if(rx_dma_buffer[0] != 0)
 350              		.loc 1 98 5
 351              		.loc 1 98 21 is_stmt 0
 352 0000 37070000 		lui	a4,%hi(.LANCHOR0)
 353              		.loc 1 98 7
 354 0004 83470700 		lbu	a5,%lo(.LANCHOR0)(a4)
  97:rn4871.c      ****     if(rx_dma_buffer[0] != 0)
 355              		.loc 1 97 48
 356 0008 7971     		addi	sp,sp,-48
 357              	.LCFI7:
 358              		.cfi_def_cfa_offset 48
 359 000a 22D4     		sw	s0,40(sp)
 360 000c 06D6     		sw	ra,44(sp)
 361 000e 26D2     		sw	s1,36(sp)
 362              		.cfi_offset 8, -8
 363              		.cfi_offset 1, -4
 364              		.cfi_offset 9, -12
  99:rn4871.c      ****     {
 100:rn4871.c      ****         int i = 0;
 101:rn4871.c      ****         for(; i < LIO_BT_BUFFER_SIZE && rx_dma_buffer[i] != 0 && i < size - 1; i++){
 102:rn4871.c      ****             buffer[i] = rx_dma_buffer[i];
 103:rn4871.c      ****             rx_dma_buffer[i] = 0;
 104:rn4871.c      ****         }
 105:rn4871.c      ****         buffer[i] = '\0';
GAS LISTING /var/folders/yy/83vjwp7d53j56dbzj8_jnpcr0000gn/T//cc8FPEFo.s 			page 10


 106:rn4871.c      **** 
 107:rn4871.c      ****         dma_parameter_struct dma_init_struct;
 108:rn4871.c      **** 
 109:rn4871.c      ****         dma_deinit(DMA0, DMA_CH4);
 110:rn4871.c      ****         dma_init_struct.direction = DMA_PERIPHERAL_TO_MEMORY;
 111:rn4871.c      ****         dma_init_struct.memory_addr = (uint32_t)rx_dma_buffer;
 112:rn4871.c      ****         dma_init_struct.memory_inc = DMA_MEMORY_INCREASE_ENABLE;
 113:rn4871.c      ****         dma_init_struct.memory_width = DMA_MEMORY_WIDTH_8BIT;
 114:rn4871.c      ****         dma_init_struct.number = LIO_BT_BUFFER_SIZE;
 115:rn4871.c      ****         dma_init_struct.periph_addr = (uint32_t)&USART_DATA(USART0);
 116:rn4871.c      ****         dma_init_struct.periph_inc = DMA_PERIPH_INCREASE_DISABLE;
 117:rn4871.c      ****         dma_init_struct.periph_width = DMA_PERIPHERAL_WIDTH_8BIT;
 118:rn4871.c      ****         dma_init_struct.priority = DMA_PRIORITY_ULTRA_HIGH;
 119:rn4871.c      ****         dma_init(DMA0, DMA_CH4, &dma_init_struct);
 120:rn4871.c      ****         /* configure DMA mode */
 121:rn4871.c      ****         dma_circulation_disable(DMA0, DMA_CH4);
 122:rn4871.c      ****         /* enable DMA channel4 */
 123:rn4871.c      ****         dma_channel_enable(DMA0, DMA_CH4);
 124:rn4871.c      ****         return i;
 125:rn4871.c      ****     }
 126:rn4871.c      ****     return 0;
 365              		.loc 1 126 12
 366 0010 0144     		li	s0,0
  98:rn4871.c      ****     {
 367              		.loc 1 98 7
 368 0012 C1CF     		beq	a5,zero,.L11
 369 0014 93040700 		addi	s1,a4,%lo(.LANCHOR0)
 370              	.LBB13:
 100:rn4871.c      ****         for(; i < LIO_BT_BUFFER_SIZE && rx_dma_buffer[i] != 0 && i < size - 1; i++){
 371              		.loc 1 100 13
 372 0018 8147     		li	a5,0
 373              	.LBE13:
  98:rn4871.c      ****     {
 374              		.loc 1 98 7
 375 001a 13070700 		addi	a4,a4,%lo(.LANCHOR0)
 376              	.LBB14:
 101:rn4871.c      ****             buffer[i] = rx_dma_buffer[i];
 377              		.loc 1 101 75
 378 001e FD15     		addi	a1,a1,-1
 379              	.LVL36:
 101:rn4871.c      ****             buffer[i] = rx_dma_buffer[i];
 380              		.loc 1 101 9
 381 0020 13060040 		li	a2,1024
 382              	.L13:
 383              	.LVL37:
 101:rn4871.c      ****             buffer[i] = rx_dma_buffer[i];
 384              		.loc 1 101 54 discriminator 2
 385 0024 83460700 		lbu	a3,0(a4)
 101:rn4871.c      ****             buffer[i] = rx_dma_buffer[i];
 386              		.loc 1 101 38 discriminator 2
 387 0028 89CE     		beq	a3,zero,.L14
 101:rn4871.c      ****             buffer[i] = rx_dma_buffer[i];
 388              		.loc 1 101 63 discriminator 3
 389 002a 63FCB700 		bleu	a1,a5,.L14
 102:rn4871.c      ****             rx_dma_buffer[i] = 0;
 390              		.loc 1 102 13 is_stmt 1 discriminator 4
 102:rn4871.c      ****             rx_dma_buffer[i] = 0;
GAS LISTING /var/folders/yy/83vjwp7d53j56dbzj8_jnpcr0000gn/T//cc8FPEFo.s 			page 11


 391              		.loc 1 102 23 is_stmt 0 discriminator 4
 392 002e 3308F500 		add	a6,a0,a5
 393 0032 2300D800 		sb	a3,0(a6)
 103:rn4871.c      ****         }
 394              		.loc 1 103 13 is_stmt 1 discriminator 4
 103:rn4871.c      ****         }
 395              		.loc 1 103 30 is_stmt 0 discriminator 4
 396 0036 23000700 		sb	zero,0(a4)
 101:rn4871.c      ****             buffer[i] = rx_dma_buffer[i];
 397              		.loc 1 101 81 discriminator 4
 398 003a 8507     		addi	a5,a5,1
 399              	.LVL38:
 400 003c 0507     		addi	a4,a4,1
 101:rn4871.c      ****             buffer[i] = rx_dma_buffer[i];
 401              		.loc 1 101 9 discriminator 4
 402 003e E393C7FE 		bne	a5,a2,.L13
 403              	.L14:
 105:rn4871.c      **** 
 404              		.loc 1 105 9 is_stmt 1
 105:rn4871.c      **** 
 405              		.loc 1 105 19 is_stmt 0
 406 0042 3E95     		add	a0,a0,a5
 407              	.LVL39:
 408 0044 23000500 		sb	zero,0(a0)
 107:rn4871.c      **** 
 409              		.loc 1 107 9 is_stmt 1
 109:rn4871.c      ****         dma_init_struct.direction = DMA_PERIPHERAL_TO_MEMORY;
 410              		.loc 1 109 9
 411 0048 9145     		li	a1,4
 412              	.LVL40:
 413 004a 37050240 		li	a0,1073872896
 105:rn4871.c      **** 
 414              		.loc 1 105 15 is_stmt 0
 415 004e 3E84     		mv	s0,a5
 109:rn4871.c      ****         dma_init_struct.direction = DMA_PERIPHERAL_TO_MEMORY;
 416              		.loc 1 109 9
 417 0050 97000000 		call	dma_deinit
 417      E7800000 
 418              	.LVL41:
 110:rn4871.c      ****         dma_init_struct.memory_addr = (uint32_t)rx_dma_buffer;
 419              		.loc 1 110 9 is_stmt 1
 111:rn4871.c      ****         dma_init_struct.memory_inc = DMA_MEMORY_INCREASE_ENABLE;
 420              		.loc 1 111 9
 115:rn4871.c      ****         dma_init_struct.periph_inc = DMA_PERIPH_INCREASE_DISABLE;
 421              		.loc 1 115 37 is_stmt 0
 422 0058 B7470140 		li	a5,1073823744
 423 005c 93874780 		addi	a5,a5,-2044
 424 0060 3EC2     		sw	a5,4(sp)
 114:rn4871.c      ****         dma_init_struct.periph_addr = (uint32_t)&USART_DATA(USART0);
 425              		.loc 1 114 32
 426 0062 93070040 		li	a5,1024
 427 0066 3ECA     		sw	a5,20(sp)
 118:rn4871.c      ****         dma_init(DMA0, DMA_CH4, &dma_init_struct);
 428              		.loc 1 118 34
 429 0068 8D67     		li	a5,12288
 430 006a 3ECC     		sw	a5,24(sp)
 119:rn4871.c      ****         /* configure DMA mode */
GAS LISTING /var/folders/yy/83vjwp7d53j56dbzj8_jnpcr0000gn/T//cc8FPEFo.s 			page 12


 431              		.loc 1 119 9
 432 006c 5000     		addi	a2,sp,4
 116:rn4871.c      ****         dma_init_struct.periph_width = DMA_PERIPHERAL_WIDTH_8BIT;
 433              		.loc 1 116 36
 434 006e 93070010 		li	a5,256
 119:rn4871.c      ****         /* configure DMA mode */
 435              		.loc 1 119 9
 436 0072 9145     		li	a1,4
 437 0074 37050240 		li	a0,1073872896
 116:rn4871.c      ****         dma_init_struct.periph_width = DMA_PERIPHERAL_WIDTH_8BIT;
 438              		.loc 1 116 36
 439 0078 231EF100 		sh	a5,28(sp)
 111:rn4871.c      ****         dma_init_struct.memory_inc = DMA_MEMORY_INCREASE_ENABLE;
 440              		.loc 1 111 37
 441 007c 26C6     		sw	s1,12(sp)
 112:rn4871.c      ****         dma_init_struct.memory_width = DMA_MEMORY_WIDTH_8BIT;
 442              		.loc 1 112 9 is_stmt 1
 113:rn4871.c      ****         dma_init_struct.number = LIO_BT_BUFFER_SIZE;
 443              		.loc 1 113 9
 114:rn4871.c      ****         dma_init_struct.periph_addr = (uint32_t)&USART_DATA(USART0);
 444              		.loc 1 114 9
 115:rn4871.c      ****         dma_init_struct.periph_inc = DMA_PERIPH_INCREASE_DISABLE;
 445              		.loc 1 115 9
 116:rn4871.c      ****         dma_init_struct.periph_width = DMA_PERIPHERAL_WIDTH_8BIT;
 446              		.loc 1 116 9
 117:rn4871.c      ****         dma_init_struct.priority = DMA_PRIORITY_ULTRA_HIGH;
 447              		.loc 1 117 9
 117:rn4871.c      ****         dma_init_struct.priority = DMA_PRIORITY_ULTRA_HIGH;
 448              		.loc 1 117 38 is_stmt 0
 449 007e 02C4     		sw	zero,8(sp)
 118:rn4871.c      ****         dma_init(DMA0, DMA_CH4, &dma_init_struct);
 450              		.loc 1 118 9 is_stmt 1
 113:rn4871.c      ****         dma_init_struct.number = LIO_BT_BUFFER_SIZE;
 451              		.loc 1 113 38 is_stmt 0
 452 0080 02C8     		sw	zero,16(sp)
 110:rn4871.c      ****         dma_init_struct.memory_addr = (uint32_t)rx_dma_buffer;
 453              		.loc 1 110 35
 454 0082 230F0100 		sb	zero,30(sp)
 119:rn4871.c      ****         /* configure DMA mode */
 455              		.loc 1 119 9 is_stmt 1
 456 0086 97000000 		call	dma_init
 456      E7800000 
 457              	.LVL42:
 121:rn4871.c      ****         /* enable DMA channel4 */
 458              		.loc 1 121 9
 459 008e 9145     		li	a1,4
 460 0090 37050240 		li	a0,1073872896
 461 0094 97000000 		call	dma_circulation_disable
 461      E7800000 
 462              	.LVL43:
 123:rn4871.c      ****         return i;
 463              		.loc 1 123 9
 464 009c 9145     		li	a1,4
 465 009e 37050240 		li	a0,1073872896
 466 00a2 97000000 		call	dma_channel_enable
 466      E7800000 
 467              	.LVL44:
GAS LISTING /var/folders/yy/83vjwp7d53j56dbzj8_jnpcr0000gn/T//cc8FPEFo.s 			page 13


 124:rn4871.c      ****     }
 468              		.loc 1 124 9
 469              	.L11:
 470              	.LBE14:
 127:rn4871.c      **** }
 471              		.loc 1 127 1 is_stmt 0
 472 00aa 2285     		mv	a0,s0
 473 00ac B250     		lw	ra,44(sp)
 474              		.cfi_restore 1
 475 00ae 2254     		lw	s0,40(sp)
 476              		.cfi_restore 8
 477 00b0 9254     		lw	s1,36(sp)
 478              		.cfi_restore 9
 479 00b2 4561     		addi	sp,sp,48
 480              	.LCFI8:
 481              		.cfi_def_cfa_offset 0
 482 00b4 8280     		jr	ra
 483              		.cfi_endproc
 484              	.LFE11:
 486              		.section	.text.lio_send_bt,"ax",@progbits
 487              		.align	1
 488              		.globl	lio_send_bt
 490              	lio_send_bt:
 491              	.LFB12:
 128:rn4871.c      **** 
 129:rn4871.c      **** size_t lio_send_bt(char* message, uint32_t size){
 492              		.loc 1 129 49 is_stmt 1
 493              		.cfi_startproc
 494              	.LVL45:
 130:rn4871.c      ****     for(int i = 0; i < size && i < LIO_BT_BUFFER_SIZE; i++) {
 495              		.loc 1 130 5
 496              	.LBB15:
 497              		.loc 1 130 9
 498              	.LBE15:
 129:rn4871.c      ****     for(int i = 0; i < size && i < LIO_BT_BUFFER_SIZE; i++) {
 499              		.loc 1 129 49 is_stmt 0
 500 0000 7971     		addi	sp,sp,-48
 501              	.LCFI9:
 502              		.cfi_def_cfa_offset 48
 503 0002 22D4     		sw	s0,40(sp)
 504              		.cfi_offset 8, -8
 505 0004 37040000 		lui	s0,%hi(.LANCHOR1)
 506 0008 26D2     		sw	s1,36(sp)
 507 000a 06D6     		sw	ra,44(sp)
 508              		.cfi_offset 9, -12
 509              		.cfi_offset 1, -4
 129:rn4871.c      ****     for(int i = 0; i < size && i < LIO_BT_BUFFER_SIZE; i++) {
 510              		.loc 1 129 49
 511 000c AE84     		mv	s1,a1
 512              	.LBB16:
 513              		.loc 1 130 13
 514 000e 8147     		li	a5,0
 515 0010 13040400 		addi	s0,s0,%lo(.LANCHOR1)
 516              		.loc 1 130 29
 517 0014 13070040 		li	a4,1024
 518              	.LVL46:
 519              	.L22:
GAS LISTING /var/folders/yy/83vjwp7d53j56dbzj8_jnpcr0000gn/T//cc8FPEFo.s 			page 14


 520              		.loc 1 130 5 discriminator 1
 521 0018 63849700 		beq	a5,s1,.L23
 522              		.loc 1 130 29 discriminator 3
 523 001c 6396E706 		bne	a5,a4,.L24
 524              	.L23:
 525              	.LBE16:
 131:rn4871.c      ****         tx_dma_buffer[i] = message[i];
 132:rn4871.c      ****     }
 133:rn4871.c      **** 
 134:rn4871.c      ****     dma_parameter_struct dma_init_struct;
 526              		.loc 1 134 5 is_stmt 1
 135:rn4871.c      ****     dma_deinit(DMA0, DMA_CH3);
 527              		.loc 1 135 5
 528 0020 8D45     		li	a1,3
 529              	.LVL47:
 530 0022 37050240 		li	a0,1073872896
 531              	.LVL48:
 532 0026 97000000 		call	dma_deinit
 532      E7800000 
 533              	.LVL49:
 136:rn4871.c      ****     dma_init_struct.direction = DMA_MEMORY_TO_PERIPHERAL;
 534              		.loc 1 136 5
 137:rn4871.c      ****     dma_init_struct.memory_addr = (uint32_t)tx_dma_buffer;
 535              		.loc 1 137 5
 138:rn4871.c      ****     dma_init_struct.memory_inc = DMA_MEMORY_INCREASE_ENABLE;
 139:rn4871.c      ****     dma_init_struct.memory_width = DMA_MEMORY_WIDTH_8BIT;
 140:rn4871.c      ****     dma_init_struct.number = size;
 141:rn4871.c      ****     dma_init_struct.periph_addr = (uint32_t)&USART_DATA(USART0);
 536              		.loc 1 141 33 is_stmt 0
 537 002e B7470140 		li	a5,1073823744
 538 0032 93874780 		addi	a5,a5,-2044
 539 0036 3EC2     		sw	a5,4(sp)
 142:rn4871.c      ****     dma_init_struct.periph_inc = DMA_PERIPH_INCREASE_DISABLE;
 143:rn4871.c      ****     dma_init_struct.periph_width = DMA_PERIPHERAL_WIDTH_8BIT;
 144:rn4871.c      ****     dma_init_struct.priority = DMA_PRIORITY_ULTRA_HIGH;
 540              		.loc 1 144 30
 541 0038 8D67     		li	a5,12288
 542 003a 3ECC     		sw	a5,24(sp)
 142:rn4871.c      ****     dma_init_struct.periph_inc = DMA_PERIPH_INCREASE_DISABLE;
 543              		.loc 1 142 32
 544 003c 93070010 		li	a5,256
 145:rn4871.c      ****     dma_init(DMA0, DMA_CH3, &dma_init_struct);
 545              		.loc 1 145 5
 546 0040 5000     		addi	a2,sp,4
 142:rn4871.c      ****     dma_init_struct.periph_inc = DMA_PERIPH_INCREASE_DISABLE;
 547              		.loc 1 142 32
 548 0042 231EF100 		sh	a5,28(sp)
 549              		.loc 1 145 5
 550 0046 8D45     		li	a1,3
 136:rn4871.c      ****     dma_init_struct.memory_addr = (uint32_t)tx_dma_buffer;
 551              		.loc 1 136 31
 552 0048 8547     		li	a5,1
 553              		.loc 1 145 5
 554 004a 37050240 		li	a0,1073872896
 136:rn4871.c      ****     dma_init_struct.memory_addr = (uint32_t)tx_dma_buffer;
 555              		.loc 1 136 31
 556 004e 230FF100 		sb	a5,30(sp)
GAS LISTING /var/folders/yy/83vjwp7d53j56dbzj8_jnpcr0000gn/T//cc8FPEFo.s 			page 15


 137:rn4871.c      ****     dma_init_struct.memory_inc = DMA_MEMORY_INCREASE_ENABLE;
 557              		.loc 1 137 33
 558 0052 22C6     		sw	s0,12(sp)
 138:rn4871.c      ****     dma_init_struct.memory_width = DMA_MEMORY_WIDTH_8BIT;
 559              		.loc 1 138 5 is_stmt 1
 139:rn4871.c      ****     dma_init_struct.number = size;
 560              		.loc 1 139 5
 140:rn4871.c      ****     dma_init_struct.periph_addr = (uint32_t)&USART_DATA(USART0);
 561              		.loc 1 140 28 is_stmt 0
 562 0054 26CA     		sw	s1,20(sp)
 139:rn4871.c      ****     dma_init_struct.number = size;
 563              		.loc 1 139 34
 564 0056 02C8     		sw	zero,16(sp)
 140:rn4871.c      ****     dma_init_struct.periph_addr = (uint32_t)&USART_DATA(USART0);
 565              		.loc 1 140 5 is_stmt 1
 141:rn4871.c      ****     dma_init_struct.periph_inc = DMA_PERIPH_INCREASE_DISABLE;
 566              		.loc 1 141 5
 142:rn4871.c      ****     dma_init_struct.periph_width = DMA_PERIPHERAL_WIDTH_8BIT;
 567              		.loc 1 142 5
 143:rn4871.c      ****     dma_init_struct.priority = DMA_PRIORITY_ULTRA_HIGH;
 568              		.loc 1 143 5
 143:rn4871.c      ****     dma_init_struct.priority = DMA_PRIORITY_ULTRA_HIGH;
 569              		.loc 1 143 34 is_stmt 0
 570 0058 02C4     		sw	zero,8(sp)
 144:rn4871.c      ****     dma_init(DMA0, DMA_CH3, &dma_init_struct);
 571              		.loc 1 144 5 is_stmt 1
 572              		.loc 1 145 5
 573 005a 97000000 		call	dma_init
 573      E7800000 
 574              	.LVL50:
 146:rn4871.c      ****     /* configure DMA mode */
 147:rn4871.c      ****     dma_circulation_disable(DMA0, DMA_CH3);
 575              		.loc 1 147 5
 576 0062 8D45     		li	a1,3
 577 0064 37050240 		li	a0,1073872896
 578 0068 97000000 		call	dma_circulation_disable
 578      E7800000 
 579              	.LVL51:
 148:rn4871.c      ****     /* enable DMA channel3 */
 149:rn4871.c      ****     dma_channel_enable(DMA0, DMA_CH3);
 580              		.loc 1 149 5
 581 0070 37050240 		li	a0,1073872896
 582 0074 8D45     		li	a1,3
 583 0076 97000000 		call	dma_channel_enable
 583      E7800000 
 584              	.LVL52:
 150:rn4871.c      **** }
 585              		.loc 1 150 1 is_stmt 0
 586 007e B250     		lw	ra,44(sp)
 587              		.cfi_remember_state
 588              		.cfi_restore 1
 589 0080 2254     		lw	s0,40(sp)
 590              		.cfi_restore 8
 591 0082 9254     		lw	s1,36(sp)
 592              		.cfi_restore 9
 593              	.LVL53:
 594 0084 4561     		addi	sp,sp,48
GAS LISTING /var/folders/yy/83vjwp7d53j56dbzj8_jnpcr0000gn/T//cc8FPEFo.s 			page 16


 595              	.LCFI10:
 596              		.cfi_def_cfa_offset 0
 597 0086 8280     		jr	ra
 598              	.LVL54:
 599              	.L24:
 600              	.LCFI11:
 601              		.cfi_restore_state
 602              	.LBB17:
 131:rn4871.c      ****     }
 603              		.loc 1 131 9 is_stmt 1 discriminator 4
 131:rn4871.c      ****     }
 604              		.loc 1 131 35 is_stmt 0 discriminator 4
 605 0088 B306F500 		add	a3,a0,a5
 606 008c 03C60600 		lbu	a2,0(a3)
 131:rn4871.c      ****     }
 607              		.loc 1 131 26 discriminator 4
 608 0090 B306F400 		add	a3,s0,a5
 130:rn4871.c      ****         tx_dma_buffer[i] = message[i];
 609              		.loc 1 130 57 discriminator 4
 610 0094 8507     		addi	a5,a5,1
 611              	.LVL55:
 131:rn4871.c      ****     }
 612              		.loc 1 131 26 discriminator 4
 613 0096 2380C600 		sb	a2,0(a3)
 614 009a BDBF     		j	.L22
 615              	.LBE17:
 616              		.cfi_endproc
 617              	.LFE12:
 619              		.section	.text.fuseStrings,"ax",@progbits
 620              		.align	1
 622              	fuseStrings:
 623              	.LFB13:
 151:rn4871.c      **** 
 152:rn4871.c      **** static int fuseStrings(char *str1, const char *str2) {
 624              		.loc 1 152 54 is_stmt 1
 625              		.cfi_startproc
 626              	.LVL56:
 153:rn4871.c      ****     char *start = str1;  // Save the starting position of str1
 627              		.loc 1 153 5
 154:rn4871.c      **** 
 155:rn4871.c      ****     // Find the end of the first string
 156:rn4871.c      ****     while (*str1 != '\0') {
 628              		.loc 1 156 5
 629              		.loc 1 156 11 is_stmt 0
 630 0000 AA87     		mv	a5,a0
 631              	.LVL57:
 632              	.L27:
 633 0002 03C70700 		lbu	a4,0(a5)
 634 0006 09EB     		bne	a4,zero,.L28
 635              	.L29:
 157:rn4871.c      ****         str1++;
 158:rn4871.c      ****     }
 159:rn4871.c      ****     // Copy characters from the second string to the end of the first string
 160:rn4871.c      ****     while (*str2 != '\0') {
 636              		.loc 1 160 12
 637 0008 03C70500 		lbu	a4,0(a1)
 638              		.loc 1 160 11
GAS LISTING /var/folders/yy/83vjwp7d53j56dbzj8_jnpcr0000gn/T//cc8FPEFo.s 			page 17


 639 000c 01EB     		bne	a4,zero,.L30
 161:rn4871.c      ****         *str1 = *str2;
 162:rn4871.c      ****         str1++;
 163:rn4871.c      ****         str2++;
 164:rn4871.c      ****     }
 165:rn4871.c      ****     // Add the null terminator to mark the end of the concatenated string
 166:rn4871.c      ****     *str1 = '\0';
 640              		.loc 1 166 5 is_stmt 1
 641              		.loc 1 166 11 is_stmt 0
 642 000e 23800700 		sb	zero,0(a5)
 167:rn4871.c      ****     // Calculate and return the length of the concatenated string
 168:rn4871.c      ****     return str1 - start;
 643              		.loc 1 168 5 is_stmt 1
 169:rn4871.c      **** }
 644              		.loc 1 169 1 is_stmt 0
 645 0012 3385A740 		sub	a0,a5,a0
 646              	.LVL58:
 647 0016 8280     		ret
 648              	.LVL59:
 649              	.L28:
 157:rn4871.c      ****     }
 650              		.loc 1 157 9 is_stmt 1
 157:rn4871.c      ****     }
 651              		.loc 1 157 13 is_stmt 0
 652 0018 8507     		addi	a5,a5,1
 653              	.LVL60:
 654 001a E5B7     		j	.L27
 655              	.L30:
 161:rn4871.c      ****         str1++;
 656              		.loc 1 161 9 is_stmt 1
 161:rn4871.c      ****         str1++;
 657              		.loc 1 161 15 is_stmt 0
 658 001c 2380E700 		sb	a4,0(a5)
 162:rn4871.c      ****         str2++;
 659              		.loc 1 162 9 is_stmt 1
 163:rn4871.c      ****     }
 660              		.loc 1 163 13 is_stmt 0
 661 0020 8505     		addi	a1,a1,1
 662              	.LVL61:
 162:rn4871.c      ****         str2++;
 663              		.loc 1 162 13
 664 0022 8507     		addi	a5,a5,1
 665              	.LVL62:
 163:rn4871.c      ****     }
 666              		.loc 1 163 9 is_stmt 1
 667 0024 D5B7     		j	.L29
 668              		.cfi_endproc
 669              	.LFE13:
 671              		.section	.text.init_bluetooth,"ax",@progbits
 672              		.align	1
 673              		.globl	init_bluetooth
 675              	init_bluetooth:
 676              	.LFB14:
 170:rn4871.c      **** 
 171:rn4871.c      **** void init_bluetooth(init_ble_struct init_struct){
 677              		.loc 1 171 49
 678              		.cfi_startproc
GAS LISTING /var/folders/yy/83vjwp7d53j56dbzj8_jnpcr0000gn/T//cc8FPEFo.s 			page 18


 172:rn4871.c      ****     UUID_parser(init_struct.service_uuid);
 679              		.loc 1 172 5
 680              	.LVL63:
 681              	.LBB18:
 682              	.LBB19:
  11:rn4871.c      ****         return; // Handle invalid input
 683              		.loc 1 11 5
 684              	.LBE19:
 685              	.LBE18:
 171:rn4871.c      ****     UUID_parser(init_struct.service_uuid);
 686              		.loc 1 171 49 is_stmt 0
 687 0000 7171     		addi	sp,sp,-176
 688              	.LCFI12:
 689              		.cfi_def_cfa_offset 176
 690 0002 4AD1     		sw	s2,160(sp)
 691              		.cfi_offset 18, -16
 692              	.LBB23:
 693              	.LBB20:
 694 0004 13095501 		addi	s2,a0,21
 695              	.LVL64:
 696              	.LBE20:
 697              	.LBE23:
 698 0008 22D5     		sw	s0,168(sp)
 699              		.cfi_offset 8, -8
 700 000a 2A84     		mv	s0,a0
 701              	.LBB24:
 702              	.LBB21:
 703 000c 4A85     		mv	a0,s2
 704              	.LBE21:
 705              	.LBE24:
 706 000e 06D7     		sw	ra,172(sp)
 707 0010 26D3     		sw	s1,164(sp)
 708 0012 4ECF     		sw	s3,156(sp)
 709 0014 52CD     		sw	s4,152(sp)
 710 0016 56CB     		sw	s5,148(sp)
 711 0018 5AC9     		sw	s6,144(sp)
 712 001a 5EC7     		sw	s7,140(sp)
 713 001c 62C5     		sw	s8,136(sp)
 714              		.cfi_offset 1, -4
 715              		.cfi_offset 9, -12
 716              		.cfi_offset 19, -20
 717              		.cfi_offset 20, -24
 718              		.cfi_offset 21, -28
 719              		.cfi_offset 22, -32
 720              		.cfi_offset 23, -36
 721              		.cfi_offset 24, -40
 722              	.LBB25:
 723              	.LBB26:
 724 001e 930B5405 		addi	s7,s0,85
 725              	.LBE26:
 726              	.LBE25:
 727 0022 66C3     		sw	s9,132(sp)
 728              		.cfi_offset 25, -44
 729              	.LBB28:
 730              	.LBB22:
 731 0024 97000000 		call	UUID_parser.part.0
 731      E7800000 
GAS LISTING /var/folders/yy/83vjwp7d53j56dbzj8_jnpcr0000gn/T//cc8FPEFo.s 			page 19


 732              	.LVL65:
 733              	.LBE22:
 734              	.LBE28:
 173:rn4871.c      ****     UUID_parser(init_struct.tx_characteristic_uuid);
 735              		.loc 1 173 5 is_stmt 1
 736              	.LBB29:
 737              	.LBB27:
  11:rn4871.c      ****         return; // Handle invalid input
 738              		.loc 1 11 5
 739 002c 5E85     		mv	a0,s7
 740 002e 97000000 		call	UUID_parser.part.0
 740      E7800000 
 741              	.LVL66:
 742              	.LBE27:
 743              	.LBE29:
 174:rn4871.c      ****     UUID_parser(init_struct.start_stop_characteristic_uuid);
 744              		.loc 1 174 5
 745              	.LBB30:
 746              	.LBB31:
  11:rn4871.c      ****         return; // Handle invalid input
 747              		.loc 1 11 5
 748 0036 130C5409 		addi	s8,s0,149
 749              	.LVL67:
 750 003a 6285     		mv	a0,s8
 751 003c 97000000 		call	UUID_parser.part.0
 751      E7800000 
 752              	.LVL68:
 753              	.LBE31:
 754              	.LBE30:
 175:rn4871.c      ****     UUID_parser(init_struct.value_service_data_UUID);
 755              		.loc 1 175 5
 756              	.LBB32:
 757              	.LBB33:
  11:rn4871.c      ****         return; // Handle invalid input
 758              		.loc 1 11 5
 759 0044 130A540D 		addi	s4,s0,213
 760              	.LVL69:
 761 0048 5285     		mv	a0,s4
 762 004a 97000000 		call	UUID_parser.part.0
 762      E7800000 
 763              	.LVL70:
 764              	.LBE33:
 765              	.LBE32:
 176:rn4871.c      ****     char flipped_uuid[64];
 766              		.loc 1 176 5
 177:rn4871.c      ****     UUID_Flipper(init_struct.service_uuid, flipped_uuid);
 767              		.loc 1 177 5
 768 0052 4A85     		mv	a0,s2
 769 0054 8A85     		mv	a1,sp
 770 0056 97000000 		call	UUID_Flipper
 770      E7800000 
 771              	.LVL71:
 178:rn4871.c      **** 
 179:rn4871.c      ****     char sendBuf[64] = {'\0'};
 772              		.loc 1 179 5
 773              		.loc 1 179 10 is_stmt 0
 774 005e 13060004 		li	a2,64
GAS LISTING /var/folders/yy/83vjwp7d53j56dbzj8_jnpcr0000gn/T//cc8FPEFo.s 			page 20


 775 0062 8145     		li	a1,0
 776 0064 8800     		addi	a0,sp,64
 777 0066 97000000 		call	memset
 777      E7800000 
 778              	.LVL72:
 180:rn4871.c      ****     int str_len = 0;
 779              		.loc 1 180 5 is_stmt 1
 181:rn4871.c      **** 
 182:rn4871.c      ****     enter_command_mode();
 780              		.loc 1 182 5
 781 006e 97000000 		call	enter_command_mode
 781      E7800000 
 782              	.LVL73:
 183:rn4871.c      ****     usb_delay_1ms(400);
 783              		.loc 1 183 5
 784 0076 13050019 		li	a0,400
 785 007a 97000000 		call	usb_delay_1ms
 785      E7800000 
 786              	.LVL74:
 184:rn4871.c      ****     printf("Starting init\r\n");
 787              		.loc 1 184 5
 788 0082 37050000 		lui	a0,%hi(.LANCHOR2)
 789 0086 13050500 		addi	a0,a0,%lo(.LANCHOR2)
 790 008a 97000000 		call	puts
 790      E7800000 
 791              	.LVL75:
 185:rn4871.c      ****     /************* Complete factory reset ****************/
 186:rn4871.c      ****     sendBuf[0] = '\0';
 792              		.loc 1 186 5
 187:rn4871.c      ****     strcpy(sendBuf, "SF,1\r");
 793              		.loc 1 187 5 is_stmt 0
 794 0092 B7050000 		lui	a1,%hi(.LC1)
 795 0096 93850500 		addi	a1,a1,%lo(.LC1)
 796 009a 8800     		addi	a0,sp,64
 186:rn4871.c      ****     strcpy(sendBuf, "SF,1\r");
 797              		.loc 1 186 16
 798 009c 23000104 		sb	zero,64(sp)
 799              		.loc 1 187 5 is_stmt 1
 800 00a0 97000000 		call	strcpy
 800      E7800000 
 801              	.LVL76:
 188:rn4871.c      **** 
 189:rn4871.c      ****     lio_send_bt(sendBuf, 5);
 802              		.loc 1 189 5
 803 00a8 9545     		li	a1,5
 804 00aa 8800     		addi	a0,sp,64
 805 00ac 97000000 		call	lio_send_bt
 805      E7800000 
 806              	.LVL77:
 190:rn4871.c      ****     usb_delay_1ms(1000);
 807              		.loc 1 190 5
 808 00b4 1305803E 		li	a0,1000
 809 00b8 97000000 		call	usb_delay_1ms
 809      E7800000 
 810              	.LVL78:
 191:rn4871.c      ****     /************* Complete factory reset ****************/
 192:rn4871.c      **** 
GAS LISTING /var/folders/yy/83vjwp7d53j56dbzj8_jnpcr0000gn/T//cc8FPEFo.s 			page 21


 193:rn4871.c      ****     enter_command_mode();
 811              		.loc 1 193 5
 812 00c0 97000000 		call	enter_command_mode
 812      E7800000 
 813              	.LVL79:
 194:rn4871.c      ****     usb_delay_1ms(400);
 814              		.loc 1 194 5
 815 00c8 13050019 		li	a0,400
 816 00cc 97000000 		call	usb_delay_1ms
 816      E7800000 
 817              	.LVL80:
 195:rn4871.c      **** 
 196:rn4871.c      ****     
 197:rn4871.c      **** 
 198:rn4871.c      **** 
 199:rn4871.c      **** 
 200:rn4871.c      ****     /************* Sets name ****************/
 201:rn4871.c      ****     sendBuf[0] = '\0';
 818              		.loc 1 201 5
 202:rn4871.c      ****     strcpy(sendBuf, "SN,");
 819              		.loc 1 202 5 is_stmt 0
 820 00d4 B7050000 		lui	a1,%hi(.LC2)
 821 00d8 93850500 		addi	a1,a1,%lo(.LC2)
 822 00dc 8800     		addi	a0,sp,64
 201:rn4871.c      ****     strcpy(sendBuf, "SN,");
 823              		.loc 1 201 16
 824 00de 23000104 		sb	zero,64(sp)
 825              		.loc 1 202 5 is_stmt 1
 826 00e2 97000000 		call	strcpy
 826      E7800000 
 827              	.LVL81:
 203:rn4871.c      ****     str_len = fuseStrings(sendBuf,init_struct.name);
 828              		.loc 1 203 5
 829              		.loc 1 203 15 is_stmt 0
 830 00ea A285     		mv	a1,s0
 831 00ec 8800     		addi	a0,sp,64
 832 00ee 97000000 		call	fuseStrings
 832      E7800000 
 833              	.LVL82:
 204:rn4871.c      ****     str_len = fuseStrings(sendBuf, "\r");
 834              		.loc 1 204 5 is_stmt 1
 835              		.loc 1 204 15 is_stmt 0
 836 00f6 B7040000 		lui	s1,%hi(.LC3)
 837 00fa 93850400 		addi	a1,s1,%lo(.LC3)
 838 00fe 8800     		addi	a0,sp,64
 839 0100 97000000 		call	fuseStrings
 839      E7800000 
 840              	.LVL83:
 205:rn4871.c      ****     lio_send_bt(sendBuf, str_len);
 841              		.loc 1 205 5 is_stmt 1
 842 0108 AA85     		mv	a1,a0
 843 010a 8800     		addi	a0,sp,64
 844              	.LVL84:
 845 010c 97000000 		call	lio_send_bt
 845      E7800000 
 846              	.LVL85:
 206:rn4871.c      ****     usb_delay_1ms(400);
GAS LISTING /var/folders/yy/83vjwp7d53j56dbzj8_jnpcr0000gn/T//cc8FPEFo.s 			page 22


 847              		.loc 1 206 5
 848 0114 13050019 		li	a0,400
 849 0118 97000000 		call	usb_delay_1ms
 849      E7800000 
 850              	.LVL86:
 207:rn4871.c      ****     /************* Sets name ****************/
 208:rn4871.c      ****     
 209:rn4871.c      ****     /************* Disable low power mode ****************/
 210:rn4871.c      ****     sendBuf[0] = '\0';
 851              		.loc 1 210 5
 211:rn4871.c      ****     strcpy(sendBuf, "S0,0\r");
 852              		.loc 1 211 5 is_stmt 0
 853 0120 B7050000 		lui	a1,%hi(.LC4)
 854 0124 93850500 		addi	a1,a1,%lo(.LC4)
 855 0128 8800     		addi	a0,sp,64
 210:rn4871.c      ****     strcpy(sendBuf, "S0,0\r");
 856              		.loc 1 210 16
 857 012a 23000104 		sb	zero,64(sp)
 858              		.loc 1 211 5 is_stmt 1
 859 012e 97000000 		call	strcpy
 859      E7800000 
 860              	.LVL87:
 212:rn4871.c      ****     lio_send_bt(sendBuf, 5);
 861              		.loc 1 212 5
 862 0136 9545     		li	a1,5
 863 0138 8800     		addi	a0,sp,64
 864 013a 97000000 		call	lio_send_bt
 864      E7800000 
 865              	.LVL88:
 213:rn4871.c      ****     usb_delay_1ms(400);
 866              		.loc 1 213 5
 867 0142 13050019 		li	a0,400
 868 0146 97000000 		call	usb_delay_1ms
 868      E7800000 
 869              	.LVL89:
 214:rn4871.c      ****     /************* Disable low power mode ****************/
 215:rn4871.c      **** 
 216:rn4871.c      **** 
 217:rn4871.c      ****     /************* Remove all Services and Characteristics ****************/
 218:rn4871.c      ****     sendBuf[0]= '\0';
 870              		.loc 1 218 5
 219:rn4871.c      ****     strcpy(sendBuf,"PZ\r");
 871              		.loc 1 219 5 is_stmt 0
 872 014e B7050000 		lui	a1,%hi(.LC5)
 873 0152 93850500 		addi	a1,a1,%lo(.LC5)
 874 0156 8800     		addi	a0,sp,64
 218:rn4871.c      ****     strcpy(sendBuf,"PZ\r");
 875              		.loc 1 218 15
 876 0158 23000104 		sb	zero,64(sp)
 877              		.loc 1 219 5 is_stmt 1
 878 015c 97000000 		call	strcpy
 878      E7800000 
 879              	.LVL90:
 220:rn4871.c      ****     lio_send_bt(sendBuf,3);
 880              		.loc 1 220 5
 881 0164 8D45     		li	a1,3
 882 0166 8800     		addi	a0,sp,64
GAS LISTING /var/folders/yy/83vjwp7d53j56dbzj8_jnpcr0000gn/T//cc8FPEFo.s 			page 23


 883 0168 97000000 		call	lio_send_bt
 883      E7800000 
 884              	.LVL91:
 221:rn4871.c      ****     usb_delay_1ms(400);
 885              		.loc 1 221 5
 886 0170 13050019 		li	a0,400
 887 0174 97000000 		call	usb_delay_1ms
 887      E7800000 
 888              	.LVL92:
 222:rn4871.c      ****     /************* Remove all Services and Characteristics ****************/    
 223:rn4871.c      **** 
 224:rn4871.c      ****     /************* Reboot ****************/
 225:rn4871.c      ****     sendBuf[0]= '\0';
 889              		.loc 1 225 5
 226:rn4871.c      ****     strcpy(sendBuf,"R,1\r");
 890              		.loc 1 226 5 is_stmt 0
 891 017c B70A0000 		lui	s5,%hi(.LC6)
 892 0180 93850A00 		addi	a1,s5,%lo(.LC6)
 893 0184 8800     		addi	a0,sp,64
 225:rn4871.c      ****     strcpy(sendBuf,"R,1\r");
 894              		.loc 1 225 15
 895 0186 23000104 		sb	zero,64(sp)
 896              		.loc 1 226 5 is_stmt 1
 897 018a 97000000 		call	strcpy
 897      E7800000 
 898              	.LVL93:
 227:rn4871.c      ****     lio_send_bt(sendBuf,4);
 899              		.loc 1 227 5
 900 0192 9145     		li	a1,4
 901 0194 8800     		addi	a0,sp,64
 902 0196 97000000 		call	lio_send_bt
 902      E7800000 
 903              	.LVL94:
 228:rn4871.c      ****     usb_delay_1ms(1000);
 904              		.loc 1 228 5
 905 019e 1305803E 		li	a0,1000
 906 01a2 97000000 		call	usb_delay_1ms
 906      E7800000 
 907              	.LVL95:
 229:rn4871.c      ****     /************* Reboot ****************/
 230:rn4871.c      **** 
 231:rn4871.c      ****     enter_command_mode();
 908              		.loc 1 231 5
 909 01aa 97000000 		call	enter_command_mode
 909      E7800000 
 910              	.LVL96:
 232:rn4871.c      ****     usb_delay_1ms(400);
 911              		.loc 1 232 5
 912 01b2 13050019 		li	a0,400
 913 01b6 97000000 		call	usb_delay_1ms
 913      E7800000 
 914              	.LVL97:
 233:rn4871.c      **** 
 234:rn4871.c      ****     /************* Create service ****************/
 235:rn4871.c      ****     sendBuf[0] = '\0';
 915              		.loc 1 235 5
 236:rn4871.c      ****     strcpy(sendBuf, "PS,");
GAS LISTING /var/folders/yy/83vjwp7d53j56dbzj8_jnpcr0000gn/T//cc8FPEFo.s 			page 24


 916              		.loc 1 236 5 is_stmt 0
 917 01be 370B0000 		lui	s6,%hi(.LC7)
 918 01c2 93050B00 		addi	a1,s6,%lo(.LC7)
 919 01c6 8800     		addi	a0,sp,64
 235:rn4871.c      ****     strcpy(sendBuf, "PS,");
 920              		.loc 1 235 16
 921 01c8 23000104 		sb	zero,64(sp)
 922              		.loc 1 236 5 is_stmt 1
 923 01cc 97000000 		call	strcpy
 923      E7800000 
 924              	.LVL98:
 237:rn4871.c      ****     str_len = fuseStrings(sendBuf, init_struct.service_uuid);
 925              		.loc 1 237 5
 926              		.loc 1 237 15 is_stmt 0
 927 01d4 CA85     		mv	a1,s2
 928 01d6 8800     		addi	a0,sp,64
 929 01d8 97000000 		call	fuseStrings
 929      E7800000 
 930              	.LVL99:
 238:rn4871.c      ****     str_len = fuseStrings(sendBuf, "\r");
 931              		.loc 1 238 5 is_stmt 1
 932              		.loc 1 238 15 is_stmt 0
 933 01e0 93850400 		addi	a1,s1,%lo(.LC3)
 934 01e4 8800     		addi	a0,sp,64
 935 01e6 97000000 		call	fuseStrings
 935      E7800000 
 936              	.LVL100:
 239:rn4871.c      ****     lio_send_bt(sendBuf, str_len);
 937              		.loc 1 239 5 is_stmt 1
 938 01ee AA85     		mv	a1,a0
 939 01f0 8800     		addi	a0,sp,64
 940              	.LVL101:
 941 01f2 97000000 		call	lio_send_bt
 941      E7800000 
 942              	.LVL102:
 240:rn4871.c      ****     usb_delay_1ms(400);
 943              		.loc 1 240 5
 944 01fa 13050019 		li	a0,400
 945 01fe 97000000 		call	usb_delay_1ms
 945      E7800000 
 946              	.LVL103:
 241:rn4871.c      ****     /************* Create service ****************/
 242:rn4871.c      **** 
 243:rn4871.c      ****     /************* Create characteristic  TX ****************/
 244:rn4871.c      ****     sendBuf[0] = '\0';
 947              		.loc 1 244 5
 245:rn4871.c      ****     strcpy(sendBuf, "PC,");
 948              		.loc 1 245 5 is_stmt 0
 949 0206 B7090000 		lui	s3,%hi(.LC8)
 950 020a 93850900 		addi	a1,s3,%lo(.LC8)
 951 020e 8800     		addi	a0,sp,64
 244:rn4871.c      ****     strcpy(sendBuf, "PC,");
 952              		.loc 1 244 16
 953 0210 23000104 		sb	zero,64(sp)
 954              		.loc 1 245 5 is_stmt 1
 955 0214 97000000 		call	strcpy
 955      E7800000 
GAS LISTING /var/folders/yy/83vjwp7d53j56dbzj8_jnpcr0000gn/T//cc8FPEFo.s 			page 25


 956              	.LVL104:
 246:rn4871.c      ****     str_len = fuseStrings(sendBuf, init_struct.tx_characteristic_uuid);
 957              		.loc 1 246 5
 958              		.loc 1 246 15 is_stmt 0
 959 021c DE85     		mv	a1,s7
 960 021e 8800     		addi	a0,sp,64
 247:rn4871.c      ****     str_len = fuseStrings(sendBuf, ",");
 961              		.loc 1 247 15
 962 0220 37090000 		lui	s2,%hi(.LC9)
 246:rn4871.c      ****     str_len = fuseStrings(sendBuf, init_struct.tx_characteristic_uuid);
 963              		.loc 1 246 15
 964 0224 97000000 		call	fuseStrings
 964      E7800000 
 965              	.LVL105:
 966              		.loc 1 247 5 is_stmt 1
 967              		.loc 1 247 15 is_stmt 0
 968 022c 93050900 		addi	a1,s2,%lo(.LC9)
 969 0230 8800     		addi	a0,sp,64
 970 0232 97000000 		call	fuseStrings
 970      E7800000 
 971              	.LVL106:
 248:rn4871.c      ****     str_len = fuseStrings(sendBuf, init_struct.tx_properties);
 972              		.loc 1 248 5 is_stmt 1
 973              		.loc 1 248 15 is_stmt 0
 974 023a 93055431 		addi	a1,s0,789
 975 023e 8800     		addi	a0,sp,64
 976 0240 97000000 		call	fuseStrings
 976      E7800000 
 977              	.LVL107:
 249:rn4871.c      ****     str_len = fuseStrings(sendBuf, ",");
 978              		.loc 1 249 5 is_stmt 1
 979              		.loc 1 249 15 is_stmt 0
 980 0248 93050900 		addi	a1,s2,%lo(.LC9)
 981 024c 8800     		addi	a0,sp,64
 982 024e 97000000 		call	fuseStrings
 982      E7800000 
 983              	.LVL108:
 250:rn4871.c      ****     str_len = fuseStrings(sendBuf, init_struct.message_size);
 984              		.loc 1 250 5 is_stmt 1
 985              		.loc 1 250 15 is_stmt 0
 986 0256 930B8432 		addi	s7,s0,808
 987 025a DE85     		mv	a1,s7
 988 025c 8800     		addi	a0,sp,64
 989 025e 97000000 		call	fuseStrings
 989      E7800000 
 990              	.LVL109:
 251:rn4871.c      ****     str_len = fuseStrings(sendBuf, "\r");
 991              		.loc 1 251 5 is_stmt 1
 992              		.loc 1 251 15 is_stmt 0
 993 0266 93850400 		addi	a1,s1,%lo(.LC3)
 994 026a 8800     		addi	a0,sp,64
 995 026c 97000000 		call	fuseStrings
 995      E7800000 
 996              	.LVL110:
 252:rn4871.c      ****     lio_send_bt(sendBuf, str_len);
 997              		.loc 1 252 5 is_stmt 1
 998 0274 AA85     		mv	a1,a0
GAS LISTING /var/folders/yy/83vjwp7d53j56dbzj8_jnpcr0000gn/T//cc8FPEFo.s 			page 26


 999 0276 8800     		addi	a0,sp,64
 1000              	.LVL111:
 1001 0278 97000000 		call	lio_send_bt
 1001      E7800000 
 1002              	.LVL112:
 253:rn4871.c      ****     usb_delay_1ms(400);
 1003              		.loc 1 253 5
 1004 0280 13050019 		li	a0,400
 1005 0284 97000000 		call	usb_delay_1ms
 1005      E7800000 
 1006              	.LVL113:
 254:rn4871.c      ****     /************* Create characteristic TX ****************/
 255:rn4871.c      **** 
 256:rn4871.c      ****     /************* Create characteristic START-STOP ****************/
 257:rn4871.c      ****     sendBuf[0]= '\0';
 1007              		.loc 1 257 5
 258:rn4871.c      ****     strcpy(sendBuf,"PC,");
 1008              		.loc 1 258 5 is_stmt 0
 1009 028c 93850900 		addi	a1,s3,%lo(.LC8)
 1010 0290 8800     		addi	a0,sp,64
 257:rn4871.c      ****     strcpy(sendBuf,"PC,");
 1011              		.loc 1 257 15
 1012 0292 23000104 		sb	zero,64(sp)
 1013              		.loc 1 258 5 is_stmt 1
 1014 0296 97000000 		call	strcpy
 1014      E7800000 
 1015              	.LVL114:
 259:rn4871.c      ****     str_len = fuseStrings(sendBuf, init_struct.start_stop_characteristic_uuid);
 1016              		.loc 1 259 5
 1017              		.loc 1 259 15 is_stmt 0
 1018 029e E285     		mv	a1,s8
 1019 02a0 8800     		addi	a0,sp,64
 1020 02a2 97000000 		call	fuseStrings
 1020      E7800000 
 1021              	.LVL115:
 260:rn4871.c      ****     str_len = fuseStrings(sendBuf, ",");
 1022              		.loc 1 260 5 is_stmt 1
 1023              		.loc 1 260 15 is_stmt 0
 1024 02aa 93050900 		addi	a1,s2,%lo(.LC9)
 1025 02ae 8800     		addi	a0,sp,64
 1026 02b0 97000000 		call	fuseStrings
 1026      E7800000 
 1027              	.LVL116:
 261:rn4871.c      ****     str_len = fuseStrings(sendBuf, init_struct.start_stop_properties);
 1028              		.loc 1 261 5 is_stmt 1
 1029              		.loc 1 261 15 is_stmt 0
 1030 02b8 9305A431 		addi	a1,s0,794
 1031 02bc 8800     		addi	a0,sp,64
 1032 02be 97000000 		call	fuseStrings
 1032      E7800000 
 1033              	.LVL117:
 262:rn4871.c      ****     str_len = fuseStrings(sendBuf, ",");
 1034              		.loc 1 262 5 is_stmt 1
 1035              		.loc 1 262 15 is_stmt 0
 1036 02c6 93050900 		addi	a1,s2,%lo(.LC9)
 1037 02ca 8800     		addi	a0,sp,64
 1038 02cc 97000000 		call	fuseStrings
GAS LISTING /var/folders/yy/83vjwp7d53j56dbzj8_jnpcr0000gn/T//cc8FPEFo.s 			page 27


 1038      E7800000 
 1039              	.LVL118:
 263:rn4871.c      ****     str_len = fuseStrings(sendBuf, init_struct.message_size);
 1040              		.loc 1 263 5 is_stmt 1
 1041              		.loc 1 263 15 is_stmt 0
 1042 02d4 DE85     		mv	a1,s7
 1043 02d6 8800     		addi	a0,sp,64
 1044 02d8 97000000 		call	fuseStrings
 1044      E7800000 
 1045              	.LVL119:
 264:rn4871.c      ****     str_len = fuseStrings(sendBuf, "\r");
 1046              		.loc 1 264 5 is_stmt 1
 1047              		.loc 1 264 15 is_stmt 0
 1048 02e0 93850400 		addi	a1,s1,%lo(.LC3)
 1049 02e4 8800     		addi	a0,sp,64
 1050 02e6 97000000 		call	fuseStrings
 1050      E7800000 
 1051              	.LVL120:
 265:rn4871.c      ****     lio_send_bt(sendBuf, str_len);
 1052              		.loc 1 265 5 is_stmt 1
 1053 02ee AA85     		mv	a1,a0
 1054 02f0 8800     		addi	a0,sp,64
 1055              	.LVL121:
 1056 02f2 97000000 		call	lio_send_bt
 1056      E7800000 
 1057              	.LVL122:
 266:rn4871.c      ****     usb_delay_1ms(400);
 1058              		.loc 1 266 5
 1059 02fa 13050019 		li	a0,400
 1060 02fe 97000000 		call	usb_delay_1ms
 1060      E7800000 
 1061              	.LVL123:
 267:rn4871.c      ****     /************* Create characteristic START-STOP ****************/
 268:rn4871.c      **** 
 269:rn4871.c      ****     /************* Create data service 1****************/
 270:rn4871.c      ****     sendBuf[0] = '\0';
 1062              		.loc 1 270 5
 271:rn4871.c      ****     strcpy(sendBuf, "PS,");
 1063              		.loc 1 271 5 is_stmt 0
 1064 0306 93050B00 		addi	a1,s6,%lo(.LC7)
 1065 030a 8800     		addi	a0,sp,64
 270:rn4871.c      ****     strcpy(sendBuf, "PS,");
 1066              		.loc 1 270 16
 1067 030c 23000104 		sb	zero,64(sp)
 1068              		.loc 1 271 5 is_stmt 1
 1069 0310 97000000 		call	strcpy
 1069      E7800000 
 1070              	.LVL124:
 272:rn4871.c      ****     str_len = fuseStrings(sendBuf, init_struct.value_service_data_UUID);
 1071              		.loc 1 272 5
 1072              		.loc 1 272 15 is_stmt 0
 1073 0318 D285     		mv	a1,s4
 1074 031a 8800     		addi	a0,sp,64
 1075 031c 97000000 		call	fuseStrings
 1075      E7800000 
 1076              	.LVL125:
 273:rn4871.c      ****     str_len = fuseStrings(sendBuf, "\r");
GAS LISTING /var/folders/yy/83vjwp7d53j56dbzj8_jnpcr0000gn/T//cc8FPEFo.s 			page 28


 1077              		.loc 1 273 5 is_stmt 1
 1078              		.loc 1 273 15 is_stmt 0
 1079 0324 93850400 		addi	a1,s1,%lo(.LC3)
 1080 0328 8800     		addi	a0,sp,64
 1081 032a 97000000 		call	fuseStrings
 1081      E7800000 
 1082              	.LVL126:
 274:rn4871.c      ****     lio_send_bt(sendBuf, str_len);
 1083              		.loc 1 274 5 is_stmt 1
 1084 0332 AA85     		mv	a1,a0
 1085 0334 8800     		addi	a0,sp,64
 1086              	.LVL127:
 1087 0336 97000000 		call	lio_send_bt
 1087      E7800000 
 1088              	.LVL128:
 275:rn4871.c      ****     usb_delay_1ms(400);
 1089              		.loc 1 275 5
 1090 033e 13050019 		li	a0,400
 1091 0342 97000000 		call	usb_delay_1ms
 1091      E7800000 
 1092              	.LVL129:
 276:rn4871.c      ****     /************* Create data service 1****************/
 277:rn4871.c      **** 
 278:rn4871.c      ****     /******************** Create caracteristic values ************************/
 279:rn4871.c      ****     for(int i = 0 ; i < init_struct.number_of_values; i++){
 1093              		.loc 1 279 5
 1094              	.LBB34:
 1095              		.loc 1 279 9
 1096 034a 568B     		mv	s6,s5
 1097 034c 2285     		mv	a0,s0
 1098              		.loc 1 279 13 is_stmt 0
 1099 034e 014A     		li	s4,0
 1100 0350 CE8A     		mv	s5,s3
 280:rn4871.c      ****         UUID_parser(init_struct.value_characteristic_uuid[i]);
 281:rn4871.c      ****         sendBuf[0]= '\0';
 282:rn4871.c      ****         strcpy(sendBuf,"PC,");
 283:rn4871.c      ****         str_len = fuseStrings(sendBuf, init_struct.value_characteristic_uuid[i]);
 284:rn4871.c      ****         str_len = fuseStrings(sendBuf, ",");
 285:rn4871.c      ****         str_len = fuseStrings(sendBuf, init_struct.value_properties);
 1101              		.loc 1 285 19
 1102 0352 930CF431 		addi	s9,s0,799
 1103              	.LVL130:
 1104              	.L32:
 279:rn4871.c      ****         UUID_parser(init_struct.value_characteristic_uuid[i]);
 1105              		.loc 1 279 5 discriminator 1
 1106 0356 83274432 		lw	a5,804(s0)
 1107 035a 130C0504 		addi	s8,a0,64
 1108 035e 6342FA14 		bgt	a5,s4,.L33
 1109              	.LBE34:
 286:rn4871.c      ****         str_len = fuseStrings(sendBuf, ",");
 287:rn4871.c      ****         str_len = fuseStrings(sendBuf, init_struct.message_size);
 288:rn4871.c      ****         str_len = fuseStrings(sendBuf, "\r");
 289:rn4871.c      ****         lio_send_bt(sendBuf, str_len);
 290:rn4871.c      ****         usb_delay_1ms(1000);
 291:rn4871.c      ****     }
 292:rn4871.c      ****     
 293:rn4871.c      ****     /******************** Create caracteristic values ************************/
GAS LISTING /var/folders/yy/83vjwp7d53j56dbzj8_jnpcr0000gn/T//cc8FPEFo.s 			page 29


 294:rn4871.c      **** 
 295:rn4871.c      ****     /************* Set Authentication ****************/
 296:rn4871.c      ****     sendBuf[0]= '\0';
 1110              		.loc 1 296 5 is_stmt 1
 297:rn4871.c      ****     strcpy(sendBuf,"SA,2\r");
 1111              		.loc 1 297 5 is_stmt 0
 1112 0362 B7050000 		lui	a1,%hi(.LC10)
 1113 0366 93850500 		addi	a1,a1,%lo(.LC10)
 1114 036a 8800     		addi	a0,sp,64
 296:rn4871.c      ****     strcpy(sendBuf,"SA,2\r");
 1115              		.loc 1 296 15
 1116 036c 23000104 		sb	zero,64(sp)
 1117              		.loc 1 297 5 is_stmt 1
 1118 0370 97000000 		call	strcpy
 1118      E7800000 
 1119              	.LVL131:
 298:rn4871.c      ****     lio_send_bt(sendBuf, 5);
 1120              		.loc 1 298 5
 1121 0378 9545     		li	a1,5
 1122 037a 8800     		addi	a0,sp,64
 1123 037c 97000000 		call	lio_send_bt
 1123      E7800000 
 1124              	.LVL132:
 299:rn4871.c      ****     usb_delay_1ms(400);
 1125              		.loc 1 299 5
 1126 0384 13050019 		li	a0,400
 1127 0388 97000000 		call	usb_delay_1ms
 1127      E7800000 
 1128              	.LVL133:
 300:rn4871.c      ****     /************* Set Authentication ****************/
 301:rn4871.c      **** 
 302:rn4871.c      ****     /************* Set pin ****************/
 303:rn4871.c      ****     sendBuf[0]= '\0';
 1129              		.loc 1 303 5
 304:rn4871.c      ****     strcpy(sendBuf,"SP,");
 1130              		.loc 1 304 5 is_stmt 0
 1131 0390 B7050000 		lui	a1,%hi(.LC11)
 1132 0394 93850500 		addi	a1,a1,%lo(.LC11)
 1133 0398 8800     		addi	a0,sp,64
 303:rn4871.c      ****     strcpy(sendBuf,"SP,");
 1134              		.loc 1 303 15
 1135 039a 23000104 		sb	zero,64(sp)
 1136              		.loc 1 304 5 is_stmt 1
 1137 039e 97000000 		call	strcpy
 1137      E7800000 
 1138              	.LVL134:
 305:rn4871.c      ****     str_len = fuseStrings(sendBuf, init_struct.pin_code);
 1139              		.loc 1 305 5
 1140              		.loc 1 305 15 is_stmt 0
 1141 03a6 9305B432 		addi	a1,s0,811
 1142 03aa 8800     		addi	a0,sp,64
 1143 03ac 97000000 		call	fuseStrings
 1143      E7800000 
 1144              	.LVL135:
 306:rn4871.c      ****     str_len = fuseStrings(sendBuf, "\r");
 1145              		.loc 1 306 5 is_stmt 1
 1146              		.loc 1 306 15 is_stmt 0
GAS LISTING /var/folders/yy/83vjwp7d53j56dbzj8_jnpcr0000gn/T//cc8FPEFo.s 			page 30


 1147 03b4 93850400 		addi	a1,s1,%lo(.LC3)
 1148 03b8 8800     		addi	a0,sp,64
 1149 03ba 97000000 		call	fuseStrings
 1149      E7800000 
 1150              	.LVL136:
 307:rn4871.c      ****     lio_send_bt(sendBuf, str_len);
 1151              		.loc 1 307 5 is_stmt 1
 1152 03c2 AA85     		mv	a1,a0
 1153 03c4 8800     		addi	a0,sp,64
 1154              	.LVL137:
 1155 03c6 97000000 		call	lio_send_bt
 1155      E7800000 
 1156              	.LVL138:
 308:rn4871.c      ****     usb_delay_1ms(400);
 1157              		.loc 1 308 5
 1158 03ce 13050019 		li	a0,400
 1159 03d2 97000000 		call	usb_delay_1ms
 1159      E7800000 
 1160              	.LVL139:
 309:rn4871.c      ****     /************* Set pin ****************/
 310:rn4871.c      **** 
 311:rn4871.c      ****     /************* Clear Advertise ****************/
 312:rn4871.c      ****     sendBuf[0] = '\0';
 1161              		.loc 1 312 5
 313:rn4871.c      ****     strcpy(sendBuf, "IA,Z");
 1162              		.loc 1 313 5 is_stmt 0
 1163 03da B7050000 		lui	a1,%hi(.LC12)
 1164 03de 93850500 		addi	a1,a1,%lo(.LC12)
 1165 03e2 8800     		addi	a0,sp,64
 312:rn4871.c      ****     strcpy(sendBuf, "IA,Z");
 1166              		.loc 1 312 16
 1167 03e4 23000104 		sb	zero,64(sp)
 1168              		.loc 1 313 5 is_stmt 1
 1169 03e8 97000000 		call	strcpy
 1169      E7800000 
 1170              	.LVL140:
 314:rn4871.c      ****     str_len = fuseStrings(sendBuf, "\r");
 1171              		.loc 1 314 5
 1172              		.loc 1 314 15 is_stmt 0
 1173 03f0 93850400 		addi	a1,s1,%lo(.LC3)
 1174 03f4 8800     		addi	a0,sp,64
 1175 03f6 97000000 		call	fuseStrings
 1175      E7800000 
 1176              	.LVL141:
 315:rn4871.c      ****     lio_send_bt(sendBuf, str_len);
 1177              		.loc 1 315 5 is_stmt 1
 1178 03fe AA85     		mv	a1,a0
 1179 0400 8800     		addi	a0,sp,64
 1180              	.LVL142:
 1181 0402 97000000 		call	lio_send_bt
 1181      E7800000 
 1182              	.LVL143:
 316:rn4871.c      ****     usb_delay_1ms(400);
 1183              		.loc 1 316 5
 1184 040a 13050019 		li	a0,400
 1185 040e 97000000 		call	usb_delay_1ms
 1185      E7800000 
GAS LISTING /var/folders/yy/83vjwp7d53j56dbzj8_jnpcr0000gn/T//cc8FPEFo.s 			page 31


 1186              	.LVL144:
 317:rn4871.c      ****     /************* Clear Advertise ****************/
 318:rn4871.c      **** 
 319:rn4871.c      ****     
 320:rn4871.c      ****     /************* Advertise UUID ****************/
 321:rn4871.c      ****     sendBuf[0] = '\0';
 1187              		.loc 1 321 5
 322:rn4871.c      ****     strcpy(sendBuf, "NA,07,");
 1188              		.loc 1 322 5 is_stmt 0
 1189 0416 B7050000 		lui	a1,%hi(.LC13)
 1190 041a 93850500 		addi	a1,a1,%lo(.LC13)
 1191 041e 8800     		addi	a0,sp,64
 321:rn4871.c      ****     strcpy(sendBuf, "NA,07,");
 1192              		.loc 1 321 16
 1193 0420 23000104 		sb	zero,64(sp)
 1194              		.loc 1 322 5 is_stmt 1
 1195 0424 97000000 		call	strcpy
 1195      E7800000 
 1196              	.LVL145:
 323:rn4871.c      ****     str_len = fuseStrings(sendBuf, flipped_uuid);
 1197              		.loc 1 323 5
 1198              		.loc 1 323 15 is_stmt 0
 1199 042c 8A85     		mv	a1,sp
 1200 042e 8800     		addi	a0,sp,64
 1201 0430 97000000 		call	fuseStrings
 1201      E7800000 
 1202              	.LVL146:
 324:rn4871.c      ****     str_len = fuseStrings(sendBuf, "\r");
 1203              		.loc 1 324 5 is_stmt 1
 1204              		.loc 1 324 15 is_stmt 0
 1205 0438 93850400 		addi	a1,s1,%lo(.LC3)
 1206 043c 8800     		addi	a0,sp,64
 1207 043e 97000000 		call	fuseStrings
 1207      E7800000 
 1208              	.LVL147:
 325:rn4871.c      ****     //printf("This is the flipped uuid cmd: %s\n", flipped_uuid);
 326:rn4871.c      ****     lio_send_bt(sendBuf, str_len);
 1209              		.loc 1 326 5 is_stmt 1
 1210 0446 AA85     		mv	a1,a0
 1211 0448 8800     		addi	a0,sp,64
 1212              	.LVL148:
 1213 044a 97000000 		call	lio_send_bt
 1213      E7800000 
 1214              	.LVL149:
 327:rn4871.c      ****     usb_delay_1ms(400);
 1215              		.loc 1 327 5
 1216 0452 13050019 		li	a0,400
 1217 0456 97000000 		call	usb_delay_1ms
 1217      E7800000 
 1218              	.LVL150:
 328:rn4871.c      ****     /************* Advertise UUID ****************/
 329:rn4871.c      **** 
 330:rn4871.c      ****     /************* Reboot ****************/
 331:rn4871.c      ****     sendBuf[0]= '\0';
 1219              		.loc 1 331 5
 332:rn4871.c      ****     strcpy(sendBuf,"R,1\r");
 1220              		.loc 1 332 5 is_stmt 0
GAS LISTING /var/folders/yy/83vjwp7d53j56dbzj8_jnpcr0000gn/T//cc8FPEFo.s 			page 32


 1221 045e 93050B00 		addi	a1,s6,%lo(.LC6)
 1222 0462 8800     		addi	a0,sp,64
 331:rn4871.c      ****     strcpy(sendBuf,"R,1\r");
 1223              		.loc 1 331 15
 1224 0464 23000104 		sb	zero,64(sp)
 1225              		.loc 1 332 5 is_stmt 1
 1226 0468 97000000 		call	strcpy
 1226      E7800000 
 1227              	.LVL151:
 333:rn4871.c      ****     lio_send_bt(sendBuf,4);
 1228              		.loc 1 333 5
 1229 0470 9145     		li	a1,4
 1230 0472 8800     		addi	a0,sp,64
 1231 0474 97000000 		call	lio_send_bt
 1231      E7800000 
 1232              	.LVL152:
 334:rn4871.c      ****     usb_delay_1ms(1000);
 1233              		.loc 1 334 5
 1234 047c 1305803E 		li	a0,1000
 1235 0480 97000000 		call	usb_delay_1ms
 1235      E7800000 
 1236              	.LVL153:
 335:rn4871.c      ****     /************* Reboot ****************/
 336:rn4871.c      ****     return;
 1237              		.loc 1 336 5
 337:rn4871.c      **** }
 1238              		.loc 1 337 1 is_stmt 0
 1239 0488 BA50     		lw	ra,172(sp)
 1240              		.cfi_remember_state
 1241              		.cfi_restore 1
 1242 048a 2A54     		lw	s0,168(sp)
 1243              		.cfi_restore 8
 1244 048c 9A54     		lw	s1,164(sp)
 1245              		.cfi_restore 9
 1246 048e 0A59     		lw	s2,160(sp)
 1247              		.cfi_restore 18
 1248 0490 FA49     		lw	s3,156(sp)
 1249              		.cfi_restore 19
 1250 0492 6A4A     		lw	s4,152(sp)
 1251              		.cfi_restore 20
 1252              	.LVL154:
 1253 0494 DA4A     		lw	s5,148(sp)
 1254              		.cfi_restore 21
 1255 0496 4A4B     		lw	s6,144(sp)
 1256              		.cfi_restore 22
 1257 0498 BA4B     		lw	s7,140(sp)
 1258              		.cfi_restore 23
 1259 049a 2A4C     		lw	s8,136(sp)
 1260              		.cfi_restore 24
 1261 049c 9A4C     		lw	s9,132(sp)
 1262              		.cfi_restore 25
 1263 049e 4D61     		addi	sp,sp,176
 1264              	.LCFI13:
 1265              		.cfi_def_cfa_offset 0
 1266 04a0 8280     		jr	ra
 1267              	.LVL155:
 1268              	.L33:
GAS LISTING /var/folders/yy/83vjwp7d53j56dbzj8_jnpcr0000gn/T//cc8FPEFo.s 			page 33


 1269              	.LCFI14:
 1270              		.cfi_restore_state
 1271              	.LBB35:
 280:rn4871.c      ****         sendBuf[0]= '\0';
 1272              		.loc 1 280 9 is_stmt 1 discriminator 3
 1273 04a2 93095511 		addi	s3,a0,277
 1274 04a6 4E85     		mv	a0,s3
 1275 04a8 97000000 		call	UUID_parser
 1275      E7800000 
 1276              	.LVL156:
 281:rn4871.c      ****         strcpy(sendBuf,"PC,");
 1277              		.loc 1 281 9 discriminator 3
 282:rn4871.c      ****         str_len = fuseStrings(sendBuf, init_struct.value_characteristic_uuid[i]);
 1278              		.loc 1 282 9 is_stmt 0 discriminator 3
 1279 04b0 93850A00 		addi	a1,s5,%lo(.LC8)
 1280 04b4 8800     		addi	a0,sp,64
 281:rn4871.c      ****         strcpy(sendBuf,"PC,");
 1281              		.loc 1 281 19 discriminator 3
 1282 04b6 23000104 		sb	zero,64(sp)
 282:rn4871.c      ****         str_len = fuseStrings(sendBuf, init_struct.value_characteristic_uuid[i]);
 1283              		.loc 1 282 9 is_stmt 1 discriminator 3
 1284 04ba 97000000 		call	strcpy
 1284      E7800000 
 1285              	.LVL157:
 283:rn4871.c      ****         str_len = fuseStrings(sendBuf, ",");
 1286              		.loc 1 283 9 discriminator 3
 283:rn4871.c      ****         str_len = fuseStrings(sendBuf, ",");
 1287              		.loc 1 283 19 is_stmt 0 discriminator 3
 1288 04c2 CE85     		mv	a1,s3
 1289 04c4 8800     		addi	a0,sp,64
 1290 04c6 97000000 		call	fuseStrings
 1290      E7800000 
 1291              	.LVL158:
 284:rn4871.c      ****         str_len = fuseStrings(sendBuf, init_struct.value_properties);
 1292              		.loc 1 284 9 is_stmt 1 discriminator 3
 284:rn4871.c      ****         str_len = fuseStrings(sendBuf, init_struct.value_properties);
 1293              		.loc 1 284 19 is_stmt 0 discriminator 3
 1294 04ce 93050900 		addi	a1,s2,%lo(.LC9)
 1295 04d2 8800     		addi	a0,sp,64
 1296 04d4 97000000 		call	fuseStrings
 1296      E7800000 
 1297              	.LVL159:
 285:rn4871.c      ****         str_len = fuseStrings(sendBuf, ",");
 1298              		.loc 1 285 9 is_stmt 1 discriminator 3
 285:rn4871.c      ****         str_len = fuseStrings(sendBuf, ",");
 1299              		.loc 1 285 19 is_stmt 0 discriminator 3
 1300 04dc E685     		mv	a1,s9
 1301 04de 8800     		addi	a0,sp,64
 1302 04e0 97000000 		call	fuseStrings
 1302      E7800000 
 1303              	.LVL160:
 286:rn4871.c      ****         str_len = fuseStrings(sendBuf, init_struct.message_size);
 1304              		.loc 1 286 9 is_stmt 1 discriminator 3
 286:rn4871.c      ****         str_len = fuseStrings(sendBuf, init_struct.message_size);
 1305              		.loc 1 286 19 is_stmt 0 discriminator 3
 1306 04e8 93050900 		addi	a1,s2,%lo(.LC9)
 1307 04ec 8800     		addi	a0,sp,64
GAS LISTING /var/folders/yy/83vjwp7d53j56dbzj8_jnpcr0000gn/T//cc8FPEFo.s 			page 34


 1308 04ee 97000000 		call	fuseStrings
 1308      E7800000 
 1309              	.LVL161:
 287:rn4871.c      ****         str_len = fuseStrings(sendBuf, "\r");
 1310              		.loc 1 287 9 is_stmt 1 discriminator 3
 287:rn4871.c      ****         str_len = fuseStrings(sendBuf, "\r");
 1311              		.loc 1 287 19 is_stmt 0 discriminator 3
 1312 04f6 DE85     		mv	a1,s7
 1313 04f8 8800     		addi	a0,sp,64
 1314 04fa 97000000 		call	fuseStrings
 1314      E7800000 
 1315              	.LVL162:
 288:rn4871.c      ****         lio_send_bt(sendBuf, str_len);
 1316              		.loc 1 288 9 is_stmt 1 discriminator 3
 288:rn4871.c      ****         lio_send_bt(sendBuf, str_len);
 1317              		.loc 1 288 19 is_stmt 0 discriminator 3
 1318 0502 93850400 		addi	a1,s1,%lo(.LC3)
 1319 0506 8800     		addi	a0,sp,64
 1320 0508 97000000 		call	fuseStrings
 1320      E7800000 
 1321              	.LVL163:
 289:rn4871.c      ****         usb_delay_1ms(1000);
 1322              		.loc 1 289 9 is_stmt 1 discriminator 3
 1323 0510 AA85     		mv	a1,a0
 1324 0512 8800     		addi	a0,sp,64
 1325              	.LVL164:
 1326 0514 97000000 		call	lio_send_bt
 1326      E7800000 
 1327              	.LVL165:
 290:rn4871.c      ****     }
 1328              		.loc 1 290 9 discriminator 3
 1329 051c 1305803E 		li	a0,1000
 1330 0520 97000000 		call	usb_delay_1ms
 1330      E7800000 
 1331              	.LVL166:
 279:rn4871.c      ****         UUID_parser(init_struct.value_characteristic_uuid[i]);
 1332              		.loc 1 279 56 is_stmt 0 discriminator 3
 1333 0528 050A     		addi	s4,s4,1
 1334              	.LVL167:
 1335 052a 6285     		mv	a0,s8
 1336 052c 2DB5     		j	.L32
 1337              	.LBE35:
 1338              		.cfi_endproc
 1339              	.LFE14:
 1341              		.section	.text.UUID_parser.part.0,"ax",@progbits
 1342              		.align	1
 1344              	UUID_parser.part.0:
 1345              	.LFB15:
  10:rn4871.c      ****     if (UUID == NULL) {
 1346              		.loc 1 10 13 is_stmt 1
 1347              		.cfi_startproc
 1348              	.LVL168:
  15:rn4871.c      ****     char *writePtr = UUID; // Write pointer
 1349              		.loc 1 15 11 is_stmt 0
 1350 0000 2A87     		mv	a4,a0
  19:rn4871.c      ****             *writePtr = *readPtr;
 1351              		.loc 1 19 12
GAS LISTING /var/folders/yy/83vjwp7d53j56dbzj8_jnpcr0000gn/T//cc8FPEFo.s 			page 35


 1352 0002 9306D002 		li	a3,45
 1353              	.LVL169:
 1354              	.L36:
  18:rn4871.c      ****         if (*readPtr != '-') {
 1355              		.loc 1 18 12
 1356 0006 83470700 		lbu	a5,0(a4)
  18:rn4871.c      ****         if (*readPtr != '-') {
 1357              		.loc 1 18 11
 1358 000a 81E7     		bne	a5,zero,.L38
  26:rn4871.c      **** }
 1359              		.loc 1 26 5 is_stmt 1
  26:rn4871.c      **** }
 1360              		.loc 1 26 15 is_stmt 0
 1361 000c 23000500 		sb	zero,0(a0)
  27:rn4871.c      **** 
 1362              		.loc 1 27 1
 1363 0010 8280     		ret
 1364              	.L38:
  19:rn4871.c      ****             *writePtr = *readPtr;
 1365              		.loc 1 19 9 is_stmt 1
  19:rn4871.c      ****             *writePtr = *readPtr;
 1366              		.loc 1 19 12 is_stmt 0
 1367 0012 6385D700 		beq	a5,a3,.L37
  20:rn4871.c      ****             writePtr++;
 1368              		.loc 1 20 13 is_stmt 1
  20:rn4871.c      ****             writePtr++;
 1369              		.loc 1 20 23 is_stmt 0
 1370 0016 2300F500 		sb	a5,0(a0)
  21:rn4871.c      ****         }
 1371              		.loc 1 21 13 is_stmt 1
  21:rn4871.c      ****         }
 1372              		.loc 1 21 21 is_stmt 0
 1373 001a 0505     		addi	a0,a0,1
 1374              	.LVL170:
 1375              	.L37:
  23:rn4871.c      ****     }
 1376              		.loc 1 23 9 is_stmt 1
  23:rn4871.c      ****     }
 1377              		.loc 1 23 16 is_stmt 0
 1378 001c 0507     		addi	a4,a4,1
 1379              	.LVL171:
 1380 001e E5B7     		j	.L36
 1381              		.cfi_endproc
 1382              	.LFE15:
 1384              		.section	.rodata
 1385              		.align	2
 1386              		.set	.LANCHOR2,. + 0
 1387              	.LC0:
 1388 0000 53746172 		.string	"Starting init\r"
 1388      74696E67 
 1388      20696E69 
 1388      740D00
 1389 000f 00       		.zero	1
 1390              	.LC1:
 1391 0010 53462C31 		.string	"SF,1\r"
 1391      0D00
 1392 0016 0000     		.zero	2
GAS LISTING /var/folders/yy/83vjwp7d53j56dbzj8_jnpcr0000gn/T//cc8FPEFo.s 			page 36


 1393              	.LC2:
 1394 0018 534E2C00 		.string	"SN,"
 1395              	.LC3:
 1396 001c 0D00     		.string	"\r"
 1397 001e 0000     		.zero	2
 1398              	.LC4:
 1399 0020 53302C30 		.string	"S0,0\r"
 1399      0D00
 1400 0026 0000     		.zero	2
 1401              	.LC5:
 1402 0028 505A0D00 		.string	"PZ\r"
 1403              	.LC6:
 1404 002c 522C310D 		.string	"R,1\r"
 1404      00
 1405 0031 000000   		.zero	3
 1406              	.LC7:
 1407 0034 50532C00 		.string	"PS,"
 1408              	.LC8:
 1409 0038 50432C00 		.string	"PC,"
 1410              	.LC9:
 1411 003c 2C00     		.string	","
 1412 003e 0000     		.zero	2
 1413              	.LC10:
 1414 0040 53412C32 		.string	"SA,2\r"
 1414      0D00
 1415 0046 0000     		.zero	2
 1416              	.LC11:
 1417 0048 53502C00 		.string	"SP,"
 1418              	.LC12:
 1419 004c 49412C5A 		.string	"IA,Z"
 1419      00
 1420 0051 000000   		.zero	3
 1421              	.LC13:
 1422 0054 4E412C30 		.string	"NA,07,"
 1422      372C00
 1423              		.section	.bss.rx_dma_buffer,"aw",@nobits
 1424              		.align	2
 1425              		.set	.LANCHOR0,. + 0
 1428              	rx_dma_buffer:
 1429 0000 00000000 		.zero	1024
 1429      00000000 
 1429      00000000 
 1429      00000000 
 1429      00000000 
 1430              		.section	.bss.tx_dma_buffer,"aw",@nobits
 1431              		.align	2
 1432              		.set	.LANCHOR1,. + 0
 1435              	tx_dma_buffer:
 1436 0000 00000000 		.zero	1024
 1436      00000000 
 1436      00000000 
 1436      00000000 
 1436      00000000 
 1437              		.text
 1438              	.Letext0:
 1439              		.file 2 "/Users/gulda/Documents/risc-v/toolchain-gd32v-v200-osx/compiler/riscv64-unknown-elf/inclu
 1440              		.file 3 "/Users/gulda/Documents/risc-v/toolchain-gd32v-v200-osx/compiler/riscv64-unknown-elf/inclu
GAS LISTING /var/folders/yy/83vjwp7d53j56dbzj8_jnpcr0000gn/T//cc8FPEFo.s 			page 37


 1441              		.file 4 "../../firmware/GD32VF103_standard_peripheral/Include/gd32vf103_dma.h"
 1442              		.file 5 "../../firmware/GD32VF103_standard_peripheral/Include/gd32vf103_rcu.h"
 1443              		.file 6 "/Users/gulda/Documents/risc-v/toolchain-gd32v-v200-osx/compiler/lib/gcc/riscv64-unknown-e
 1444              		.file 7 "lib/usbcdc/include/drv_usb_regs.h"
 1445              		.file 8 "../../firmware/GD32VF103_standard_peripheral/system_gd32vf103.h"
 1446              		.file 9 "lib/usbcdc/include/usb_ch9_std.h"
 1447              		.file 10 "lib/usbcdc/include/drv_usb_core.h"
 1448              		.file 11 "lib/usbcdc/include/drv_usb_dev.h"
 1449              		.file 12 "/Users/gulda/Documents/risc-v/toolchain-gd32v-v200-osx/compiler/riscv64-unknown-elf/incl
 1450              		.file 13 "/Users/gulda/Documents/risc-v/toolchain-gd32v-v200-osx/compiler/riscv64-unknown-elf/incl
 1451              		.file 14 "/Users/gulda/Documents/risc-v/toolchain-gd32v-v200-osx/compiler/riscv64-unknown-elf/incl
 1452              		.file 15 "lib/usbcdc/include/cdc_acm_core.h"
 1453              		.file 16 "/Users/gulda/Documents/risc-v/toolchain-gd32v-v200-osx/compiler/riscv64-unknown-elf/incl
 1454              		.file 17 "lib/usbcdc/include/usb_serial_if.h"
 1455              		.file 18 "rn4871.h"
 1456              		.file 19 "/Users/gulda/Documents/risc-v/toolchain-gd32v-v200-osx/compiler/riscv64-unknown-elf/incl
 1457              		.file 20 "lib/usbcdc/include/usb_delay.h"
 1458              		.file 21 "<built-in>"
 1459              		.file 22 "../../firmware/GD32VF103_standard_peripheral/Include/gd32vf103_gpio.h"
 1460              		.file 23 "../../firmware/GD32VF103_standard_peripheral/Include/gd32vf103_usart.h"
GAS LISTING /var/folders/yy/83vjwp7d53j56dbzj8_jnpcr0000gn/T//cc8FPEFo.s 			page 38

