GAS LISTING /var/folders/yy/83vjwp7d53j56dbzj8_jnpcr0000gn/T//ccF2XT73.s 			page 1


   1              		.file	"adc.c"
   2              		.option nopic
   3              		.attribute arch, "rv32i2p0_m2p0_a2p0_c2p0"
   4              		.attribute unaligned_access, 0
   5              		.attribute stack_align, 16
   6              		.text
   7              	.Ltext0:
   8              		.cfi_sections	.debug_frame
   9              		.section	.text.init_ADC_A0_A7,"ax",@progbits
  10              		.align	1
  11              		.globl	init_ADC_A0_A7
  13              	init_ADC_A0_A7:
  14              	.LFB2:
  15              		.file 1 "adc.c"
   1:adc.c         **** #include "adc.h"
   2:adc.c         **** #include "gd32vf103.h"
   3:adc.c         **** #include "systick.h"
   4:adc.c         **** 
   5:adc.c         **** void init_ADC_A0_A7(){
  16              		.loc 1 5 22
  17              		.cfi_startproc
   6:adc.c         ****     rcu_periph_clock_enable(RCU_ADC0);
  18              		.loc 1 6 5
   5:adc.c         ****     rcu_periph_clock_enable(RCU_ADC0);
  19              		.loc 1 5 22 is_stmt 0
  20 0000 4111     		addi	sp,sp,-16
  21              	.LCFI0:
  22              		.cfi_def_cfa_offset 16
  23              		.loc 1 6 5
  24 0002 13059060 		li	a0,1545
   5:adc.c         ****     rcu_periph_clock_enable(RCU_ADC0);
  25              		.loc 1 5 22
  26 0006 06C6     		sw	ra,12(sp)
  27 0008 22C4     		sw	s0,8(sp)
  28              		.cfi_offset 1, -4
  29              		.cfi_offset 8, -8
  30              		.loc 1 6 5
  31 000a 97000000 		call	rcu_periph_clock_enable
  31      E7800000 
  32              	.LVL0:
   7:adc.c         ****     /* enable GPIOA clock */
   8:adc.c         ****     rcu_periph_clock_enable(RCU_GPIOA);
  33              		.loc 1 8 5 is_stmt 1
  34 0012 13052060 		li	a0,1538
  35 0016 97000000 		call	rcu_periph_clock_enable
  35      E7800000 
  36              	.LVL1:
   9:adc.c         ****     /* Initialize the GPIO that will be used for ADC. A0-A7 and B0-B1 are connected to an ADC-chann
  10:adc.c         ****     gpio_init(GPIOA, GPIO_MODE_AIN, GPIO_OSPEED_50MHZ, GPIO_PIN_0|GPIO_PIN_1|GPIO_PIN_2|GPIO_PIN_3)
  37              		.loc 1 10 5
  38 001e 37140140 		li	s0,1073811456
  39 0022 13050480 		addi	a0,s0,-2048
  40 0026 BD46     		li	a3,15
  41 0028 0D46     		li	a2,3
  42 002a 8145     		li	a1,0
  43 002c 97000000 		call	gpio_init
  43      E7800000 
GAS LISTING /var/folders/yy/83vjwp7d53j56dbzj8_jnpcr0000gn/T//ccF2XT73.s 			page 2


  44              	.LVL2:
  11:adc.c         ****     gpio_init(GPIOA, GPIO_MODE_AIN, GPIO_OSPEED_50MHZ, GPIO_PIN_4|GPIO_PIN_5|GPIO_PIN_6|GPIO_PIN_7)
  45              		.loc 1 11 5
  46 0034 9306000F 		li	a3,240
  47 0038 0D46     		li	a2,3
  48 003a 8145     		li	a1,0
  49 003c 13050480 		addi	a0,s0,-2048
  50 0040 97000000 		call	gpio_init
  50      E7800000 
  51              	.LVL3:
  12:adc.c         ****     /* enable ADC clock */
  13:adc.c         ****     rcu_periph_clock_enable(RCU_ADC0);
  52              		.loc 1 13 5
  53 0048 13059060 		li	a0,1545
  54 004c 97000000 		call	rcu_periph_clock_enable
  54      E7800000 
  55              	.LVL4:
  14:adc.c         **** 
  15:adc.c         ****     /* Select the clock frequency that will be used for the ADC core. Refer to README for more info
  16:adc.c         ****     rcu_adc_clock_config(RCU_CKADC_CKAPB2_DIV8);
  56              		.loc 1 16 5
  57 0054 0D45     		li	a0,3
  17:adc.c         **** 
  18:adc.c         ****     /* Reset ADC1 configuration. GD32VF103 has two internal ADCs (ADC0, ADC1). */
  19:adc.c         ****     adc_deinit(ADC0);
  58              		.loc 1 19 5 is_stmt 0
  59 0056 37240140 		li	s0,1073815552
  16:adc.c         **** 
  60              		.loc 1 16 5
  61 005a 97000000 		call	rcu_adc_clock_config
  61      E7800000 
  62              	.LVL5:
  63              		.loc 1 19 5 is_stmt 1
  64 0062 13050440 		addi	a0,s0,1024
  65 0066 97000000 		call	adc_deinit
  65      E7800000 
  66              	.LVL6:
  20:adc.c         **** 
  21:adc.c         ****     /* Set the ADCs to work independently. Refer to the manual for the different parallel modes ava
  22:adc.c         ****     adc_mode_config(ADC_MODE_FREE);
  67              		.loc 1 22 5
  68 006e 0145     		li	a0,0
  69 0070 97000000 		call	adc_mode_config
  69      E7800000 
  70              	.LVL7:
  23:adc.c         **** 
  24:adc.c         ****     /* Set the conversion mode to continuous. Continious mode lets the ADC take measurements contin
  25:adc.c         ****        an external trigger. */
  26:adc.c         ****     /*  adc_special_function_config(0, ADC_CONTINUOUS_MODE, ENABLE);
  27:adc.c         ****         adc_special_function_config(0, ADC_SCAN_MODE, ENABLE); */
  28:adc.c         **** 
  29:adc.c         ****     /* Sets where padding is applied to the measurement. Data alignment right puts padding bits abo
  30:adc.c         ****     adc_data_alignment_config(ADC0, ADC_DATAALIGN_RIGHT);
  71              		.loc 1 30 5
  72 0078 13050440 		addi	a0,s0,1024
  73 007c 8145     		li	a1,0
  74 007e 97000000 		call	adc_data_alignment_config
GAS LISTING /var/folders/yy/83vjwp7d53j56dbzj8_jnpcr0000gn/T//ccF2XT73.s 			page 3


  74      E7800000 
  75              	.LVL8:
  31:adc.c         **** 
  32:adc.c         ****     /* Selects how many channels to convert each time. This can be used to "queue" multiple channel
  33:adc.c         ****     adc_channel_length_config(ADC0, ADC_REGULAR_CHANNEL, 8);
  76              		.loc 1 33 5
  77 0086 13050440 		addi	a0,s0,1024
  78 008a 2146     		li	a2,8
  79 008c 8545     		li	a1,1
  80 008e 97000000 		call	adc_channel_length_config
  80      E7800000 
  81              	.LVL9:
  34:adc.c         **** 
  35:adc.c         ****     /* Set the channel as the first "queued" conversion each time the ADC is activated. */
  36:adc.c         ****     adc_regular_channel_config(ADC0, 0, ADC_CHANNEL_0, ADC_SAMPLETIME_28POINT5);
  82              		.loc 1 36 5
  83 0096 13050440 		addi	a0,s0,1024
  84 009a 8D46     		li	a3,3
  85 009c 0146     		li	a2,0
  86 009e 8145     		li	a1,0
  87 00a0 97000000 		call	adc_regular_channel_config
  87      E7800000 
  88              	.LVL10:
  37:adc.c         ****     adc_regular_channel_config(ADC0, 1, ADC_CHANNEL_1, ADC_SAMPLETIME_28POINT5);
  89              		.loc 1 37 5
  90 00a8 13050440 		addi	a0,s0,1024
  91 00ac 8D46     		li	a3,3
  92 00ae 0546     		li	a2,1
  93 00b0 8545     		li	a1,1
  94 00b2 97000000 		call	adc_regular_channel_config
  94      E7800000 
  95              	.LVL11:
  38:adc.c         ****     adc_regular_channel_config(ADC0, 2, ADC_CHANNEL_2, ADC_SAMPLETIME_28POINT5);
  96              		.loc 1 38 5
  97 00ba 13050440 		addi	a0,s0,1024
  98 00be 8D46     		li	a3,3
  99 00c0 0946     		li	a2,2
 100 00c2 8945     		li	a1,2
 101 00c4 97000000 		call	adc_regular_channel_config
 101      E7800000 
 102              	.LVL12:
  39:adc.c         ****     adc_regular_channel_config(ADC0, 3, ADC_CHANNEL_3, ADC_SAMPLETIME_28POINT5);
 103              		.loc 1 39 5
 104 00cc 13050440 		addi	a0,s0,1024
 105 00d0 8D46     		li	a3,3
 106 00d2 0D46     		li	a2,3
 107 00d4 8D45     		li	a1,3
 108 00d6 97000000 		call	adc_regular_channel_config
 108      E7800000 
 109              	.LVL13:
  40:adc.c         ****     adc_regular_channel_config(ADC0, 4, ADC_CHANNEL_4, ADC_SAMPLETIME_28POINT5);
 110              		.loc 1 40 5
 111 00de 13050440 		addi	a0,s0,1024
 112 00e2 8D46     		li	a3,3
 113 00e4 1146     		li	a2,4
 114 00e6 9145     		li	a1,4
 115 00e8 97000000 		call	adc_regular_channel_config
GAS LISTING /var/folders/yy/83vjwp7d53j56dbzj8_jnpcr0000gn/T//ccF2XT73.s 			page 4


 115      E7800000 
 116              	.LVL14:
  41:adc.c         ****     adc_regular_channel_config(ADC0, 5, ADC_CHANNEL_5, ADC_SAMPLETIME_28POINT5);
 117              		.loc 1 41 5
 118 00f0 13050440 		addi	a0,s0,1024
 119 00f4 8D46     		li	a3,3
 120 00f6 1546     		li	a2,5
 121 00f8 9545     		li	a1,5
 122 00fa 97000000 		call	adc_regular_channel_config
 122      E7800000 
 123              	.LVL15:
  42:adc.c         ****     adc_regular_channel_config(ADC0, 6, ADC_CHANNEL_6, ADC_SAMPLETIME_28POINT5);
 124              		.loc 1 42 5
 125 0102 13050440 		addi	a0,s0,1024
 126 0106 8D46     		li	a3,3
 127 0108 1946     		li	a2,6
 128 010a 9945     		li	a1,6
 129 010c 97000000 		call	adc_regular_channel_config
 129      E7800000 
 130              	.LVL16:
  43:adc.c         ****     adc_regular_channel_config(ADC0, 7, ADC_CHANNEL_7, ADC_SAMPLETIME_28POINT5);
 131              		.loc 1 43 5
 132 0114 8D46     		li	a3,3
 133 0116 13050440 		addi	a0,s0,1024
 134 011a 1D46     		li	a2,7
 135 011c 9D45     		li	a1,7
 136 011e 97000000 		call	adc_regular_channel_config
 136      E7800000 
 137              	.LVL17:
  44:adc.c         **** 
  45:adc.c         ****     /* Since we are using continious conversion we do not want to use an external trigger. */
  46:adc.c         ****     adc_external_trigger_source_config(ADC0, ADC_REGULAR_CHANNEL, ADC0_1_EXTTRIG_REGULAR_NONE);
 138              		.loc 1 46 5
 139 0126 13050440 		addi	a0,s0,1024
 140 012a 37060E00 		li	a2,917504
 141 012e 8545     		li	a1,1
 142 0130 97000000 		call	adc_external_trigger_source_config
 142      E7800000 
 143              	.LVL18:
  47:adc.c         ****     adc_external_trigger_config(ADC0, ADC_REGULAR_CHANNEL, ENABLE);
 144              		.loc 1 47 5
 145 0138 13050440 		addi	a0,s0,1024
 146 013c 0546     		li	a2,1
 147 013e 8545     		li	a1,1
 148 0140 97000000 		call	adc_external_trigger_config
 148      E7800000 
 149              	.LVL19:
  48:adc.c         **** 
  49:adc.c         ****     adc_discontinuous_mode_config(ADC0,ADC_REGULAR_CHANNEL,8);
 150              		.loc 1 49 5
 151 0148 8545     		li	a1,1
 152 014a 2146     		li	a2,8
 153 014c 13050440 		addi	a0,s0,1024
 154 0150 97000000 		call	adc_discontinuous_mode_config
 154      E7800000 
 155              	.LVL20:
  50:adc.c         ****     /* Enable ADC.*/
GAS LISTING /var/folders/yy/83vjwp7d53j56dbzj8_jnpcr0000gn/T//ccF2XT73.s 			page 5


  51:adc.c         ****     adc_enable(ADC0);
 156              		.loc 1 51 5
 157 0158 13050440 		addi	a0,s0,1024
 158 015c 97000000 		call	adc_enable
 158      E7800000 
 159              	.LVL21:
  52:adc.c         **** 
  53:adc.c         ****     /* Let ADC stabilize */
  54:adc.c         ****     delay_1ms(1);
 160              		.loc 1 54 5
 161 0164 0545     		li	a0,1
 162 0166 97000000 		call	delay_1ms
 162      E7800000 
 163              	.LVL22:
  55:adc.c         **** 
  56:adc.c         ****     /* Calibrates the ADC against an internal source. */
  57:adc.c         ****     adc_calibration_enable(ADC0);
 164              		.loc 1 57 5
 165 016e 13050440 		addi	a0,s0,1024
 166 0172 97000000 		call	adc_calibration_enable
 166      E7800000 
 167              	.LVL23:
  58:adc.c         ****     adc_dma_mode_enable(ADC0);
 168              		.loc 1 58 5
 169 017a 13050440 		addi	a0,s0,1024
 170 017e 97000000 		call	adc_dma_mode_enable
 170      E7800000 
 171              	.LVL24:
  59:adc.c         **** 
  60:adc.c         ****     delay_1ms(1);
 172              		.loc 1 60 5
 173 0186 0545     		li	a0,1
 174 0188 97000000 		call	delay_1ms
 174      E7800000 
 175              	.LVL25:
  61:adc.c         **** 
  62:adc.c         ****     /* Start converting */
  63:adc.c         ****     adc_software_trigger_enable(ADC0, ADC_REGULAR_CHANNEL);
 176              		.loc 1 63 5
 177 0190 13050440 		addi	a0,s0,1024
  64:adc.c         **** }...
 178              		.loc 1 64 1 is_stmt 0
 179 0194 2244     		lw	s0,8(sp)
 180              		.cfi_restore 8
 181 0196 B240     		lw	ra,12(sp)
 182              		.cfi_restore 1
  63:adc.c         ****     adc_software_trigger_enable(ADC0, ADC_REGULAR_CHANNEL);
 183              		.loc 1 63 5
 184 0198 8545     		li	a1,1
 185              		.loc 1 64 1
 186 019a 4101     		addi	sp,sp,16
 187              	.LCFI1:
 188              		.cfi_def_cfa_offset 0
  63:adc.c         ****     adc_software_trigger_enable(ADC0, ADC_REGULAR_CHANNEL);
 189              		.loc 1 63 5
 190 019c 17030000 		tail	adc_software_trigger_enable
 190      67000300 
GAS LISTING /var/folders/yy/83vjwp7d53j56dbzj8_jnpcr0000gn/T//ccF2XT73.s 			page 6


 191              	.LVL26:
 192              		.cfi_endproc
 193              	.LFE2:
 195              		.text
 196              	.Letext0:
 197              		.file 2 "/Users/gulda/Documents/risc-v/toolchain-gd32v-v200-osx/compiler/riscv64-unknown-elf/inclu
 198              		.file 3 "/Users/gulda/Documents/risc-v/toolchain-gd32v-v200-osx/compiler/riscv64-unknown-elf/inclu
 199              		.file 4 "../../firmware/GD32VF103_standard_peripheral/gd32vf103.h"
 200              		.file 5 "../../firmware/GD32VF103_standard_peripheral/Include/gd32vf103_rcu.h"
 201              		.file 6 "../../firmware/GD32VF103_standard_peripheral/Include/gd32vf103_gpio.h"
 202              		.file 7 "../../firmware/GD32VF103_standard_peripheral/Include/gd32vf103_adc.h"
 203              		.file 8 "lib/systick/include/systick.h"
 204              		.file 9 "../../firmware/GD32VF103_standard_peripheral/system_gd32vf103.h"
GAS LISTING /var/folders/yy/83vjwp7d53j56dbzj8_jnpcr0000gn/T//ccF2XT73.s 			page 7

