GAS LISTING /var/folders/yy/83vjwp7d53j56dbzj8_jnpcr0000gn/T//ccTeD7v7.s 			page 1


   1              		.file	"dma.c"
   2              		.option nopic
   3              		.attribute arch, "rv32i2p0_m2p0_a2p0_c2p0"
   4              		.attribute unaligned_access, 0
   5              		.attribute stack_align, 16
   6              		.text
   7              	.Ltext0:
   8              		.cfi_sections	.debug_frame
   9              		.section	.text.timer_config,"ax",@progbits
  10              		.align	1
  11              		.globl	timer_config
  13              	timer_config:
  14              	.LFB2:
  15              		.file 1 "lib/dma/src/dma.c"
   1:lib/dma/src/dma.c **** #include "gd32vf103.h"
   2:lib/dma/src/dma.c **** #include "systick.h"
   3:lib/dma/src/dma.c **** #include "dma.h"
   4:lib/dma/src/dma.c **** 
   5:lib/dma/src/dma.c **** #define FILTERSIZE 100
   6:lib/dma/src/dma.c **** #define I2C0_DATA_ADDRESS 0x40005410
   7:lib/dma/src/dma.c **** 
   8:lib/dma/src/dma.c **** int timer_config(uint32_t sample_rate){
  16              		.loc 1 8 39
  17              		.cfi_startproc
  18              	.LVL0:
   9:lib/dma/src/dma.c **** 	// Max 2000hz 108
  10:lib/dma/src/dma.c ****     timer_oc_parameter_struct timer_ocintpara;
  19              		.loc 1 10 5
  11:lib/dma/src/dma.c ****     timer_parameter_struct timer_initpara;
  20              		.loc 1 11 5
  12:lib/dma/src/dma.c **** 
  13:lib/dma/src/dma.c ****     /* deinit a timer */
  14:lib/dma/src/dma.c ****     timer_deinit(TIMER1);
  21              		.loc 1 14 5
   8:lib/dma/src/dma.c **** 	// Max 2000hz 108
  22              		.loc 1 8 39 is_stmt 0
  23 0000 7971     		addi	sp,sp,-48
  24              	.LCFI0:
  25              		.cfi_def_cfa_offset 48
  26 0002 22D4     		sw	s0,40(sp)
  27              		.cfi_offset 8, -8
  28 0004 2A84     		mv	s0,a0
  29              		.loc 1 14 5
  30 0006 37050040 		li	a0,1073741824
  31              	.LVL1:
   8:lib/dma/src/dma.c **** 	// Max 2000hz 108
  32              		.loc 1 8 39
  33 000a 06D6     		sw	ra,44(sp)
  34              		.cfi_offset 1, -4
  35              		.loc 1 14 5
  36 000c 97000000 		call	timer_deinit
  36      E7800000 
  37              	.LVL2:
  15:lib/dma/src/dma.c ****     /* initialize TIMER init parameter struct */
  16:lib/dma/src/dma.c ****     timer_struct_para_init(&timer_initpara);
  38              		.loc 1 16 5 is_stmt 1
  39 0014 0808     		addi	a0,sp,16
GAS LISTING /var/folders/yy/83vjwp7d53j56dbzj8_jnpcr0000gn/T//ccTeD7v7.s 			page 2


  40 0016 97000000 		call	timer_struct_para_init
  40      E7800000 
  41              	.LVL3:
  17:lib/dma/src/dma.c ****     /* TIMER1 configuration */
  18:lib/dma/src/dma.c ****     timer_initpara.prescaler         = 5399; //  108 000 000
  42              		.loc 1 18 5
  19:lib/dma/src/dma.c ****     timer_initpara.alignedmode       = TIMER_COUNTER_EDGE;
  43              		.loc 1 19 5
  20:lib/dma/src/dma.c ****     timer_initpara.counterdirection  = TIMER_COUNTER_UP;
  44              		.loc 1 20 5
  18:lib/dma/src/dma.c ****     timer_initpara.alignedmode       = TIMER_COUNTER_EDGE;
  45              		.loc 1 18 38 is_stmt 0
  46 001e 8567     		li	a5,4096
  47 0020 93877751 		addi	a5,a5,1303
  21:lib/dma/src/dma.c ****     timer_initpara.period            = sample_rate - 1;
  22:lib/dma/src/dma.c ****     timer_initpara.clockdivision     = TIMER_CKDIV_DIV1;
  23:lib/dma/src/dma.c ****     timer_initpara.repetitioncounter = 0;
  24:lib/dma/src/dma.c ****     timer_init(TIMER1,&timer_initpara);
  48              		.loc 1 24 5
  49 0024 0C08     		addi	a1,sp,16
  21:lib/dma/src/dma.c ****     timer_initpara.period            = sample_rate - 1;
  50              		.loc 1 21 52
  51 0026 7D14     		addi	s0,s0,-1
  52              	.LVL4:
  53              		.loc 1 24 5
  54 0028 37050040 		li	a0,1073741824
  18:lib/dma/src/dma.c ****     timer_initpara.alignedmode       = TIMER_COUNTER_EDGE;
  55              		.loc 1 18 38
  56 002c 3EC8     		sw	a5,16(sp)
  21:lib/dma/src/dma.c ****     timer_initpara.period            = sample_rate - 1;
  57              		.loc 1 21 38
  58 002e 22CC     		sw	s0,24(sp)
  20:lib/dma/src/dma.c ****     timer_initpara.period            = sample_rate - 1;
  59              		.loc 1 20 38
  60 0030 231A0100 		sh	zero,20(sp)
  21:lib/dma/src/dma.c ****     timer_initpara.period            = sample_rate - 1;
  61              		.loc 1 21 5 is_stmt 1
  22:lib/dma/src/dma.c ****     timer_initpara.repetitioncounter = 0;
  62              		.loc 1 22 5
  22:lib/dma/src/dma.c ****     timer_initpara.repetitioncounter = 0;
  63              		.loc 1 22 38 is_stmt 0
  64 0034 231E0100 		sh	zero,28(sp)
  23:lib/dma/src/dma.c ****     timer_init(TIMER1,&timer_initpara);
  65              		.loc 1 23 5 is_stmt 1
  23:lib/dma/src/dma.c ****     timer_init(TIMER1,&timer_initpara);
  66              		.loc 1 23 38 is_stmt 0
  67 0038 230F0100 		sb	zero,30(sp)
  68              		.loc 1 24 5 is_stmt 1
  69 003c 97000000 		call	timer_init
  69      E7800000 
  70              	.LVL5:
  25:lib/dma/src/dma.c **** 
  26:lib/dma/src/dma.c ****     /* CH0 configuration in PWM mode1 */
  27:lib/dma/src/dma.c ****     timer_channel_output_struct_para_init(&timer_ocintpara);
  71              		.loc 1 27 5
  72 0044 4800     		addi	a0,sp,4
  73 0046 97000000 		call	timer_channel_output_struct_para_init
GAS LISTING /var/folders/yy/83vjwp7d53j56dbzj8_jnpcr0000gn/T//ccTeD7v7.s 			page 3


  73      E7800000 
  74              	.LVL6:
  28:lib/dma/src/dma.c ****     timer_ocintpara.ocpolarity  = TIMER_OC_POLARITY_HIGH;
  75              		.loc 1 28 5
  29:lib/dma/src/dma.c ****     timer_ocintpara.outputstate = TIMER_CCX_ENABLE;
  76              		.loc 1 29 33 is_stmt 0
  77 004e 8547     		li	a5,1
  30:lib/dma/src/dma.c ****     timer_channel_output_config(TIMER1, TIMER_CH_1, &timer_ocintpara);
  78              		.loc 1 30 5
  79 0050 5000     		addi	a2,sp,4
  80 0052 8545     		li	a1,1
  81 0054 37050040 		li	a0,1073741824
  29:lib/dma/src/dma.c ****     timer_ocintpara.outputstate = TIMER_CCX_ENABLE;
  82              		.loc 1 29 33
  83 0058 2312F100 		sh	a5,4(sp)
  28:lib/dma/src/dma.c ****     timer_ocintpara.ocpolarity  = TIMER_OC_POLARITY_HIGH;
  84              		.loc 1 28 33
  85 005c 23140100 		sh	zero,8(sp)
  29:lib/dma/src/dma.c ****     timer_ocintpara.outputstate = TIMER_CCX_ENABLE;
  86              		.loc 1 29 5 is_stmt 1
  87              		.loc 1 30 5
  88 0060 97000000 		call	timer_channel_output_config
  88      E7800000 
  89              	.LVL7:
  31:lib/dma/src/dma.c **** 
  32:lib/dma/src/dma.c ****     timer_channel_output_pulse_value_config(TIMER1, TIMER_CH_1, 1);
  90              		.loc 1 32 5
  91 0068 0546     		li	a2,1
  92 006a 8545     		li	a1,1
  93 006c 37050040 		li	a0,1073741824
  94 0070 97000000 		call	timer_channel_output_pulse_value_config
  94      E7800000 
  95              	.LVL8:
  33:lib/dma/src/dma.c ****     timer_channel_output_mode_config(TIMER1, TIMER_CH_1, TIMER_OC_MODE_PWM1);
  96              		.loc 1 33 5
  97 0078 13060007 		li	a2,112
  98 007c 8545     		li	a1,1
  99 007e 37050040 		li	a0,1073741824
 100 0082 97000000 		call	timer_channel_output_mode_config
 100      E7800000 
 101              	.LVL9:
  34:lib/dma/src/dma.c ****     timer_channel_output_shadow_config(TIMER1, TIMER_CH_1, TIMER_OC_SHADOW_DISABLE);
 102              		.loc 1 34 5
 103 008a 0146     		li	a2,0
 104 008c 8545     		li	a1,1
 105 008e 37050040 		li	a0,1073741824
 106 0092 97000000 		call	timer_channel_output_shadow_config
 106      E7800000 
 107              	.LVL10:
  35:lib/dma/src/dma.c **** 
  36:lib/dma/src/dma.c **** 	timer_auto_reload_shadow_enable(TIMER1);
 108              		.loc 1 36 2
 109 009a 37050040 		li	a0,1073741824
 110 009e 97000000 		call	timer_auto_reload_shadow_enable
 110      E7800000 
 111              	.LVL11:
  37:lib/dma/src/dma.c **** }
GAS LISTING /var/folders/yy/83vjwp7d53j56dbzj8_jnpcr0000gn/T//ccTeD7v7.s 			page 4


 112              		.loc 1 37 1 is_stmt 0
 113 00a6 B250     		lw	ra,44(sp)
 114              		.cfi_restore 1
 115 00a8 2254     		lw	s0,40(sp)
 116              		.cfi_restore 8
 117              	.LVL12:
 118 00aa 4561     		addi	sp,sp,48
 119              	.LCFI1:
 120              		.cfi_def_cfa_offset 0
 121 00ac 8280     		jr	ra
 122              		.cfi_endproc
 123              	.LFE2:
 125              		.section	.text.dma_config,"ax",@progbits
 126              		.align	1
 127              		.globl	dma_config
 129              	dma_config:
 130              	.LFB3:
  38:lib/dma/src/dma.c **** 
  39:lib/dma/src/dma.c **** void dma_config(void){
 131              		.loc 1 39 22 is_stmt 1
 132              		.cfi_startproc
  40:lib/dma/src/dma.c ****     /* DMA_channel configuration */
  41:lib/dma/src/dma.c ****     /* initialize DMA mode */
  42:lib/dma/src/dma.c ****     dma_parameter_struct dma_init_struct;
 133              		.loc 1 42 5
  43:lib/dma/src/dma.c ****     dma_deinit(DMA0, DMA_CH6);
 134              		.loc 1 43 5
  39:lib/dma/src/dma.c ****     /* DMA_channel configuration */
 135              		.loc 1 39 22 is_stmt 0
 136 0000 7971     		addi	sp,sp,-48
 137              	.LCFI2:
 138              		.cfi_def_cfa_offset 48
 139              		.loc 1 43 5
 140 0002 9945     		li	a1,6
 141 0004 37050240 		li	a0,1073872896
  39:lib/dma/src/dma.c ****     /* DMA_channel configuration */
 142              		.loc 1 39 22
 143 0008 06D6     		sw	ra,44(sp)
 144              		.cfi_offset 1, -4
 145              		.loc 1 43 5
 146 000a 97000000 		call	dma_deinit
 146      E7800000 
 147              	.LVL13:
  44:lib/dma/src/dma.c ****     dma_init_struct.direction = DMA_PERIPHERAL_TO_MEMORY;
 148              		.loc 1 44 5 is_stmt 1
  45:lib/dma/src/dma.c ****     dma_init_struct.memory_addr = (uint32_t)&dataBuffer;
 149              		.loc 1 45 5
 150              		.loc 1 45 33 is_stmt 0
 151 0012 B7070000 		lui	a5,%hi(dataBuffer)
 152 0016 93870700 		addi	a5,a5,%lo(dataBuffer)
 153 001a 3EC6     		sw	a5,12(sp)
  46:lib/dma/src/dma.c ****     dma_init_struct.memory_inc = DMA_MEMORY_INCREASE_ENABLE;
 154              		.loc 1 46 5 is_stmt 1
  47:lib/dma/src/dma.c ****     dma_init_struct.memory_width = DMA_MEMORY_WIDTH_8BIT;
 155              		.loc 1 47 5
  48:lib/dma/src/dma.c ****     dma_init_struct.number = 14;  //fourteen memory adresses for all datapoints 0x3B-0x48
 156              		.loc 1 48 5
GAS LISTING /var/folders/yy/83vjwp7d53j56dbzj8_jnpcr0000gn/T//ccTeD7v7.s 			page 5


  49:lib/dma/src/dma.c ****     dma_init_struct.periph_addr = (uint32_t)I2C0_DATA_ADDRESS; //DMA0 adress
 157              		.loc 1 49 5
 158              		.loc 1 49 33 is_stmt 0
 159 001c B7570040 		li	a5,1073762304
 160 0020 93870741 		addi	a5,a5,1040
 161 0024 3EC2     		sw	a5,4(sp)
  50:lib/dma/src/dma.c ****     dma_init_struct.periph_inc = DMA_PERIPH_INCREASE_DISABLE;
 162              		.loc 1 50 5 is_stmt 1
  51:lib/dma/src/dma.c ****     dma_init_struct.periph_width = DMA_PERIPHERAL_WIDTH_8BIT;
 163              		.loc 1 51 5
  48:lib/dma/src/dma.c ****     dma_init_struct.periph_addr = (uint32_t)I2C0_DATA_ADDRESS; //DMA0 adress
 164              		.loc 1 48 28 is_stmt 0
 165 0026 B947     		li	a5,14
 166 0028 3ECA     		sw	a5,20(sp)
  52:lib/dma/src/dma.c ****     dma_init_struct.priority = DMA_PRIORITY_ULTRA_HIGH;
 167              		.loc 1 52 30
 168 002a 8D67     		li	a5,12288
  53:lib/dma/src/dma.c ****     dma_init(DMA0, DMA_CH6, &dma_init_struct);
 169              		.loc 1 53 5
 170 002c 5000     		addi	a2,sp,4
  52:lib/dma/src/dma.c ****     dma_init_struct.priority = DMA_PRIORITY_ULTRA_HIGH;
 171              		.loc 1 52 30
 172 002e 3ECC     		sw	a5,24(sp)
 173              		.loc 1 53 5
 174 0030 9945     		li	a1,6
  50:lib/dma/src/dma.c ****     dma_init_struct.periph_width = DMA_PERIPHERAL_WIDTH_8BIT;
 175              		.loc 1 50 32
 176 0032 93070010 		li	a5,256
 177              		.loc 1 53 5
 178 0036 37050240 		li	a0,1073872896
  50:lib/dma/src/dma.c ****     dma_init_struct.periph_width = DMA_PERIPHERAL_WIDTH_8BIT;
 179              		.loc 1 50 32
 180 003a 231EF100 		sh	a5,28(sp)
  51:lib/dma/src/dma.c ****     dma_init_struct.priority = DMA_PRIORITY_ULTRA_HIGH;
 181              		.loc 1 51 34
 182 003e 02C4     		sw	zero,8(sp)
  52:lib/dma/src/dma.c ****     dma_init(DMA0, DMA_CH6, &dma_init_struct);
 183              		.loc 1 52 5 is_stmt 1
  47:lib/dma/src/dma.c ****     dma_init_struct.number = 14;  //fourteen memory adresses for all datapoints 0x3B-0x48
 184              		.loc 1 47 34 is_stmt 0
 185 0040 02C8     		sw	zero,16(sp)
  44:lib/dma/src/dma.c ****     dma_init_struct.memory_addr = (uint32_t)&dataBuffer;
 186              		.loc 1 44 31
 187 0042 230F0100 		sb	zero,30(sp)
 188              		.loc 1 53 5 is_stmt 1
 189 0046 97000000 		call	dma_init
 189      E7800000 
 190              	.LVL14:
  54:lib/dma/src/dma.c ****     /* configure DMA mode */
  55:lib/dma/src/dma.c ****     dma_circulation_disable(DMA0, DMA_CH6);
 191              		.loc 1 55 5
 192 004e 9945     		li	a1,6
 193 0050 37050240 		li	a0,1073872896
 194 0054 97000000 		call	dma_circulation_disable
 194      E7800000 
 195              	.LVL15:
  56:lib/dma/src/dma.c **** 
GAS LISTING /var/folders/yy/83vjwp7d53j56dbzj8_jnpcr0000gn/T//ccTeD7v7.s 			page 6


  57:lib/dma/src/dma.c ****     dma_interrupt_enable(DMA0, DMA_CH6, DMA_FLAG_FTF);
 196              		.loc 1 57 5
 197 005c 0946     		li	a2,2
 198 005e 9945     		li	a1,6
 199 0060 37050240 		li	a0,1073872896
 200 0064 97000000 		call	dma_interrupt_enable
 200      E7800000 
 201              	.LVL16:
  58:lib/dma/src/dma.c ****     /* enable DMA channel5 */
  59:lib/dma/src/dma.c ****     dma_channel_enable(DMA0, DMA_CH6);
 202              		.loc 1 59 5
 203 006c 9945     		li	a1,6
 204 006e 37050240 		li	a0,1073872896
 205 0072 97000000 		call	dma_channel_enable
 205      E7800000 
 206              	.LVL17:
  60:lib/dma/src/dma.c **** }
 207              		.loc 1 60 1 is_stmt 0
 208 007a B250     		lw	ra,44(sp)
 209              		.cfi_restore 1
 210 007c 4561     		addi	sp,sp,48
 211              	.LCFI3:
 212              		.cfi_def_cfa_offset 0
 213 007e 8280     		jr	ra
 214              		.cfi_endproc
 215              	.LFE3:
 217              		.section	.text.config_clic_irqs,"ax",@progbits
 218              		.align	1
 219              		.globl	config_clic_irqs
 221              	config_clic_irqs:
 222              	.LFB4:
  61:lib/dma/src/dma.c **** 
  62:lib/dma/src/dma.c **** void config_clic_irqs (void){
 223              		.loc 1 62 29 is_stmt 1
 224              		.cfi_startproc
  63:lib/dma/src/dma.c **** 
  64:lib/dma/src/dma.c ****     eclic_global_interrupt_enable();
 225              		.loc 1 64 5
  62:lib/dma/src/dma.c **** 
 226              		.loc 1 62 29 is_stmt 0
 227 0000 4111     		addi	sp,sp,-16
 228              	.LCFI4:
 229              		.cfi_def_cfa_offset 16
 230 0002 06C6     		sw	ra,12(sp)
 231              		.cfi_offset 1, -4
 232              		.loc 1 64 5
 233 0004 97000000 		call	eclic_global_interrupt_enable
 233      E7800000 
 234              	.LVL18:
  65:lib/dma/src/dma.c ****     eclic_priority_group_set(ECLIC_PRIGROUP_LEVEL3_PRIO1);
 235              		.loc 1 65 5 is_stmt 1
 236 000c 0D45     		li	a0,3
 237 000e 97000000 		call	eclic_priority_group_set
 237      E7800000 
 238              	.LVL19:
  66:lib/dma/src/dma.c ****     eclic_irq_enable(DMA0_Channel6_IRQn, 1, 1);
 239              		.loc 1 66 5
GAS LISTING /var/folders/yy/83vjwp7d53j56dbzj8_jnpcr0000gn/T//ccTeD7v7.s 			page 7


  67:lib/dma/src/dma.c **** 
  68:lib/dma/src/dma.c **** }
 240              		.loc 1 68 1 is_stmt 0
 241 0016 B240     		lw	ra,12(sp)
 242              		.cfi_restore 1
  66:lib/dma/src/dma.c ****     eclic_irq_enable(DMA0_Channel6_IRQn, 1, 1);
 243              		.loc 1 66 5
 244 0018 0546     		li	a2,1
 245              		.loc 1 68 1
  66:lib/dma/src/dma.c ****     eclic_irq_enable(DMA0_Channel6_IRQn, 1, 1);
 246              		.loc 1 66 5
 247 001a 8545     		li	a1,1
 248 001c 13054002 		li	a0,36
 249              		.loc 1 68 1
 250 0020 4101     		addi	sp,sp,16
 251              	.LCFI5:
 252              		.cfi_def_cfa_offset 0
  66:lib/dma/src/dma.c ****     eclic_irq_enable(DMA0_Channel6_IRQn, 1, 1);
 253              		.loc 1 66 5
 254 0022 17030000 		tail	eclic_irq_enable
 254      67000300 
 255              	.LVL20:
 256              		.cfi_endproc
 257              	.LFE4:
 259              		.section	.text.DMA0_Channel6_IRQHandler,"ax",@progbits
 260              		.align	1
 261              		.globl	DMA0_Channel6_IRQHandler
 263              	DMA0_Channel6_IRQHandler:
 264              	.LFB5:
  69:lib/dma/src/dma.c **** 
  70:lib/dma/src/dma.c **** //uint8_t* pDataBuffer;
  71:lib/dma/src/dma.c **** 
  72:lib/dma/src/dma.c **** void DMA0_Channel6_IRQHandler(void){
 265              		.loc 1 72 36 is_stmt 1
 266              		.cfi_startproc
  73:lib/dma/src/dma.c ****     i2c_stop_on_bus(I2C0);
 267              		.loc 1 73 5
 268 0000 37550040 		li	a0,1073762304
  72:lib/dma/src/dma.c ****     i2c_stop_on_bus(I2C0);
 269              		.loc 1 72 36 is_stmt 0
 270 0004 4111     		addi	sp,sp,-16
 271              	.LCFI6:
 272              		.cfi_def_cfa_offset 16
 273              		.loc 1 73 5
 274 0006 13050540 		addi	a0,a0,1024
  72:lib/dma/src/dma.c ****     i2c_stop_on_bus(I2C0);
 275              		.loc 1 72 36
 276 000a 06C6     		sw	ra,12(sp)
 277              		.cfi_offset 1, -4
 278              		.loc 1 73 5
 279 000c 97000000 		call	i2c_stop_on_bus
 279      E7800000 
 280              	.LVL21:
  74:lib/dma/src/dma.c **** 
  75:lib/dma/src/dma.c **** 	if(dma_interrupt_flag_get(DMA0, DMA_CH6, DMA_INT_FLAG_FTF)){ 
 281              		.loc 1 75 2 is_stmt 1
 282              		.loc 1 75 5 is_stmt 0
GAS LISTING /var/folders/yy/83vjwp7d53j56dbzj8_jnpcr0000gn/T//ccTeD7v7.s 			page 8


 283 0014 0946     		li	a2,2
 284 0016 9945     		li	a1,6
 285 0018 37050240 		li	a0,1073872896
 286 001c 97000000 		call	dma_interrupt_flag_get
 286      E7800000 
 287              	.LVL22:
 288              		.loc 1 75 4
 289 0024 19C9     		beq	a0,zero,.L7
  76:lib/dma/src/dma.c **** 		dma_interrupt_flag_clear(DMA0, DMA_CH6, DMA_INT_FLAG_G);  
 290              		.loc 1 76 3 is_stmt 1
  77:lib/dma/src/dma.c ****     }
  78:lib/dma/src/dma.c **** 
  79:lib/dma/src/dma.c **** }
 291              		.loc 1 79 1 is_stmt 0
 292 0026 B240     		lw	ra,12(sp)
 293              		.cfi_remember_state
 294              		.cfi_restore 1
  76:lib/dma/src/dma.c **** 		dma_interrupt_flag_clear(DMA0, DMA_CH6, DMA_INT_FLAG_G);  
 295              		.loc 1 76 3
 296 0028 0546     		li	a2,1
 297              		.loc 1 79 1
  76:lib/dma/src/dma.c **** 		dma_interrupt_flag_clear(DMA0, DMA_CH6, DMA_INT_FLAG_G);  
 298              		.loc 1 76 3
 299 002a 9945     		li	a1,6
 300 002c 37050240 		li	a0,1073872896
 301              		.loc 1 79 1
 302 0030 4101     		addi	sp,sp,16
 303              	.LCFI7:
 304              		.cfi_def_cfa_offset 0
  76:lib/dma/src/dma.c **** 		dma_interrupt_flag_clear(DMA0, DMA_CH6, DMA_INT_FLAG_G);  
 305              		.loc 1 76 3
 306 0032 17030000 		tail	dma_interrupt_flag_clear
 306      67000300 
 307              	.LVL23:
 308              	.L7:
 309              	.LCFI8:
 310              		.cfi_restore_state
 311              		.loc 1 79 1
 312 003a B240     		lw	ra,12(sp)
 313              		.cfi_restore 1
 314 003c 4101     		addi	sp,sp,16
 315              	.LCFI9:
 316              		.cfi_def_cfa_offset 0
 317 003e 8280     		jr	ra
 318              		.cfi_endproc
 319              	.LFE5:
 321              		.comm	dataBuffer,22,4
 322              		.text
 323              	.Letext0:
 324              		.file 2 "/Users/gulda/Documents/risc-v/toolchain-gd32v-v200-osx/compiler/riscv64-unknown-elf/inclu
 325              		.file 3 "/Users/gulda/Documents/risc-v/toolchain-gd32v-v200-osx/compiler/riscv64-unknown-elf/inclu
 326              		.file 4 "../../firmware/GD32VF103_standard_peripheral/Include/gd32vf103_dma.h"
 327              		.file 5 "../../firmware/GD32VF103_standard_peripheral/Include/gd32vf103_timer.h"
 328              		.file 6 "lib/dma/include/dma.h"
 329              		.file 7 "../../firmware/GD32VF103_standard_peripheral/system_gd32vf103.h"
 330              		.file 8 "../../firmware/GD32VF103_standard_peripheral/Include/gd32vf103_i2c.h"
 331              		.file 9 "../../firmware/GD32VF103_standard_peripheral/Include/gd32vf103_eclic.h"
GAS LISTING /var/folders/yy/83vjwp7d53j56dbzj8_jnpcr0000gn/T//ccTeD7v7.s 			page 9


 332              		.file 10 "../../firmware/GD32VF103_standard_peripheral/gd32vf103.h"
GAS LISTING /var/folders/yy/83vjwp7d53j56dbzj8_jnpcr0000gn/T//ccTeD7v7.s 			page 10

