GAS LISTING /var/folders/yy/83vjwp7d53j56dbzj8_jnpcr0000gn/T//cc7XktwL.s 			page 1


   1              		.file	"usbd_core.c"
   2              		.option nopic
   3              		.attribute arch, "rv32i2p0_m2p0_a2p0_c2p0"
   4              		.attribute unaligned_access, 0
   5              		.attribute stack_align, 16
   6              		.text
   7              	.Ltext0:
   8              		.cfi_sections	.debug_frame
   9              		.section	.text.usbd_ep_setup,"ax",@progbits
  10              		.align	1
  11              		.globl	usbd_ep_setup
  13              	usbd_ep_setup:
  14              	.LFB4:
  15              		.file 1 "lib/usbcdc/src/usbd_core.c"
   1:lib/usbcdc/src/usbd_core.c **** /*!
   2:lib/usbcdc/src/usbd_core.c ****     \file  usbd_core.c
   3:lib/usbcdc/src/usbd_core.c ****     \brief USB device mode core functions
   4:lib/usbcdc/src/usbd_core.c **** 
   5:lib/usbcdc/src/usbd_core.c ****     \version 2019-6-5, V1.0.0, firmware for GD32 USBFS&USBHS
   6:lib/usbcdc/src/usbd_core.c **** */
   7:lib/usbcdc/src/usbd_core.c **** 
   8:lib/usbcdc/src/usbd_core.c **** /*
   9:lib/usbcdc/src/usbd_core.c ****     Copyright (c) 2019, GigaDevice Semiconductor Inc.
  10:lib/usbcdc/src/usbd_core.c **** 
  11:lib/usbcdc/src/usbd_core.c ****     Redistribution and use in source and binary forms, with or without modification, 
  12:lib/usbcdc/src/usbd_core.c **** are permitted provided that the following conditions are met:
  13:lib/usbcdc/src/usbd_core.c **** 
  14:lib/usbcdc/src/usbd_core.c ****     1. Redistributions of source code must retain the above copyright notice, this 
  15:lib/usbcdc/src/usbd_core.c ****        list of conditions and the following disclaimer.
  16:lib/usbcdc/src/usbd_core.c ****     2. Redistributions in binary form must reproduce the above copyright notice, 
  17:lib/usbcdc/src/usbd_core.c ****        this list of conditions and the following disclaimer in the documentation 
  18:lib/usbcdc/src/usbd_core.c ****        and/or other materials provided with the distribution.
  19:lib/usbcdc/src/usbd_core.c ****     3. Neither the name of the copyright holder nor the names of its contributors 
  20:lib/usbcdc/src/usbd_core.c ****        may be used to endorse or promote products derived from this software without 
  21:lib/usbcdc/src/usbd_core.c ****        specific prior written permission.
  22:lib/usbcdc/src/usbd_core.c **** 
  23:lib/usbcdc/src/usbd_core.c ****     THIS SOFTWARE IS PROVIDED BY THE COPYRIGHT HOLDERS AND CONTRIBUTORS "AS IS" 
  24:lib/usbcdc/src/usbd_core.c **** AND ANY EXPRESS OR IMPLIED WARRANTIES, INCLUDING, BUT NOT LIMITED TO, THE IMPLIED 
  25:lib/usbcdc/src/usbd_core.c **** WARRANTIES OF MERCHANTABILITY AND FITNESS FOR A PARTICULAR PURPOSE ARE DISCLAIMED. 
  26:lib/usbcdc/src/usbd_core.c **** IN NO EVENT SHALL THE COPYRIGHT HOLDER OR CONTRIBUTORS BE LIABLE FOR ANY DIRECT, 
  27:lib/usbcdc/src/usbd_core.c **** INDIRECT, INCIDENTAL, SPECIAL, EXEMPLARY, OR CONSEQUENTIAL DAMAGES (INCLUDING, BUT 
  28:lib/usbcdc/src/usbd_core.c **** NOT LIMITED TO, PROCUREMENT OF SUBSTITUTE GOODS OR SERVICES; LOSS OF USE, DATA, OR 
  29:lib/usbcdc/src/usbd_core.c **** PROFITS; OR BUSINESS INTERRUPTION) HOWEVER CAUSED AND ON ANY THEORY OF LIABILITY, 
  30:lib/usbcdc/src/usbd_core.c **** WHETHER IN CONTRACT, STRICT LIABILITY, OR TORT (INCLUDING NEGLIGENCE OR OTHERWISE) 
  31:lib/usbcdc/src/usbd_core.c **** ARISING IN ANY WAY OUT OF THE USE OF THIS SOFTWARE, EVEN IF ADVISED OF THE POSSIBILITY 
  32:lib/usbcdc/src/usbd_core.c **** OF SUCH DAMAGE.
  33:lib/usbcdc/src/usbd_core.c **** */
  34:lib/usbcdc/src/usbd_core.c **** 
  35:lib/usbcdc/src/usbd_core.c **** #include "usbd_core.h"
  36:lib/usbcdc/src/usbd_core.c **** #include "drv_usb_hw.h"
  37:lib/usbcdc/src/usbd_core.c **** 
  38:lib/usbcdc/src/usbd_core.c **** /* endpoint type */
  39:lib/usbcdc/src/usbd_core.c **** const uint32_t ep_type[] = {
  40:lib/usbcdc/src/usbd_core.c ****     [USB_EP_ATTR_CTL]  = USB_EPTYPE_CTRL,
  41:lib/usbcdc/src/usbd_core.c ****     [USB_EP_ATTR_BULK] = USB_EPTYPE_BULK,
  42:lib/usbcdc/src/usbd_core.c ****     [USB_EP_ATTR_INT]  = USB_EPTYPE_INTR,
  43:lib/usbcdc/src/usbd_core.c ****     [USB_EP_ATTR_ISO]  = USB_EPTYPE_ISOC
GAS LISTING /var/folders/yy/83vjwp7d53j56dbzj8_jnpcr0000gn/T//cc7XktwL.s 			page 2


  44:lib/usbcdc/src/usbd_core.c **** };
  45:lib/usbcdc/src/usbd_core.c **** 
  46:lib/usbcdc/src/usbd_core.c **** /*!
  47:lib/usbcdc/src/usbd_core.c ****     \brief      initailizes the USB device-mode stack and load the class driver
  48:lib/usbcdc/src/usbd_core.c ****     \param[in]  udev: pointer to USB core instance
  49:lib/usbcdc/src/usbd_core.c ****     \param[in]  core: usb core type
  50:lib/usbcdc/src/usbd_core.c ****     \param[in]  class_core: class driver
  51:lib/usbcdc/src/usbd_core.c ****     \param[out] none
  52:lib/usbcdc/src/usbd_core.c ****     \retval     none
  53:lib/usbcdc/src/usbd_core.c **** */
  54:lib/usbcdc/src/usbd_core.c **** void usbd_init (usb_core_driver *udev, usb_core_enum core, usb_class_core *class_core)
  55:lib/usbcdc/src/usbd_core.c **** {
  56:lib/usbcdc/src/usbd_core.c ****     /* device descriptor, class and user callbacks */
  57:lib/usbcdc/src/usbd_core.c ****     udev->dev.class_core = class_core;
  58:lib/usbcdc/src/usbd_core.c **** 
  59:lib/usbcdc/src/usbd_core.c ****     /* configure USB capabilites */
  60:lib/usbcdc/src/usbd_core.c ****     usb_basic_init (&udev->bp, &udev->regs, core);
  61:lib/usbcdc/src/usbd_core.c **** 
  62:lib/usbcdc/src/usbd_core.c ****     /* initailizes the USB core*/
  63:lib/usbcdc/src/usbd_core.c ****     usb_core_init (udev->bp, &udev->regs);
  64:lib/usbcdc/src/usbd_core.c **** 
  65:lib/usbcdc/src/usbd_core.c ****     /* set device disconnect */
  66:lib/usbcdc/src/usbd_core.c ****     usbd_disconnect (udev);
  67:lib/usbcdc/src/usbd_core.c **** 
  68:lib/usbcdc/src/usbd_core.c ****     /* initailizes device mode */
  69:lib/usbcdc/src/usbd_core.c ****     usb_devcore_init (udev);
  70:lib/usbcdc/src/usbd_core.c **** 
  71:lib/usbcdc/src/usbd_core.c ****     /* set device connect */
  72:lib/usbcdc/src/usbd_core.c ****     usbd_connect (udev);
  73:lib/usbcdc/src/usbd_core.c ****     
  74:lib/usbcdc/src/usbd_core.c ****     udev->dev.cur_status = USBD_DEFAULT;
  75:lib/usbcdc/src/usbd_core.c **** }
  76:lib/usbcdc/src/usbd_core.c **** 
  77:lib/usbcdc/src/usbd_core.c **** /*!
  78:lib/usbcdc/src/usbd_core.c ****     \brief      endpoint initialization
  79:lib/usbcdc/src/usbd_core.c ****     \param[in]  udev: pointer to USB core instance
  80:lib/usbcdc/src/usbd_core.c ****     \param[in]  ep_desc: pointer to endpoint descriptor
  81:lib/usbcdc/src/usbd_core.c ****     \param[out] none
  82:lib/usbcdc/src/usbd_core.c ****     \retval     none
  83:lib/usbcdc/src/usbd_core.c **** */
  84:lib/usbcdc/src/usbd_core.c **** uint32_t usbd_ep_setup (usb_core_driver *udev, const usb_desc_ep *ep_desc)
  85:lib/usbcdc/src/usbd_core.c **** {
  16              		.loc 1 85 1
  17              		.cfi_startproc
  18              	.LVL0:
  86:lib/usbcdc/src/usbd_core.c ****     usb_transc *transc;
  19              		.loc 1 86 5
  87:lib/usbcdc/src/usbd_core.c **** 
  88:lib/usbcdc/src/usbd_core.c ****     uint8_t ep_addr = ep_desc->bEndpointAddress;
  20              		.loc 1 88 5
  85:lib/usbcdc/src/usbd_core.c ****     usb_transc *transc;
  21              		.loc 1 85 1 is_stmt 0
  22 0000 4111     		addi	sp,sp,-16
  23              	.LCFI0:
  24              		.cfi_def_cfa_offset 16
  25 0002 06C6     		sw	ra,12(sp)
  26              		.cfi_offset 1, -4
GAS LISTING /var/folders/yy/83vjwp7d53j56dbzj8_jnpcr0000gn/T//cc7XktwL.s 			page 3


  89:lib/usbcdc/src/usbd_core.c ****     uint8_t max_len = ep_desc->wMaxPacketSize;
  27              		.loc 1 89 30
  28 0004 03C75500 		lbu	a4,5(a1)
  29 0008 83C74500 		lbu	a5,4(a1)
  88:lib/usbcdc/src/usbd_core.c ****     uint8_t max_len = ep_desc->wMaxPacketSize;
  30              		.loc 1 88 13
  31 000c 03C62500 		lbu	a2,2(a1)
  32              	.LVL1:
  33              		.loc 1 89 5 is_stmt 1
  34              		.loc 1 89 30 is_stmt 0
  35 0010 2207     		slli	a4,a4,8
  36 0012 5D8F     		or	a4,a4,a5
  37              	.LVL2:
  90:lib/usbcdc/src/usbd_core.c **** 
  91:lib/usbcdc/src/usbd_core.c ****     /* set endpoint direction */
  92:lib/usbcdc/src/usbd_core.c ****     if (EP_DIR(ep_addr)) {
  38              		.loc 1 92 5 is_stmt 1
  39              		.loc 1 92 8 is_stmt 0
  40 0014 93178601 		slli	a5,a2,24
  41 0018 E187     		srai	a5,a5,24
  42 001a 63D20706 		bge	a5,zero,.L2
  93:lib/usbcdc/src/usbd_core.c ****         transc = &udev->dev.transc_in[EP_ID(ep_addr)];
  43              		.loc 1 93 9 is_stmt 1
  44              		.loc 1 93 16 is_stmt 0
  45 001e F147     		li	a5,28
  46 0020 9376F607 		andi	a3,a2,127
  47 0024 B386F602 		mul	a3,a3,a5
  48 0028 9387860C 		addi	a5,a3,200
  94:lib/usbcdc/src/usbd_core.c **** 
  95:lib/usbcdc/src/usbd_core.c ****         transc->ep_addr.dir = 1U;
  49              		.loc 1 95 29
  50 002c AA96     		add	a3,a0,a3
  51 002e 03C8860C 		lbu	a6,200(a3)
  93:lib/usbcdc/src/usbd_core.c ****         transc = &udev->dev.transc_in[EP_ID(ep_addr)];
  52              		.loc 1 93 16
  53 0032 AA97     		add	a5,a0,a5
  54              	.LVL3:
  55              		.loc 1 95 9 is_stmt 1
  56              		.loc 1 95 29 is_stmt 0
  57 0034 136808F8 		ori	a6,a6,-128
  58 0038 2384060D 		sb	a6,200(a3)
  59              	.L3:
  96:lib/usbcdc/src/usbd_core.c ****     } else {
  97:lib/usbcdc/src/usbd_core.c ****         transc = &udev->dev.transc_out[ep_addr];
  98:lib/usbcdc/src/usbd_core.c **** 
  99:lib/usbcdc/src/usbd_core.c ****         transc->ep_addr.dir = 0U;
 100:lib/usbcdc/src/usbd_core.c ****     }
 101:lib/usbcdc/src/usbd_core.c **** 
 102:lib/usbcdc/src/usbd_core.c ****     transc->ep_addr.num = EP_ID(ep_addr);
  60              		.loc 1 102 5 is_stmt 1
  61              		.loc 1 102 25 is_stmt 0
  62 003c 83C60700 		lbu	a3,0(a5)
  63 0040 3D8A     		andi	a2,a2,15
  64              	.LVL4:
 103:lib/usbcdc/src/usbd_core.c ****     transc->max_len = max_len;
  65              		.loc 1 103 21
  66 0042 1377F70F 		andi	a4,a4,255
GAS LISTING /var/folders/yy/83vjwp7d53j56dbzj8_jnpcr0000gn/T//cc7XktwL.s 			page 4


  67              	.LVL5:
 102:lib/usbcdc/src/usbd_core.c ****     transc->max_len = max_len;
  68              		.loc 1 102 25
  69 0046 C19A     		andi	a3,a3,-16
  70 0048 558E     		or	a2,a3,a2
  71 004a 2380C700 		sb	a2,0(a5)
  72              		.loc 1 103 5 is_stmt 1
  73              		.loc 1 103 21 is_stmt 0
  74 004e 2392E700 		sh	a4,4(a5)
 104:lib/usbcdc/src/usbd_core.c ****     transc->ep_type = ep_type[ep_desc->bmAttributes & USB_EPTYPE_MASK];
  75              		.loc 1 104 5 is_stmt 1
  76              		.loc 1 104 53 is_stmt 0
  77 0052 03C73500 		lbu	a4,3(a1)
 105:lib/usbcdc/src/usbd_core.c **** 
 106:lib/usbcdc/src/usbd_core.c ****     /* active USB endpoint function */
 107:lib/usbcdc/src/usbd_core.c ****     usb_transc_active (udev, transc);
  78              		.loc 1 107 5
  79 0056 BE85     		mv	a1,a5
  80              	.LVL6:
 104:lib/usbcdc/src/usbd_core.c ****     transc->ep_type = ep_type[ep_desc->bmAttributes & USB_EPTYPE_MASK];
  81              		.loc 1 104 53
  82 0058 0D8B     		andi	a4,a4,3
 104:lib/usbcdc/src/usbd_core.c ****     transc->ep_type = ep_type[ep_desc->bmAttributes & USB_EPTYPE_MASK];
  83              		.loc 1 104 30
  84 005a 93162700 		slli	a3,a4,2
  85 005e 37070000 		lui	a4,%hi(.LANCHOR0)
  86 0062 13070700 		addi	a4,a4,%lo(.LANCHOR0)
  87 0066 3697     		add	a4,a4,a3
 104:lib/usbcdc/src/usbd_core.c ****     transc->ep_type = ep_type[ep_desc->bmAttributes & USB_EPTYPE_MASK];
  88              		.loc 1 104 21
  89 0068 1843     		lw	a4,0(a4)
  90 006a A380E700 		sb	a4,1(a5)
  91              		.loc 1 107 5 is_stmt 1
  92 006e 97000000 		call	usb_transc_active
  92      E7800000 
  93              	.LVL7:
 108:lib/usbcdc/src/usbd_core.c **** 
 109:lib/usbcdc/src/usbd_core.c ****     return 0;
  94              		.loc 1 109 5
 110:lib/usbcdc/src/usbd_core.c **** }
  95              		.loc 1 110 1 is_stmt 0
  96 0076 B240     		lw	ra,12(sp)
  97              		.cfi_remember_state
  98              		.cfi_restore 1
  99 0078 0145     		li	a0,0
 100 007a 4101     		addi	sp,sp,16
 101              	.LCFI1:
 102              		.cfi_def_cfa_offset 0
 103 007c 8280     		jr	ra
 104              	.LVL8:
 105              	.L2:
 106              	.LCFI2:
 107              		.cfi_restore_state
  97:lib/usbcdc/src/usbd_core.c **** 
 108              		.loc 1 97 9 is_stmt 1
  97:lib/usbcdc/src/usbd_core.c **** 
 109              		.loc 1 97 16 is_stmt 0
GAS LISTING /var/folders/yy/83vjwp7d53j56dbzj8_jnpcr0000gn/T//cc7XktwL.s 			page 5


 110 007e F146     		li	a3,28
 111 0080 B306D602 		mul	a3,a2,a3
 112 0084 9387C626 		addi	a5,a3,620
  99:lib/usbcdc/src/usbd_core.c ****     }
 113              		.loc 1 99 29
 114 0088 AA96     		add	a3,a0,a3
 115 008a 03C8C626 		lbu	a6,620(a3)
  97:lib/usbcdc/src/usbd_core.c **** 
 116              		.loc 1 97 16
 117 008e AA97     		add	a5,a0,a5
 118              	.LVL9:
  99:lib/usbcdc/src/usbd_core.c ****     }
 119              		.loc 1 99 9 is_stmt 1
  99:lib/usbcdc/src/usbd_core.c ****     }
 120              		.loc 1 99 29 is_stmt 0
 121 0090 1378F807 		andi	a6,a6,127
 122 0094 23860627 		sb	a6,620(a3)
 123 0098 55B7     		j	.L3
 124              		.cfi_endproc
 125              	.LFE4:
 127              		.section	.text.usbd_ep_clear,"ax",@progbits
 128              		.align	1
 129              		.globl	usbd_ep_clear
 131              	usbd_ep_clear:
 132              	.LFB5:
 111:lib/usbcdc/src/usbd_core.c **** 
 112:lib/usbcdc/src/usbd_core.c **** /*!
 113:lib/usbcdc/src/usbd_core.c ****     \brief      configure the endpoint when it is disabled
 114:lib/usbcdc/src/usbd_core.c ****     \param[in]  udev: pointer to USB core instance
 115:lib/usbcdc/src/usbd_core.c ****     \param[in]  ep_addr: endpoint address
 116:lib/usbcdc/src/usbd_core.c ****                   in this parameter:
 117:lib/usbcdc/src/usbd_core.c ****                     bit0..bit6: endpoint number (0..7)
 118:lib/usbcdc/src/usbd_core.c ****                     bit7: endpoint direction which can be IN(1) or OUT(0)
 119:lib/usbcdc/src/usbd_core.c ****     \param[out] none
 120:lib/usbcdc/src/usbd_core.c ****     \retval     none
 121:lib/usbcdc/src/usbd_core.c **** */
 122:lib/usbcdc/src/usbd_core.c **** uint32_t usbd_ep_clear (usb_core_driver *udev, uint8_t ep_addr)
 123:lib/usbcdc/src/usbd_core.c **** {
 133              		.loc 1 123 1 is_stmt 1
 134              		.cfi_startproc
 135              	.LVL10:
 124:lib/usbcdc/src/usbd_core.c ****     usb_transc *transc;
 136              		.loc 1 124 5
 125:lib/usbcdc/src/usbd_core.c **** 
 126:lib/usbcdc/src/usbd_core.c ****     if (EP_DIR(ep_addr)) {
 137              		.loc 1 126 5
 123:lib/usbcdc/src/usbd_core.c ****     usb_transc *transc;
 138              		.loc 1 123 1 is_stmt 0
 139 0000 4111     		addi	sp,sp,-16
 140              	.LCFI3:
 141              		.cfi_def_cfa_offset 16
 142              		.loc 1 126 8
 143 0002 93978501 		slli	a5,a1,24
 123:lib/usbcdc/src/usbd_core.c ****     usb_transc *transc;
 144              		.loc 1 123 1
 145 0006 06C6     		sw	ra,12(sp)
 146              		.cfi_offset 1, -4
GAS LISTING /var/folders/yy/83vjwp7d53j56dbzj8_jnpcr0000gn/T//cc7XktwL.s 			page 6


 147              		.loc 1 126 8
 148 0008 E187     		srai	a5,a5,24
 149 000a 63D20702 		bge	a5,zero,.L6
 127:lib/usbcdc/src/usbd_core.c ****         transc = &udev->dev.transc_in[EP_ID(ep_addr)];
 150              		.loc 1 127 9 is_stmt 1
 151              		.loc 1 127 16 is_stmt 0
 152 000e 93F5F507 		andi	a1,a1,127
 153              	.LVL11:
 154 0012 F147     		li	a5,28
 155 0014 B385F502 		mul	a1,a1,a5
 156 0018 9385850C 		addi	a1,a1,200
 157              	.L9:
 128:lib/usbcdc/src/usbd_core.c ****     } else {
 129:lib/usbcdc/src/usbd_core.c ****         transc = &udev->dev.transc_out[ep_addr];
 158              		.loc 1 129 16
 159 001c AA95     		add	a1,a0,a1
 160              	.LVL12:
 130:lib/usbcdc/src/usbd_core.c ****     }
 131:lib/usbcdc/src/usbd_core.c **** 
 132:lib/usbcdc/src/usbd_core.c ****     /* deactive USB endpoint function */
 133:lib/usbcdc/src/usbd_core.c ****     usb_transc_deactivate (udev, transc);
 161              		.loc 1 133 5 is_stmt 1
 162 001e 97000000 		call	usb_transc_deactivate
 162      E7800000 
 163              	.LVL13:
 134:lib/usbcdc/src/usbd_core.c **** 
 135:lib/usbcdc/src/usbd_core.c ****     return 0;
 164              		.loc 1 135 5
 136:lib/usbcdc/src/usbd_core.c **** }
 165              		.loc 1 136 1 is_stmt 0
 166 0026 B240     		lw	ra,12(sp)
 167              		.cfi_remember_state
 168              		.cfi_restore 1
 169 0028 0145     		li	a0,0
 170 002a 4101     		addi	sp,sp,16
 171              	.LCFI4:
 172              		.cfi_def_cfa_offset 0
 173 002c 8280     		jr	ra
 174              	.LVL14:
 175              	.L6:
 176              	.LCFI5:
 177              		.cfi_restore_state
 129:lib/usbcdc/src/usbd_core.c ****     }
 178              		.loc 1 129 9 is_stmt 1
 129:lib/usbcdc/src/usbd_core.c ****     }
 179              		.loc 1 129 16 is_stmt 0
 180 002e F147     		li	a5,28
 181 0030 B385F502 		mul	a1,a1,a5
 182              	.LVL15:
 183 0034 9385C526 		addi	a1,a1,620
 184 0038 D5B7     		j	.L9
 185              		.cfi_endproc
 186              	.LFE5:
 188              		.section	.text.usbd_ep_recev,"ax",@progbits
 189              		.align	1
 190              		.globl	usbd_ep_recev
 192              	usbd_ep_recev:
GAS LISTING /var/folders/yy/83vjwp7d53j56dbzj8_jnpcr0000gn/T//cc7XktwL.s 			page 7


 193              	.LFB6:
 137:lib/usbcdc/src/usbd_core.c **** 
 138:lib/usbcdc/src/usbd_core.c **** 
 139:lib/usbcdc/src/usbd_core.c **** /*!
 140:lib/usbcdc/src/usbd_core.c ****     \brief      endpoint prepare to receive data
 141:lib/usbcdc/src/usbd_core.c ****     \param[in]  udev: pointer to usb core instance
 142:lib/usbcdc/src/usbd_core.c ****     \param[in]  ep_addr: endpoint address
 143:lib/usbcdc/src/usbd_core.c ****                   in this parameter:
 144:lib/usbcdc/src/usbd_core.c ****                     bit0..bit6: endpoint number (0..7)
 145:lib/usbcdc/src/usbd_core.c ****                     bit7: endpoint direction which can be IN(1) or OUT(0)
 146:lib/usbcdc/src/usbd_core.c ****     \param[in]  pbuf: user buffer address pointer
 147:lib/usbcdc/src/usbd_core.c ****     \param[in]  len: buffer length
 148:lib/usbcdc/src/usbd_core.c ****     \param[out] none
 149:lib/usbcdc/src/usbd_core.c ****     \retval     none
 150:lib/usbcdc/src/usbd_core.c **** */
 151:lib/usbcdc/src/usbd_core.c **** uint32_t usbd_ep_recev (usb_core_driver *udev, uint8_t ep_addr, uint8_t *pbuf, uint16_t len)
 152:lib/usbcdc/src/usbd_core.c **** {
 194              		.loc 1 152 1 is_stmt 1
 195              		.cfi_startproc
 196              	.LVL16:
 153:lib/usbcdc/src/usbd_core.c ****     usb_transc *transc = &udev->dev.transc_out[EP_ID(ep_addr)];
 197              		.loc 1 153 5
 198 0000 93F7F507 		andi	a5,a1,127
 199              		.loc 1 153 17 is_stmt 0
 200 0004 F145     		li	a1,28
 201              	.LVL17:
 202 0006 B387B702 		mul	a5,a5,a1
 152:lib/usbcdc/src/usbd_core.c ****     usb_transc *transc = &udev->dev.transc_out[EP_ID(ep_addr)];
 203              		.loc 1 152 1
 204 000a 4111     		addi	sp,sp,-16
 205              	.LCFI6:
 206              		.cfi_def_cfa_offset 16
 207 000c 06C6     		sw	ra,12(sp)
 208              		.cfi_offset 1, -4
 154:lib/usbcdc/src/usbd_core.c **** 
 155:lib/usbcdc/src/usbd_core.c ****     /* setup the transfer */
 156:lib/usbcdc/src/usbd_core.c ****     transc->xfer_buf = pbuf;
 157:lib/usbcdc/src/usbd_core.c ****     transc->xfer_len = len;
 158:lib/usbcdc/src/usbd_core.c ****     transc->xfer_count = 0;
 159:lib/usbcdc/src/usbd_core.c **** 
 160:lib/usbcdc/src/usbd_core.c ****     if (USB_USE_DMA == udev->bp.transfer_mode) {
 209              		.loc 1 160 8
 210 000e 0547     		li	a4,1
 153:lib/usbcdc/src/usbd_core.c **** 
 211              		.loc 1 153 17
 212 0010 9385C726 		addi	a1,a5,620
 156:lib/usbcdc/src/usbd_core.c ****     transc->xfer_len = len;
 213              		.loc 1 156 22
 214 0014 AA97     		add	a5,a0,a5
 215 0016 23AAC726 		sw	a2,628(a5)
 157:lib/usbcdc/src/usbd_core.c ****     transc->xfer_count = 0;
 216              		.loc 1 157 22
 217 001a 23ACD726 		sw	a3,632(a5)
 158:lib/usbcdc/src/usbd_core.c **** 
 218              		.loc 1 158 24
 219 001e 23AE0726 		sw	zero,636(a5)
 220              		.loc 1 160 8
GAS LISTING /var/folders/yy/83vjwp7d53j56dbzj8_jnpcr0000gn/T//cc7XktwL.s 			page 8


 221 0022 83464500 		lbu	a3,4(a0)
 222              	.LVL18:
 153:lib/usbcdc/src/usbd_core.c **** 
 223              		.loc 1 153 17
 224 0026 AA95     		add	a1,a0,a1
 225              	.LVL19:
 156:lib/usbcdc/src/usbd_core.c ****     transc->xfer_len = len;
 226              		.loc 1 156 5 is_stmt 1
 157:lib/usbcdc/src/usbd_core.c ****     transc->xfer_count = 0;
 227              		.loc 1 157 5
 158:lib/usbcdc/src/usbd_core.c **** 
 228              		.loc 1 158 5
 229              		.loc 1 160 5
 230              		.loc 1 160 8 is_stmt 0
 231 0028 6394E600 		bne	a3,a4,.L11
 161:lib/usbcdc/src/usbd_core.c ****         transc->dma_addr = (uint32_t)pbuf;
 232              		.loc 1 161 9 is_stmt 1
 233              		.loc 1 161 26 is_stmt 0
 234 002c 23A2C728 		sw	a2,644(a5)
 235              	.L11:
 162:lib/usbcdc/src/usbd_core.c ****     }
 163:lib/usbcdc/src/usbd_core.c **** 
 164:lib/usbcdc/src/usbd_core.c ****     /* start the transfer */
 165:lib/usbcdc/src/usbd_core.c ****     usb_transc_outxfer (udev, transc);
 236              		.loc 1 165 5 is_stmt 1
 237 0030 97000000 		call	usb_transc_outxfer
 237      E7800000 
 238              	.LVL20:
 166:lib/usbcdc/src/usbd_core.c **** 
 167:lib/usbcdc/src/usbd_core.c ****     return 0;
 239              		.loc 1 167 5
 168:lib/usbcdc/src/usbd_core.c **** }
 240              		.loc 1 168 1 is_stmt 0
 241 0038 B240     		lw	ra,12(sp)
 242              		.cfi_restore 1
 243 003a 0145     		li	a0,0
 244 003c 4101     		addi	sp,sp,16
 245              	.LCFI7:
 246              		.cfi_def_cfa_offset 0
 247 003e 8280     		jr	ra
 248              		.cfi_endproc
 249              	.LFE6:
 251              		.section	.text.usbd_ep_send,"ax",@progbits
 252              		.align	1
 253              		.globl	usbd_ep_send
 255              	usbd_ep_send:
 256              	.LFB7:
 169:lib/usbcdc/src/usbd_core.c **** 
 170:lib/usbcdc/src/usbd_core.c **** /*!
 171:lib/usbcdc/src/usbd_core.c ****     \brief      endpoint prepare to transmit data
 172:lib/usbcdc/src/usbd_core.c ****     \param[in]  udev: pointer to USB core instance
 173:lib/usbcdc/src/usbd_core.c ****     \param[in]  ep_addr: endpoint address
 174:lib/usbcdc/src/usbd_core.c ****                   in this parameter:
 175:lib/usbcdc/src/usbd_core.c ****                     bit0..bit6: endpoint number (0..7)
 176:lib/usbcdc/src/usbd_core.c ****                     bit7: endpoint direction which can be IN(1) or OUT(0)
 177:lib/usbcdc/src/usbd_core.c ****     \param[in]  pbuf: transmit buffer address pointer
 178:lib/usbcdc/src/usbd_core.c ****     \param[in]  len: buffer length
GAS LISTING /var/folders/yy/83vjwp7d53j56dbzj8_jnpcr0000gn/T//cc7XktwL.s 			page 9


 179:lib/usbcdc/src/usbd_core.c ****     \param[out] none
 180:lib/usbcdc/src/usbd_core.c ****     \retval     none
 181:lib/usbcdc/src/usbd_core.c **** */
 182:lib/usbcdc/src/usbd_core.c **** uint32_t  usbd_ep_send (usb_core_driver *udev, uint8_t ep_addr, uint8_t *pbuf, uint16_t len)
 183:lib/usbcdc/src/usbd_core.c **** {
 257              		.loc 1 183 1 is_stmt 1
 258              		.cfi_startproc
 259              	.LVL21:
 184:lib/usbcdc/src/usbd_core.c ****     usb_transc *transc = &udev->dev.transc_in[EP_ID(ep_addr)];
 260              		.loc 1 184 5
 261 0000 93F7F507 		andi	a5,a1,127
 262              		.loc 1 184 17 is_stmt 0
 263 0004 F145     		li	a1,28
 264              	.LVL22:
 265 0006 B387B702 		mul	a5,a5,a1
 183:lib/usbcdc/src/usbd_core.c ****     usb_transc *transc = &udev->dev.transc_in[EP_ID(ep_addr)];
 266              		.loc 1 183 1
 267 000a 4111     		addi	sp,sp,-16
 268              	.LCFI8:
 269              		.cfi_def_cfa_offset 16
 270 000c 06C6     		sw	ra,12(sp)
 271              		.cfi_offset 1, -4
 185:lib/usbcdc/src/usbd_core.c **** 
 186:lib/usbcdc/src/usbd_core.c ****     /* setup the transfer */
 187:lib/usbcdc/src/usbd_core.c ****     transc->xfer_buf = pbuf;
 188:lib/usbcdc/src/usbd_core.c ****     transc->xfer_len = len;
 189:lib/usbcdc/src/usbd_core.c ****     transc->xfer_count = 0;
 190:lib/usbcdc/src/usbd_core.c **** 
 191:lib/usbcdc/src/usbd_core.c ****     if (USB_USE_DMA == udev->bp.transfer_mode) {
 272              		.loc 1 191 8
 273 000e 0547     		li	a4,1
 184:lib/usbcdc/src/usbd_core.c **** 
 274              		.loc 1 184 17
 275 0010 9385870C 		addi	a1,a5,200
 187:lib/usbcdc/src/usbd_core.c ****     transc->xfer_len = len;
 276              		.loc 1 187 22
 277 0014 AA97     		add	a5,a0,a5
 278 0016 23A8C70C 		sw	a2,208(a5)
 188:lib/usbcdc/src/usbd_core.c ****     transc->xfer_count = 0;
 279              		.loc 1 188 22
 280 001a 23AAD70C 		sw	a3,212(a5)
 189:lib/usbcdc/src/usbd_core.c **** 
 281              		.loc 1 189 24
 282 001e 23AC070C 		sw	zero,216(a5)
 283              		.loc 1 191 8
 284 0022 83464500 		lbu	a3,4(a0)
 285              	.LVL23:
 184:lib/usbcdc/src/usbd_core.c **** 
 286              		.loc 1 184 17
 287 0026 AA95     		add	a1,a0,a1
 288              	.LVL24:
 187:lib/usbcdc/src/usbd_core.c ****     transc->xfer_len = len;
 289              		.loc 1 187 5 is_stmt 1
 188:lib/usbcdc/src/usbd_core.c ****     transc->xfer_count = 0;
 290              		.loc 1 188 5
 189:lib/usbcdc/src/usbd_core.c **** 
 291              		.loc 1 189 5
GAS LISTING /var/folders/yy/83vjwp7d53j56dbzj8_jnpcr0000gn/T//cc7XktwL.s 			page 10


 292              		.loc 1 191 5
 293              		.loc 1 191 8 is_stmt 0
 294 0028 6394E600 		bne	a3,a4,.L14
 192:lib/usbcdc/src/usbd_core.c ****         transc->dma_addr = (uint32_t)pbuf;
 295              		.loc 1 192 9 is_stmt 1
 296              		.loc 1 192 26 is_stmt 0
 297 002c 23A0C70E 		sw	a2,224(a5)
 298              	.L14:
 193:lib/usbcdc/src/usbd_core.c ****     }
 194:lib/usbcdc/src/usbd_core.c **** 
 195:lib/usbcdc/src/usbd_core.c ****     /* start the transfer */
 196:lib/usbcdc/src/usbd_core.c ****     usb_transc_inxfer (udev, transc);
 299              		.loc 1 196 5 is_stmt 1
 300 0030 97000000 		call	usb_transc_inxfer
 300      E7800000 
 301              	.LVL25:
 197:lib/usbcdc/src/usbd_core.c **** 
 198:lib/usbcdc/src/usbd_core.c ****     return 0;
 302              		.loc 1 198 5
 199:lib/usbcdc/src/usbd_core.c **** }
 303              		.loc 1 199 1 is_stmt 0
 304 0038 B240     		lw	ra,12(sp)
 305              		.cfi_restore 1
 306 003a 0145     		li	a0,0
 307 003c 4101     		addi	sp,sp,16
 308              	.LCFI9:
 309              		.cfi_def_cfa_offset 0
 310 003e 8280     		jr	ra
 311              		.cfi_endproc
 312              	.LFE7:
 314              		.section	.text.usbd_ep_stall,"ax",@progbits
 315              		.align	1
 316              		.globl	usbd_ep_stall
 318              	usbd_ep_stall:
 319              	.LFB8:
 200:lib/usbcdc/src/usbd_core.c **** 
 201:lib/usbcdc/src/usbd_core.c **** /*!
 202:lib/usbcdc/src/usbd_core.c ****     \brief      set an endpoint to STALL status
 203:lib/usbcdc/src/usbd_core.c ****     \param[in]  udev: pointer to USB core instance
 204:lib/usbcdc/src/usbd_core.c ****     \param[in]  ep_addr: endpoint address
 205:lib/usbcdc/src/usbd_core.c ****                   in this parameter:
 206:lib/usbcdc/src/usbd_core.c ****                     bit0..bit6: endpoint number (0..7)
 207:lib/usbcdc/src/usbd_core.c ****                     bit7: endpoint direction which can be IN(1) or OUT(0)
 208:lib/usbcdc/src/usbd_core.c ****     \param[out] none
 209:lib/usbcdc/src/usbd_core.c ****     \retval     none
 210:lib/usbcdc/src/usbd_core.c **** */
 211:lib/usbcdc/src/usbd_core.c **** uint32_t usbd_ep_stall (usb_core_driver *udev, uint8_t ep_addr)
 212:lib/usbcdc/src/usbd_core.c **** {
 320              		.loc 1 212 1 is_stmt 1
 321              		.cfi_startproc
 322              	.LVL26:
 213:lib/usbcdc/src/usbd_core.c ****     usb_transc *transc = NULL;
 323              		.loc 1 213 5
 214:lib/usbcdc/src/usbd_core.c **** 
 215:lib/usbcdc/src/usbd_core.c ****     if (EP_DIR(ep_addr)) {
 324              		.loc 1 215 5
 212:lib/usbcdc/src/usbd_core.c ****     usb_transc *transc = NULL;
GAS LISTING /var/folders/yy/83vjwp7d53j56dbzj8_jnpcr0000gn/T//cc7XktwL.s 			page 11


 325              		.loc 1 212 1 is_stmt 0
 326 0000 4111     		addi	sp,sp,-16
 327              	.LCFI10:
 328              		.cfi_def_cfa_offset 16
 329              		.loc 1 215 8
 330 0002 93978501 		slli	a5,a1,24
 212:lib/usbcdc/src/usbd_core.c ****     usb_transc *transc = NULL;
 331              		.loc 1 212 1
 332 0006 06C6     		sw	ra,12(sp)
 333              		.cfi_offset 1, -4
 334              		.loc 1 215 8
 335 0008 E187     		srai	a5,a5,24
 336 000a 63D50702 		bge	a5,zero,.L17
 216:lib/usbcdc/src/usbd_core.c ****         transc = &udev->dev.transc_in[EP_ID(ep_addr)];
 337              		.loc 1 216 9 is_stmt 1
 338              		.loc 1 216 16 is_stmt 0
 339 000e 93F5F507 		andi	a1,a1,127
 340              	.LVL27:
 341 0012 F147     		li	a5,28
 342 0014 B385F502 		mul	a1,a1,a5
 343 0018 9385850C 		addi	a1,a1,200
 344              	.L20:
 217:lib/usbcdc/src/usbd_core.c ****     } else {
 218:lib/usbcdc/src/usbd_core.c ****         transc = &udev->dev.transc_out[ep_addr];
 345              		.loc 1 218 16
 346 001c AA95     		add	a1,a0,a1
 347              	.LVL28:
 219:lib/usbcdc/src/usbd_core.c ****     }
 220:lib/usbcdc/src/usbd_core.c **** 
 221:lib/usbcdc/src/usbd_core.c ****     transc->ep_stall = 1;
 348              		.loc 1 221 5 is_stmt 1
 349              		.loc 1 221 22 is_stmt 0
 350 001e 8547     		li	a5,1
 351 0020 2381F500 		sb	a5,2(a1)
 222:lib/usbcdc/src/usbd_core.c **** 
 223:lib/usbcdc/src/usbd_core.c ****     usb_transc_stall (udev, transc);
 352              		.loc 1 223 5 is_stmt 1
 353 0024 97000000 		call	usb_transc_stall
 353      E7800000 
 354              	.LVL29:
 224:lib/usbcdc/src/usbd_core.c **** 
 225:lib/usbcdc/src/usbd_core.c ****     return (0);
 355              		.loc 1 225 5
 226:lib/usbcdc/src/usbd_core.c **** }
 356              		.loc 1 226 1 is_stmt 0
 357 002c B240     		lw	ra,12(sp)
 358              		.cfi_remember_state
 359              		.cfi_restore 1
 360 002e 0145     		li	a0,0
 361 0030 4101     		addi	sp,sp,16
 362              	.LCFI11:
 363              		.cfi_def_cfa_offset 0
 364 0032 8280     		jr	ra
 365              	.LVL30:
 366              	.L17:
 367              	.LCFI12:
 368              		.cfi_restore_state
GAS LISTING /var/folders/yy/83vjwp7d53j56dbzj8_jnpcr0000gn/T//cc7XktwL.s 			page 12


 218:lib/usbcdc/src/usbd_core.c ****     }
 369              		.loc 1 218 9 is_stmt 1
 218:lib/usbcdc/src/usbd_core.c ****     }
 370              		.loc 1 218 16 is_stmt 0
 371 0034 F147     		li	a5,28
 372 0036 B385F502 		mul	a1,a1,a5
 373              	.LVL31:
 374 003a 9385C526 		addi	a1,a1,620
 375 003e F9BF     		j	.L20
 376              		.cfi_endproc
 377              	.LFE8:
 379              		.section	.text.usbd_ep_stall_clear,"ax",@progbits
 380              		.align	1
 381              		.globl	usbd_ep_stall_clear
 383              	usbd_ep_stall_clear:
 384              	.LFB9:
 227:lib/usbcdc/src/usbd_core.c **** 
 228:lib/usbcdc/src/usbd_core.c **** /*!
 229:lib/usbcdc/src/usbd_core.c ****     \brief      clear endpoint STALLed status
 230:lib/usbcdc/src/usbd_core.c ****     \param[in]  udev: pointer to usb core instance
 231:lib/usbcdc/src/usbd_core.c ****     \param[in]  ep_addr: endpoint address
 232:lib/usbcdc/src/usbd_core.c ****                   in this parameter:
 233:lib/usbcdc/src/usbd_core.c ****                     bit0..bit6: endpoint number (0..7)
 234:lib/usbcdc/src/usbd_core.c ****                     bit7: endpoint direction which can be IN(1) or OUT(0)
 235:lib/usbcdc/src/usbd_core.c ****     \param[out] none
 236:lib/usbcdc/src/usbd_core.c ****     \retval     none
 237:lib/usbcdc/src/usbd_core.c **** */
 238:lib/usbcdc/src/usbd_core.c **** uint32_t usbd_ep_stall_clear (usb_core_driver *udev, uint8_t ep_addr)
 239:lib/usbcdc/src/usbd_core.c **** {
 385              		.loc 1 239 1 is_stmt 1
 386              		.cfi_startproc
 387              	.LVL32:
 240:lib/usbcdc/src/usbd_core.c ****     usb_transc *transc = NULL;
 388              		.loc 1 240 5
 241:lib/usbcdc/src/usbd_core.c **** 
 242:lib/usbcdc/src/usbd_core.c ****     if (EP_DIR(ep_addr)) {
 389              		.loc 1 242 5
 239:lib/usbcdc/src/usbd_core.c ****     usb_transc *transc = NULL;
 390              		.loc 1 239 1 is_stmt 0
 391 0000 4111     		addi	sp,sp,-16
 392              	.LCFI13:
 393              		.cfi_def_cfa_offset 16
 394              		.loc 1 242 8
 395 0002 93978501 		slli	a5,a1,24
 239:lib/usbcdc/src/usbd_core.c ****     usb_transc *transc = NULL;
 396              		.loc 1 239 1
 397 0006 06C6     		sw	ra,12(sp)
 398              		.cfi_offset 1, -4
 399              		.loc 1 242 8
 400 0008 E187     		srai	a5,a5,24
 401 000a 63D40702 		bge	a5,zero,.L22
 243:lib/usbcdc/src/usbd_core.c ****         transc = &udev->dev.transc_in[EP_ID(ep_addr)];
 402              		.loc 1 243 9 is_stmt 1
 403              		.loc 1 243 16 is_stmt 0
 404 000e 93F5F507 		andi	a1,a1,127
 405              	.LVL33:
 406 0012 F147     		li	a5,28
GAS LISTING /var/folders/yy/83vjwp7d53j56dbzj8_jnpcr0000gn/T//cc7XktwL.s 			page 13


 407 0014 B385F502 		mul	a1,a1,a5
 408 0018 9385850C 		addi	a1,a1,200
 409              	.L25:
 244:lib/usbcdc/src/usbd_core.c ****     } else {
 245:lib/usbcdc/src/usbd_core.c ****         transc = &udev->dev.transc_out[ep_addr];
 410              		.loc 1 245 16
 411 001c AA95     		add	a1,a0,a1
 412              	.LVL34:
 246:lib/usbcdc/src/usbd_core.c ****     }
 247:lib/usbcdc/src/usbd_core.c **** 
 248:lib/usbcdc/src/usbd_core.c ****     transc->ep_stall = 0;
 413              		.loc 1 248 5 is_stmt 1
 414              		.loc 1 248 22 is_stmt 0
 415 001e 23810500 		sb	zero,2(a1)
 249:lib/usbcdc/src/usbd_core.c **** 
 250:lib/usbcdc/src/usbd_core.c ****     usb_transc_clrstall (udev, transc);
 416              		.loc 1 250 5 is_stmt 1
 417 0022 97000000 		call	usb_transc_clrstall
 417      E7800000 
 418              	.LVL35:
 251:lib/usbcdc/src/usbd_core.c **** 
 252:lib/usbcdc/src/usbd_core.c ****     return (0);
 419              		.loc 1 252 5
 253:lib/usbcdc/src/usbd_core.c **** }
 420              		.loc 1 253 1 is_stmt 0
 421 002a B240     		lw	ra,12(sp)
 422              		.cfi_remember_state
 423              		.cfi_restore 1
 424 002c 0145     		li	a0,0
 425 002e 4101     		addi	sp,sp,16
 426              	.LCFI14:
 427              		.cfi_def_cfa_offset 0
 428 0030 8280     		jr	ra
 429              	.LVL36:
 430              	.L22:
 431              	.LCFI15:
 432              		.cfi_restore_state
 245:lib/usbcdc/src/usbd_core.c ****     }
 433              		.loc 1 245 9 is_stmt 1
 245:lib/usbcdc/src/usbd_core.c ****     }
 434              		.loc 1 245 16 is_stmt 0
 435 0032 F147     		li	a5,28
 436 0034 B385F502 		mul	a1,a1,a5
 437              	.LVL37:
 438 0038 9385C526 		addi	a1,a1,620
 439 003c C5B7     		j	.L25
 440              		.cfi_endproc
 441              	.LFE9:
 443              		.section	.text.usbd_fifo_flush,"ax",@progbits
 444              		.align	1
 445              		.globl	usbd_fifo_flush
 447              	usbd_fifo_flush:
 448              	.LFB10:
 254:lib/usbcdc/src/usbd_core.c **** 
 255:lib/usbcdc/src/usbd_core.c **** /*!
 256:lib/usbcdc/src/usbd_core.c ****     \brief      flush the endpoint FIFOs
 257:lib/usbcdc/src/usbd_core.c ****     \param[in]  udev: pointer to usb core instance
GAS LISTING /var/folders/yy/83vjwp7d53j56dbzj8_jnpcr0000gn/T//cc7XktwL.s 			page 14


 258:lib/usbcdc/src/usbd_core.c ****     \param[in]  ep_addr: endpoint address
 259:lib/usbcdc/src/usbd_core.c ****                   in this parameter:
 260:lib/usbcdc/src/usbd_core.c ****                     bit0..bit6: endpoint number (0..7)
 261:lib/usbcdc/src/usbd_core.c ****                     bit7: endpoint direction which can be IN(1) or OUT(0)
 262:lib/usbcdc/src/usbd_core.c ****     \param[out] none
 263:lib/usbcdc/src/usbd_core.c ****     \retval     none
 264:lib/usbcdc/src/usbd_core.c **** */
 265:lib/usbcdc/src/usbd_core.c **** uint32_t  usbd_fifo_flush (usb_core_driver *udev, uint8_t ep_addr)
 266:lib/usbcdc/src/usbd_core.c **** {
 449              		.loc 1 266 1 is_stmt 1
 450              		.cfi_startproc
 451              	.LVL38:
 267:lib/usbcdc/src/usbd_core.c ****     if (EP_DIR(ep_addr)) {
 452              		.loc 1 267 5
 266:lib/usbcdc/src/usbd_core.c ****     if (EP_DIR(ep_addr)) {
 453              		.loc 1 266 1 is_stmt 0
 454 0000 4111     		addi	sp,sp,-16
 455              	.LCFI16:
 456              		.cfi_def_cfa_offset 16
 457              		.loc 1 267 8
 458 0002 93978501 		slli	a5,a1,24
 266:lib/usbcdc/src/usbd_core.c ****     if (EP_DIR(ep_addr)) {
 459              		.loc 1 266 1
 460 0006 06C6     		sw	ra,12(sp)
 461              		.cfi_offset 1, -4
 462              		.loc 1 267 8
 463 0008 E187     		srai	a5,a5,24
 464 000a 2105     		addi	a0,a0,8
 465              	.LVL39:
 466 000c 63DC0700 		bge	a5,zero,.L27
 268:lib/usbcdc/src/usbd_core.c ****         usb_txfifo_flush (&udev->regs, EP_ID(ep_addr));
 467              		.loc 1 268 9 is_stmt 1
 468 0010 93F5F507 		andi	a1,a1,127
 469              	.LVL40:
 470 0014 97000000 		call	usb_txfifo_flush
 470      E7800000 
 471              	.LVL41:
 472              	.L28:
 269:lib/usbcdc/src/usbd_core.c ****     } else {
 270:lib/usbcdc/src/usbd_core.c ****         usb_rxfifo_flush (&udev->regs);
 271:lib/usbcdc/src/usbd_core.c ****     }
 272:lib/usbcdc/src/usbd_core.c **** 
 273:lib/usbcdc/src/usbd_core.c ****     return (0);
 473              		.loc 1 273 5
 274:lib/usbcdc/src/usbd_core.c **** }
 474              		.loc 1 274 1 is_stmt 0
 475 001c B240     		lw	ra,12(sp)
 476              		.cfi_remember_state
 477              		.cfi_restore 1
 478 001e 0145     		li	a0,0
 479 0020 4101     		addi	sp,sp,16
 480              	.LCFI17:
 481              		.cfi_def_cfa_offset 0
 482 0022 8280     		jr	ra
 483              	.LVL42:
 484              	.L27:
 485              	.LCFI18:
GAS LISTING /var/folders/yy/83vjwp7d53j56dbzj8_jnpcr0000gn/T//cc7XktwL.s 			page 15


 486              		.cfi_restore_state
 270:lib/usbcdc/src/usbd_core.c ****     }
 487              		.loc 1 270 9 is_stmt 1
 488 0024 97000000 		call	usb_rxfifo_flush
 488      E7800000 
 489              	.LVL43:
 490 002c C5BF     		j	.L28
 491              		.cfi_endproc
 492              	.LFE10:
 494              		.section	.text.usbd_addr_set,"ax",@progbits
 495              		.align	1
 496              		.globl	usbd_addr_set
 498              	usbd_addr_set:
 499              	.LFB11:
 275:lib/usbcdc/src/usbd_core.c **** 
 276:lib/usbcdc/src/usbd_core.c **** /*!
 277:lib/usbcdc/src/usbd_core.c ****     \brief      set USB device address
 278:lib/usbcdc/src/usbd_core.c ****     \param[in]  udev: pointer to USB core instance
 279:lib/usbcdc/src/usbd_core.c ****     \param[in]  addr: device address to set
 280:lib/usbcdc/src/usbd_core.c ****     \param[out] none
 281:lib/usbcdc/src/usbd_core.c ****     \retval     none
 282:lib/usbcdc/src/usbd_core.c **** */
 283:lib/usbcdc/src/usbd_core.c **** void  usbd_addr_set (usb_core_driver *udev, uint8_t addr)
 284:lib/usbcdc/src/usbd_core.c **** {
 500              		.loc 1 284 1
 501              		.cfi_startproc
 502              	.LVL44:
 285:lib/usbcdc/src/usbd_core.c ****     usb_devaddr_set(udev, addr);
 503              		.loc 1 285 5
 504 0000 17030000 		tail	usb_devaddr_set
 504      67000300 
 505              	.LVL45:
 506              		.cfi_endproc
 507              	.LFE11:
 509              		.section	.text.usbd_rxcount_get,"ax",@progbits
 510              		.align	1
 511              		.globl	usbd_rxcount_get
 513              	usbd_rxcount_get:
 514              	.LFB12:
 286:lib/usbcdc/src/usbd_core.c **** }
 287:lib/usbcdc/src/usbd_core.c **** 
 288:lib/usbcdc/src/usbd_core.c **** /*!
 289:lib/usbcdc/src/usbd_core.c ****     \brief      get the received data length
 290:lib/usbcdc/src/usbd_core.c ****     \param[in]  udev: pointer to USB device instance
 291:lib/usbcdc/src/usbd_core.c ****     \param[in]  ep_num: endpoint number
 292:lib/usbcdc/src/usbd_core.c ****     \param[out] none
 293:lib/usbcdc/src/usbd_core.c ****     \retval     USB device operation cur_status
 294:lib/usbcdc/src/usbd_core.c **** */
 295:lib/usbcdc/src/usbd_core.c **** uint16_t  usbd_rxcount_get (usb_core_driver *udev, uint8_t ep_num)
 296:lib/usbcdc/src/usbd_core.c **** {
 515              		.loc 1 296 1
 516              		.cfi_startproc
 517              	.LVL46:
 297:lib/usbcdc/src/usbd_core.c ****     return udev->dev.transc_out[ep_num].xfer_count;
 518              		.loc 1 297 5
 519              		.loc 1 297 40 is_stmt 0
 520 0000 F147     		li	a5,28
GAS LISTING /var/folders/yy/83vjwp7d53j56dbzj8_jnpcr0000gn/T//cc7XktwL.s 			page 16


 521 0002 B385F502 		mul	a1,a1,a5
 522              	.LVL47:
 523 0006 AA95     		add	a1,a0,a1
 298:lib/usbcdc/src/usbd_core.c **** }
 524              		.loc 1 298 1
 525 0008 03D5C527 		lhu	a0,636(a1)
 526              	.LVL48:
 527 000c 8280     		ret
 528              		.cfi_endproc
 529              	.LFE12:
 531              		.section	.text.usbd_connect,"ax",@progbits
 532              		.align	1
 533              		.globl	usbd_connect
 535              	usbd_connect:
 536              	.LFB13:
 299:lib/usbcdc/src/usbd_core.c **** 
 300:lib/usbcdc/src/usbd_core.c **** /*!
 301:lib/usbcdc/src/usbd_core.c ****     \brief      device connect
 302:lib/usbcdc/src/usbd_core.c ****     \param[in]  udev: pointer to USB device instance
 303:lib/usbcdc/src/usbd_core.c ****     \param[out] none
 304:lib/usbcdc/src/usbd_core.c ****     \retval     none
 305:lib/usbcdc/src/usbd_core.c **** */
 306:lib/usbcdc/src/usbd_core.c **** void  usbd_connect (usb_core_driver *udev)
 307:lib/usbcdc/src/usbd_core.c **** {
 537              		.loc 1 307 1 is_stmt 1
 538              		.cfi_startproc
 539              	.LVL49:
 308:lib/usbcdc/src/usbd_core.c **** #ifndef USE_OTG_MODE
 309:lib/usbcdc/src/usbd_core.c ****     /* connect device */
 310:lib/usbcdc/src/usbd_core.c ****     usb_dev_connect (udev);
 540              		.loc 1 310 5
 307:lib/usbcdc/src/usbd_core.c **** #ifndef USE_OTG_MODE
 541              		.loc 1 307 1 is_stmt 0
 542 0000 4111     		addi	sp,sp,-16
 543              	.LCFI19:
 544              		.cfi_def_cfa_offset 16
 545 0002 06C6     		sw	ra,12(sp)
 546              		.cfi_offset 1, -4
 547              		.loc 1 310 5
 548 0004 97000000 		call	usb_dev_connect
 548      E7800000 
 549              	.LVL50:
 311:lib/usbcdc/src/usbd_core.c ****     usb_mdelay(3);
 550              		.loc 1 311 5 is_stmt 1
 312:lib/usbcdc/src/usbd_core.c **** 
 313:lib/usbcdc/src/usbd_core.c **** #endif /* USE_OTG_MODE */
 314:lib/usbcdc/src/usbd_core.c **** }
 551              		.loc 1 314 1 is_stmt 0
 552 000c B240     		lw	ra,12(sp)
 553              		.cfi_restore 1
 311:lib/usbcdc/src/usbd_core.c ****     usb_mdelay(3);
 554              		.loc 1 311 5
 555 000e 0D45     		li	a0,3
 556              		.loc 1 314 1
 557 0010 4101     		addi	sp,sp,16
 558              	.LCFI20:
 559              		.cfi_def_cfa_offset 0
GAS LISTING /var/folders/yy/83vjwp7d53j56dbzj8_jnpcr0000gn/T//cc7XktwL.s 			page 17


 311:lib/usbcdc/src/usbd_core.c ****     usb_mdelay(3);
 560              		.loc 1 311 5
 561 0012 17030000 		tail	usb_mdelay
 561      67000300 
 562              	.LVL51:
 563              		.cfi_endproc
 564              	.LFE13:
 566              		.section	.text.usbd_disconnect,"ax",@progbits
 567              		.align	1
 568              		.globl	usbd_disconnect
 570              	usbd_disconnect:
 571              	.LFB14:
 315:lib/usbcdc/src/usbd_core.c **** 
 316:lib/usbcdc/src/usbd_core.c **** /*!
 317:lib/usbcdc/src/usbd_core.c ****     \brief      device disconnect
 318:lib/usbcdc/src/usbd_core.c ****     \param[in]  udev: pointer to USB device instance
 319:lib/usbcdc/src/usbd_core.c ****     \param[out] none
 320:lib/usbcdc/src/usbd_core.c ****     \retval     none
 321:lib/usbcdc/src/usbd_core.c **** */
 322:lib/usbcdc/src/usbd_core.c **** void  usbd_disconnect (usb_core_driver *udev)
 323:lib/usbcdc/src/usbd_core.c **** {
 572              		.loc 1 323 1 is_stmt 1
 573              		.cfi_startproc
 574              	.LVL52:
 324:lib/usbcdc/src/usbd_core.c **** #ifndef USE_OTG_MODE
 325:lib/usbcdc/src/usbd_core.c ****     /* disconnect device for 3ms */
 326:lib/usbcdc/src/usbd_core.c ****     usb_dev_disconnect (udev);
 575              		.loc 1 326 5
 323:lib/usbcdc/src/usbd_core.c **** #ifndef USE_OTG_MODE
 576              		.loc 1 323 1 is_stmt 0
 577 0000 4111     		addi	sp,sp,-16
 578              	.LCFI21:
 579              		.cfi_def_cfa_offset 16
 580 0002 06C6     		sw	ra,12(sp)
 581              		.cfi_offset 1, -4
 582              		.loc 1 326 5
 583 0004 97000000 		call	usb_dev_disconnect
 583      E7800000 
 584              	.LVL53:
 327:lib/usbcdc/src/usbd_core.c ****     usb_mdelay(3);
 585              		.loc 1 327 5 is_stmt 1
 328:lib/usbcdc/src/usbd_core.c **** #endif /* USE_OTG_MODE */
 329:lib/usbcdc/src/usbd_core.c **** }
 586              		.loc 1 329 1 is_stmt 0
 587 000c B240     		lw	ra,12(sp)
 588              		.cfi_restore 1
 327:lib/usbcdc/src/usbd_core.c ****     usb_mdelay(3);
 589              		.loc 1 327 5
 590 000e 0D45     		li	a0,3
 591              		.loc 1 329 1
 592 0010 4101     		addi	sp,sp,16
 593              	.LCFI22:
 594              		.cfi_def_cfa_offset 0
 327:lib/usbcdc/src/usbd_core.c ****     usb_mdelay(3);
 595              		.loc 1 327 5
 596 0012 17030000 		tail	usb_mdelay
 596      67000300 
GAS LISTING /var/folders/yy/83vjwp7d53j56dbzj8_jnpcr0000gn/T//cc7XktwL.s 			page 18


 597              	.LVL54:
 598              		.cfi_endproc
 599              	.LFE14:
 601              		.section	.text.usbd_init,"ax",@progbits
 602              		.align	1
 603              		.globl	usbd_init
 605              	usbd_init:
 606              	.LFB3:
  55:lib/usbcdc/src/usbd_core.c ****     /* device descriptor, class and user callbacks */
 607              		.loc 1 55 1 is_stmt 1
 608              		.cfi_startproc
 609              	.LVL55:
  57:lib/usbcdc/src/usbd_core.c **** 
 610              		.loc 1 57 5
  55:lib/usbcdc/src/usbd_core.c ****     /* device descriptor, class and user callbacks */
 611              		.loc 1 55 1 is_stmt 0
 612 0000 4111     		addi	sp,sp,-16
 613              	.LCFI23:
 614              		.cfi_def_cfa_offset 16
 615 0002 06C6     		sw	ra,12(sp)
 616 0004 22C4     		sw	s0,8(sp)
 617 0006 26C2     		sw	s1,4(sp)
 618              		.cfi_offset 1, -4
 619              		.cfi_offset 8, -8
 620              		.cfi_offset 9, -12
  60:lib/usbcdc/src/usbd_core.c **** 
 621              		.loc 1 60 5
 622 0008 93048500 		addi	s1,a0,8
  57:lib/usbcdc/src/usbd_core.c **** 
 623              		.loc 1 57 26
 624 000c 2328C542 		sw	a2,1072(a0)
  60:lib/usbcdc/src/usbd_core.c **** 
 625              		.loc 1 60 5 is_stmt 1
 626 0010 2E86     		mv	a2,a1
 627              	.LVL56:
 628 0012 A685     		mv	a1,s1
 629              	.LVL57:
  55:lib/usbcdc/src/usbd_core.c ****     /* device descriptor, class and user callbacks */
 630              		.loc 1 55 1 is_stmt 0
 631 0014 2A84     		mv	s0,a0
  60:lib/usbcdc/src/usbd_core.c **** 
 632              		.loc 1 60 5
 633 0016 97000000 		call	usb_basic_init
 633      E7800000 
 634              	.LVL58:
  63:lib/usbcdc/src/usbd_core.c **** 
 635              		.loc 1 63 5 is_stmt 1
 636 001e 4C40     		lw	a1,4(s0)
 637 0020 0840     		lw	a0,0(s0)
 638 0022 2686     		mv	a2,s1
 639 0024 97000000 		call	usb_core_init
 639      E7800000 
 640              	.LVL59:
  66:lib/usbcdc/src/usbd_core.c **** 
 641              		.loc 1 66 5
 642 002c 2285     		mv	a0,s0
 643 002e 97000000 		call	usbd_disconnect
GAS LISTING /var/folders/yy/83vjwp7d53j56dbzj8_jnpcr0000gn/T//cc7XktwL.s 			page 19


 643      E7800000 
 644              	.LVL60:
  69:lib/usbcdc/src/usbd_core.c **** 
 645              		.loc 1 69 5
 646 0036 2285     		mv	a0,s0
 647 0038 97000000 		call	usb_devcore_init
 647      E7800000 
 648              	.LVL61:
  72:lib/usbcdc/src/usbd_core.c ****     
 649              		.loc 1 72 5
 650 0040 2285     		mv	a0,s0
 651 0042 97000000 		call	usbd_connect
 651      E7800000 
 652              	.LVL62:
  74:lib/usbcdc/src/usbd_core.c **** }
 653              		.loc 1 74 5
  74:lib/usbcdc/src/usbd_core.c **** }
 654              		.loc 1 74 26 is_stmt 0
 655 004a 8547     		li	a5,1
 656 004c 2303F40C 		sb	a5,198(s0)
  75:lib/usbcdc/src/usbd_core.c **** 
 657              		.loc 1 75 1
 658 0050 B240     		lw	ra,12(sp)
 659              		.cfi_restore 1
 660 0052 2244     		lw	s0,8(sp)
 661              		.cfi_restore 8
 662              	.LVL63:
 663 0054 9244     		lw	s1,4(sp)
 664              		.cfi_restore 9
 665              	.LVL64:
 666 0056 4101     		addi	sp,sp,16
 667              	.LCFI24:
 668              		.cfi_def_cfa_offset 0
 669 0058 8280     		jr	ra
 670              		.cfi_endproc
 671              	.LFE3:
 673              		.globl	ep_type
 674              		.section	.rodata.ep_type,"a"
 675              		.align	2
 676              		.set	.LANCHOR0,. + 0
 679              	ep_type:
 680 0000 00000000 		.word	0
 681 0004 01000000 		.word	1
 682 0008 02000000 		.word	2
 683 000c 03000000 		.word	3
 684              		.text
 685              	.Letext0:
 686              		.file 2 "/Users/gulda/Documents/risc-v/toolchain-gd32v-v200-osx/compiler/riscv64-unknown-elf/inclu
 687              		.file 3 "/Users/gulda/Documents/risc-v/toolchain-gd32v-v200-osx/compiler/riscv64-unknown-elf/inclu
 688              		.file 4 "lib/usbcdc/include/drv_usb_regs.h"
 689              		.file 5 "../../firmware/GD32VF103_standard_peripheral/system_gd32vf103.h"
 690              		.file 6 "lib/usbcdc/include/usb_ch9_std.h"
 691              		.file 7 "lib/usbcdc/include/drv_usb_core.h"
 692              		.file 8 "lib/usbcdc/include/drv_usb_dev.h"
 693              		.file 9 "lib/usbcdc/include/usbd_core.h"
 694              		.file 10 "lib/usbcdc/include/drv_usb_hw.h"
GAS LISTING /var/folders/yy/83vjwp7d53j56dbzj8_jnpcr0000gn/T//cc7XktwL.s 			page 20


DEFINED SYMBOLS
                            *ABS*:0000000000000000 usbd_core.c
/var/folders/yy/83vjwp7d53j56dbzj8_jnpcr0000gn/T//cc7XktwL.s:13     .text.usbd_ep_setup:0000000000000000 usbd_ep_setup
/var/folders/yy/83vjwp7d53j56dbzj8_jnpcr0000gn/T//cc7XktwL.s:17     .text.usbd_ep_setup:0000000000000000 .L0 
/var/folders/yy/83vjwp7d53j56dbzj8_jnpcr0000gn/T//cc7XktwL.s:19     .text.usbd_ep_setup:0000000000000000 .L0 
/var/folders/yy/83vjwp7d53j56dbzj8_jnpcr0000gn/T//cc7XktwL.s:20     .text.usbd_ep_setup:0000000000000000 .L0 
/var/folders/yy/83vjwp7d53j56dbzj8_jnpcr0000gn/T//cc7XktwL.s:21     .text.usbd_ep_setup:0000000000000000 .L0 
/var/folders/yy/83vjwp7d53j56dbzj8_jnpcr0000gn/T//cc7XktwL.s:22     .text.usbd_ep_setup:0000000000000000 .L0 
/var/folders/yy/83vjwp7d53j56dbzj8_jnpcr0000gn/T//cc7XktwL.s:24     .text.usbd_ep_setup:0000000000000002 .L0 
/var/folders/yy/83vjwp7d53j56dbzj8_jnpcr0000gn/T//cc7XktwL.s:26     .text.usbd_ep_setup:0000000000000004 .L0 
/var/folders/yy/83vjwp7d53j56dbzj8_jnpcr0000gn/T//cc7XktwL.s:28     .text.usbd_ep_setup:0000000000000004 .L0 
/var/folders/yy/83vjwp7d53j56dbzj8_jnpcr0000gn/T//cc7XktwL.s:31     .text.usbd_ep_setup:000000000000000c .L0 
/var/folders/yy/83vjwp7d53j56dbzj8_jnpcr0000gn/T//cc7XktwL.s:34     .text.usbd_ep_setup:0000000000000010 .L0 
/var/folders/yy/83vjwp7d53j56dbzj8_jnpcr0000gn/T//cc7XktwL.s:35     .text.usbd_ep_setup:0000000000000010 .L0 
/var/folders/yy/83vjwp7d53j56dbzj8_jnpcr0000gn/T//cc7XktwL.s:39     .text.usbd_ep_setup:0000000000000014 .L0 
/var/folders/yy/83vjwp7d53j56dbzj8_jnpcr0000gn/T//cc7XktwL.s:40     .text.usbd_ep_setup:0000000000000014 .L0 
/var/folders/yy/83vjwp7d53j56dbzj8_jnpcr0000gn/T//cc7XktwL.s:44     .text.usbd_ep_setup:000000000000001e .L0 
/var/folders/yy/83vjwp7d53j56dbzj8_jnpcr0000gn/T//cc7XktwL.s:45     .text.usbd_ep_setup:000000000000001e .L0 
/var/folders/yy/83vjwp7d53j56dbzj8_jnpcr0000gn/T//cc7XktwL.s:50     .text.usbd_ep_setup:000000000000002c .L0 
/var/folders/yy/83vjwp7d53j56dbzj8_jnpcr0000gn/T//cc7XktwL.s:53     .text.usbd_ep_setup:0000000000000032 .L0 
/var/folders/yy/83vjwp7d53j56dbzj8_jnpcr0000gn/T//cc7XktwL.s:56     .text.usbd_ep_setup:0000000000000034 .L0 
/var/folders/yy/83vjwp7d53j56dbzj8_jnpcr0000gn/T//cc7XktwL.s:57     .text.usbd_ep_setup:0000000000000034 .L0 
/var/folders/yy/83vjwp7d53j56dbzj8_jnpcr0000gn/T//cc7XktwL.s:61     .text.usbd_ep_setup:000000000000003c .L0 
/var/folders/yy/83vjwp7d53j56dbzj8_jnpcr0000gn/T//cc7XktwL.s:62     .text.usbd_ep_setup:000000000000003c .L0 
/var/folders/yy/83vjwp7d53j56dbzj8_jnpcr0000gn/T//cc7XktwL.s:66     .text.usbd_ep_setup:0000000000000042 .L0 
/var/folders/yy/83vjwp7d53j56dbzj8_jnpcr0000gn/T//cc7XktwL.s:69     .text.usbd_ep_setup:0000000000000046 .L0 
/var/folders/yy/83vjwp7d53j56dbzj8_jnpcr0000gn/T//cc7XktwL.s:73     .text.usbd_ep_setup:000000000000004e .L0 
/var/folders/yy/83vjwp7d53j56dbzj8_jnpcr0000gn/T//cc7XktwL.s:74     .text.usbd_ep_setup:000000000000004e .L0 
/var/folders/yy/83vjwp7d53j56dbzj8_jnpcr0000gn/T//cc7XktwL.s:76     .text.usbd_ep_setup:0000000000000052 .L0 
/var/folders/yy/83vjwp7d53j56dbzj8_jnpcr0000gn/T//cc7XktwL.s:77     .text.usbd_ep_setup:0000000000000052 .L0 
/var/folders/yy/83vjwp7d53j56dbzj8_jnpcr0000gn/T//cc7XktwL.s:79     .text.usbd_ep_setup:0000000000000056 .L0 
/var/folders/yy/83vjwp7d53j56dbzj8_jnpcr0000gn/T//cc7XktwL.s:82     .text.usbd_ep_setup:0000000000000058 .L0 
/var/folders/yy/83vjwp7d53j56dbzj8_jnpcr0000gn/T//cc7XktwL.s:84     .text.usbd_ep_setup:000000000000005a .L0 
/var/folders/yy/83vjwp7d53j56dbzj8_jnpcr0000gn/T//cc7XktwL.s:89     .text.usbd_ep_setup:0000000000000068 .L0 
/var/folders/yy/83vjwp7d53j56dbzj8_jnpcr0000gn/T//cc7XktwL.s:92     .text.usbd_ep_setup:000000000000006e .L0 
/var/folders/yy/83vjwp7d53j56dbzj8_jnpcr0000gn/T//cc7XktwL.s:95     .text.usbd_ep_setup:0000000000000076 .L0 
/var/folders/yy/83vjwp7d53j56dbzj8_jnpcr0000gn/T//cc7XktwL.s:96     .text.usbd_ep_setup:0000000000000076 .L0 
/var/folders/yy/83vjwp7d53j56dbzj8_jnpcr0000gn/T//cc7XktwL.s:97     .text.usbd_ep_setup:0000000000000078 .L0 
/var/folders/yy/83vjwp7d53j56dbzj8_jnpcr0000gn/T//cc7XktwL.s:98     .text.usbd_ep_setup:0000000000000078 .L0 
/var/folders/yy/83vjwp7d53j56dbzj8_jnpcr0000gn/T//cc7XktwL.s:102    .text.usbd_ep_setup:000000000000007c .L0 
/var/folders/yy/83vjwp7d53j56dbzj8_jnpcr0000gn/T//cc7XktwL.s:107    .text.usbd_ep_setup:000000000000007e .L0 
/var/folders/yy/83vjwp7d53j56dbzj8_jnpcr0000gn/T//cc7XktwL.s:109    .text.usbd_ep_setup:000000000000007e .L0 
/var/folders/yy/83vjwp7d53j56dbzj8_jnpcr0000gn/T//cc7XktwL.s:110    .text.usbd_ep_setup:000000000000007e .L0 
/var/folders/yy/83vjwp7d53j56dbzj8_jnpcr0000gn/T//cc7XktwL.s:114    .text.usbd_ep_setup:0000000000000088 .L0 
/var/folders/yy/83vjwp7d53j56dbzj8_jnpcr0000gn/T//cc7XktwL.s:117    .text.usbd_ep_setup:000000000000008e .L0 
/var/folders/yy/83vjwp7d53j56dbzj8_jnpcr0000gn/T//cc7XktwL.s:120    .text.usbd_ep_setup:0000000000000090 .L0 
/var/folders/yy/83vjwp7d53j56dbzj8_jnpcr0000gn/T//cc7XktwL.s:121    .text.usbd_ep_setup:0000000000000090 .L0 
/var/folders/yy/83vjwp7d53j56dbzj8_jnpcr0000gn/T//cc7XktwL.s:124    .text.usbd_ep_setup:000000000000009a .L0 
/var/folders/yy/83vjwp7d53j56dbzj8_jnpcr0000gn/T//cc7XktwL.s:131    .text.usbd_ep_clear:0000000000000000 usbd_ep_clear
/var/folders/yy/83vjwp7d53j56dbzj8_jnpcr0000gn/T//cc7XktwL.s:134    .text.usbd_ep_clear:0000000000000000 .L0 
/var/folders/yy/83vjwp7d53j56dbzj8_jnpcr0000gn/T//cc7XktwL.s:136    .text.usbd_ep_clear:0000000000000000 .L0 
/var/folders/yy/83vjwp7d53j56dbzj8_jnpcr0000gn/T//cc7XktwL.s:137    .text.usbd_ep_clear:0000000000000000 .L0 
/var/folders/yy/83vjwp7d53j56dbzj8_jnpcr0000gn/T//cc7XktwL.s:138    .text.usbd_ep_clear:0000000000000000 .L0 
/var/folders/yy/83vjwp7d53j56dbzj8_jnpcr0000gn/T//cc7XktwL.s:139    .text.usbd_ep_clear:0000000000000000 .L0 
/var/folders/yy/83vjwp7d53j56dbzj8_jnpcr0000gn/T//cc7XktwL.s:141    .text.usbd_ep_clear:0000000000000002 .L0 
/var/folders/yy/83vjwp7d53j56dbzj8_jnpcr0000gn/T//cc7XktwL.s:143    .text.usbd_ep_clear:0000000000000002 .L0 
/var/folders/yy/83vjwp7d53j56dbzj8_jnpcr0000gn/T//cc7XktwL.s:145    .text.usbd_ep_clear:0000000000000006 .L0 
GAS LISTING /var/folders/yy/83vjwp7d53j56dbzj8_jnpcr0000gn/T//cc7XktwL.s 			page 21


/var/folders/yy/83vjwp7d53j56dbzj8_jnpcr0000gn/T//cc7XktwL.s:146    .text.usbd_ep_clear:0000000000000008 .L0 
/var/folders/yy/83vjwp7d53j56dbzj8_jnpcr0000gn/T//cc7XktwL.s:148    .text.usbd_ep_clear:0000000000000008 .L0 
/var/folders/yy/83vjwp7d53j56dbzj8_jnpcr0000gn/T//cc7XktwL.s:151    .text.usbd_ep_clear:000000000000000e .L0 
/var/folders/yy/83vjwp7d53j56dbzj8_jnpcr0000gn/T//cc7XktwL.s:152    .text.usbd_ep_clear:000000000000000e .L0 
/var/folders/yy/83vjwp7d53j56dbzj8_jnpcr0000gn/T//cc7XktwL.s:159    .text.usbd_ep_clear:000000000000001c .L0 
/var/folders/yy/83vjwp7d53j56dbzj8_jnpcr0000gn/T//cc7XktwL.s:162    .text.usbd_ep_clear:000000000000001e .L0 
/var/folders/yy/83vjwp7d53j56dbzj8_jnpcr0000gn/T//cc7XktwL.s:165    .text.usbd_ep_clear:0000000000000026 .L0 
/var/folders/yy/83vjwp7d53j56dbzj8_jnpcr0000gn/T//cc7XktwL.s:166    .text.usbd_ep_clear:0000000000000026 .L0 
/var/folders/yy/83vjwp7d53j56dbzj8_jnpcr0000gn/T//cc7XktwL.s:167    .text.usbd_ep_clear:0000000000000028 .L0 
/var/folders/yy/83vjwp7d53j56dbzj8_jnpcr0000gn/T//cc7XktwL.s:168    .text.usbd_ep_clear:0000000000000028 .L0 
/var/folders/yy/83vjwp7d53j56dbzj8_jnpcr0000gn/T//cc7XktwL.s:172    .text.usbd_ep_clear:000000000000002c .L0 
/var/folders/yy/83vjwp7d53j56dbzj8_jnpcr0000gn/T//cc7XktwL.s:177    .text.usbd_ep_clear:000000000000002e .L0 
/var/folders/yy/83vjwp7d53j56dbzj8_jnpcr0000gn/T//cc7XktwL.s:179    .text.usbd_ep_clear:000000000000002e .L0 
/var/folders/yy/83vjwp7d53j56dbzj8_jnpcr0000gn/T//cc7XktwL.s:180    .text.usbd_ep_clear:000000000000002e .L0 
/var/folders/yy/83vjwp7d53j56dbzj8_jnpcr0000gn/T//cc7XktwL.s:185    .text.usbd_ep_clear:000000000000003a .L0 
/var/folders/yy/83vjwp7d53j56dbzj8_jnpcr0000gn/T//cc7XktwL.s:192    .text.usbd_ep_recev:0000000000000000 usbd_ep_recev
/var/folders/yy/83vjwp7d53j56dbzj8_jnpcr0000gn/T//cc7XktwL.s:195    .text.usbd_ep_recev:0000000000000000 .L0 
/var/folders/yy/83vjwp7d53j56dbzj8_jnpcr0000gn/T//cc7XktwL.s:197    .text.usbd_ep_recev:0000000000000000 .L0 
/var/folders/yy/83vjwp7d53j56dbzj8_jnpcr0000gn/T//cc7XktwL.s:198    .text.usbd_ep_recev:0000000000000000 .L0 
/var/folders/yy/83vjwp7d53j56dbzj8_jnpcr0000gn/T//cc7XktwL.s:200    .text.usbd_ep_recev:0000000000000004 .L0 
/var/folders/yy/83vjwp7d53j56dbzj8_jnpcr0000gn/T//cc7XktwL.s:204    .text.usbd_ep_recev:000000000000000a .L0 
/var/folders/yy/83vjwp7d53j56dbzj8_jnpcr0000gn/T//cc7XktwL.s:206    .text.usbd_ep_recev:000000000000000c .L0 
/var/folders/yy/83vjwp7d53j56dbzj8_jnpcr0000gn/T//cc7XktwL.s:208    .text.usbd_ep_recev:000000000000000e .L0 
/var/folders/yy/83vjwp7d53j56dbzj8_jnpcr0000gn/T//cc7XktwL.s:210    .text.usbd_ep_recev:000000000000000e .L0 
/var/folders/yy/83vjwp7d53j56dbzj8_jnpcr0000gn/T//cc7XktwL.s:212    .text.usbd_ep_recev:0000000000000010 .L0 
/var/folders/yy/83vjwp7d53j56dbzj8_jnpcr0000gn/T//cc7XktwL.s:214    .text.usbd_ep_recev:0000000000000014 .L0 
/var/folders/yy/83vjwp7d53j56dbzj8_jnpcr0000gn/T//cc7XktwL.s:217    .text.usbd_ep_recev:000000000000001a .L0 
/var/folders/yy/83vjwp7d53j56dbzj8_jnpcr0000gn/T//cc7XktwL.s:219    .text.usbd_ep_recev:000000000000001e .L0 
/var/folders/yy/83vjwp7d53j56dbzj8_jnpcr0000gn/T//cc7XktwL.s:221    .text.usbd_ep_recev:0000000000000022 .L0 
/var/folders/yy/83vjwp7d53j56dbzj8_jnpcr0000gn/T//cc7XktwL.s:224    .text.usbd_ep_recev:0000000000000026 .L0 
/var/folders/yy/83vjwp7d53j56dbzj8_jnpcr0000gn/T//cc7XktwL.s:227    .text.usbd_ep_recev:0000000000000028 .L0 
/var/folders/yy/83vjwp7d53j56dbzj8_jnpcr0000gn/T//cc7XktwL.s:228    .text.usbd_ep_recev:0000000000000028 .L0 
/var/folders/yy/83vjwp7d53j56dbzj8_jnpcr0000gn/T//cc7XktwL.s:229    .text.usbd_ep_recev:0000000000000028 .L0 
/var/folders/yy/83vjwp7d53j56dbzj8_jnpcr0000gn/T//cc7XktwL.s:230    .text.usbd_ep_recev:0000000000000028 .L0 
/var/folders/yy/83vjwp7d53j56dbzj8_jnpcr0000gn/T//cc7XktwL.s:231    .text.usbd_ep_recev:0000000000000028 .L0 
/var/folders/yy/83vjwp7d53j56dbzj8_jnpcr0000gn/T//cc7XktwL.s:233    .text.usbd_ep_recev:000000000000002c .L0 
/var/folders/yy/83vjwp7d53j56dbzj8_jnpcr0000gn/T//cc7XktwL.s:234    .text.usbd_ep_recev:000000000000002c .L0 
/var/folders/yy/83vjwp7d53j56dbzj8_jnpcr0000gn/T//cc7XktwL.s:237    .text.usbd_ep_recev:0000000000000030 .L0 
/var/folders/yy/83vjwp7d53j56dbzj8_jnpcr0000gn/T//cc7XktwL.s:240    .text.usbd_ep_recev:0000000000000038 .L0 
/var/folders/yy/83vjwp7d53j56dbzj8_jnpcr0000gn/T//cc7XktwL.s:241    .text.usbd_ep_recev:0000000000000038 .L0 
/var/folders/yy/83vjwp7d53j56dbzj8_jnpcr0000gn/T//cc7XktwL.s:242    .text.usbd_ep_recev:000000000000003a .L0 
/var/folders/yy/83vjwp7d53j56dbzj8_jnpcr0000gn/T//cc7XktwL.s:246    .text.usbd_ep_recev:000000000000003e .L0 
/var/folders/yy/83vjwp7d53j56dbzj8_jnpcr0000gn/T//cc7XktwL.s:248    .text.usbd_ep_recev:0000000000000040 .L0 
/var/folders/yy/83vjwp7d53j56dbzj8_jnpcr0000gn/T//cc7XktwL.s:255    .text.usbd_ep_send:0000000000000000 usbd_ep_send
/var/folders/yy/83vjwp7d53j56dbzj8_jnpcr0000gn/T//cc7XktwL.s:258    .text.usbd_ep_send:0000000000000000 .L0 
/var/folders/yy/83vjwp7d53j56dbzj8_jnpcr0000gn/T//cc7XktwL.s:260    .text.usbd_ep_send:0000000000000000 .L0 
/var/folders/yy/83vjwp7d53j56dbzj8_jnpcr0000gn/T//cc7XktwL.s:261    .text.usbd_ep_send:0000000000000000 .L0 
/var/folders/yy/83vjwp7d53j56dbzj8_jnpcr0000gn/T//cc7XktwL.s:263    .text.usbd_ep_send:0000000000000004 .L0 
/var/folders/yy/83vjwp7d53j56dbzj8_jnpcr0000gn/T//cc7XktwL.s:267    .text.usbd_ep_send:000000000000000a .L0 
/var/folders/yy/83vjwp7d53j56dbzj8_jnpcr0000gn/T//cc7XktwL.s:269    .text.usbd_ep_send:000000000000000c .L0 
/var/folders/yy/83vjwp7d53j56dbzj8_jnpcr0000gn/T//cc7XktwL.s:271    .text.usbd_ep_send:000000000000000e .L0 
/var/folders/yy/83vjwp7d53j56dbzj8_jnpcr0000gn/T//cc7XktwL.s:273    .text.usbd_ep_send:000000000000000e .L0 
/var/folders/yy/83vjwp7d53j56dbzj8_jnpcr0000gn/T//cc7XktwL.s:275    .text.usbd_ep_send:0000000000000010 .L0 
/var/folders/yy/83vjwp7d53j56dbzj8_jnpcr0000gn/T//cc7XktwL.s:277    .text.usbd_ep_send:0000000000000014 .L0 
/var/folders/yy/83vjwp7d53j56dbzj8_jnpcr0000gn/T//cc7XktwL.s:280    .text.usbd_ep_send:000000000000001a .L0 
/var/folders/yy/83vjwp7d53j56dbzj8_jnpcr0000gn/T//cc7XktwL.s:282    .text.usbd_ep_send:000000000000001e .L0 
/var/folders/yy/83vjwp7d53j56dbzj8_jnpcr0000gn/T//cc7XktwL.s:284    .text.usbd_ep_send:0000000000000022 .L0 
GAS LISTING /var/folders/yy/83vjwp7d53j56dbzj8_jnpcr0000gn/T//cc7XktwL.s 			page 22


/var/folders/yy/83vjwp7d53j56dbzj8_jnpcr0000gn/T//cc7XktwL.s:287    .text.usbd_ep_send:0000000000000026 .L0 
/var/folders/yy/83vjwp7d53j56dbzj8_jnpcr0000gn/T//cc7XktwL.s:290    .text.usbd_ep_send:0000000000000028 .L0 
/var/folders/yy/83vjwp7d53j56dbzj8_jnpcr0000gn/T//cc7XktwL.s:291    .text.usbd_ep_send:0000000000000028 .L0 
/var/folders/yy/83vjwp7d53j56dbzj8_jnpcr0000gn/T//cc7XktwL.s:292    .text.usbd_ep_send:0000000000000028 .L0 
/var/folders/yy/83vjwp7d53j56dbzj8_jnpcr0000gn/T//cc7XktwL.s:293    .text.usbd_ep_send:0000000000000028 .L0 
/var/folders/yy/83vjwp7d53j56dbzj8_jnpcr0000gn/T//cc7XktwL.s:294    .text.usbd_ep_send:0000000000000028 .L0 
/var/folders/yy/83vjwp7d53j56dbzj8_jnpcr0000gn/T//cc7XktwL.s:296    .text.usbd_ep_send:000000000000002c .L0 
/var/folders/yy/83vjwp7d53j56dbzj8_jnpcr0000gn/T//cc7XktwL.s:297    .text.usbd_ep_send:000000000000002c .L0 
/var/folders/yy/83vjwp7d53j56dbzj8_jnpcr0000gn/T//cc7XktwL.s:300    .text.usbd_ep_send:0000000000000030 .L0 
/var/folders/yy/83vjwp7d53j56dbzj8_jnpcr0000gn/T//cc7XktwL.s:303    .text.usbd_ep_send:0000000000000038 .L0 
/var/folders/yy/83vjwp7d53j56dbzj8_jnpcr0000gn/T//cc7XktwL.s:304    .text.usbd_ep_send:0000000000000038 .L0 
/var/folders/yy/83vjwp7d53j56dbzj8_jnpcr0000gn/T//cc7XktwL.s:305    .text.usbd_ep_send:000000000000003a .L0 
/var/folders/yy/83vjwp7d53j56dbzj8_jnpcr0000gn/T//cc7XktwL.s:309    .text.usbd_ep_send:000000000000003e .L0 
/var/folders/yy/83vjwp7d53j56dbzj8_jnpcr0000gn/T//cc7XktwL.s:311    .text.usbd_ep_send:0000000000000040 .L0 
/var/folders/yy/83vjwp7d53j56dbzj8_jnpcr0000gn/T//cc7XktwL.s:318    .text.usbd_ep_stall:0000000000000000 usbd_ep_stall
/var/folders/yy/83vjwp7d53j56dbzj8_jnpcr0000gn/T//cc7XktwL.s:321    .text.usbd_ep_stall:0000000000000000 .L0 
/var/folders/yy/83vjwp7d53j56dbzj8_jnpcr0000gn/T//cc7XktwL.s:323    .text.usbd_ep_stall:0000000000000000 .L0 
/var/folders/yy/83vjwp7d53j56dbzj8_jnpcr0000gn/T//cc7XktwL.s:324    .text.usbd_ep_stall:0000000000000000 .L0 
/var/folders/yy/83vjwp7d53j56dbzj8_jnpcr0000gn/T//cc7XktwL.s:325    .text.usbd_ep_stall:0000000000000000 .L0 
/var/folders/yy/83vjwp7d53j56dbzj8_jnpcr0000gn/T//cc7XktwL.s:326    .text.usbd_ep_stall:0000000000000000 .L0 
/var/folders/yy/83vjwp7d53j56dbzj8_jnpcr0000gn/T//cc7XktwL.s:328    .text.usbd_ep_stall:0000000000000002 .L0 
/var/folders/yy/83vjwp7d53j56dbzj8_jnpcr0000gn/T//cc7XktwL.s:330    .text.usbd_ep_stall:0000000000000002 .L0 
/var/folders/yy/83vjwp7d53j56dbzj8_jnpcr0000gn/T//cc7XktwL.s:332    .text.usbd_ep_stall:0000000000000006 .L0 
/var/folders/yy/83vjwp7d53j56dbzj8_jnpcr0000gn/T//cc7XktwL.s:333    .text.usbd_ep_stall:0000000000000008 .L0 
/var/folders/yy/83vjwp7d53j56dbzj8_jnpcr0000gn/T//cc7XktwL.s:335    .text.usbd_ep_stall:0000000000000008 .L0 
/var/folders/yy/83vjwp7d53j56dbzj8_jnpcr0000gn/T//cc7XktwL.s:338    .text.usbd_ep_stall:000000000000000e .L0 
/var/folders/yy/83vjwp7d53j56dbzj8_jnpcr0000gn/T//cc7XktwL.s:339    .text.usbd_ep_stall:000000000000000e .L0 
/var/folders/yy/83vjwp7d53j56dbzj8_jnpcr0000gn/T//cc7XktwL.s:346    .text.usbd_ep_stall:000000000000001c .L0 
/var/folders/yy/83vjwp7d53j56dbzj8_jnpcr0000gn/T//cc7XktwL.s:349    .text.usbd_ep_stall:000000000000001e .L0 
/var/folders/yy/83vjwp7d53j56dbzj8_jnpcr0000gn/T//cc7XktwL.s:350    .text.usbd_ep_stall:000000000000001e .L0 
/var/folders/yy/83vjwp7d53j56dbzj8_jnpcr0000gn/T//cc7XktwL.s:353    .text.usbd_ep_stall:0000000000000024 .L0 
/var/folders/yy/83vjwp7d53j56dbzj8_jnpcr0000gn/T//cc7XktwL.s:356    .text.usbd_ep_stall:000000000000002c .L0 
/var/folders/yy/83vjwp7d53j56dbzj8_jnpcr0000gn/T//cc7XktwL.s:357    .text.usbd_ep_stall:000000000000002c .L0 
/var/folders/yy/83vjwp7d53j56dbzj8_jnpcr0000gn/T//cc7XktwL.s:358    .text.usbd_ep_stall:000000000000002e .L0 
/var/folders/yy/83vjwp7d53j56dbzj8_jnpcr0000gn/T//cc7XktwL.s:359    .text.usbd_ep_stall:000000000000002e .L0 
/var/folders/yy/83vjwp7d53j56dbzj8_jnpcr0000gn/T//cc7XktwL.s:363    .text.usbd_ep_stall:0000000000000032 .L0 
/var/folders/yy/83vjwp7d53j56dbzj8_jnpcr0000gn/T//cc7XktwL.s:368    .text.usbd_ep_stall:0000000000000034 .L0 
/var/folders/yy/83vjwp7d53j56dbzj8_jnpcr0000gn/T//cc7XktwL.s:370    .text.usbd_ep_stall:0000000000000034 .L0 
/var/folders/yy/83vjwp7d53j56dbzj8_jnpcr0000gn/T//cc7XktwL.s:371    .text.usbd_ep_stall:0000000000000034 .L0 
/var/folders/yy/83vjwp7d53j56dbzj8_jnpcr0000gn/T//cc7XktwL.s:376    .text.usbd_ep_stall:0000000000000040 .L0 
/var/folders/yy/83vjwp7d53j56dbzj8_jnpcr0000gn/T//cc7XktwL.s:383    .text.usbd_ep_stall_clear:0000000000000000 usbd_ep_stall_clear
/var/folders/yy/83vjwp7d53j56dbzj8_jnpcr0000gn/T//cc7XktwL.s:386    .text.usbd_ep_stall_clear:0000000000000000 .L0 
/var/folders/yy/83vjwp7d53j56dbzj8_jnpcr0000gn/T//cc7XktwL.s:388    .text.usbd_ep_stall_clear:0000000000000000 .L0 
/var/folders/yy/83vjwp7d53j56dbzj8_jnpcr0000gn/T//cc7XktwL.s:389    .text.usbd_ep_stall_clear:0000000000000000 .L0 
/var/folders/yy/83vjwp7d53j56dbzj8_jnpcr0000gn/T//cc7XktwL.s:390    .text.usbd_ep_stall_clear:0000000000000000 .L0 
/var/folders/yy/83vjwp7d53j56dbzj8_jnpcr0000gn/T//cc7XktwL.s:391    .text.usbd_ep_stall_clear:0000000000000000 .L0 
/var/folders/yy/83vjwp7d53j56dbzj8_jnpcr0000gn/T//cc7XktwL.s:393    .text.usbd_ep_stall_clear:0000000000000002 .L0 
/var/folders/yy/83vjwp7d53j56dbzj8_jnpcr0000gn/T//cc7XktwL.s:395    .text.usbd_ep_stall_clear:0000000000000002 .L0 
/var/folders/yy/83vjwp7d53j56dbzj8_jnpcr0000gn/T//cc7XktwL.s:397    .text.usbd_ep_stall_clear:0000000000000006 .L0 
/var/folders/yy/83vjwp7d53j56dbzj8_jnpcr0000gn/T//cc7XktwL.s:398    .text.usbd_ep_stall_clear:0000000000000008 .L0 
/var/folders/yy/83vjwp7d53j56dbzj8_jnpcr0000gn/T//cc7XktwL.s:400    .text.usbd_ep_stall_clear:0000000000000008 .L0 
/var/folders/yy/83vjwp7d53j56dbzj8_jnpcr0000gn/T//cc7XktwL.s:403    .text.usbd_ep_stall_clear:000000000000000e .L0 
/var/folders/yy/83vjwp7d53j56dbzj8_jnpcr0000gn/T//cc7XktwL.s:404    .text.usbd_ep_stall_clear:000000000000000e .L0 
/var/folders/yy/83vjwp7d53j56dbzj8_jnpcr0000gn/T//cc7XktwL.s:411    .text.usbd_ep_stall_clear:000000000000001c .L0 
/var/folders/yy/83vjwp7d53j56dbzj8_jnpcr0000gn/T//cc7XktwL.s:414    .text.usbd_ep_stall_clear:000000000000001e .L0 
/var/folders/yy/83vjwp7d53j56dbzj8_jnpcr0000gn/T//cc7XktwL.s:415    .text.usbd_ep_stall_clear:000000000000001e .L0 
/var/folders/yy/83vjwp7d53j56dbzj8_jnpcr0000gn/T//cc7XktwL.s:417    .text.usbd_ep_stall_clear:0000000000000022 .L0 
GAS LISTING /var/folders/yy/83vjwp7d53j56dbzj8_jnpcr0000gn/T//cc7XktwL.s 			page 23


/var/folders/yy/83vjwp7d53j56dbzj8_jnpcr0000gn/T//cc7XktwL.s:420    .text.usbd_ep_stall_clear:000000000000002a .L0 
/var/folders/yy/83vjwp7d53j56dbzj8_jnpcr0000gn/T//cc7XktwL.s:421    .text.usbd_ep_stall_clear:000000000000002a .L0 
/var/folders/yy/83vjwp7d53j56dbzj8_jnpcr0000gn/T//cc7XktwL.s:422    .text.usbd_ep_stall_clear:000000000000002c .L0 
/var/folders/yy/83vjwp7d53j56dbzj8_jnpcr0000gn/T//cc7XktwL.s:423    .text.usbd_ep_stall_clear:000000000000002c .L0 
/var/folders/yy/83vjwp7d53j56dbzj8_jnpcr0000gn/T//cc7XktwL.s:427    .text.usbd_ep_stall_clear:0000000000000030 .L0 
/var/folders/yy/83vjwp7d53j56dbzj8_jnpcr0000gn/T//cc7XktwL.s:432    .text.usbd_ep_stall_clear:0000000000000032 .L0 
/var/folders/yy/83vjwp7d53j56dbzj8_jnpcr0000gn/T//cc7XktwL.s:434    .text.usbd_ep_stall_clear:0000000000000032 .L0 
/var/folders/yy/83vjwp7d53j56dbzj8_jnpcr0000gn/T//cc7XktwL.s:435    .text.usbd_ep_stall_clear:0000000000000032 .L0 
/var/folders/yy/83vjwp7d53j56dbzj8_jnpcr0000gn/T//cc7XktwL.s:440    .text.usbd_ep_stall_clear:000000000000003e .L0 
/var/folders/yy/83vjwp7d53j56dbzj8_jnpcr0000gn/T//cc7XktwL.s:447    .text.usbd_fifo_flush:0000000000000000 usbd_fifo_flush
/var/folders/yy/83vjwp7d53j56dbzj8_jnpcr0000gn/T//cc7XktwL.s:450    .text.usbd_fifo_flush:0000000000000000 .L0 
/var/folders/yy/83vjwp7d53j56dbzj8_jnpcr0000gn/T//cc7XktwL.s:452    .text.usbd_fifo_flush:0000000000000000 .L0 
/var/folders/yy/83vjwp7d53j56dbzj8_jnpcr0000gn/T//cc7XktwL.s:453    .text.usbd_fifo_flush:0000000000000000 .L0 
/var/folders/yy/83vjwp7d53j56dbzj8_jnpcr0000gn/T//cc7XktwL.s:454    .text.usbd_fifo_flush:0000000000000000 .L0 
/var/folders/yy/83vjwp7d53j56dbzj8_jnpcr0000gn/T//cc7XktwL.s:456    .text.usbd_fifo_flush:0000000000000002 .L0 
/var/folders/yy/83vjwp7d53j56dbzj8_jnpcr0000gn/T//cc7XktwL.s:458    .text.usbd_fifo_flush:0000000000000002 .L0 
/var/folders/yy/83vjwp7d53j56dbzj8_jnpcr0000gn/T//cc7XktwL.s:460    .text.usbd_fifo_flush:0000000000000006 .L0 
/var/folders/yy/83vjwp7d53j56dbzj8_jnpcr0000gn/T//cc7XktwL.s:461    .text.usbd_fifo_flush:0000000000000008 .L0 
/var/folders/yy/83vjwp7d53j56dbzj8_jnpcr0000gn/T//cc7XktwL.s:463    .text.usbd_fifo_flush:0000000000000008 .L0 
/var/folders/yy/83vjwp7d53j56dbzj8_jnpcr0000gn/T//cc7XktwL.s:468    .text.usbd_fifo_flush:0000000000000010 .L0 
/var/folders/yy/83vjwp7d53j56dbzj8_jnpcr0000gn/T//cc7XktwL.s:474    .text.usbd_fifo_flush:000000000000001c .L0 
/var/folders/yy/83vjwp7d53j56dbzj8_jnpcr0000gn/T//cc7XktwL.s:475    .text.usbd_fifo_flush:000000000000001c .L0 
/var/folders/yy/83vjwp7d53j56dbzj8_jnpcr0000gn/T//cc7XktwL.s:476    .text.usbd_fifo_flush:000000000000001e .L0 
/var/folders/yy/83vjwp7d53j56dbzj8_jnpcr0000gn/T//cc7XktwL.s:477    .text.usbd_fifo_flush:000000000000001e .L0 
/var/folders/yy/83vjwp7d53j56dbzj8_jnpcr0000gn/T//cc7XktwL.s:481    .text.usbd_fifo_flush:0000000000000022 .L0 
/var/folders/yy/83vjwp7d53j56dbzj8_jnpcr0000gn/T//cc7XktwL.s:486    .text.usbd_fifo_flush:0000000000000024 .L0 
/var/folders/yy/83vjwp7d53j56dbzj8_jnpcr0000gn/T//cc7XktwL.s:488    .text.usbd_fifo_flush:0000000000000024 .L0 
/var/folders/yy/83vjwp7d53j56dbzj8_jnpcr0000gn/T//cc7XktwL.s:491    .text.usbd_fifo_flush:000000000000002e .L0 
/var/folders/yy/83vjwp7d53j56dbzj8_jnpcr0000gn/T//cc7XktwL.s:498    .text.usbd_addr_set:0000000000000000 usbd_addr_set
/var/folders/yy/83vjwp7d53j56dbzj8_jnpcr0000gn/T//cc7XktwL.s:501    .text.usbd_addr_set:0000000000000000 .L0 
/var/folders/yy/83vjwp7d53j56dbzj8_jnpcr0000gn/T//cc7XktwL.s:503    .text.usbd_addr_set:0000000000000000 .L0 
/var/folders/yy/83vjwp7d53j56dbzj8_jnpcr0000gn/T//cc7XktwL.s:504    .text.usbd_addr_set:0000000000000000 .L0 
/var/folders/yy/83vjwp7d53j56dbzj8_jnpcr0000gn/T//cc7XktwL.s:506    .text.usbd_addr_set:0000000000000008 .L0 
/var/folders/yy/83vjwp7d53j56dbzj8_jnpcr0000gn/T//cc7XktwL.s:513    .text.usbd_rxcount_get:0000000000000000 usbd_rxcount_get
/var/folders/yy/83vjwp7d53j56dbzj8_jnpcr0000gn/T//cc7XktwL.s:516    .text.usbd_rxcount_get:0000000000000000 .L0 
/var/folders/yy/83vjwp7d53j56dbzj8_jnpcr0000gn/T//cc7XktwL.s:518    .text.usbd_rxcount_get:0000000000000000 .L0 
/var/folders/yy/83vjwp7d53j56dbzj8_jnpcr0000gn/T//cc7XktwL.s:519    .text.usbd_rxcount_get:0000000000000000 .L0 
/var/folders/yy/83vjwp7d53j56dbzj8_jnpcr0000gn/T//cc7XktwL.s:520    .text.usbd_rxcount_get:0000000000000000 .L0 
/var/folders/yy/83vjwp7d53j56dbzj8_jnpcr0000gn/T//cc7XktwL.s:525    .text.usbd_rxcount_get:0000000000000008 .L0 
/var/folders/yy/83vjwp7d53j56dbzj8_jnpcr0000gn/T//cc7XktwL.s:528    .text.usbd_rxcount_get:000000000000000e .L0 
/var/folders/yy/83vjwp7d53j56dbzj8_jnpcr0000gn/T//cc7XktwL.s:535    .text.usbd_connect:0000000000000000 usbd_connect
/var/folders/yy/83vjwp7d53j56dbzj8_jnpcr0000gn/T//cc7XktwL.s:538    .text.usbd_connect:0000000000000000 .L0 
/var/folders/yy/83vjwp7d53j56dbzj8_jnpcr0000gn/T//cc7XktwL.s:540    .text.usbd_connect:0000000000000000 .L0 
/var/folders/yy/83vjwp7d53j56dbzj8_jnpcr0000gn/T//cc7XktwL.s:541    .text.usbd_connect:0000000000000000 .L0 
/var/folders/yy/83vjwp7d53j56dbzj8_jnpcr0000gn/T//cc7XktwL.s:542    .text.usbd_connect:0000000000000000 .L0 
/var/folders/yy/83vjwp7d53j56dbzj8_jnpcr0000gn/T//cc7XktwL.s:544    .text.usbd_connect:0000000000000002 .L0 
/var/folders/yy/83vjwp7d53j56dbzj8_jnpcr0000gn/T//cc7XktwL.s:546    .text.usbd_connect:0000000000000004 .L0 
/var/folders/yy/83vjwp7d53j56dbzj8_jnpcr0000gn/T//cc7XktwL.s:548    .text.usbd_connect:0000000000000004 .L0 
/var/folders/yy/83vjwp7d53j56dbzj8_jnpcr0000gn/T//cc7XktwL.s:551    .text.usbd_connect:000000000000000c .L0 
/var/folders/yy/83vjwp7d53j56dbzj8_jnpcr0000gn/T//cc7XktwL.s:552    .text.usbd_connect:000000000000000c .L0 
/var/folders/yy/83vjwp7d53j56dbzj8_jnpcr0000gn/T//cc7XktwL.s:553    .text.usbd_connect:000000000000000e .L0 
/var/folders/yy/83vjwp7d53j56dbzj8_jnpcr0000gn/T//cc7XktwL.s:555    .text.usbd_connect:000000000000000e .L0 
/var/folders/yy/83vjwp7d53j56dbzj8_jnpcr0000gn/T//cc7XktwL.s:557    .text.usbd_connect:0000000000000010 .L0 
/var/folders/yy/83vjwp7d53j56dbzj8_jnpcr0000gn/T//cc7XktwL.s:559    .text.usbd_connect:0000000000000012 .L0 
/var/folders/yy/83vjwp7d53j56dbzj8_jnpcr0000gn/T//cc7XktwL.s:561    .text.usbd_connect:0000000000000012 .L0 
/var/folders/yy/83vjwp7d53j56dbzj8_jnpcr0000gn/T//cc7XktwL.s:563    .text.usbd_connect:000000000000001a .L0 
/var/folders/yy/83vjwp7d53j56dbzj8_jnpcr0000gn/T//cc7XktwL.s:570    .text.usbd_disconnect:0000000000000000 usbd_disconnect
GAS LISTING /var/folders/yy/83vjwp7d53j56dbzj8_jnpcr0000gn/T//cc7XktwL.s 			page 24


/var/folders/yy/83vjwp7d53j56dbzj8_jnpcr0000gn/T//cc7XktwL.s:573    .text.usbd_disconnect:0000000000000000 .L0 
/var/folders/yy/83vjwp7d53j56dbzj8_jnpcr0000gn/T//cc7XktwL.s:575    .text.usbd_disconnect:0000000000000000 .L0 
/var/folders/yy/83vjwp7d53j56dbzj8_jnpcr0000gn/T//cc7XktwL.s:576    .text.usbd_disconnect:0000000000000000 .L0 
/var/folders/yy/83vjwp7d53j56dbzj8_jnpcr0000gn/T//cc7XktwL.s:577    .text.usbd_disconnect:0000000000000000 .L0 
/var/folders/yy/83vjwp7d53j56dbzj8_jnpcr0000gn/T//cc7XktwL.s:579    .text.usbd_disconnect:0000000000000002 .L0 
/var/folders/yy/83vjwp7d53j56dbzj8_jnpcr0000gn/T//cc7XktwL.s:581    .text.usbd_disconnect:0000000000000004 .L0 
/var/folders/yy/83vjwp7d53j56dbzj8_jnpcr0000gn/T//cc7XktwL.s:583    .text.usbd_disconnect:0000000000000004 .L0 
/var/folders/yy/83vjwp7d53j56dbzj8_jnpcr0000gn/T//cc7XktwL.s:586    .text.usbd_disconnect:000000000000000c .L0 
/var/folders/yy/83vjwp7d53j56dbzj8_jnpcr0000gn/T//cc7XktwL.s:587    .text.usbd_disconnect:000000000000000c .L0 
/var/folders/yy/83vjwp7d53j56dbzj8_jnpcr0000gn/T//cc7XktwL.s:588    .text.usbd_disconnect:000000000000000e .L0 
/var/folders/yy/83vjwp7d53j56dbzj8_jnpcr0000gn/T//cc7XktwL.s:590    .text.usbd_disconnect:000000000000000e .L0 
/var/folders/yy/83vjwp7d53j56dbzj8_jnpcr0000gn/T//cc7XktwL.s:592    .text.usbd_disconnect:0000000000000010 .L0 
/var/folders/yy/83vjwp7d53j56dbzj8_jnpcr0000gn/T//cc7XktwL.s:594    .text.usbd_disconnect:0000000000000012 .L0 
/var/folders/yy/83vjwp7d53j56dbzj8_jnpcr0000gn/T//cc7XktwL.s:596    .text.usbd_disconnect:0000000000000012 .L0 
/var/folders/yy/83vjwp7d53j56dbzj8_jnpcr0000gn/T//cc7XktwL.s:598    .text.usbd_disconnect:000000000000001a .L0 
/var/folders/yy/83vjwp7d53j56dbzj8_jnpcr0000gn/T//cc7XktwL.s:605    .text.usbd_init:0000000000000000 usbd_init
/var/folders/yy/83vjwp7d53j56dbzj8_jnpcr0000gn/T//cc7XktwL.s:608    .text.usbd_init:0000000000000000 .L0 
/var/folders/yy/83vjwp7d53j56dbzj8_jnpcr0000gn/T//cc7XktwL.s:610    .text.usbd_init:0000000000000000 .L0 
/var/folders/yy/83vjwp7d53j56dbzj8_jnpcr0000gn/T//cc7XktwL.s:611    .text.usbd_init:0000000000000000 .L0 
/var/folders/yy/83vjwp7d53j56dbzj8_jnpcr0000gn/T//cc7XktwL.s:612    .text.usbd_init:0000000000000000 .L0 
/var/folders/yy/83vjwp7d53j56dbzj8_jnpcr0000gn/T//cc7XktwL.s:614    .text.usbd_init:0000000000000002 .L0 
/var/folders/yy/83vjwp7d53j56dbzj8_jnpcr0000gn/T//cc7XktwL.s:618    .text.usbd_init:0000000000000008 .L0 
/var/folders/yy/83vjwp7d53j56dbzj8_jnpcr0000gn/T//cc7XktwL.s:619    .text.usbd_init:0000000000000008 .L0 
/var/folders/yy/83vjwp7d53j56dbzj8_jnpcr0000gn/T//cc7XktwL.s:620    .text.usbd_init:0000000000000008 .L0 
/var/folders/yy/83vjwp7d53j56dbzj8_jnpcr0000gn/T//cc7XktwL.s:622    .text.usbd_init:0000000000000008 .L0 
/var/folders/yy/83vjwp7d53j56dbzj8_jnpcr0000gn/T//cc7XktwL.s:624    .text.usbd_init:000000000000000c .L0 
/var/folders/yy/83vjwp7d53j56dbzj8_jnpcr0000gn/T//cc7XktwL.s:626    .text.usbd_init:0000000000000010 .L0 
/var/folders/yy/83vjwp7d53j56dbzj8_jnpcr0000gn/T//cc7XktwL.s:631    .text.usbd_init:0000000000000014 .L0 
/var/folders/yy/83vjwp7d53j56dbzj8_jnpcr0000gn/T//cc7XktwL.s:633    .text.usbd_init:0000000000000016 .L0 
/var/folders/yy/83vjwp7d53j56dbzj8_jnpcr0000gn/T//cc7XktwL.s:636    .text.usbd_init:000000000000001e .L0 
/var/folders/yy/83vjwp7d53j56dbzj8_jnpcr0000gn/T//cc7XktwL.s:642    .text.usbd_init:000000000000002c .L0 
/var/folders/yy/83vjwp7d53j56dbzj8_jnpcr0000gn/T//cc7XktwL.s:646    .text.usbd_init:0000000000000036 .L0 
/var/folders/yy/83vjwp7d53j56dbzj8_jnpcr0000gn/T//cc7XktwL.s:650    .text.usbd_init:0000000000000040 .L0 
/var/folders/yy/83vjwp7d53j56dbzj8_jnpcr0000gn/T//cc7XktwL.s:654    .text.usbd_init:000000000000004a .L0 
/var/folders/yy/83vjwp7d53j56dbzj8_jnpcr0000gn/T//cc7XktwL.s:655    .text.usbd_init:000000000000004a .L0 
/var/folders/yy/83vjwp7d53j56dbzj8_jnpcr0000gn/T//cc7XktwL.s:658    .text.usbd_init:0000000000000050 .L0 
/var/folders/yy/83vjwp7d53j56dbzj8_jnpcr0000gn/T//cc7XktwL.s:659    .text.usbd_init:0000000000000052 .L0 
/var/folders/yy/83vjwp7d53j56dbzj8_jnpcr0000gn/T//cc7XktwL.s:661    .text.usbd_init:0000000000000054 .L0 
/var/folders/yy/83vjwp7d53j56dbzj8_jnpcr0000gn/T//cc7XktwL.s:664    .text.usbd_init:0000000000000056 .L0 
/var/folders/yy/83vjwp7d53j56dbzj8_jnpcr0000gn/T//cc7XktwL.s:668    .text.usbd_init:0000000000000058 .L0 
/var/folders/yy/83vjwp7d53j56dbzj8_jnpcr0000gn/T//cc7XktwL.s:670    .text.usbd_init:000000000000005a .L0 
/var/folders/yy/83vjwp7d53j56dbzj8_jnpcr0000gn/T//cc7XktwL.s:679    .rodata.ep_type:0000000000000000 ep_type
/var/folders/yy/83vjwp7d53j56dbzj8_jnpcr0000gn/T//cc7XktwL.s:676    .rodata.ep_type:0000000000000000 .LANCHOR0
/var/folders/yy/83vjwp7d53j56dbzj8_jnpcr0000gn/T//cc7XktwL.s:127    .text.usbd_ep_setup:000000000000009a .L0 
/var/folders/yy/83vjwp7d53j56dbzj8_jnpcr0000gn/T//cc7XktwL.s:188    .text.usbd_ep_clear:000000000000003a .L0 
/var/folders/yy/83vjwp7d53j56dbzj8_jnpcr0000gn/T//cc7XktwL.s:251    .text.usbd_ep_recev:0000000000000040 .L0 
/var/folders/yy/83vjwp7d53j56dbzj8_jnpcr0000gn/T//cc7XktwL.s:314    .text.usbd_ep_send:0000000000000040 .L0 
/var/folders/yy/83vjwp7d53j56dbzj8_jnpcr0000gn/T//cc7XktwL.s:379    .text.usbd_ep_stall:0000000000000040 .L0 
/var/folders/yy/83vjwp7d53j56dbzj8_jnpcr0000gn/T//cc7XktwL.s:443    .text.usbd_ep_stall_clear:000000000000003e .L0 
/var/folders/yy/83vjwp7d53j56dbzj8_jnpcr0000gn/T//cc7XktwL.s:494    .text.usbd_fifo_flush:000000000000002e .L0 
/var/folders/yy/83vjwp7d53j56dbzj8_jnpcr0000gn/T//cc7XktwL.s:509    .text.usbd_addr_set:0000000000000008 .L0 
/var/folders/yy/83vjwp7d53j56dbzj8_jnpcr0000gn/T//cc7XktwL.s:531    .text.usbd_rxcount_get:000000000000000e .L0 
/var/folders/yy/83vjwp7d53j56dbzj8_jnpcr0000gn/T//cc7XktwL.s:566    .text.usbd_connect:000000000000001a .L0 
/var/folders/yy/83vjwp7d53j56dbzj8_jnpcr0000gn/T//cc7XktwL.s:601    .text.usbd_disconnect:000000000000001a .L0 
/var/folders/yy/83vjwp7d53j56dbzj8_jnpcr0000gn/T//cc7XktwL.s:674    .text.usbd_init:000000000000005a .L0 
                     .debug_frame:0000000000000000 .L0 
/var/folders/yy/83vjwp7d53j56dbzj8_jnpcr0000gn/T//cc7XktwL.s:105    .text.usbd_ep_setup:000000000000007e .L2
GAS LISTING /var/folders/yy/83vjwp7d53j56dbzj8_jnpcr0000gn/T//cc7XktwL.s 			page 25


/var/folders/yy/83vjwp7d53j56dbzj8_jnpcr0000gn/T//cc7XktwL.s:59     .text.usbd_ep_setup:000000000000003c .L3
/var/folders/yy/83vjwp7d53j56dbzj8_jnpcr0000gn/T//cc7XktwL.s:175    .text.usbd_ep_clear:000000000000002e .L6
/var/folders/yy/83vjwp7d53j56dbzj8_jnpcr0000gn/T//cc7XktwL.s:157    .text.usbd_ep_clear:000000000000001c .L9
/var/folders/yy/83vjwp7d53j56dbzj8_jnpcr0000gn/T//cc7XktwL.s:235    .text.usbd_ep_recev:0000000000000030 .L11
/var/folders/yy/83vjwp7d53j56dbzj8_jnpcr0000gn/T//cc7XktwL.s:298    .text.usbd_ep_send:0000000000000030 .L14
/var/folders/yy/83vjwp7d53j56dbzj8_jnpcr0000gn/T//cc7XktwL.s:366    .text.usbd_ep_stall:0000000000000034 .L17
/var/folders/yy/83vjwp7d53j56dbzj8_jnpcr0000gn/T//cc7XktwL.s:344    .text.usbd_ep_stall:000000000000001c .L20
/var/folders/yy/83vjwp7d53j56dbzj8_jnpcr0000gn/T//cc7XktwL.s:430    .text.usbd_ep_stall_clear:0000000000000032 .L22
/var/folders/yy/83vjwp7d53j56dbzj8_jnpcr0000gn/T//cc7XktwL.s:409    .text.usbd_ep_stall_clear:000000000000001c .L25
/var/folders/yy/83vjwp7d53j56dbzj8_jnpcr0000gn/T//cc7XktwL.s:484    .text.usbd_fifo_flush:0000000000000024 .L27
/var/folders/yy/83vjwp7d53j56dbzj8_jnpcr0000gn/T//cc7XktwL.s:472    .text.usbd_fifo_flush:000000000000001c .L28
/var/folders/yy/83vjwp7d53j56dbzj8_jnpcr0000gn/T//cc7XktwL.s:3345   .debug_abbrev:0000000000000000 .Ldebug_abbrev0
/var/folders/yy/83vjwp7d53j56dbzj8_jnpcr0000gn/T//cc7XktwL.s:5200   .debug_str:000000000000086d .LASF225
/var/folders/yy/83vjwp7d53j56dbzj8_jnpcr0000gn/T//cc7XktwL.s:4854   .debug_str:0000000000000075 .LASF226
/var/folders/yy/83vjwp7d53j56dbzj8_jnpcr0000gn/T//cc7XktwL.s:4878   .debug_str:0000000000000114 .LASF227
/var/folders/yy/83vjwp7d53j56dbzj8_jnpcr0000gn/T//cc7XktwL.s:4804   .debug_ranges:0000000000000000 .Ldebug_ranges0
/var/folders/yy/83vjwp7d53j56dbzj8_jnpcr0000gn/T//cc7XktwL.s:4832   .debug_line:0000000000000000 .Ldebug_line0
/var/folders/yy/83vjwp7d53j56dbzj8_jnpcr0000gn/T//cc7XktwL.s:4990   .debug_str:00000000000003f6 .LASF0
/var/folders/yy/83vjwp7d53j56dbzj8_jnpcr0000gn/T//cc7XktwL.s:4894   .debug_str:00000000000001bb .LASF1
/var/folders/yy/83vjwp7d53j56dbzj8_jnpcr0000gn/T//cc7XktwL.s:4846   .debug_str:0000000000000048 .LASF4
/var/folders/yy/83vjwp7d53j56dbzj8_jnpcr0000gn/T//cc7XktwL.s:5110   .debug_str:000000000000069f .LASF2
/var/folders/yy/83vjwp7d53j56dbzj8_jnpcr0000gn/T//cc7XktwL.s:4836   .debug_str:0000000000000016 .LASF3
/var/folders/yy/83vjwp7d53j56dbzj8_jnpcr0000gn/T//cc7XktwL.s:5182   .debug_str:0000000000000817 .LASF5
/var/folders/yy/83vjwp7d53j56dbzj8_jnpcr0000gn/T//cc7XktwL.s:5020   .debug_str:00000000000004a7 .LASF6
/var/folders/yy/83vjwp7d53j56dbzj8_jnpcr0000gn/T//cc7XktwL.s:4918   .debug_str:0000000000000253 .LASF7
/var/folders/yy/83vjwp7d53j56dbzj8_jnpcr0000gn/T//cc7XktwL.s:4968   .debug_str:000000000000036b .LASF8
/var/folders/yy/83vjwp7d53j56dbzj8_jnpcr0000gn/T//cc7XktwL.s:5002   .debug_str:000000000000043a .LASF9
/var/folders/yy/83vjwp7d53j56dbzj8_jnpcr0000gn/T//cc7XktwL.s:4892   .debug_str:00000000000001ad .LASF10
/var/folders/yy/83vjwp7d53j56dbzj8_jnpcr0000gn/T//cc7XktwL.s:4946   .debug_str:00000000000002ee .LASF11
/var/folders/yy/83vjwp7d53j56dbzj8_jnpcr0000gn/T//cc7XktwL.s:5238   .debug_str:00000000000009c2 .LASF12
/var/folders/yy/83vjwp7d53j56dbzj8_jnpcr0000gn/T//cc7XktwL.s:4942   .debug_str:00000000000002db .LASF13
/var/folders/yy/83vjwp7d53j56dbzj8_jnpcr0000gn/T//cc7XktwL.s:5222   .debug_str:0000000000000966 .LASF14
/var/folders/yy/83vjwp7d53j56dbzj8_jnpcr0000gn/T//cc7XktwL.s:4994   .debug_str:0000000000000413 .LASF90
/var/folders/yy/83vjwp7d53j56dbzj8_jnpcr0000gn/T//cc7XktwL.s:5172   .debug_str:00000000000007e9 .LASF15
/var/folders/yy/83vjwp7d53j56dbzj8_jnpcr0000gn/T//cc7XktwL.s:5022   .debug_str:00000000000004ba .LASF16
/var/folders/yy/83vjwp7d53j56dbzj8_jnpcr0000gn/T//cc7XktwL.s:4888   .debug_str:000000000000018f .LASF17
/var/folders/yy/83vjwp7d53j56dbzj8_jnpcr0000gn/T//cc7XktwL.s:5046   .debug_str:0000000000000556 .LASF18
/var/folders/yy/83vjwp7d53j56dbzj8_jnpcr0000gn/T//cc7XktwL.s:5260   .debug_str:0000000000000a22 .LASF19
/var/folders/yy/83vjwp7d53j56dbzj8_jnpcr0000gn/T//cc7XktwL.s:5264   .debug_str:0000000000000a39 .LASF20
/var/folders/yy/83vjwp7d53j56dbzj8_jnpcr0000gn/T//cc7XktwL.s:5010   .debug_str:0000000000000474 .LASF21
/var/folders/yy/83vjwp7d53j56dbzj8_jnpcr0000gn/T//cc7XktwL.s:5150   .debug_str:000000000000077b .LASF22
/var/folders/yy/83vjwp7d53j56dbzj8_jnpcr0000gn/T//cc7XktwL.s:5034   .debug_str:000000000000050d .LASF23
/var/folders/yy/83vjwp7d53j56dbzj8_jnpcr0000gn/T//cc7XktwL.s:4880   .debug_str:0000000000000163 .LASF24
/var/folders/yy/83vjwp7d53j56dbzj8_jnpcr0000gn/T//cc7XktwL.s:5274   .debug_str:0000000000000a65 .LASF25
/var/folders/yy/83vjwp7d53j56dbzj8_jnpcr0000gn/T//cc7XktwL.s:5194   .debug_str:0000000000000851 .LASF26
/var/folders/yy/83vjwp7d53j56dbzj8_jnpcr0000gn/T//cc7XktwL.s:5192   .debug_str:0000000000000849 .LASF27
/var/folders/yy/83vjwp7d53j56dbzj8_jnpcr0000gn/T//cc7XktwL.s:5144   .debug_str:000000000000075c .LASF28
/var/folders/yy/83vjwp7d53j56dbzj8_jnpcr0000gn/T//cc7XktwL.s:4870   .debug_str:00000000000000d8 .LASF29
/var/folders/yy/83vjwp7d53j56dbzj8_jnpcr0000gn/T//cc7XktwL.s:5088   .debug_str:0000000000000631 .LASF30
/var/folders/yy/83vjwp7d53j56dbzj8_jnpcr0000gn/T//cc7XktwL.s:5078   .debug_str:0000000000000604 .LASF31
/var/folders/yy/83vjwp7d53j56dbzj8_jnpcr0000gn/T//cc7XktwL.s:5250   .debug_str:00000000000009f1 .LASF32
/var/folders/yy/83vjwp7d53j56dbzj8_jnpcr0000gn/T//cc7XktwL.s:5130   .debug_str:0000000000000716 .LASF33
/var/folders/yy/83vjwp7d53j56dbzj8_jnpcr0000gn/T//cc7XktwL.s:5272   .debug_str:0000000000000a5d .LASF34
/var/folders/yy/83vjwp7d53j56dbzj8_jnpcr0000gn/T//cc7XktwL.s:5092   .debug_str:0000000000000645 .LASF35
/var/folders/yy/83vjwp7d53j56dbzj8_jnpcr0000gn/T//cc7XktwL.s:5106   .debug_str:0000000000000692 .LASF36
/var/folders/yy/83vjwp7d53j56dbzj8_jnpcr0000gn/T//cc7XktwL.s:5244   .debug_str:00000000000009dc .LASF37
/var/folders/yy/83vjwp7d53j56dbzj8_jnpcr0000gn/T//cc7XktwL.s:5164   .debug_str:00000000000007c0 .LASF38
GAS LISTING /var/folders/yy/83vjwp7d53j56dbzj8_jnpcr0000gn/T//cc7XktwL.s 			page 26


/var/folders/yy/83vjwp7d53j56dbzj8_jnpcr0000gn/T//cc7XktwL.s:5116   .debug_str:00000000000006c7 .LASF39
/var/folders/yy/83vjwp7d53j56dbzj8_jnpcr0000gn/T//cc7XktwL.s:5132   .debug_str:0000000000000721 .LASF40
/var/folders/yy/83vjwp7d53j56dbzj8_jnpcr0000gn/T//cc7XktwL.s:5176   .debug_str:0000000000000801 .LASF41
/var/folders/yy/83vjwp7d53j56dbzj8_jnpcr0000gn/T//cc7XktwL.s:5062   .debug_str:00000000000005b8 .LASF42
/var/folders/yy/83vjwp7d53j56dbzj8_jnpcr0000gn/T//cc7XktwL.s:5178   .debug_str:0000000000000809 .LASF43
/var/folders/yy/83vjwp7d53j56dbzj8_jnpcr0000gn/T//cc7XktwL.s:5188   .debug_str:0000000000000833 .LASF44
/var/folders/yy/83vjwp7d53j56dbzj8_jnpcr0000gn/T//cc7XktwL.s:5070   .debug_str:00000000000005dd .LASF45
/var/folders/yy/83vjwp7d53j56dbzj8_jnpcr0000gn/T//cc7XktwL.s:5236   .debug_str:00000000000009ba .LASF46
/var/folders/yy/83vjwp7d53j56dbzj8_jnpcr0000gn/T//cc7XktwL.s:5050   .debug_str:000000000000056e .LASF47
/var/folders/yy/83vjwp7d53j56dbzj8_jnpcr0000gn/T//cc7XktwL.s:4916   .debug_str:000000000000024c .LASF48
/var/folders/yy/83vjwp7d53j56dbzj8_jnpcr0000gn/T//cc7XktwL.s:4950   .debug_str:000000000000030b .LASF49
/var/folders/yy/83vjwp7d53j56dbzj8_jnpcr0000gn/T//cc7XktwL.s:5184   .debug_str:0000000000000822 .LASF50
/var/folders/yy/83vjwp7d53j56dbzj8_jnpcr0000gn/T//cc7XktwL.s:5202   .debug_str:00000000000008f5 .LASF51
/var/folders/yy/83vjwp7d53j56dbzj8_jnpcr0000gn/T//cc7XktwL.s:4934   .debug_str:00000000000002b7 .LASF52
/var/folders/yy/83vjwp7d53j56dbzj8_jnpcr0000gn/T//cc7XktwL.s:5204   .debug_str:00000000000008fc .LASF53
/var/folders/yy/83vjwp7d53j56dbzj8_jnpcr0000gn/T//cc7XktwL.s:5084   .debug_str:0000000000000620 .LASF54
/var/folders/yy/83vjwp7d53j56dbzj8_jnpcr0000gn/T//cc7XktwL.s:4922   .debug_str:000000000000026e .LASF55
/var/folders/yy/83vjwp7d53j56dbzj8_jnpcr0000gn/T//cc7XktwL.s:5004   .debug_str:000000000000044c .LASF56
/var/folders/yy/83vjwp7d53j56dbzj8_jnpcr0000gn/T//cc7XktwL.s:5072   .debug_str:00000000000005e6 .LASF57
/var/folders/yy/83vjwp7d53j56dbzj8_jnpcr0000gn/T//cc7XktwL.s:5118   .debug_str:00000000000006d3 .LASF58
/var/folders/yy/83vjwp7d53j56dbzj8_jnpcr0000gn/T//cc7XktwL.s:5052   .debug_str:0000000000000577 .LASF59
/var/folders/yy/83vjwp7d53j56dbzj8_jnpcr0000gn/T//cc7XktwL.s:5214   .debug_str:000000000000093d .LASF60
/var/folders/yy/83vjwp7d53j56dbzj8_jnpcr0000gn/T//cc7XktwL.s:5038   .debug_str:000000000000051d .LASF61
/var/folders/yy/83vjwp7d53j56dbzj8_jnpcr0000gn/T//cc7XktwL.s:5160   .debug_str:00000000000007b1 .LASF62
/var/folders/yy/83vjwp7d53j56dbzj8_jnpcr0000gn/T//cc7XktwL.s:5240   .debug_str:00000000000009ca .LASF63
/var/folders/yy/83vjwp7d53j56dbzj8_jnpcr0000gn/T//cc7XktwL.s:5036   .debug_str:0000000000000515 .LASF64
/var/folders/yy/83vjwp7d53j56dbzj8_jnpcr0000gn/T//cc7XktwL.s:4838   .debug_str:0000000000000020 .LASF65
/var/folders/yy/83vjwp7d53j56dbzj8_jnpcr0000gn/T//cc7XktwL.s:5122   .debug_str:00000000000006e4 .LASF66
/var/folders/yy/83vjwp7d53j56dbzj8_jnpcr0000gn/T//cc7XktwL.s:5032   .debug_str:0000000000000503 .LASF67
/var/folders/yy/83vjwp7d53j56dbzj8_jnpcr0000gn/T//cc7XktwL.s:4926   .debug_str:0000000000000283 .LASF68
/var/folders/yy/83vjwp7d53j56dbzj8_jnpcr0000gn/T//cc7XktwL.s:5138   .debug_str:0000000000000744 .LASF69
/var/folders/yy/83vjwp7d53j56dbzj8_jnpcr0000gn/T//cc7XktwL.s:4956   .debug_str:0000000000000325 .LASF70
/var/folders/yy/83vjwp7d53j56dbzj8_jnpcr0000gn/T//cc7XktwL.s:4952   .debug_str:0000000000000316 .LASF71
/var/folders/yy/83vjwp7d53j56dbzj8_jnpcr0000gn/T//cc7XktwL.s:5066   .debug_str:00000000000005ce .LASF72
/var/folders/yy/83vjwp7d53j56dbzj8_jnpcr0000gn/T//cc7XktwL.s:4906   .debug_str:0000000000000211 .LASF73
/var/folders/yy/83vjwp7d53j56dbzj8_jnpcr0000gn/T//cc7XktwL.s:4860   .debug_str:00000000000000ac .LASF74
/var/folders/yy/83vjwp7d53j56dbzj8_jnpcr0000gn/T//cc7XktwL.s:5246   .debug_str:00000000000009e1 .LASF75
/var/folders/yy/83vjwp7d53j56dbzj8_jnpcr0000gn/T//cc7XktwL.s:4842   .debug_str:0000000000000031 .LASF76
/var/folders/yy/83vjwp7d53j56dbzj8_jnpcr0000gn/T//cc7XktwL.s:4844   .debug_str:000000000000003d .LASF77
/var/folders/yy/83vjwp7d53j56dbzj8_jnpcr0000gn/T//cc7XktwL.s:5226   .debug_str:0000000000000980 .LASF78
/var/folders/yy/83vjwp7d53j56dbzj8_jnpcr0000gn/T//cc7XktwL.s:5220   .debug_str:000000000000095e .LASF79
/var/folders/yy/83vjwp7d53j56dbzj8_jnpcr0000gn/T//cc7XktwL.s:4910   .debug_str:000000000000022b .LASF80
/var/folders/yy/83vjwp7d53j56dbzj8_jnpcr0000gn/T//cc7XktwL.s:4958   .debug_str:0000000000000330 .LASF81
/var/folders/yy/83vjwp7d53j56dbzj8_jnpcr0000gn/T//cc7XktwL.s:5170   .debug_str:00000000000007dd .LASF82
/var/folders/yy/83vjwp7d53j56dbzj8_jnpcr0000gn/T//cc7XktwL.s:4924   .debug_str:0000000000000279 .LASF83
/var/folders/yy/83vjwp7d53j56dbzj8_jnpcr0000gn/T//cc7XktwL.s:4872   .debug_str:00000000000000ec .LASF96
/var/folders/yy/83vjwp7d53j56dbzj8_jnpcr0000gn/T//cc7XktwL.s:4948   .debug_str:0000000000000305 .LASF84
/var/folders/yy/83vjwp7d53j56dbzj8_jnpcr0000gn/T//cc7XktwL.s:5206   .debug_str:0000000000000901 .LASF85
/var/folders/yy/83vjwp7d53j56dbzj8_jnpcr0000gn/T//cc7XktwL.s:4848   .debug_str:0000000000000052 .LASF86
/var/folders/yy/83vjwp7d53j56dbzj8_jnpcr0000gn/T//cc7XktwL.s:5108   .debug_str:0000000000000699 .LASF87
/var/folders/yy/83vjwp7d53j56dbzj8_jnpcr0000gn/T//cc7XktwL.s:5124   .debug_str:00000000000006ec .LASF88
/var/folders/yy/83vjwp7d53j56dbzj8_jnpcr0000gn/T//cc7XktwL.s:4960   .debug_str:0000000000000338 .LASF89
/var/folders/yy/83vjwp7d53j56dbzj8_jnpcr0000gn/T//cc7XktwL.s:4976   .debug_str:00000000000003a5 .LASF91
/var/folders/yy/83vjwp7d53j56dbzj8_jnpcr0000gn/T//cc7XktwL.s:5028   .debug_str:00000000000004e7 .LASF115
/var/folders/yy/83vjwp7d53j56dbzj8_jnpcr0000gn/T//cc7XktwL.s:5136   .debug_str:0000000000000734 .LASF92
/var/folders/yy/83vjwp7d53j56dbzj8_jnpcr0000gn/T//cc7XktwL.s:5056   .debug_str:000000000000058a .LASF93
/var/folders/yy/83vjwp7d53j56dbzj8_jnpcr0000gn/T//cc7XktwL.s:5016   .debug_str:000000000000048e .LASF94
GAS LISTING /var/folders/yy/83vjwp7d53j56dbzj8_jnpcr0000gn/T//cc7XktwL.s 			page 27


/var/folders/yy/83vjwp7d53j56dbzj8_jnpcr0000gn/T//cc7XktwL.s:5212   .debug_str:000000000000092d .LASF95
/var/folders/yy/83vjwp7d53j56dbzj8_jnpcr0000gn/T//cc7XktwL.s:5256   .debug_str:0000000000000a09 .LASF97
/var/folders/yy/83vjwp7d53j56dbzj8_jnpcr0000gn/T//cc7XktwL.s:4974   .debug_str:0000000000000397 .LASF98
/var/folders/yy/83vjwp7d53j56dbzj8_jnpcr0000gn/T//cc7XktwL.s:5134   .debug_str:000000000000072b .LASF99
/var/folders/yy/83vjwp7d53j56dbzj8_jnpcr0000gn/T//cc7XktwL.s:4940   .debug_str:00000000000002d4 .LASF100
/var/folders/yy/83vjwp7d53j56dbzj8_jnpcr0000gn/T//cc7XktwL.s:4986   .debug_str:00000000000003db .LASF101
/var/folders/yy/83vjwp7d53j56dbzj8_jnpcr0000gn/T//cc7XktwL.s:5248   .debug_str:00000000000009e9 .LASF102
/var/folders/yy/83vjwp7d53j56dbzj8_jnpcr0000gn/T//cc7XktwL.s:4864   .debug_str:00000000000000c0 .LASF103
/var/folders/yy/83vjwp7d53j56dbzj8_jnpcr0000gn/T//cc7XktwL.s:5168   .debug_str:00000000000007cc .LASF104
/var/folders/yy/83vjwp7d53j56dbzj8_jnpcr0000gn/T//cc7XktwL.s:5252   .debug_str:00000000000009f7 .LASF105
/var/folders/yy/83vjwp7d53j56dbzj8_jnpcr0000gn/T//cc7XktwL.s:5044   .debug_str:0000000000000546 .LASF106
/var/folders/yy/83vjwp7d53j56dbzj8_jnpcr0000gn/T//cc7XktwL.s:5114   .debug_str:00000000000006b7 .LASF107
/var/folders/yy/83vjwp7d53j56dbzj8_jnpcr0000gn/T//cc7XktwL.s:4890   .debug_str:00000000000001a0 .LASF108
/var/folders/yy/83vjwp7d53j56dbzj8_jnpcr0000gn/T//cc7XktwL.s:5282   .debug_str:0000000000000a93 .LASF109
/var/folders/yy/83vjwp7d53j56dbzj8_jnpcr0000gn/T//cc7XktwL.s:5102   .debug_str:0000000000000679 .LASF110
/var/folders/yy/83vjwp7d53j56dbzj8_jnpcr0000gn/T//cc7XktwL.s:5026   .debug_str:00000000000004da .LASF111
/var/folders/yy/83vjwp7d53j56dbzj8_jnpcr0000gn/T//cc7XktwL.s:5190   .debug_str:000000000000083a .LASF112
/var/folders/yy/83vjwp7d53j56dbzj8_jnpcr0000gn/T//cc7XktwL.s:5058   .debug_str:000000000000059a .LASF113
/var/folders/yy/83vjwp7d53j56dbzj8_jnpcr0000gn/T//cc7XktwL.s:5064   .debug_str:00000000000005c2 .LASF114
/var/folders/yy/83vjwp7d53j56dbzj8_jnpcr0000gn/T//cc7XktwL.s:5082   .debug_str:0000000000000614 .LASF116
/var/folders/yy/83vjwp7d53j56dbzj8_jnpcr0000gn/T//cc7XktwL.s:4966   .debug_str:000000000000035b .LASF117
/var/folders/yy/83vjwp7d53j56dbzj8_jnpcr0000gn/T//cc7XktwL.s:4992   .debug_str:0000000000000403 .LASF118
/var/folders/yy/83vjwp7d53j56dbzj8_jnpcr0000gn/T//cc7XktwL.s:5006   .debug_str:0000000000000456 .LASF119
/var/folders/yy/83vjwp7d53j56dbzj8_jnpcr0000gn/T//cc7XktwL.s:5258   .debug_str:0000000000000a12 .LASF120
/var/folders/yy/83vjwp7d53j56dbzj8_jnpcr0000gn/T//cc7XktwL.s:5128   .debug_str:0000000000000706 .LASF121
/var/folders/yy/83vjwp7d53j56dbzj8_jnpcr0000gn/T//cc7XktwL.s:4978   .debug_str:00000000000003af .LASF122
/var/folders/yy/83vjwp7d53j56dbzj8_jnpcr0000gn/T//cc7XktwL.s:4962   .debug_str:0000000000000346 .LASF123
/var/folders/yy/83vjwp7d53j56dbzj8_jnpcr0000gn/T//cc7XktwL.s:4882   .debug_str:0000000000000169 .LASF124
/var/folders/yy/83vjwp7d53j56dbzj8_jnpcr0000gn/T//cc7XktwL.s:4862   .debug_str:00000000000000b5 .LASF125
/var/folders/yy/83vjwp7d53j56dbzj8_jnpcr0000gn/T//cc7XktwL.s:4980   .debug_str:00000000000003bc .LASF126
/var/folders/yy/83vjwp7d53j56dbzj8_jnpcr0000gn/T//cc7XktwL.s:5268   .debug_str:0000000000000a4d .LASF127
/var/folders/yy/83vjwp7d53j56dbzj8_jnpcr0000gn/T//cc7XktwL.s:5040   .debug_str:0000000000000528 .LASF128
/var/folders/yy/83vjwp7d53j56dbzj8_jnpcr0000gn/T//cc7XktwL.s:4982   .debug_str:00000000000003c5 .LASF129
/var/folders/yy/83vjwp7d53j56dbzj8_jnpcr0000gn/T//cc7XktwL.s:4866   .debug_str:00000000000000c8 .LASF130
/var/folders/yy/83vjwp7d53j56dbzj8_jnpcr0000gn/T//cc7XktwL.s:5148   .debug_str:0000000000000771 .LASF131
/var/folders/yy/83vjwp7d53j56dbzj8_jnpcr0000gn/T//cc7XktwL.s:5152   .debug_str:0000000000000782 .LASF132
/var/folders/yy/83vjwp7d53j56dbzj8_jnpcr0000gn/T//cc7XktwL.s:5112   .debug_str:00000000000006ad .LASF133
/var/folders/yy/83vjwp7d53j56dbzj8_jnpcr0000gn/T//cc7XktwL.s:5090   .debug_str:000000000000063c .LASF134
/var/folders/yy/83vjwp7d53j56dbzj8_jnpcr0000gn/T//cc7XktwL.s:5174   .debug_str:00000000000007f5 .LASF135
/var/folders/yy/83vjwp7d53j56dbzj8_jnpcr0000gn/T//cc7XktwL.s:5120   .debug_str:00000000000006db .LASF136
/var/folders/yy/83vjwp7d53j56dbzj8_jnpcr0000gn/T//cc7XktwL.s:5186   .debug_str:000000000000082b .LASF137
/var/folders/yy/83vjwp7d53j56dbzj8_jnpcr0000gn/T//cc7XktwL.s:5288   .debug_str:0000000000000ab9 .LASF138
/var/folders/yy/83vjwp7d53j56dbzj8_jnpcr0000gn/T//cc7XktwL.s:4954   .debug_str:000000000000031d .LASF139
/var/folders/yy/83vjwp7d53j56dbzj8_jnpcr0000gn/T//cc7XktwL.s:5086   .debug_str:0000000000000626 .LASF140
/var/folders/yy/83vjwp7d53j56dbzj8_jnpcr0000gn/T//cc7XktwL.s:5242   .debug_str:00000000000009d2 .LASF141
/var/folders/yy/83vjwp7d53j56dbzj8_jnpcr0000gn/T//cc7XktwL.s:4972   .debug_str:0000000000000385 .LASF142
/var/folders/yy/83vjwp7d53j56dbzj8_jnpcr0000gn/T//cc7XktwL.s:5210   .debug_str:000000000000091c .LASF143
/var/folders/yy/83vjwp7d53j56dbzj8_jnpcr0000gn/T//cc7XktwL.s:5198   .debug_str:0000000000000866 .LASF144
/var/folders/yy/83vjwp7d53j56dbzj8_jnpcr0000gn/T//cc7XktwL.s:5096   .debug_str:0000000000000654 .LASF145
/var/folders/yy/83vjwp7d53j56dbzj8_jnpcr0000gn/T//cc7XktwL.s:5048   .debug_str:0000000000000564 .LASF146
/var/folders/yy/83vjwp7d53j56dbzj8_jnpcr0000gn/T//cc7XktwL.s:5142   .debug_str:0000000000000754 .LASF147
/var/folders/yy/83vjwp7d53j56dbzj8_jnpcr0000gn/T//cc7XktwL.s:5278   .debug_str:0000000000000a7a .LASF148
/var/folders/yy/83vjwp7d53j56dbzj8_jnpcr0000gn/T//cc7XktwL.s:4914   .debug_str:0000000000000244 .LASF149
/var/folders/yy/83vjwp7d53j56dbzj8_jnpcr0000gn/T//cc7XktwL.s:5216   .debug_str:0000000000000948 .LASF150
/var/folders/yy/83vjwp7d53j56dbzj8_jnpcr0000gn/T//cc7XktwL.s:5270   .debug_str:0000000000000a54 .LASF151
/var/folders/yy/83vjwp7d53j56dbzj8_jnpcr0000gn/T//cc7XktwL.s:5000   .debug_str:0000000000000430 .LASF152
/var/folders/yy/83vjwp7d53j56dbzj8_jnpcr0000gn/T//cc7XktwL.s:5232   .debug_str:00000000000009a9 .LASF153
GAS LISTING /var/folders/yy/83vjwp7d53j56dbzj8_jnpcr0000gn/T//cc7XktwL.s 			page 28


/var/folders/yy/83vjwp7d53j56dbzj8_jnpcr0000gn/T//cc7XktwL.s:5014   .debug_str:0000000000000485 .LASF154
/var/folders/yy/83vjwp7d53j56dbzj8_jnpcr0000gn/T//cc7XktwL.s:5054   .debug_str:0000000000000581 .LASF155
/var/folders/yy/83vjwp7d53j56dbzj8_jnpcr0000gn/T//cc7XktwL.s:4938   .debug_str:00000000000002c9 .LASF156
/var/folders/yy/83vjwp7d53j56dbzj8_jnpcr0000gn/T//cc7XktwL.s:4874   .debug_str:00000000000000f6 .LASF157
/var/folders/yy/83vjwp7d53j56dbzj8_jnpcr0000gn/T//cc7XktwL.s:5234   .debug_str:00000000000009b1 .LASF158
/var/folders/yy/83vjwp7d53j56dbzj8_jnpcr0000gn/T//cc7XktwL.s:4932   .debug_str:00000000000002ac .LASF159
/var/folders/yy/83vjwp7d53j56dbzj8_jnpcr0000gn/T//cc7XktwL.s:5104   .debug_str:000000000000068a .LASF160
/var/folders/yy/83vjwp7d53j56dbzj8_jnpcr0000gn/T//cc7XktwL.s:5030   .debug_str:00000000000004f2 .LASF161
/var/folders/yy/83vjwp7d53j56dbzj8_jnpcr0000gn/T//cc7XktwL.s:5166   .debug_str:00000000000007c7 .LASF162
/var/folders/yy/83vjwp7d53j56dbzj8_jnpcr0000gn/T//cc7XktwL.s:4850   .debug_str:0000000000000057 .LASF163
/var/folders/yy/83vjwp7d53j56dbzj8_jnpcr0000gn/T//cc7XktwL.s:4998   .debug_str:0000000000000428 .LASF164
/var/folders/yy/83vjwp7d53j56dbzj8_jnpcr0000gn/T//cc7XktwL.s:5012   .debug_str:000000000000047b .LASF165
/var/folders/yy/83vjwp7d53j56dbzj8_jnpcr0000gn/T//cc7XktwL.s:5094   .debug_str:000000000000064f .LASF166
/var/folders/yy/83vjwp7d53j56dbzj8_jnpcr0000gn/T//cc7XktwL.s:5156   .debug_str:0000000000000799 .LASF167
/var/folders/yy/83vjwp7d53j56dbzj8_jnpcr0000gn/T//cc7XktwL.s:5074   .debug_str:00000000000005f0 .LASF168
/var/folders/yy/83vjwp7d53j56dbzj8_jnpcr0000gn/T//cc7XktwL.s:5018   .debug_str:000000000000049f .LASF169
/var/folders/yy/83vjwp7d53j56dbzj8_jnpcr0000gn/T//cc7XktwL.s:4964   .debug_str:0000000000000352 .LASF170
/var/folders/yy/83vjwp7d53j56dbzj8_jnpcr0000gn/T//cc7XktwL.s:4876   .debug_str:0000000000000101 .LASF171
/var/folders/yy/83vjwp7d53j56dbzj8_jnpcr0000gn/T//cc7XktwL.s:4988   .debug_str:00000000000003e2 .LASF172
/var/folders/yy/83vjwp7d53j56dbzj8_jnpcr0000gn/T//cc7XktwL.s:4900   .debug_str:00000000000001de .LASF173
/var/folders/yy/83vjwp7d53j56dbzj8_jnpcr0000gn/T//cc7XktwL.s:5146   .debug_str:0000000000000763 .LASF174
/var/folders/yy/83vjwp7d53j56dbzj8_jnpcr0000gn/T//cc7XktwL.s:5180   .debug_str:0000000000000810 .LASF175
/var/folders/yy/83vjwp7d53j56dbzj8_jnpcr0000gn/T//cc7XktwL.s:4896   .debug_str:00000000000001c7 .LASF176
/var/folders/yy/83vjwp7d53j56dbzj8_jnpcr0000gn/T//cc7XktwL.s:5266   .debug_str:0000000000000a42 .LASF177
/var/folders/yy/83vjwp7d53j56dbzj8_jnpcr0000gn/T//cc7XktwL.s:4928   .debug_str:000000000000028e .LASF178
/var/folders/yy/83vjwp7d53j56dbzj8_jnpcr0000gn/T//cc7XktwL.s:5254   .debug_str:00000000000009ff .LASF179
/var/folders/yy/83vjwp7d53j56dbzj8_jnpcr0000gn/T//cc7XktwL.s:4884   .debug_str:0000000000000173 .LASF180
/var/folders/yy/83vjwp7d53j56dbzj8_jnpcr0000gn/T//cc7XktwL.s:5080   .debug_str:000000000000060f .LASF181
/var/folders/yy/83vjwp7d53j56dbzj8_jnpcr0000gn/T//cc7XktwL.s:5154   .debug_str:0000000000000791 .LASF182
/var/folders/yy/83vjwp7d53j56dbzj8_jnpcr0000gn/T//cc7XktwL.s:4858   .debug_str:00000000000000a1 .LASF183
/var/folders/yy/83vjwp7d53j56dbzj8_jnpcr0000gn/T//cc7XktwL.s:5284   .debug_str:0000000000000a9a .LASF184
/var/folders/yy/83vjwp7d53j56dbzj8_jnpcr0000gn/T//cc7XktwL.s:5042   .debug_str:0000000000000536 .LASF185
/var/folders/yy/83vjwp7d53j56dbzj8_jnpcr0000gn/T//cc7XktwL.s:5228   .debug_str:0000000000000989 .LASF186
/var/folders/yy/83vjwp7d53j56dbzj8_jnpcr0000gn/T//cc7XktwL.s:5280   .debug_str:0000000000000a86 .LASF187
/var/folders/yy/83vjwp7d53j56dbzj8_jnpcr0000gn/T//cc7XktwL.s:4970   .debug_str:0000000000000376 .LASF188
/var/folders/yy/83vjwp7d53j56dbzj8_jnpcr0000gn/T//cc7XktwL.s:5126   .debug_str:00000000000006f6 .LASF189
/var/folders/yy/83vjwp7d53j56dbzj8_jnpcr0000gn/T//cc7XktwL.s:4908   .debug_str:000000000000021c .LASF190
/var/folders/yy/83vjwp7d53j56dbzj8_jnpcr0000gn/T//cc7XktwL.s:4930   .debug_str:000000000000029c .LASF191
/var/folders/yy/83vjwp7d53j56dbzj8_jnpcr0000gn/T//cc7XktwL.s:571    .text.usbd_disconnect:0000000000000000 .LFB14
/var/folders/yy/83vjwp7d53j56dbzj8_jnpcr0000gn/T//cc7XktwL.s:599    .text.usbd_disconnect:000000000000001a .LFE14
/var/folders/yy/83vjwp7d53j56dbzj8_jnpcr0000gn/T//cc7XktwL.s:4009   .debug_loc:0000000000000000 .LLST39
/var/folders/yy/83vjwp7d53j56dbzj8_jnpcr0000gn/T//cc7XktwL.s:4996   .debug_str:0000000000000423 .LASF193
/var/folders/yy/83vjwp7d53j56dbzj8_jnpcr0000gn/T//cc7XktwL.s:4027   .debug_loc:000000000000002c .LLST40
/var/folders/yy/83vjwp7d53j56dbzj8_jnpcr0000gn/T//cc7XktwL.s:584    .text.usbd_disconnect:000000000000000c .LVL53
/var/folders/yy/83vjwp7d53j56dbzj8_jnpcr0000gn/T//cc7XktwL.s:597    .text.usbd_disconnect:000000000000001a .LVL54
/var/folders/yy/83vjwp7d53j56dbzj8_jnpcr0000gn/T//cc7XktwL.s:4936   .debug_str:00000000000002bc .LASF192
/var/folders/yy/83vjwp7d53j56dbzj8_jnpcr0000gn/T//cc7XktwL.s:536    .text.usbd_connect:0000000000000000 .LFB13
/var/folders/yy/83vjwp7d53j56dbzj8_jnpcr0000gn/T//cc7XktwL.s:564    .text.usbd_connect:000000000000001a .LFE13
/var/folders/yy/83vjwp7d53j56dbzj8_jnpcr0000gn/T//cc7XktwL.s:4041   .debug_loc:000000000000004d .LLST37
/var/folders/yy/83vjwp7d53j56dbzj8_jnpcr0000gn/T//cc7XktwL.s:4059   .debug_loc:0000000000000079 .LLST38
/var/folders/yy/83vjwp7d53j56dbzj8_jnpcr0000gn/T//cc7XktwL.s:549    .text.usbd_connect:000000000000000c .LVL50
/var/folders/yy/83vjwp7d53j56dbzj8_jnpcr0000gn/T//cc7XktwL.s:562    .text.usbd_connect:000000000000001a .LVL51
/var/folders/yy/83vjwp7d53j56dbzj8_jnpcr0000gn/T//cc7XktwL.s:4856   .debug_str:0000000000000090 .LASF197
/var/folders/yy/83vjwp7d53j56dbzj8_jnpcr0000gn/T//cc7XktwL.s:514    .text.usbd_rxcount_get:0000000000000000 .LFB12
/var/folders/yy/83vjwp7d53j56dbzj8_jnpcr0000gn/T//cc7XktwL.s:529    .text.usbd_rxcount_get:000000000000000e .LFE12
/var/folders/yy/83vjwp7d53j56dbzj8_jnpcr0000gn/T//cc7XktwL.s:4073   .debug_loc:000000000000009a .LLST35
/var/folders/yy/83vjwp7d53j56dbzj8_jnpcr0000gn/T//cc7XktwL.s:5162   .debug_str:00000000000007b9 .LASF194
GAS LISTING /var/folders/yy/83vjwp7d53j56dbzj8_jnpcr0000gn/T//cc7XktwL.s 			page 29


/var/folders/yy/83vjwp7d53j56dbzj8_jnpcr0000gn/T//cc7XktwL.s:4087   .debug_loc:00000000000000bb .LLST36
/var/folders/yy/83vjwp7d53j56dbzj8_jnpcr0000gn/T//cc7XktwL.s:5008   .debug_str:0000000000000466 .LASF195
/var/folders/yy/83vjwp7d53j56dbzj8_jnpcr0000gn/T//cc7XktwL.s:499    .text.usbd_addr_set:0000000000000000 .LFB11
/var/folders/yy/83vjwp7d53j56dbzj8_jnpcr0000gn/T//cc7XktwL.s:507    .text.usbd_addr_set:0000000000000008 .LFE11
/var/folders/yy/83vjwp7d53j56dbzj8_jnpcr0000gn/T//cc7XktwL.s:4101   .debug_loc:00000000000000dc .LLST33
/var/folders/yy/83vjwp7d53j56dbzj8_jnpcr0000gn/T//cc7XktwL.s:4868   .debug_str:00000000000000d3 .LASF196
/var/folders/yy/83vjwp7d53j56dbzj8_jnpcr0000gn/T//cc7XktwL.s:4115   .debug_loc:00000000000000fd .LLST34
/var/folders/yy/83vjwp7d53j56dbzj8_jnpcr0000gn/T//cc7XktwL.s:505    .text.usbd_addr_set:0000000000000008 .LVL45
/var/folders/yy/83vjwp7d53j56dbzj8_jnpcr0000gn/T//cc7XktwL.s:5262   .debug_str:0000000000000a29 .LASF198
/var/folders/yy/83vjwp7d53j56dbzj8_jnpcr0000gn/T//cc7XktwL.s:448    .text.usbd_fifo_flush:0000000000000000 .LFB10
/var/folders/yy/83vjwp7d53j56dbzj8_jnpcr0000gn/T//cc7XktwL.s:492    .text.usbd_fifo_flush:000000000000002e .LFE10
/var/folders/yy/83vjwp7d53j56dbzj8_jnpcr0000gn/T//cc7XktwL.s:4129   .debug_loc:000000000000011e .LLST30
/var/folders/yy/83vjwp7d53j56dbzj8_jnpcr0000gn/T//cc7XktwL.s:4152   .debug_loc:0000000000000156 .LLST31
/var/folders/yy/83vjwp7d53j56dbzj8_jnpcr0000gn/T//cc7XktwL.s:4172   .debug_loc:0000000000000184 .LLST32
/var/folders/yy/83vjwp7d53j56dbzj8_jnpcr0000gn/T//cc7XktwL.s:471    .text.usbd_fifo_flush:000000000000001c .LVL41
/var/folders/yy/83vjwp7d53j56dbzj8_jnpcr0000gn/T//cc7XktwL.s:489    .text.usbd_fifo_flush:000000000000002c .LVL43
/var/folders/yy/83vjwp7d53j56dbzj8_jnpcr0000gn/T//cc7XktwL.s:5060   .debug_str:00000000000005a4 .LASF199
/var/folders/yy/83vjwp7d53j56dbzj8_jnpcr0000gn/T//cc7XktwL.s:384    .text.usbd_ep_stall_clear:0000000000000000 .LFB9
/var/folders/yy/83vjwp7d53j56dbzj8_jnpcr0000gn/T//cc7XktwL.s:441    .text.usbd_ep_stall_clear:000000000000003e .LFE9
/var/folders/yy/83vjwp7d53j56dbzj8_jnpcr0000gn/T//cc7XktwL.s:4197   .debug_loc:00000000000001be .LLST26
/var/folders/yy/83vjwp7d53j56dbzj8_jnpcr0000gn/T//cc7XktwL.s:4220   .debug_loc:00000000000001f6 .LLST27
/var/folders/yy/83vjwp7d53j56dbzj8_jnpcr0000gn/T//cc7XktwL.s:4238   .debug_loc:0000000000000222 .LLST28
/var/folders/yy/83vjwp7d53j56dbzj8_jnpcr0000gn/T//cc7XktwL.s:5068   .debug_str:00000000000005d6 .LASF201
/var/folders/yy/83vjwp7d53j56dbzj8_jnpcr0000gn/T//cc7XktwL.s:4263   .debug_loc:000000000000025c .LLST29
/var/folders/yy/83vjwp7d53j56dbzj8_jnpcr0000gn/T//cc7XktwL.s:418    .text.usbd_ep_stall_clear:000000000000002a .LVL35
/var/folders/yy/83vjwp7d53j56dbzj8_jnpcr0000gn/T//cc7XktwL.s:4984   .debug_str:00000000000003cd .LASF200
/var/folders/yy/83vjwp7d53j56dbzj8_jnpcr0000gn/T//cc7XktwL.s:319    .text.usbd_ep_stall:0000000000000000 .LFB8
/var/folders/yy/83vjwp7d53j56dbzj8_jnpcr0000gn/T//cc7XktwL.s:377    .text.usbd_ep_stall:0000000000000040 .LFE8
/var/folders/yy/83vjwp7d53j56dbzj8_jnpcr0000gn/T//cc7XktwL.s:4280   .debug_loc:0000000000000287 .LLST22
/var/folders/yy/83vjwp7d53j56dbzj8_jnpcr0000gn/T//cc7XktwL.s:4303   .debug_loc:00000000000002bf .LLST23
/var/folders/yy/83vjwp7d53j56dbzj8_jnpcr0000gn/T//cc7XktwL.s:4321   .debug_loc:00000000000002eb .LLST24
/var/folders/yy/83vjwp7d53j56dbzj8_jnpcr0000gn/T//cc7XktwL.s:4346   .debug_loc:0000000000000325 .LLST25
/var/folders/yy/83vjwp7d53j56dbzj8_jnpcr0000gn/T//cc7XktwL.s:354    .text.usbd_ep_stall:000000000000002c .LVL29
/var/folders/yy/83vjwp7d53j56dbzj8_jnpcr0000gn/T//cc7XktwL.s:5196   .debug_str:0000000000000859 .LASF202
/var/folders/yy/83vjwp7d53j56dbzj8_jnpcr0000gn/T//cc7XktwL.s:256    .text.usbd_ep_send:0000000000000000 .LFB7
/var/folders/yy/83vjwp7d53j56dbzj8_jnpcr0000gn/T//cc7XktwL.s:312    .text.usbd_ep_send:0000000000000040 .LFE7
/var/folders/yy/83vjwp7d53j56dbzj8_jnpcr0000gn/T//cc7XktwL.s:4363   .debug_loc:0000000000000350 .LLST16
/var/folders/yy/83vjwp7d53j56dbzj8_jnpcr0000gn/T//cc7XktwL.s:4381   .debug_loc:000000000000037c .LLST17
/var/folders/yy/83vjwp7d53j56dbzj8_jnpcr0000gn/T//cc7XktwL.s:4395   .debug_loc:000000000000039d .LLST18
/var/folders/yy/83vjwp7d53j56dbzj8_jnpcr0000gn/T//cc7XktwL.s:4840   .debug_str:000000000000002c .LASF203
/var/folders/yy/83vjwp7d53j56dbzj8_jnpcr0000gn/T//cc7XktwL.s:4409   .debug_loc:00000000000003be .LLST19
/var/folders/yy/83vjwp7d53j56dbzj8_jnpcr0000gn/T//cc7XktwL.s:4423   .debug_loc:00000000000003df .LLST20
/var/folders/yy/83vjwp7d53j56dbzj8_jnpcr0000gn/T//cc7XktwL.s:4437   .debug_loc:0000000000000400 .LLST21
/var/folders/yy/83vjwp7d53j56dbzj8_jnpcr0000gn/T//cc7XktwL.s:301    .text.usbd_ep_send:0000000000000038 .LVL25
/var/folders/yy/83vjwp7d53j56dbzj8_jnpcr0000gn/T//cc7XktwL.s:4852   .debug_str:0000000000000067 .LASF204
/var/folders/yy/83vjwp7d53j56dbzj8_jnpcr0000gn/T//cc7XktwL.s:193    .text.usbd_ep_recev:0000000000000000 .LFB6
/var/folders/yy/83vjwp7d53j56dbzj8_jnpcr0000gn/T//cc7XktwL.s:249    .text.usbd_ep_recev:0000000000000040 .LFE6
/var/folders/yy/83vjwp7d53j56dbzj8_jnpcr0000gn/T//cc7XktwL.s:4444   .debug_loc:0000000000000413 .LLST10
/var/folders/yy/83vjwp7d53j56dbzj8_jnpcr0000gn/T//cc7XktwL.s:4462   .debug_loc:000000000000043f .LLST11
/var/folders/yy/83vjwp7d53j56dbzj8_jnpcr0000gn/T//cc7XktwL.s:4476   .debug_loc:0000000000000460 .LLST12
/var/folders/yy/83vjwp7d53j56dbzj8_jnpcr0000gn/T//cc7XktwL.s:4490   .debug_loc:0000000000000481 .LLST13
/var/folders/yy/83vjwp7d53j56dbzj8_jnpcr0000gn/T//cc7XktwL.s:4504   .debug_loc:00000000000004a2 .LLST14
/var/folders/yy/83vjwp7d53j56dbzj8_jnpcr0000gn/T//cc7XktwL.s:4518   .debug_loc:00000000000004c3 .LLST15
/var/folders/yy/83vjwp7d53j56dbzj8_jnpcr0000gn/T//cc7XktwL.s:238    .text.usbd_ep_recev:0000000000000038 .LVL20
/var/folders/yy/83vjwp7d53j56dbzj8_jnpcr0000gn/T//cc7XktwL.s:5276   .debug_str:0000000000000a6c .LASF205
/var/folders/yy/83vjwp7d53j56dbzj8_jnpcr0000gn/T//cc7XktwL.s:132    .text.usbd_ep_clear:0000000000000000 .LFB5
/var/folders/yy/83vjwp7d53j56dbzj8_jnpcr0000gn/T//cc7XktwL.s:186    .text.usbd_ep_clear:000000000000003a .LFE5
GAS LISTING /var/folders/yy/83vjwp7d53j56dbzj8_jnpcr0000gn/T//cc7XktwL.s 			page 30


/var/folders/yy/83vjwp7d53j56dbzj8_jnpcr0000gn/T//cc7XktwL.s:4525   .debug_loc:00000000000004d6 .LLST6
/var/folders/yy/83vjwp7d53j56dbzj8_jnpcr0000gn/T//cc7XktwL.s:4548   .debug_loc:000000000000050e .LLST7
/var/folders/yy/83vjwp7d53j56dbzj8_jnpcr0000gn/T//cc7XktwL.s:4566   .debug_loc:000000000000053a .LLST8
/var/folders/yy/83vjwp7d53j56dbzj8_jnpcr0000gn/T//cc7XktwL.s:4591   .debug_loc:0000000000000574 .LLST9
/var/folders/yy/83vjwp7d53j56dbzj8_jnpcr0000gn/T//cc7XktwL.s:163    .text.usbd_ep_clear:0000000000000026 .LVL13
/var/folders/yy/83vjwp7d53j56dbzj8_jnpcr0000gn/T//cc7XktwL.s:4898   .debug_str:00000000000001d0 .LASF206
/var/folders/yy/83vjwp7d53j56dbzj8_jnpcr0000gn/T//cc7XktwL.s:14     .text.usbd_ep_setup:0000000000000000 .LFB4
/var/folders/yy/83vjwp7d53j56dbzj8_jnpcr0000gn/T//cc7XktwL.s:125    .text.usbd_ep_setup:000000000000009a .LFE4
/var/folders/yy/83vjwp7d53j56dbzj8_jnpcr0000gn/T//cc7XktwL.s:4598   .debug_loc:0000000000000587 .LLST0
/var/folders/yy/83vjwp7d53j56dbzj8_jnpcr0000gn/T//cc7XktwL.s:4621   .debug_loc:00000000000005bf .LLST1
/var/folders/yy/83vjwp7d53j56dbzj8_jnpcr0000gn/T//cc7XktwL.s:5098   .debug_str:0000000000000661 .LASF207
/var/folders/yy/83vjwp7d53j56dbzj8_jnpcr0000gn/T//cc7XktwL.s:4639   .debug_loc:00000000000005eb .LLST2
/var/folders/yy/83vjwp7d53j56dbzj8_jnpcr0000gn/T//cc7XktwL.s:4657   .debug_loc:0000000000000617 .LLST3
/var/folders/yy/83vjwp7d53j56dbzj8_jnpcr0000gn/T//cc7XktwL.s:4668   .debug_loc:0000000000000635 .LLST4
/var/folders/yy/83vjwp7d53j56dbzj8_jnpcr0000gn/T//cc7XktwL.s:4679   .debug_loc:0000000000000653 .LLST5
/var/folders/yy/83vjwp7d53j56dbzj8_jnpcr0000gn/T//cc7XktwL.s:93     .text.usbd_ep_setup:0000000000000076 .LVL7
/var/folders/yy/83vjwp7d53j56dbzj8_jnpcr0000gn/T//cc7XktwL.s:4944   .debug_str:00000000000002e4 .LASF208
/var/folders/yy/83vjwp7d53j56dbzj8_jnpcr0000gn/T//cc7XktwL.s:606    .text.usbd_init:0000000000000000 .LFB3
/var/folders/yy/83vjwp7d53j56dbzj8_jnpcr0000gn/T//cc7XktwL.s:671    .text.usbd_init:000000000000005a .LFE3
/var/folders/yy/83vjwp7d53j56dbzj8_jnpcr0000gn/T//cc7XktwL.s:4690   .debug_loc:0000000000000671 .LLST41
/var/folders/yy/83vjwp7d53j56dbzj8_jnpcr0000gn/T//cc7XktwL.s:4708   .debug_loc:000000000000069d .LLST42
/var/folders/yy/83vjwp7d53j56dbzj8_jnpcr0000gn/T//cc7XktwL.s:5140   .debug_str:000000000000074f .LASF209
/var/folders/yy/83vjwp7d53j56dbzj8_jnpcr0000gn/T//cc7XktwL.s:4732   .debug_loc:00000000000006d6 .LLST43
/var/folders/yy/83vjwp7d53j56dbzj8_jnpcr0000gn/T//cc7XktwL.s:4750   .debug_loc:0000000000000702 .LLST44
/var/folders/yy/83vjwp7d53j56dbzj8_jnpcr0000gn/T//cc7XktwL.s:634    .text.usbd_init:000000000000001e .LVL58
/var/folders/yy/83vjwp7d53j56dbzj8_jnpcr0000gn/T//cc7XktwL.s:640    .text.usbd_init:000000000000002c .LVL59
/var/folders/yy/83vjwp7d53j56dbzj8_jnpcr0000gn/T//cc7XktwL.s:644    .text.usbd_init:0000000000000036 .LVL60
/var/folders/yy/83vjwp7d53j56dbzj8_jnpcr0000gn/T//cc7XktwL.s:648    .text.usbd_init:0000000000000040 .LVL61
/var/folders/yy/83vjwp7d53j56dbzj8_jnpcr0000gn/T//cc7XktwL.s:652    .text.usbd_init:000000000000004a .LVL62
/var/folders/yy/83vjwp7d53j56dbzj8_jnpcr0000gn/T//cc7XktwL.s:4902   .debug_str:00000000000001ed .LASF210
/var/folders/yy/83vjwp7d53j56dbzj8_jnpcr0000gn/T//cc7XktwL.s:5076   .debug_str:00000000000005f9 .LASF211
/var/folders/yy/83vjwp7d53j56dbzj8_jnpcr0000gn/T//cc7XktwL.s:5100   .debug_str:0000000000000669 .LASF212
/var/folders/yy/83vjwp7d53j56dbzj8_jnpcr0000gn/T//cc7XktwL.s:4912   .debug_str:0000000000000234 .LASF213
/var/folders/yy/83vjwp7d53j56dbzj8_jnpcr0000gn/T//cc7XktwL.s:4904   .debug_str:0000000000000200 .LASF214
/var/folders/yy/83vjwp7d53j56dbzj8_jnpcr0000gn/T//cc7XktwL.s:5158   .debug_str:00000000000007a0 .LASF215
/var/folders/yy/83vjwp7d53j56dbzj8_jnpcr0000gn/T//cc7XktwL.s:5208   .debug_str:0000000000000908 .LASF216
/var/folders/yy/83vjwp7d53j56dbzj8_jnpcr0000gn/T//cc7XktwL.s:5224   .debug_str:000000000000096f .LASF217
/var/folders/yy/83vjwp7d53j56dbzj8_jnpcr0000gn/T//cc7XktwL.s:5286   .debug_str:0000000000000aa7 .LASF218
/var/folders/yy/83vjwp7d53j56dbzj8_jnpcr0000gn/T//cc7XktwL.s:5230   .debug_str:0000000000000996 .LASF219
/var/folders/yy/83vjwp7d53j56dbzj8_jnpcr0000gn/T//cc7XktwL.s:4834   .debug_str:0000000000000000 .LASF220
/var/folders/yy/83vjwp7d53j56dbzj8_jnpcr0000gn/T//cc7XktwL.s:4920   .debug_str:000000000000025c .LASF221
/var/folders/yy/83vjwp7d53j56dbzj8_jnpcr0000gn/T//cc7XktwL.s:5024   .debug_str:00000000000004cb .LASF222
/var/folders/yy/83vjwp7d53j56dbzj8_jnpcr0000gn/T//cc7XktwL.s:5218   .debug_str:0000000000000950 .LASF223
/var/folders/yy/83vjwp7d53j56dbzj8_jnpcr0000gn/T//cc7XktwL.s:4886   .debug_str:000000000000017e .LASF224
/var/folders/yy/83vjwp7d53j56dbzj8_jnpcr0000gn/T//cc7XktwL.s:578    .text.usbd_disconnect:0000000000000002 .LCFI21
/var/folders/yy/83vjwp7d53j56dbzj8_jnpcr0000gn/T//cc7XktwL.s:593    .text.usbd_disconnect:0000000000000012 .LCFI22
/var/folders/yy/83vjwp7d53j56dbzj8_jnpcr0000gn/T//cc7XktwL.s:574    .text.usbd_disconnect:0000000000000000 .LVL52
/var/folders/yy/83vjwp7d53j56dbzj8_jnpcr0000gn/T//cc7XktwL.s:543    .text.usbd_connect:0000000000000002 .LCFI19
/var/folders/yy/83vjwp7d53j56dbzj8_jnpcr0000gn/T//cc7XktwL.s:558    .text.usbd_connect:0000000000000012 .LCFI20
/var/folders/yy/83vjwp7d53j56dbzj8_jnpcr0000gn/T//cc7XktwL.s:539    .text.usbd_connect:0000000000000000 .LVL49
/var/folders/yy/83vjwp7d53j56dbzj8_jnpcr0000gn/T//cc7XktwL.s:517    .text.usbd_rxcount_get:0000000000000000 .LVL46
/var/folders/yy/83vjwp7d53j56dbzj8_jnpcr0000gn/T//cc7XktwL.s:526    .text.usbd_rxcount_get:000000000000000c .LVL48
/var/folders/yy/83vjwp7d53j56dbzj8_jnpcr0000gn/T//cc7XktwL.s:522    .text.usbd_rxcount_get:0000000000000006 .LVL47
/var/folders/yy/83vjwp7d53j56dbzj8_jnpcr0000gn/T//cc7XktwL.s:502    .text.usbd_addr_set:0000000000000000 .LVL44
/var/folders/yy/83vjwp7d53j56dbzj8_jnpcr0000gn/T//cc7XktwL.s:455    .text.usbd_fifo_flush:0000000000000002 .LCFI16
/var/folders/yy/83vjwp7d53j56dbzj8_jnpcr0000gn/T//cc7XktwL.s:480    .text.usbd_fifo_flush:0000000000000022 .LCFI17
/var/folders/yy/83vjwp7d53j56dbzj8_jnpcr0000gn/T//cc7XktwL.s:485    .text.usbd_fifo_flush:0000000000000024 .LCFI18
GAS LISTING /var/folders/yy/83vjwp7d53j56dbzj8_jnpcr0000gn/T//cc7XktwL.s 			page 31


/var/folders/yy/83vjwp7d53j56dbzj8_jnpcr0000gn/T//cc7XktwL.s:451    .text.usbd_fifo_flush:0000000000000000 .LVL38
/var/folders/yy/83vjwp7d53j56dbzj8_jnpcr0000gn/T//cc7XktwL.s:465    .text.usbd_fifo_flush:000000000000000c .LVL39
/var/folders/yy/83vjwp7d53j56dbzj8_jnpcr0000gn/T//cc7XktwL.s:469    .text.usbd_fifo_flush:0000000000000014 .LVL40
/var/folders/yy/83vjwp7d53j56dbzj8_jnpcr0000gn/T//cc7XktwL.s:483    .text.usbd_fifo_flush:0000000000000024 .LVL42
/var/folders/yy/83vjwp7d53j56dbzj8_jnpcr0000gn/T//cc7XktwL.s:392    .text.usbd_ep_stall_clear:0000000000000002 .LCFI13
/var/folders/yy/83vjwp7d53j56dbzj8_jnpcr0000gn/T//cc7XktwL.s:426    .text.usbd_ep_stall_clear:0000000000000030 .LCFI14
/var/folders/yy/83vjwp7d53j56dbzj8_jnpcr0000gn/T//cc7XktwL.s:431    .text.usbd_ep_stall_clear:0000000000000032 .LCFI15
/var/folders/yy/83vjwp7d53j56dbzj8_jnpcr0000gn/T//cc7XktwL.s:387    .text.usbd_ep_stall_clear:0000000000000000 .LVL32
/var/folders/yy/83vjwp7d53j56dbzj8_jnpcr0000gn/T//cc7XktwL.s:429    .text.usbd_ep_stall_clear:0000000000000032 .LVL36
/var/folders/yy/83vjwp7d53j56dbzj8_jnpcr0000gn/T//cc7XktwL.s:405    .text.usbd_ep_stall_clear:0000000000000012 .LVL33
/var/folders/yy/83vjwp7d53j56dbzj8_jnpcr0000gn/T//cc7XktwL.s:437    .text.usbd_ep_stall_clear:0000000000000038 .LVL37
/var/folders/yy/83vjwp7d53j56dbzj8_jnpcr0000gn/T//cc7XktwL.s:412    .text.usbd_ep_stall_clear:000000000000001e .LVL34
/var/folders/yy/83vjwp7d53j56dbzj8_jnpcr0000gn/T//cc7XktwL.s:327    .text.usbd_ep_stall:0000000000000002 .LCFI10
/var/folders/yy/83vjwp7d53j56dbzj8_jnpcr0000gn/T//cc7XktwL.s:362    .text.usbd_ep_stall:0000000000000032 .LCFI11
/var/folders/yy/83vjwp7d53j56dbzj8_jnpcr0000gn/T//cc7XktwL.s:367    .text.usbd_ep_stall:0000000000000034 .LCFI12
/var/folders/yy/83vjwp7d53j56dbzj8_jnpcr0000gn/T//cc7XktwL.s:322    .text.usbd_ep_stall:0000000000000000 .LVL26
/var/folders/yy/83vjwp7d53j56dbzj8_jnpcr0000gn/T//cc7XktwL.s:365    .text.usbd_ep_stall:0000000000000034 .LVL30
/var/folders/yy/83vjwp7d53j56dbzj8_jnpcr0000gn/T//cc7XktwL.s:340    .text.usbd_ep_stall:0000000000000012 .LVL27
/var/folders/yy/83vjwp7d53j56dbzj8_jnpcr0000gn/T//cc7XktwL.s:373    .text.usbd_ep_stall:000000000000003a .LVL31
/var/folders/yy/83vjwp7d53j56dbzj8_jnpcr0000gn/T//cc7XktwL.s:347    .text.usbd_ep_stall:000000000000001e .LVL28
/var/folders/yy/83vjwp7d53j56dbzj8_jnpcr0000gn/T//cc7XktwL.s:268    .text.usbd_ep_send:000000000000000c .LCFI8
/var/folders/yy/83vjwp7d53j56dbzj8_jnpcr0000gn/T//cc7XktwL.s:308    .text.usbd_ep_send:000000000000003e .LCFI9
/var/folders/yy/83vjwp7d53j56dbzj8_jnpcr0000gn/T//cc7XktwL.s:259    .text.usbd_ep_send:0000000000000000 .LVL21
/var/folders/yy/83vjwp7d53j56dbzj8_jnpcr0000gn/T//cc7XktwL.s:264    .text.usbd_ep_send:0000000000000006 .LVL22
/var/folders/yy/83vjwp7d53j56dbzj8_jnpcr0000gn/T//cc7XktwL.s:285    .text.usbd_ep_send:0000000000000026 .LVL23
/var/folders/yy/83vjwp7d53j56dbzj8_jnpcr0000gn/T//cc7XktwL.s:288    .text.usbd_ep_send:0000000000000028 .LVL24
/var/folders/yy/83vjwp7d53j56dbzj8_jnpcr0000gn/T//cc7XktwL.s:205    .text.usbd_ep_recev:000000000000000c .LCFI6
/var/folders/yy/83vjwp7d53j56dbzj8_jnpcr0000gn/T//cc7XktwL.s:245    .text.usbd_ep_recev:000000000000003e .LCFI7
/var/folders/yy/83vjwp7d53j56dbzj8_jnpcr0000gn/T//cc7XktwL.s:196    .text.usbd_ep_recev:0000000000000000 .LVL16
/var/folders/yy/83vjwp7d53j56dbzj8_jnpcr0000gn/T//cc7XktwL.s:201    .text.usbd_ep_recev:0000000000000006 .LVL17
/var/folders/yy/83vjwp7d53j56dbzj8_jnpcr0000gn/T//cc7XktwL.s:222    .text.usbd_ep_recev:0000000000000026 .LVL18
/var/folders/yy/83vjwp7d53j56dbzj8_jnpcr0000gn/T//cc7XktwL.s:225    .text.usbd_ep_recev:0000000000000028 .LVL19
/var/folders/yy/83vjwp7d53j56dbzj8_jnpcr0000gn/T//cc7XktwL.s:140    .text.usbd_ep_clear:0000000000000002 .LCFI3
/var/folders/yy/83vjwp7d53j56dbzj8_jnpcr0000gn/T//cc7XktwL.s:171    .text.usbd_ep_clear:000000000000002c .LCFI4
/var/folders/yy/83vjwp7d53j56dbzj8_jnpcr0000gn/T//cc7XktwL.s:176    .text.usbd_ep_clear:000000000000002e .LCFI5
/var/folders/yy/83vjwp7d53j56dbzj8_jnpcr0000gn/T//cc7XktwL.s:135    .text.usbd_ep_clear:0000000000000000 .LVL10
/var/folders/yy/83vjwp7d53j56dbzj8_jnpcr0000gn/T//cc7XktwL.s:174    .text.usbd_ep_clear:000000000000002e .LVL14
/var/folders/yy/83vjwp7d53j56dbzj8_jnpcr0000gn/T//cc7XktwL.s:153    .text.usbd_ep_clear:0000000000000012 .LVL11
/var/folders/yy/83vjwp7d53j56dbzj8_jnpcr0000gn/T//cc7XktwL.s:182    .text.usbd_ep_clear:0000000000000034 .LVL15
/var/folders/yy/83vjwp7d53j56dbzj8_jnpcr0000gn/T//cc7XktwL.s:160    .text.usbd_ep_clear:000000000000001e .LVL12
/var/folders/yy/83vjwp7d53j56dbzj8_jnpcr0000gn/T//cc7XktwL.s:23     .text.usbd_ep_setup:0000000000000002 .LCFI0
/var/folders/yy/83vjwp7d53j56dbzj8_jnpcr0000gn/T//cc7XktwL.s:101    .text.usbd_ep_setup:000000000000007c .LCFI1
/var/folders/yy/83vjwp7d53j56dbzj8_jnpcr0000gn/T//cc7XktwL.s:106    .text.usbd_ep_setup:000000000000007e .LCFI2
/var/folders/yy/83vjwp7d53j56dbzj8_jnpcr0000gn/T//cc7XktwL.s:18     .text.usbd_ep_setup:0000000000000000 .LVL0
/var/folders/yy/83vjwp7d53j56dbzj8_jnpcr0000gn/T//cc7XktwL.s:104    .text.usbd_ep_setup:000000000000007e .LVL8
/var/folders/yy/83vjwp7d53j56dbzj8_jnpcr0000gn/T//cc7XktwL.s:80     .text.usbd_ep_setup:0000000000000058 .LVL6
/var/folders/yy/83vjwp7d53j56dbzj8_jnpcr0000gn/T//cc7XktwL.s:54     .text.usbd_ep_setup:0000000000000034 .LVL3
/var/folders/yy/83vjwp7d53j56dbzj8_jnpcr0000gn/T//cc7XktwL.s:118    .text.usbd_ep_setup:0000000000000090 .LVL9
/var/folders/yy/83vjwp7d53j56dbzj8_jnpcr0000gn/T//cc7XktwL.s:32     .text.usbd_ep_setup:0000000000000010 .LVL1
/var/folders/yy/83vjwp7d53j56dbzj8_jnpcr0000gn/T//cc7XktwL.s:64     .text.usbd_ep_setup:0000000000000042 .LVL4
/var/folders/yy/83vjwp7d53j56dbzj8_jnpcr0000gn/T//cc7XktwL.s:37     .text.usbd_ep_setup:0000000000000014 .LVL2
/var/folders/yy/83vjwp7d53j56dbzj8_jnpcr0000gn/T//cc7XktwL.s:67     .text.usbd_ep_setup:0000000000000046 .LVL5
/var/folders/yy/83vjwp7d53j56dbzj8_jnpcr0000gn/T//cc7XktwL.s:613    .text.usbd_init:0000000000000002 .LCFI23
/var/folders/yy/83vjwp7d53j56dbzj8_jnpcr0000gn/T//cc7XktwL.s:667    .text.usbd_init:0000000000000058 .LCFI24
/var/folders/yy/83vjwp7d53j56dbzj8_jnpcr0000gn/T//cc7XktwL.s:609    .text.usbd_init:0000000000000000 .LVL55
/var/folders/yy/83vjwp7d53j56dbzj8_jnpcr0000gn/T//cc7XktwL.s:662    .text.usbd_init:0000000000000054 .LVL63
/var/folders/yy/83vjwp7d53j56dbzj8_jnpcr0000gn/T//cc7XktwL.s:665    .text.usbd_init:0000000000000056 .LVL64
GAS LISTING /var/folders/yy/83vjwp7d53j56dbzj8_jnpcr0000gn/T//cc7XktwL.s 			page 32


/var/folders/yy/83vjwp7d53j56dbzj8_jnpcr0000gn/T//cc7XktwL.s:629    .text.usbd_init:0000000000000014 .LVL57
/var/folders/yy/83vjwp7d53j56dbzj8_jnpcr0000gn/T//cc7XktwL.s:627    .text.usbd_init:0000000000000012 .LVL56
/var/folders/yy/83vjwp7d53j56dbzj8_jnpcr0000gn/T//cc7XktwL.s:696    .debug_info:0000000000000000 .Ldebug_info0

UNDEFINED SYMBOLS
usb_transc_active
usb_transc_deactivate
usb_transc_outxfer
usb_transc_inxfer
usb_transc_stall
usb_transc_clrstall
usb_txfifo_flush
usb_rxfifo_flush
usb_devaddr_set
usb_dev_connect
usb_mdelay
usb_dev_disconnect
usb_basic_init
usb_core_init
usb_devcore_init
