GAS LISTING /var/folders/yy/83vjwp7d53j56dbzj8_jnpcr0000gn/T//ccZPrF3v.s 			page 1


   1              		.file	"weak.c"
   2              		.option nopic
   3              		.attribute arch, "rv32i2p0_m2p0_a2p0_c2p0"
   4              		.attribute unaligned_access, 0
   5              		.attribute stack_align, 16
   6              		.text
   7              	.Ltext0:
   8              		.cfi_sections	.debug_frame
   9              		.section	.text._put_char,"ax",@progbits
  10              		.align	1
  11              		.weak	_put_char
  13              	_put_char:
  14              	.LFB4:
  15              		.file 1 "../../firmware/RISCV/stubs/write.c"
   1:../../firmware/RISCV/stubs/write.c **** /* See LICENSE of license details. */
   2:../../firmware/RISCV/stubs/write.c **** 
   3:../../firmware/RISCV/stubs/write.c **** #include <stdint.h>
   4:../../firmware/RISCV/stubs/write.c **** #include <string.h>
   5:../../firmware/RISCV/stubs/write.c **** #include <errno.h>
   6:../../firmware/RISCV/stubs/write.c **** #include <gd32vf103.h>
   7:../../firmware/RISCV/stubs/write.c **** 
   8:../../firmware/RISCV/stubs/write.c **** #if   defined (__GNUC__)
   9:../../firmware/RISCV/stubs/write.c **** #include <unistd.h>
  10:../../firmware/RISCV/stubs/write.c **** #include <sys/types.h>
  11:../../firmware/RISCV/stubs/write.c **** #endif
  12:../../firmware/RISCV/stubs/write.c **** 
  13:../../firmware/RISCV/stubs/write.c **** #include "stub.h"
  14:../../firmware/RISCV/stubs/write.c **** #include "gd32vf103.h"
  15:../../firmware/RISCV/stubs/write.c **** 
  16:../../firmware/RISCV/stubs/write.c **** //typedef unsigned int size_t;
  17:../../firmware/RISCV/stubs/write.c **** extern int _put_char(int ch) __attribute__((weak));
  18:../../firmware/RISCV/stubs/write.c **** 
  19:../../firmware/RISCV/stubs/write.c **** #if   defined (__ICCRISCV__)
  20:../../firmware/RISCV/stubs/write.c **** size_t __write(int handle, const unsigned char *buf, size_t bufSize)
  21:../../firmware/RISCV/stubs/write.c **** {
  22:../../firmware/RISCV/stubs/write.c ****   size_t nChars = 0;
  23:../../firmware/RISCV/stubs/write.c ****   
  24:../../firmware/RISCV/stubs/write.c ****   if (handle == -1)
  25:../../firmware/RISCV/stubs/write.c ****   {
  26:../../firmware/RISCV/stubs/write.c ****     return 0;
  27:../../firmware/RISCV/stubs/write.c ****   }
  28:../../firmware/RISCV/stubs/write.c ****   
  29:../../firmware/RISCV/stubs/write.c ****   for (; bufSize > 0; --bufSize)
  30:../../firmware/RISCV/stubs/write.c ****   {
  31:../../firmware/RISCV/stubs/write.c ****     _put_char((uint8_t) *buf);
  32:../../firmware/RISCV/stubs/write.c ****     ++buf;
  33:../../firmware/RISCV/stubs/write.c ****     ++nChars;
  34:../../firmware/RISCV/stubs/write.c ****   }
  35:../../firmware/RISCV/stubs/write.c ****   
  36:../../firmware/RISCV/stubs/write.c ****   return nChars;
  37:../../firmware/RISCV/stubs/write.c ****  }
  38:../../firmware/RISCV/stubs/write.c **** 
  39:../../firmware/RISCV/stubs/write.c **** int puts(const char* string) {
  40:../../firmware/RISCV/stubs/write.c ****     return __write(0, (const void *) string, strlen(string));
  41:../../firmware/RISCV/stubs/write.c **** }
  42:../../firmware/RISCV/stubs/write.c ****  
  43:../../firmware/RISCV/stubs/write.c **** #elif defined ( __GNUC__ )
GAS LISTING /var/folders/yy/83vjwp7d53j56dbzj8_jnpcr0000gn/T//ccZPrF3v.s 			page 2


  44:../../firmware/RISCV/stubs/write.c **** /*
  45:../../firmware/RISCV/stubs/write.c **** ssize_t _write(int fd, const void* ptr, size_t len) {
  46:../../firmware/RISCV/stubs/write.c ****     const uint8_t * current = (const uint8_t *) ptr;
  47:../../firmware/RISCV/stubs/write.c ****     {
  48:../../firmware/RISCV/stubs/write.c ****         for (size_t jj = 0; jj < len; jj++) {
  49:../../firmware/RISCV/stubs/write.c ****             _put_char(current[jj]);
  50:../../firmware/RISCV/stubs/write.c **** 
  51:../../firmware/RISCV/stubs/write.c ****             if (current[jj] == '\n') {
  52:../../firmware/RISCV/stubs/write.c ****                 _put_char('\r');
  53:../../firmware/RISCV/stubs/write.c ****             }
  54:../../firmware/RISCV/stubs/write.c ****         }
  55:../../firmware/RISCV/stubs/write.c ****         return len;
  56:../../firmware/RISCV/stubs/write.c ****     }
  57:../../firmware/RISCV/stubs/write.c **** 
  58:../../firmware/RISCV/stubs/write.c ****     return _stub(EBADF);
  59:../../firmware/RISCV/stubs/write.c **** }
  60:../../firmware/RISCV/stubs/write.c **** 
  61:../../firmware/RISCV/stubs/write.c **** int puts(const char* string) {
  62:../../firmware/RISCV/stubs/write.c ****     return _write(0, (const void *) string, strlen(string));
  63:../../firmware/RISCV/stubs/write.c **** }
  64:../../firmware/RISCV/stubs/write.c **** */
  65:../../firmware/RISCV/stubs/write.c **** #endif
  66:../../firmware/RISCV/stubs/write.c **** 
  67:../../firmware/RISCV/stubs/write.c **** int _put_char(int ch)
  68:../../firmware/RISCV/stubs/write.c **** {
  16              		.loc 1 68 1
  17              		.cfi_startproc
  18              	.LVL0:
  69:../../firmware/RISCV/stubs/write.c ****     usart_data_transmit(USART0, (uint8_t) ch );
  19              		.loc 1 69 5
  68:../../firmware/RISCV/stubs/write.c ****     usart_data_transmit(USART0, (uint8_t) ch );
  20              		.loc 1 68 1 is_stmt 0
  21 0000 4111     		addi	sp,sp,-16
  22              	.LCFI0:
  23              		.cfi_def_cfa_offset 16
  24 0002 22C4     		sw	s0,8(sp)
  25              		.cfi_offset 8, -8
  26              		.loc 1 69 5
  27 0004 37440140 		li	s0,1073823744
  68:../../firmware/RISCV/stubs/write.c ****     usart_data_transmit(USART0, (uint8_t) ch );
  28              		.loc 1 68 1
  29 0008 26C2     		sw	s1,4(sp)
  30              		.loc 1 69 5
  31 000a 9375F50F 		andi	a1,a0,0xff
  32              		.cfi_offset 9, -12
  68:../../firmware/RISCV/stubs/write.c ****     usart_data_transmit(USART0, (uint8_t) ch );
  33              		.loc 1 68 1
  34 000e AA84     		mv	s1,a0
  35              		.loc 1 69 5
  36 0010 13050480 		addi	a0,s0,-2048
  37              	.LVL1:
  68:../../firmware/RISCV/stubs/write.c ****     usart_data_transmit(USART0, (uint8_t) ch );
  38              		.loc 1 68 1
  39 0014 06C6     		sw	ra,12(sp)
  40              		.cfi_offset 1, -4
  70:../../firmware/RISCV/stubs/write.c ****     while (usart_flag_get(USART0, USART_FLAG_TBE)== RESET){
  41              		.loc 1 70 12
GAS LISTING /var/folders/yy/83vjwp7d53j56dbzj8_jnpcr0000gn/T//ccZPrF3v.s 			page 3


  42 0016 13040480 		addi	s0,s0,-2048
  69:../../firmware/RISCV/stubs/write.c ****     usart_data_transmit(USART0, (uint8_t) ch );
  43              		.loc 1 69 5
  44 001a 97000000 		call	usart_data_transmit
  44      E7800000 
  45              	.LVL2:
  46              		.loc 1 70 5 is_stmt 1
  47              	.L2:
  71:../../firmware/RISCV/stubs/write.c ****     }
  48              		.loc 1 71 5 discriminator 1
  70:../../firmware/RISCV/stubs/write.c ****     while (usart_flag_get(USART0, USART_FLAG_TBE)== RESET){
  49              		.loc 1 70 12 is_stmt 0 discriminator 1
  50 0022 9D45     		li	a1,7
  51 0024 2285     		mv	a0,s0
  52 0026 97000000 		call	usart_flag_get
  52      E7800000 
  53              	.LVL3:
  70:../../firmware/RISCV/stubs/write.c ****     while (usart_flag_get(USART0, USART_FLAG_TBE)== RESET){
  54              		.loc 1 70 11 discriminator 1
  55 002e 75D9     		beq	a0,zero,.L2
  72:../../firmware/RISCV/stubs/write.c **** 
  73:../../firmware/RISCV/stubs/write.c ****     return ch;
  56              		.loc 1 73 5 is_stmt 1
  74:../../firmware/RISCV/stubs/write.c **** }
  57              		.loc 1 74 1 is_stmt 0
  58 0030 B240     		lw	ra,12(sp)
  59              		.cfi_restore 1
  60 0032 2244     		lw	s0,8(sp)
  61              		.cfi_restore 8
  62 0034 2685     		mv	a0,s1
  63 0036 9244     		lw	s1,4(sp)
  64              		.cfi_restore 9
  65              	.LVL4:
  66 0038 4101     		addi	sp,sp,16
  67              	.LCFI1:
  68              		.cfi_def_cfa_offset 0
  69 003a 8280     		jr	ra
  70              		.cfi_endproc
  71              	.LFE4:
  73              		.text
  74              	.Letext0:
  75              		.file 2 "/Users/gulda/Documents/risc-v/toolchain-gd32v-v200-osx/compiler/riscv64-unknown-elf/inclu
  76              		.file 3 "/Users/gulda/Documents/risc-v/toolchain-gd32v-v200-osx/compiler/riscv64-unknown-elf/inclu
  77              		.file 4 "/Users/gulda/Documents/risc-v/toolchain-gd32v-v200-osx/compiler/lib/gcc/riscv64-unknown-e
  78              		.file 5 "/Users/gulda/Documents/risc-v/toolchain-gd32v-v200-osx/compiler/riscv64-unknown-elf/inclu
  79              		.file 6 "/Users/gulda/Documents/risc-v/toolchain-gd32v-v200-osx/compiler/riscv64-unknown-elf/inclu
  80              		.file 7 "/Users/gulda/Documents/risc-v/toolchain-gd32v-v200-osx/compiler/riscv64-unknown-elf/inclu
  81              		.file 8 "/Users/gulda/Documents/risc-v/toolchain-gd32v-v200-osx/compiler/riscv64-unknown-elf/inclu
  82              		.file 9 "../../firmware/GD32VF103_standard_peripheral/system_gd32vf103.h"
  83              		.file 10 "../../firmware/GD32VF103_standard_peripheral/gd32vf103.h"
  84              		.file 11 "../../firmware/GD32VF103_standard_peripheral/Include/gd32vf103_usart.h"
  85              		.file 12 "/Users/gulda/Documents/risc-v/toolchain-gd32v-v200-osx/compiler/riscv64-unknown-elf/incl
GAS LISTING /var/folders/yy/83vjwp7d53j56dbzj8_jnpcr0000gn/T//ccZPrF3v.s 			page 4

