GAS LISTING /var/folders/yy/83vjwp7d53j56dbzj8_jnpcr0000gn/T//ccxqYFNV.s 			page 1


   1              		.file	"dma.c"
   2              		.option nopic
   3              		.attribute arch, "rv32i2p0_m2p0_a2p0_c2p0"
   4              		.attribute unaligned_access, 0
   5              		.attribute stack_align, 16
   6              		.text
   7              	.Ltext0:
   8              		.cfi_sections	.debug_frame
   9              		.comm	sample_buffer,16,4
  10              		.section	.text.timer_config,"ax",@progbits
  11              		.align	1
  12              		.globl	timer_config
  14              	timer_config:
  15              	.LFB6:
  16              		.file 1 "lib/dma/src/dma.c"
   1:lib/dma/src/dma.c **** #include "gd32vf103.h"
   2:lib/dma/src/dma.c **** #include "systick.h"
   3:lib/dma/src/dma.c **** #include "usb_serial_if.h"
   4:lib/dma/src/dma.c **** #include "dma.h"
   5:lib/dma/src/dma.c **** 
   6:lib/dma/src/dma.c **** int timer_config(uint32_t sample_rate)
   7:lib/dma/src/dma.c **** {
  17              		.loc 1 7 1
  18              		.cfi_startproc
  19              	.LVL0:
   8:lib/dma/src/dma.c ****     rcu_periph_clock_enable(RCU_TIMER0);
  20              		.loc 1 8 5
   7:lib/dma/src/dma.c ****     rcu_periph_clock_enable(RCU_TIMER0);
  21              		.loc 1 7 1 is_stmt 0
  22 0000 7971     		addi	sp,sp,-48
  23              	.LCFI0:
  24              		.cfi_def_cfa_offset 48
  25 0002 26D2     		sw	s1,36(sp)
  26              		.cfi_offset 9, -12
  27 0004 AA84     		mv	s1,a0
  28              		.loc 1 8 5
  29 0006 1305B060 		li	a0,1547
  30              	.LVL1:
   7:lib/dma/src/dma.c ****     rcu_periph_clock_enable(RCU_TIMER0);
  31              		.loc 1 7 1
  32 000a 06D6     		sw	ra,44(sp)
  33 000c 22D4     		sw	s0,40(sp)
  34              		.cfi_offset 1, -4
  35              		.cfi_offset 8, -8
   9:lib/dma/src/dma.c **** 	// Max 2000hz 108
  10:lib/dma/src/dma.c ****     timer_oc_parameter_struct timer_ocintpara;
  11:lib/dma/src/dma.c ****     timer_parameter_struct timer_initpara;
  12:lib/dma/src/dma.c **** 
  13:lib/dma/src/dma.c ****     /* deinit a timer */
  14:lib/dma/src/dma.c ****     timer_deinit(TIMER0);
  36              		.loc 1 14 5
  37 000e 37340140 		li	s0,1073819648
   8:lib/dma/src/dma.c **** 	// Max 2000hz 108
  38              		.loc 1 8 5
  39 0012 97000000 		call	rcu_periph_clock_enable
  39      E7800000 
  40              	.LVL2:
GAS LISTING /var/folders/yy/83vjwp7d53j56dbzj8_jnpcr0000gn/T//ccxqYFNV.s 			page 2


  10:lib/dma/src/dma.c ****     timer_parameter_struct timer_initpara;
  41              		.loc 1 10 5 is_stmt 1
  11:lib/dma/src/dma.c **** 
  42              		.loc 1 11 5
  43              		.loc 1 14 5
  44 001a 130504C0 		addi	a0,s0,-1024
  45 001e 97000000 		call	timer_deinit
  45      E7800000 
  46              	.LVL3:
  15:lib/dma/src/dma.c ****     /* initialize TIMER init parameter struct */
  16:lib/dma/src/dma.c ****     timer_struct_para_init(&timer_initpara);
  47              		.loc 1 16 5
  48 0026 0808     		addi	a0,sp,16
  49 0028 97000000 		call	timer_struct_para_init
  49      E7800000 
  50              	.LVL4:
  17:lib/dma/src/dma.c ****     /* TIMER0 configuration */
  18:lib/dma/src/dma.c ****     timer_initpara.prescaler         = 5399; //  108 000 000
  51              		.loc 1 18 5
  19:lib/dma/src/dma.c ****     timer_initpara.alignedmode       = TIMER_COUNTER_EDGE;
  52              		.loc 1 19 5
  20:lib/dma/src/dma.c ****     timer_initpara.counterdirection  = TIMER_COUNTER_UP;
  53              		.loc 1 20 5
  18:lib/dma/src/dma.c ****     timer_initpara.alignedmode       = TIMER_COUNTER_EDGE;
  54              		.loc 1 18 38 is_stmt 0
  55 0030 8567     		li	a5,4096
  56 0032 93877751 		addi	a5,a5,1303
  21:lib/dma/src/dma.c ****     timer_initpara.period            = sample_rate - 1;
  22:lib/dma/src/dma.c ****     timer_initpara.clockdivision     = TIMER_CKDIV_DIV1;
  23:lib/dma/src/dma.c ****     timer_initpara.repetitioncounter = 0;
  24:lib/dma/src/dma.c ****     timer_init(TIMER0,&timer_initpara);
  57              		.loc 1 24 5
  58 0036 0C08     		addi	a1,sp,16
  59 0038 130504C0 		addi	a0,s0,-1024
  21:lib/dma/src/dma.c ****     timer_initpara.period            = sample_rate - 1;
  60              		.loc 1 21 52
  61 003c FD14     		addi	s1,s1,-1
  62              	.LVL5:
  18:lib/dma/src/dma.c ****     timer_initpara.alignedmode       = TIMER_COUNTER_EDGE;
  63              		.loc 1 18 38
  64 003e 3EC8     		sw	a5,16(sp)
  21:lib/dma/src/dma.c ****     timer_initpara.period            = sample_rate - 1;
  65              		.loc 1 21 38
  66 0040 26CC     		sw	s1,24(sp)
  20:lib/dma/src/dma.c ****     timer_initpara.period            = sample_rate - 1;
  67              		.loc 1 20 38
  68 0042 231A0100 		sh	zero,20(sp)
  21:lib/dma/src/dma.c ****     timer_initpara.period            = sample_rate - 1;
  69              		.loc 1 21 5 is_stmt 1
  22:lib/dma/src/dma.c ****     timer_initpara.repetitioncounter = 0;
  70              		.loc 1 22 5
  22:lib/dma/src/dma.c ****     timer_initpara.repetitioncounter = 0;
  71              		.loc 1 22 38 is_stmt 0
  72 0046 231E0100 		sh	zero,28(sp)
  23:lib/dma/src/dma.c ****     timer_init(TIMER0,&timer_initpara);
  73              		.loc 1 23 5 is_stmt 1
  23:lib/dma/src/dma.c ****     timer_init(TIMER0,&timer_initpara);
GAS LISTING /var/folders/yy/83vjwp7d53j56dbzj8_jnpcr0000gn/T//ccxqYFNV.s 			page 3


  74              		.loc 1 23 38 is_stmt 0
  75 004a 230F0100 		sb	zero,30(sp)
  76              		.loc 1 24 5 is_stmt 1
  77 004e 97000000 		call	timer_init
  77      E7800000 
  78              	.LVL6:
  25:lib/dma/src/dma.c **** 
  26:lib/dma/src/dma.c ****     /* CH0 configuration in PWM mode1 */
  27:lib/dma/src/dma.c ****     timer_channel_output_struct_para_init(&timer_ocintpara);
  79              		.loc 1 27 5
  80 0056 4800     		addi	a0,sp,4
  81 0058 97000000 		call	timer_channel_output_struct_para_init
  81      E7800000 
  82              	.LVL7:
  28:lib/dma/src/dma.c ****     timer_ocintpara.ocpolarity  = TIMER_OC_POLARITY_HIGH;
  83              		.loc 1 28 5
  29:lib/dma/src/dma.c ****     timer_ocintpara.outputstate = TIMER_CCX_ENABLE;
  84              		.loc 1 29 33 is_stmt 0
  85 0060 8547     		li	a5,1
  30:lib/dma/src/dma.c ****     timer_channel_output_config(TIMER0, TIMER_CH_0, &timer_ocintpara);
  86              		.loc 1 30 5
  87 0062 5000     		addi	a2,sp,4
  88 0064 130504C0 		addi	a0,s0,-1024
  89 0068 8145     		li	a1,0
  29:lib/dma/src/dma.c ****     timer_ocintpara.outputstate = TIMER_CCX_ENABLE;
  90              		.loc 1 29 33
  91 006a 2312F100 		sh	a5,4(sp)
  28:lib/dma/src/dma.c ****     timer_ocintpara.ocpolarity  = TIMER_OC_POLARITY_HIGH;
  92              		.loc 1 28 33
  93 006e 23140100 		sh	zero,8(sp)
  29:lib/dma/src/dma.c ****     timer_ocintpara.outputstate = TIMER_CCX_ENABLE;
  94              		.loc 1 29 5 is_stmt 1
  95              		.loc 1 30 5
  96 0072 97000000 		call	timer_channel_output_config
  96      E7800000 
  97              	.LVL8:
  31:lib/dma/src/dma.c **** 
  32:lib/dma/src/dma.c ****     timer_channel_output_pulse_value_config(TIMER0, TIMER_CH_0, 1);
  98              		.loc 1 32 5
  99 007a 130504C0 		addi	a0,s0,-1024
 100 007e 0546     		li	a2,1
 101 0080 8145     		li	a1,0
 102 0082 97000000 		call	timer_channel_output_pulse_value_config
 102      E7800000 
 103              	.LVL9:
  33:lib/dma/src/dma.c ****     timer_channel_output_mode_config(TIMER0, TIMER_CH_0, TIMER_OC_MODE_PWM1);
 104              		.loc 1 33 5
 105 008a 130504C0 		addi	a0,s0,-1024
 106 008e 13060007 		li	a2,112
 107 0092 8145     		li	a1,0
 108 0094 97000000 		call	timer_channel_output_mode_config
 108      E7800000 
 109              	.LVL10:
  34:lib/dma/src/dma.c ****     timer_channel_output_shadow_config(TIMER0, TIMER_CH_0, TIMER_OC_SHADOW_DISABLE);
 110              		.loc 1 34 5
 111 009c 0146     		li	a2,0
 112 009e 8145     		li	a1,0
GAS LISTING /var/folders/yy/83vjwp7d53j56dbzj8_jnpcr0000gn/T//ccxqYFNV.s 			page 4


 113 00a0 130504C0 		addi	a0,s0,-1024
 114 00a4 97000000 		call	timer_channel_output_shadow_config
 114      E7800000 
 115              	.LVL11:
  35:lib/dma/src/dma.c **** 
  36:lib/dma/src/dma.c **** 	timer_auto_reload_shadow_enable(TIMER0);
 116              		.loc 1 36 2
 117 00ac 130504C0 		addi	a0,s0,-1024
 118 00b0 97000000 		call	timer_auto_reload_shadow_enable
 118      E7800000 
 119              	.LVL12:
  37:lib/dma/src/dma.c **** 
  38:lib/dma/src/dma.c ****     timer_enable(TIMER0);
 120              		.loc 1 38 5
 121 00b8 130504C0 		addi	a0,s0,-1024
 122 00bc 97000000 		call	timer_enable
 122      E7800000 
 123              	.LVL13:
  39:lib/dma/src/dma.c **** }
 124              		.loc 1 39 1 is_stmt 0
 125 00c4 B250     		lw	ra,44(sp)
 126              		.cfi_restore 1
 127 00c6 2254     		lw	s0,40(sp)
 128              		.cfi_restore 8
 129 00c8 9254     		lw	s1,36(sp)
 130              		.cfi_restore 9
 131              	.LVL14:
 132 00ca 4561     		addi	sp,sp,48
 133              	.LCFI1:
 134              		.cfi_def_cfa_offset 0
 135 00cc 8280     		jr	ra
 136              		.cfi_endproc
 137              	.LFE6:
 139              		.section	.text.dma_config,"ax",@progbits
 140              		.align	1
 141              		.globl	dma_config
 143              	dma_config:
 144              	.LFB7:
  40:lib/dma/src/dma.c **** 
  41:lib/dma/src/dma.c **** void dma_config()
  42:lib/dma/src/dma.c **** {
 145              		.loc 1 42 1 is_stmt 1
 146              		.cfi_startproc
  43:lib/dma/src/dma.c **** 	
  44:lib/dma/src/dma.c ****     /* ADC_DMA_channel configuration */
  45:lib/dma/src/dma.c ****     dma_parameter_struct dma_data_parameter;
 147              		.loc 1 45 5
  46:lib/dma/src/dma.c ****     rcu_periph_clock_enable(RCU_DMA0); //Ändra till DMA1 om möjligt
 148              		.loc 1 46 5
  42:lib/dma/src/dma.c **** 	
 149              		.loc 1 42 1 is_stmt 0
 150 0000 7971     		addi	sp,sp,-48
 151              	.LCFI2:
 152              		.cfi_def_cfa_offset 48
 153              		.loc 1 46 5
 154 0002 13050050 		li	a0,1280
  42:lib/dma/src/dma.c **** 	
GAS LISTING /var/folders/yy/83vjwp7d53j56dbzj8_jnpcr0000gn/T//ccxqYFNV.s 			page 5


 155              		.loc 1 42 1
 156 0006 06D6     		sw	ra,44(sp)
 157              		.cfi_offset 1, -4
 158              		.loc 1 46 5
 159 0008 97000000 		call	rcu_periph_clock_enable
 159      E7800000 
 160              	.LVL15:
  47:lib/dma/src/dma.c ****     /* ADC DMA_channel configuration */
  48:lib/dma/src/dma.c ****     dma_deinit(DMA0, DMA_CH0);
 161              		.loc 1 48 5 is_stmt 1
 162 0010 8145     		li	a1,0
 163 0012 37050240 		li	a0,1073872896
 164 0016 97000000 		call	dma_deinit
 164      E7800000 
 165              	.LVL16:
  49:lib/dma/src/dma.c ****     
  50:lib/dma/src/dma.c ****     /* initialize DMA data mode */
  51:lib/dma/src/dma.c ****     dma_data_parameter.periph_addr  = (uint32_t)(&ADC_RDATA(ADC0));
 166              		.loc 1 51 5
 167              		.loc 1 51 37 is_stmt 0
 168 001e B7270140 		li	a5,1073815552
 169 0022 9387C744 		addi	a5,a5,1100
 170 0026 3EC2     		sw	a5,4(sp)
  52:lib/dma/src/dma.c ****     dma_data_parameter.periph_inc   = DMA_PERIPH_INCREASE_DISABLE;
 171              		.loc 1 52 5 is_stmt 1
  53:lib/dma/src/dma.c ****     dma_data_parameter.memory_addr  = (uint32_t)(&sample_buffer);
 172              		.loc 1 53 5
  54:lib/dma/src/dma.c ****     dma_data_parameter.memory_inc   = DMA_MEMORY_INCREASE_ENABLE;
  55:lib/dma/src/dma.c ****     dma_data_parameter.periph_width = DMA_PERIPHERAL_WIDTH_16BIT;
  56:lib/dma/src/dma.c ****     dma_data_parameter.memory_width = DMA_MEMORY_WIDTH_16BIT;  
 173              		.loc 1 56 37 is_stmt 0
 174 0028 13070040 		li	a4,1024
  53:lib/dma/src/dma.c ****     dma_data_parameter.memory_addr  = (uint32_t)(&sample_buffer);
 175              		.loc 1 53 37
 176 002c B7070000 		lui	a5,%hi(sample_buffer)
 177              		.loc 1 56 37
 178 0030 3AC8     		sw	a4,16(sp)
  53:lib/dma/src/dma.c ****     dma_data_parameter.memory_addr  = (uint32_t)(&sample_buffer);
 179              		.loc 1 53 37
 180 0032 93870700 		addi	a5,a5,%lo(sample_buffer)
  57:lib/dma/src/dma.c ****     dma_data_parameter.direction    = DMA_PERIPHERAL_TO_MEMORY;
  58:lib/dma/src/dma.c ****     dma_data_parameter.number       = 8;
 181              		.loc 1 58 37
 182 0036 2147     		li	a4,8
  59:lib/dma/src/dma.c ****     dma_data_parameter.priority     = DMA_PRIORITY_HIGH;
  60:lib/dma/src/dma.c ****     dma_init(DMA0, DMA_CH0, &dma_data_parameter);
 183              		.loc 1 60 5
 184 0038 5000     		addi	a2,sp,4
  53:lib/dma/src/dma.c ****     dma_data_parameter.memory_inc   = DMA_MEMORY_INCREASE_ENABLE;
 185              		.loc 1 53 37
 186 003a 3EC6     		sw	a5,12(sp)
  54:lib/dma/src/dma.c ****     dma_data_parameter.periph_width = DMA_PERIPHERAL_WIDTH_16BIT;
 187              		.loc 1 54 5 is_stmt 1
  55:lib/dma/src/dma.c ****     dma_data_parameter.memory_width = DMA_MEMORY_WIDTH_16BIT;  
 188              		.loc 1 55 5
  58:lib/dma/src/dma.c ****     dma_data_parameter.priority     = DMA_PRIORITY_HIGH;
 189              		.loc 1 58 37 is_stmt 0
GAS LISTING /var/folders/yy/83vjwp7d53j56dbzj8_jnpcr0000gn/T//ccxqYFNV.s 			page 6


 190 003c 3ACA     		sw	a4,20(sp)
  55:lib/dma/src/dma.c ****     dma_data_parameter.memory_width = DMA_MEMORY_WIDTH_16BIT;  
 191              		.loc 1 55 37
 192 003e 93070010 		li	a5,256
  59:lib/dma/src/dma.c ****     dma_init(DMA0, DMA_CH0, &dma_data_parameter);
 193              		.loc 1 59 37
 194 0042 0967     		li	a4,8192
 195              		.loc 1 60 5
 196 0044 8145     		li	a1,0
 197 0046 37050240 		li	a0,1073872896
  55:lib/dma/src/dma.c ****     dma_data_parameter.memory_width = DMA_MEMORY_WIDTH_16BIT;  
 198              		.loc 1 55 37
 199 004a 3EC4     		sw	a5,8(sp)
  56:lib/dma/src/dma.c ****     dma_data_parameter.direction    = DMA_PERIPHERAL_TO_MEMORY;
 200              		.loc 1 56 5 is_stmt 1
  57:lib/dma/src/dma.c ****     dma_data_parameter.number       = 8;
 201              		.loc 1 57 5
  58:lib/dma/src/dma.c ****     dma_data_parameter.priority     = DMA_PRIORITY_HIGH;
 202              		.loc 1 58 5
  59:lib/dma/src/dma.c ****     dma_init(DMA0, DMA_CH0, &dma_data_parameter);
 203              		.loc 1 59 5
  59:lib/dma/src/dma.c ****     dma_init(DMA0, DMA_CH0, &dma_data_parameter);
 204              		.loc 1 59 37 is_stmt 0
 205 004c 3ACC     		sw	a4,24(sp)
  52:lib/dma/src/dma.c ****     dma_data_parameter.memory_addr  = (uint32_t)(&sample_buffer);
 206              		.loc 1 52 37
 207 004e 231EF100 		sh	a5,28(sp)
  57:lib/dma/src/dma.c ****     dma_data_parameter.number       = 8;
 208              		.loc 1 57 37
 209 0052 230F0100 		sb	zero,30(sp)
 210              		.loc 1 60 5 is_stmt 1
 211 0056 97000000 		call	dma_init
 211      E7800000 
 212              	.LVL17:
  61:lib/dma/src/dma.c ****     dma_circulation_enable(DMA0, DMA_CH0);
 213              		.loc 1 61 5
 214 005e 8145     		li	a1,0
 215 0060 37050240 		li	a0,1073872896
 216 0064 97000000 		call	dma_circulation_enable
 216      E7800000 
 217              	.LVL18:
  62:lib/dma/src/dma.c ****     //dma_interrupt_enable(DMA0, DMA_CH0, DMA_INT_FLAG_FTF);
  63:lib/dma/src/dma.c ****     /* enable DMA channel */
  64:lib/dma/src/dma.c ****     dma_channel_enable(DMA0, DMA_CH0);
 218              		.loc 1 64 5
 219 006c 8145     		li	a1,0
 220 006e 37050240 		li	a0,1073872896
 221 0072 97000000 		call	dma_channel_enable
 221      E7800000 
 222              	.LVL19:
  65:lib/dma/src/dma.c **** }
 223              		.loc 1 65 1 is_stmt 0
 224 007a B250     		lw	ra,44(sp)
 225              		.cfi_restore 1
 226 007c 4561     		addi	sp,sp,48
 227              	.LCFI3:
 228              		.cfi_def_cfa_offset 0
GAS LISTING /var/folders/yy/83vjwp7d53j56dbzj8_jnpcr0000gn/T//ccxqYFNV.s 			page 7


 229 007e 8280     		jr	ra
 230              		.cfi_endproc
 231              	.LFE7:
 233              		.text
 234              	.Letext0:
 235              		.file 2 "/Users/gulda/Documents/risc-v/toolchain-gd32v-v200-osx/compiler/riscv64-unknown-elf/inclu
 236              		.file 3 "/Users/gulda/Documents/risc-v/toolchain-gd32v-v200-osx/compiler/riscv64-unknown-elf/inclu
 237              		.file 4 "../../firmware/GD32VF103_standard_peripheral/Include/gd32vf103_dma.h"
 238              		.file 5 "../../firmware/GD32VF103_standard_peripheral/Include/gd32vf103_rcu.h"
 239              		.file 6 "../../firmware/GD32VF103_standard_peripheral/Include/gd32vf103_timer.h"
 240              		.file 7 "lib/usbcdc/include/drv_usb_regs.h"
 241              		.file 8 "../../firmware/GD32VF103_standard_peripheral/system_gd32vf103.h"
 242              		.file 9 "lib/usbcdc/include/usb_ch9_std.h"
 243              		.file 10 "lib/usbcdc/include/drv_usb_core.h"
 244              		.file 11 "lib/usbcdc/include/drv_usb_dev.h"
 245              		.file 12 "/Users/gulda/Documents/risc-v/toolchain-gd32v-v200-osx/compiler/lib/gcc/riscv64-unknown-
 246              		.file 13 "/Users/gulda/Documents/risc-v/toolchain-gd32v-v200-osx/compiler/riscv64-unknown-elf/incl
 247              		.file 14 "/Users/gulda/Documents/risc-v/toolchain-gd32v-v200-osx/compiler/riscv64-unknown-elf/incl
 248              		.file 15 "/Users/gulda/Documents/risc-v/toolchain-gd32v-v200-osx/compiler/riscv64-unknown-elf/incl
 249              		.file 16 "lib/usbcdc/include/cdc_acm_core.h"
 250              		.file 17 "/Users/gulda/Documents/risc-v/toolchain-gd32v-v200-osx/compiler/riscv64-unknown-elf/incl
 251              		.file 18 "lib/usbcdc/include/usb_serial_if.h"
 252              		.file 19 "lib/dma/include/dma.h"
GAS LISTING /var/folders/yy/83vjwp7d53j56dbzj8_jnpcr0000gn/T//ccxqYFNV.s 			page 8

