GAS LISTING /var/folders/yy/83vjwp7d53j56dbzj8_jnpcr0000gn/T//ccxqYFNV.s 			page 1


   1              		.file	"dma.c"
   2              		.option nopic
   3              		.attribute arch, "rv32i2p0_m2p0_a2p0_c2p0"
   4              		.attribute unaligned_access, 0
   5              		.attribute stack_align, 16
   6              		.text
   7              	.Ltext0:
   8              		.cfi_sections	.debug_frame
   9              		.comm	sample_buffer,16,4
  10              		.section	.text.timer_config,"ax",@progbits
  11              		.align	1
  12              		.globl	timer_config
  14              	timer_config:
  15              	.LFB6:
  16              		.file 1 "lib/dma/src/dma.c"
   1:lib/dma/src/dma.c **** #include "gd32vf103.h"
   2:lib/dma/src/dma.c **** #include "systick.h"
   3:lib/dma/src/dma.c **** #include "usb_serial_if.h"
   4:lib/dma/src/dma.c **** #include "dma.h"
   5:lib/dma/src/dma.c **** 
   6:lib/dma/src/dma.c **** int timer_config(uint32_t sample_rate)
   7:lib/dma/src/dma.c **** {
  17              		.loc 1 7 1
  18              		.cfi_startproc
  19              	.LVL0:
   8:lib/dma/src/dma.c ****     rcu_periph_clock_enable(RCU_TIMER0);
  20              		.loc 1 8 5
   7:lib/dma/src/dma.c ****     rcu_periph_clock_enable(RCU_TIMER0);
  21              		.loc 1 7 1 is_stmt 0
  22 0000 7971     		addi	sp,sp,-48
  23              	.LCFI0:
  24              		.cfi_def_cfa_offset 48
  25 0002 26D2     		sw	s1,36(sp)
  26              		.cfi_offset 9, -12
  27 0004 AA84     		mv	s1,a0
  28              		.loc 1 8 5
  29 0006 1305B060 		li	a0,1547
  30              	.LVL1:
   7:lib/dma/src/dma.c ****     rcu_periph_clock_enable(RCU_TIMER0);
  31              		.loc 1 7 1
  32 000a 06D6     		sw	ra,44(sp)
  33 000c 22D4     		sw	s0,40(sp)
  34              		.cfi_offset 1, -4
  35              		.cfi_offset 8, -8
   9:lib/dma/src/dma.c **** 	// Max 2000hz 108
  10:lib/dma/src/dma.c ****     timer_oc_parameter_struct timer_ocintpara;
  11:lib/dma/src/dma.c ****     timer_parameter_struct timer_initpara;
  12:lib/dma/src/dma.c **** 
  13:lib/dma/src/dma.c ****     /* deinit a timer */
  14:lib/dma/src/dma.c ****     timer_deinit(TIMER0);
  36              		.loc 1 14 5
  37 000e 37340140 		li	s0,1073819648
   8:lib/dma/src/dma.c **** 	// Max 2000hz 108
  38              		.loc 1 8 5
  39 0012 97000000 		call	rcu_periph_clock_enable
  39      E7800000 
  40              	.LVL2:
GAS LISTING /var/folders/yy/83vjwp7d53j56dbzj8_jnpcr0000gn/T//ccxqYFNV.s 			page 2


  10:lib/dma/src/dma.c ****     timer_parameter_struct timer_initpara;
  41              		.loc 1 10 5 is_stmt 1
  11:lib/dma/src/dma.c **** 
  42              		.loc 1 11 5
  43              		.loc 1 14 5
  44 001a 130504C0 		addi	a0,s0,-1024
  45 001e 97000000 		call	timer_deinit
  45      E7800000 
  46              	.LVL3:
  15:lib/dma/src/dma.c ****     /* initialize TIMER init parameter struct */
  16:lib/dma/src/dma.c ****     timer_struct_para_init(&timer_initpara);
  47              		.loc 1 16 5
  48 0026 0808     		addi	a0,sp,16
  49 0028 97000000 		call	timer_struct_para_init
  49      E7800000 
  50              	.LVL4:
  17:lib/dma/src/dma.c ****     /* TIMER0 configuration */
  18:lib/dma/src/dma.c ****     timer_initpara.prescaler         = 5399; //  108 000 000
  51              		.loc 1 18 5
  19:lib/dma/src/dma.c ****     timer_initpara.alignedmode       = TIMER_COUNTER_EDGE;
  52              		.loc 1 19 5
  20:lib/dma/src/dma.c ****     timer_initpara.counterdirection  = TIMER_COUNTER_UP;
  53              		.loc 1 20 5
  18:lib/dma/src/dma.c ****     timer_initpara.alignedmode       = TIMER_COUNTER_EDGE;
  54              		.loc 1 18 38 is_stmt 0
  55 0030 8567     		li	a5,4096
  56 0032 93877751 		addi	a5,a5,1303
  21:lib/dma/src/dma.c ****     timer_initpara.period            = sample_rate - 1;
  22:lib/dma/src/dma.c ****     timer_initpara.clockdivision     = TIMER_CKDIV_DIV1;
  23:lib/dma/src/dma.c ****     timer_initpara.repetitioncounter = 0;
  24:lib/dma/src/dma.c ****     timer_init(TIMER0,&timer_initpara);
  57              		.loc 1 24 5
  58 0036 0C08     		addi	a1,sp,16
  59 0038 130504C0 		addi	a0,s0,-1024
  21:lib/dma/src/dma.c ****     timer_initpara.period            = sample_rate - 1;
  60              		.loc 1 21 52
  61 003c FD14     		addi	s1,s1,-1
  62              	.LVL5:
  18:lib/dma/src/dma.c ****     timer_initpara.alignedmode       = TIMER_COUNTER_EDGE;
  63              		.loc 1 18 38
  64 003e 3EC8     		sw	a5,16(sp)
  21:lib/dma/src/dma.c ****     timer_initpara.period            = sample_rate - 1;
  65              		.loc 1 21 38
  66 0040 26CC     		sw	s1,24(sp)
  20:lib/dma/src/dma.c ****     timer_initpara.period            = sample_rate - 1;
  67              		.loc 1 20 38
  68 0042 231A0100 		sh	zero,20(sp)
  21:lib/dma/src/dma.c ****     timer_initpara.period            = sample_rate - 1;
  69              		.loc 1 21 5 is_stmt 1
  22:lib/dma/src/dma.c ****     timer_initpara.repetitioncounter = 0;
  70              		.loc 1 22 5
  22:lib/dma/src/dma.c ****     timer_initpara.repetitioncounter = 0;
  71              		.loc 1 22 38 is_stmt 0
  72 0046 231E0100 		sh	zero,28(sp)
  23:lib/dma/src/dma.c ****     timer_init(TIMER0,&timer_initpara);
  73              		.loc 1 23 5 is_stmt 1
  23:lib/dma/src/dma.c ****     timer_init(TIMER0,&timer_initpara);
GAS LISTING /var/folders/yy/83vjwp7d53j56dbzj8_jnpcr0000gn/T//ccxqYFNV.s 			page 3


  74              		.loc 1 23 38 is_stmt 0
  75 004a 230F0100 		sb	zero,30(sp)
  76              		.loc 1 24 5 is_stmt 1
  77 004e 97000000 		call	timer_init
  77      E7800000 
  78              	.LVL6:
  25:lib/dma/src/dma.c **** 
  26:lib/dma/src/dma.c ****     /* CH0 configuration in PWM mode1 */
  27:lib/dma/src/dma.c ****     timer_channel_output_struct_para_init(&timer_ocintpara);
  79              		.loc 1 27 5
  80 0056 4800     		addi	a0,sp,4
  81 0058 97000000 		call	timer_channel_output_struct_para_init
  81      E7800000 
  82              	.LVL7:
  28:lib/dma/src/dma.c ****     timer_ocintpara.ocpolarity  = TIMER_OC_POLARITY_HIGH;
  83              		.loc 1 28 5
  29:lib/dma/src/dma.c ****     timer_ocintpara.outputstate = TIMER_CCX_ENABLE;
  84              		.loc 1 29 33 is_stmt 0
  85 0060 8547     		li	a5,1
  30:lib/dma/src/dma.c ****     timer_channel_output_config(TIMER0, TIMER_CH_0, &timer_ocintpara);
  86              		.loc 1 30 5
  87 0062 5000     		addi	a2,sp,4
  88 0064 130504C0 		addi	a0,s0,-1024
  89 0068 8145     		li	a1,0
  29:lib/dma/src/dma.c ****     timer_ocintpara.outputstate = TIMER_CCX_ENABLE;
  90              		.loc 1 29 33
  91 006a 2312F100 		sh	a5,4(sp)
  28:lib/dma/src/dma.c ****     timer_ocintpara.ocpolarity  = TIMER_OC_POLARITY_HIGH;
  92              		.loc 1 28 33
  93 006e 23140100 		sh	zero,8(sp)
  29:lib/dma/src/dma.c ****     timer_ocintpara.outputstate = TIMER_CCX_ENABLE;
  94              		.loc 1 29 5 is_stmt 1
  95              		.loc 1 30 5
  96 0072 97000000 		call	timer_channel_output_config
  96      E7800000 
  97              	.LVL8:
  31:lib/dma/src/dma.c **** 
  32:lib/dma/src/dma.c ****     timer_channel_output_pulse_value_config(TIMER0, TIMER_CH_0, 1);
  98              		.loc 1 32 5
  99 007a 130504C0 		addi	a0,s0,-1024
 100 007e 0546     		li	a2,1
 101 0080 8145     		li	a1,0
 102 0082 97000000 		call	timer_channel_output_pulse_value_config
 102      E7800000 
 103              	.LVL9:
  33:lib/dma/src/dma.c ****     timer_channel_output_mode_config(TIMER0, TIMER_CH_0, TIMER_OC_MODE_PWM1);
 104              		.loc 1 33 5
 105 008a 130504C0 		addi	a0,s0,-1024
 106 008e 13060007 		li	a2,112
 107 0092 8145     		li	a1,0
 108 0094 97000000 		call	timer_channel_output_mode_config
 108      E7800000 
 109              	.LVL10:
  34:lib/dma/src/dma.c ****     timer_channel_output_shadow_config(TIMER0, TIMER_CH_0, TIMER_OC_SHADOW_DISABLE);
 110              		.loc 1 34 5
 111 009c 0146     		li	a2,0
 112 009e 8145     		li	a1,0
GAS LISTING /var/folders/yy/83vjwp7d53j56dbzj8_jnpcr0000gn/T//ccxqYFNV.s 			page 4


 113 00a0 130504C0 		addi	a0,s0,-1024
 114 00a4 97000000 		call	timer_channel_output_shadow_config
 114      E7800000 
 115              	.LVL11:
  35:lib/dma/src/dma.c **** 
  36:lib/dma/src/dma.c **** 	timer_auto_reload_shadow_enable(TIMER0);
 116              		.loc 1 36 2
 117 00ac 130504C0 		addi	a0,s0,-1024
 118 00b0 97000000 		call	timer_auto_reload_shadow_enable
 118      E7800000 
 119              	.LVL12:
  37:lib/dma/src/dma.c **** 
  38:lib/dma/src/dma.c ****     timer_enable(TIMER0);
 120              		.loc 1 38 5
 121 00b8 130504C0 		addi	a0,s0,-1024
 122 00bc 97000000 		call	timer_enable
 122      E7800000 
 123              	.LVL13:
  39:lib/dma/src/dma.c **** }
 124              		.loc 1 39 1 is_stmt 0
 125 00c4 B250     		lw	ra,44(sp)
 126              		.cfi_restore 1
 127 00c6 2254     		lw	s0,40(sp)
 128              		.cfi_restore 8
 129 00c8 9254     		lw	s1,36(sp)
 130              		.cfi_restore 9
 131              	.LVL14:
 132 00ca 4561     		addi	sp,sp,48
 133              	.LCFI1:
 134              		.cfi_def_cfa_offset 0
 135 00cc 8280     		jr	ra
 136              		.cfi_endproc
 137              	.LFE6:
 139              		.section	.text.dma_config,"ax",@progbits
 140              		.align	1
 141              		.globl	dma_config
 143              	dma_config:
 144              	.LFB7:
  40:lib/dma/src/dma.c **** 
  41:lib/dma/src/dma.c **** void dma_config()
  42:lib/dma/src/dma.c **** {
 145              		.loc 1 42 1 is_stmt 1
 146              		.cfi_startproc
  43:lib/dma/src/dma.c **** 	
  44:lib/dma/src/dma.c ****     /* ADC_DMA_channel configuration */
  45:lib/dma/src/dma.c ****     dma_parameter_struct dma_data_parameter;
 147              		.loc 1 45 5
  46:lib/dma/src/dma.c ****     rcu_periph_clock_enable(RCU_DMA0); //Ändra till DMA1 om möjligt
 148              		.loc 1 46 5
  42:lib/dma/src/dma.c **** 	
 149              		.loc 1 42 1 is_stmt 0
 150 0000 7971     		addi	sp,sp,-48
 151              	.LCFI2:
 152              		.cfi_def_cfa_offset 48
 153              		.loc 1 46 5
 154 0002 13050050 		li	a0,1280
  42:lib/dma/src/dma.c **** 	
GAS LISTING /var/folders/yy/83vjwp7d53j56dbzj8_jnpcr0000gn/T//ccxqYFNV.s 			page 5


 155              		.loc 1 42 1
 156 0006 06D6     		sw	ra,44(sp)
 157              		.cfi_offset 1, -4
 158              		.loc 1 46 5
 159 0008 97000000 		call	rcu_periph_clock_enable
 159      E7800000 
 160              	.LVL15:
  47:lib/dma/src/dma.c ****     /* ADC DMA_channel configuration */
  48:lib/dma/src/dma.c ****     dma_deinit(DMA0, DMA_CH0);
 161              		.loc 1 48 5 is_stmt 1
 162 0010 8145     		li	a1,0
 163 0012 37050240 		li	a0,1073872896
 164 0016 97000000 		call	dma_deinit
 164      E7800000 
 165              	.LVL16:
  49:lib/dma/src/dma.c ****     
  50:lib/dma/src/dma.c ****     /* initialize DMA data mode */
  51:lib/dma/src/dma.c ****     dma_data_parameter.periph_addr  = (uint32_t)(&ADC_RDATA(ADC0));
 166              		.loc 1 51 5
 167              		.loc 1 51 37 is_stmt 0
 168 001e B7270140 		li	a5,1073815552
 169 0022 9387C744 		addi	a5,a5,1100
 170 0026 3EC2     		sw	a5,4(sp)
  52:lib/dma/src/dma.c ****     dma_data_parameter.periph_inc   = DMA_PERIPH_INCREASE_DISABLE;
 171              		.loc 1 52 5 is_stmt 1
  53:lib/dma/src/dma.c ****     dma_data_parameter.memory_addr  = (uint32_t)(&sample_buffer);
 172              		.loc 1 53 5
  54:lib/dma/src/dma.c ****     dma_data_parameter.memory_inc   = DMA_MEMORY_INCREASE_ENABLE;
  55:lib/dma/src/dma.c ****     dma_data_parameter.periph_width = DMA_PERIPHERAL_WIDTH_16BIT;
  56:lib/dma/src/dma.c ****     dma_data_parameter.memory_width = DMA_MEMORY_WIDTH_16BIT;  
 173              		.loc 1 56 37 is_stmt 0
 174 0028 13070040 		li	a4,1024
  53:lib/dma/src/dma.c ****     dma_data_parameter.memory_addr  = (uint32_t)(&sample_buffer);
 175              		.loc 1 53 37
 176 002c B7070000 		lui	a5,%hi(sample_buffer)
 177              		.loc 1 56 37
 178 0030 3AC8     		sw	a4,16(sp)
  53:lib/dma/src/dma.c ****     dma_data_parameter.memory_addr  = (uint32_t)(&sample_buffer);
 179              		.loc 1 53 37
 180 0032 93870700 		addi	a5,a5,%lo(sample_buffer)
  57:lib/dma/src/dma.c ****     dma_data_parameter.direction    = DMA_PERIPHERAL_TO_MEMORY;
  58:lib/dma/src/dma.c ****     dma_data_parameter.number       = 8;
 181              		.loc 1 58 37
 182 0036 2147     		li	a4,8
  59:lib/dma/src/dma.c ****     dma_data_parameter.priority     = DMA_PRIORITY_HIGH;
  60:lib/dma/src/dma.c ****     dma_init(DMA0, DMA_CH0, &dma_data_parameter);
 183              		.loc 1 60 5
 184 0038 5000     		addi	a2,sp,4
  53:lib/dma/src/dma.c ****     dma_data_parameter.memory_inc   = DMA_MEMORY_INCREASE_ENABLE;
 185              		.loc 1 53 37
 186 003a 3EC6     		sw	a5,12(sp)
  54:lib/dma/src/dma.c ****     dma_data_parameter.periph_width = DMA_PERIPHERAL_WIDTH_16BIT;
 187              		.loc 1 54 5 is_stmt 1
  55:lib/dma/src/dma.c ****     dma_data_parameter.memory_width = DMA_MEMORY_WIDTH_16BIT;  
 188              		.loc 1 55 5
  58:lib/dma/src/dma.c ****     dma_data_parameter.priority     = DMA_PRIORITY_HIGH;
 189              		.loc 1 58 37 is_stmt 0
GAS LISTING /var/folders/yy/83vjwp7d53j56dbzj8_jnpcr0000gn/T//ccxqYFNV.s 			page 6


 190 003c 3ACA     		sw	a4,20(sp)
  55:lib/dma/src/dma.c ****     dma_data_parameter.memory_width = DMA_MEMORY_WIDTH_16BIT;  
 191              		.loc 1 55 37
 192 003e 93070010 		li	a5,256
  59:lib/dma/src/dma.c ****     dma_init(DMA0, DMA_CH0, &dma_data_parameter);
 193              		.loc 1 59 37
 194 0042 0967     		li	a4,8192
 195              		.loc 1 60 5
 196 0044 8145     		li	a1,0
 197 0046 37050240 		li	a0,1073872896
  55:lib/dma/src/dma.c ****     dma_data_parameter.memory_width = DMA_MEMORY_WIDTH_16BIT;  
 198              		.loc 1 55 37
 199 004a 3EC4     		sw	a5,8(sp)
  56:lib/dma/src/dma.c ****     dma_data_parameter.direction    = DMA_PERIPHERAL_TO_MEMORY;
 200              		.loc 1 56 5 is_stmt 1
  57:lib/dma/src/dma.c ****     dma_data_parameter.number       = 8;
 201              		.loc 1 57 5
  58:lib/dma/src/dma.c ****     dma_data_parameter.priority     = DMA_PRIORITY_HIGH;
 202              		.loc 1 58 5
  59:lib/dma/src/dma.c ****     dma_init(DMA0, DMA_CH0, &dma_data_parameter);
 203              		.loc 1 59 5
  59:lib/dma/src/dma.c ****     dma_init(DMA0, DMA_CH0, &dma_data_parameter);
 204              		.loc 1 59 37 is_stmt 0
 205 004c 3ACC     		sw	a4,24(sp)
  52:lib/dma/src/dma.c ****     dma_data_parameter.memory_addr  = (uint32_t)(&sample_buffer);
 206              		.loc 1 52 37
 207 004e 231EF100 		sh	a5,28(sp)
  57:lib/dma/src/dma.c ****     dma_data_parameter.number       = 8;
 208              		.loc 1 57 37
 209 0052 230F0100 		sb	zero,30(sp)
 210              		.loc 1 60 5 is_stmt 1
 211 0056 97000000 		call	dma_init
 211      E7800000 
 212              	.LVL17:
  61:lib/dma/src/dma.c ****     dma_circulation_enable(DMA0, DMA_CH0);
 213              		.loc 1 61 5
 214 005e 8145     		li	a1,0
 215 0060 37050240 		li	a0,1073872896
 216 0064 97000000 		call	dma_circulation_enable
 216      E7800000 
 217              	.LVL18:
  62:lib/dma/src/dma.c ****     //dma_interrupt_enable(DMA0, DMA_CH0, DMA_INT_FLAG_FTF);
  63:lib/dma/src/dma.c ****     /* enable DMA channel */
  64:lib/dma/src/dma.c ****     dma_channel_enable(DMA0, DMA_CH0);
 218              		.loc 1 64 5
 219 006c 8145     		li	a1,0
 220 006e 37050240 		li	a0,1073872896
 221 0072 97000000 		call	dma_channel_enable
 221      E7800000 
 222              	.LVL19:
  65:lib/dma/src/dma.c **** }
 223              		.loc 1 65 1 is_stmt 0
 224 007a B250     		lw	ra,44(sp)
 225              		.cfi_restore 1
 226 007c 4561     		addi	sp,sp,48
 227              	.LCFI3:
 228              		.cfi_def_cfa_offset 0
GAS LISTING /var/folders/yy/83vjwp7d53j56dbzj8_jnpcr0000gn/T//ccxqYFNV.s 			page 7


 229 007e 8280     		jr	ra
 230              		.cfi_endproc
 231              	.LFE7:
 233              		.text
 234              	.Letext0:
 235              		.file 2 "/Users/gulda/Documents/risc-v/toolchain-gd32v-v200-osx/compiler/riscv64-unknown-elf/inclu
 236              		.file 3 "/Users/gulda/Documents/risc-v/toolchain-gd32v-v200-osx/compiler/riscv64-unknown-elf/inclu
 237              		.file 4 "../../firmware/GD32VF103_standard_peripheral/Include/gd32vf103_dma.h"
 238              		.file 5 "../../firmware/GD32VF103_standard_peripheral/Include/gd32vf103_rcu.h"
 239              		.file 6 "../../firmware/GD32VF103_standard_peripheral/Include/gd32vf103_timer.h"
 240              		.file 7 "lib/usbcdc/include/drv_usb_regs.h"
 241              		.file 8 "../../firmware/GD32VF103_standard_peripheral/system_gd32vf103.h"
 242              		.file 9 "lib/usbcdc/include/usb_ch9_std.h"
 243              		.file 10 "lib/usbcdc/include/drv_usb_core.h"
 244              		.file 11 "lib/usbcdc/include/drv_usb_dev.h"
 245              		.file 12 "/Users/gulda/Documents/risc-v/toolchain-gd32v-v200-osx/compiler/lib/gcc/riscv64-unknown-
 246              		.file 13 "/Users/gulda/Documents/risc-v/toolchain-gd32v-v200-osx/compiler/riscv64-unknown-elf/incl
 247              		.file 14 "/Users/gulda/Documents/risc-v/toolchain-gd32v-v200-osx/compiler/riscv64-unknown-elf/incl
 248              		.file 15 "/Users/gulda/Documents/risc-v/toolchain-gd32v-v200-osx/compiler/riscv64-unknown-elf/incl
 249              		.file 16 "lib/usbcdc/include/cdc_acm_core.h"
 250              		.file 17 "/Users/gulda/Documents/risc-v/toolchain-gd32v-v200-osx/compiler/riscv64-unknown-elf/incl
 251              		.file 18 "lib/usbcdc/include/usb_serial_if.h"
 252              		.file 19 "lib/dma/include/dma.h"
GAS LISTING /var/folders/yy/83vjwp7d53j56dbzj8_jnpcr0000gn/T//ccxqYFNV.s 			page 8


DEFINED SYMBOLS
                            *ABS*:0000000000000000 dma.c
                            *COM*:0000000000000010 sample_buffer
/var/folders/yy/83vjwp7d53j56dbzj8_jnpcr0000gn/T//ccxqYFNV.s:14     .text.timer_config:0000000000000000 timer_config
/var/folders/yy/83vjwp7d53j56dbzj8_jnpcr0000gn/T//ccxqYFNV.s:18     .text.timer_config:0000000000000000 .L0 
/var/folders/yy/83vjwp7d53j56dbzj8_jnpcr0000gn/T//ccxqYFNV.s:20     .text.timer_config:0000000000000000 .L0 
/var/folders/yy/83vjwp7d53j56dbzj8_jnpcr0000gn/T//ccxqYFNV.s:21     .text.timer_config:0000000000000000 .L0 
/var/folders/yy/83vjwp7d53j56dbzj8_jnpcr0000gn/T//ccxqYFNV.s:22     .text.timer_config:0000000000000000 .L0 
/var/folders/yy/83vjwp7d53j56dbzj8_jnpcr0000gn/T//ccxqYFNV.s:24     .text.timer_config:0000000000000002 .L0 
/var/folders/yy/83vjwp7d53j56dbzj8_jnpcr0000gn/T//ccxqYFNV.s:26     .text.timer_config:0000000000000004 .L0 
/var/folders/yy/83vjwp7d53j56dbzj8_jnpcr0000gn/T//ccxqYFNV.s:29     .text.timer_config:0000000000000006 .L0 
/var/folders/yy/83vjwp7d53j56dbzj8_jnpcr0000gn/T//ccxqYFNV.s:32     .text.timer_config:000000000000000a .L0 
/var/folders/yy/83vjwp7d53j56dbzj8_jnpcr0000gn/T//ccxqYFNV.s:34     .text.timer_config:000000000000000e .L0 
/var/folders/yy/83vjwp7d53j56dbzj8_jnpcr0000gn/T//ccxqYFNV.s:35     .text.timer_config:000000000000000e .L0 
/var/folders/yy/83vjwp7d53j56dbzj8_jnpcr0000gn/T//ccxqYFNV.s:37     .text.timer_config:000000000000000e .L0 
/var/folders/yy/83vjwp7d53j56dbzj8_jnpcr0000gn/T//ccxqYFNV.s:39     .text.timer_config:0000000000000012 .L0 
/var/folders/yy/83vjwp7d53j56dbzj8_jnpcr0000gn/T//ccxqYFNV.s:42     .text.timer_config:000000000000001a .L0 
/var/folders/yy/83vjwp7d53j56dbzj8_jnpcr0000gn/T//ccxqYFNV.s:43     .text.timer_config:000000000000001a .L0 
/var/folders/yy/83vjwp7d53j56dbzj8_jnpcr0000gn/T//ccxqYFNV.s:44     .text.timer_config:000000000000001a .L0 
/var/folders/yy/83vjwp7d53j56dbzj8_jnpcr0000gn/T//ccxqYFNV.s:48     .text.timer_config:0000000000000026 .L0 
/var/folders/yy/83vjwp7d53j56dbzj8_jnpcr0000gn/T//ccxqYFNV.s:52     .text.timer_config:0000000000000030 .L0 
/var/folders/yy/83vjwp7d53j56dbzj8_jnpcr0000gn/T//ccxqYFNV.s:53     .text.timer_config:0000000000000030 .L0 
/var/folders/yy/83vjwp7d53j56dbzj8_jnpcr0000gn/T//ccxqYFNV.s:54     .text.timer_config:0000000000000030 .L0 
/var/folders/yy/83vjwp7d53j56dbzj8_jnpcr0000gn/T//ccxqYFNV.s:55     .text.timer_config:0000000000000030 .L0 
/var/folders/yy/83vjwp7d53j56dbzj8_jnpcr0000gn/T//ccxqYFNV.s:58     .text.timer_config:0000000000000036 .L0 
/var/folders/yy/83vjwp7d53j56dbzj8_jnpcr0000gn/T//ccxqYFNV.s:61     .text.timer_config:000000000000003c .L0 
/var/folders/yy/83vjwp7d53j56dbzj8_jnpcr0000gn/T//ccxqYFNV.s:64     .text.timer_config:000000000000003e .L0 
/var/folders/yy/83vjwp7d53j56dbzj8_jnpcr0000gn/T//ccxqYFNV.s:66     .text.timer_config:0000000000000040 .L0 
/var/folders/yy/83vjwp7d53j56dbzj8_jnpcr0000gn/T//ccxqYFNV.s:68     .text.timer_config:0000000000000042 .L0 
/var/folders/yy/83vjwp7d53j56dbzj8_jnpcr0000gn/T//ccxqYFNV.s:70     .text.timer_config:0000000000000046 .L0 
/var/folders/yy/83vjwp7d53j56dbzj8_jnpcr0000gn/T//ccxqYFNV.s:71     .text.timer_config:0000000000000046 .L0 
/var/folders/yy/83vjwp7d53j56dbzj8_jnpcr0000gn/T//ccxqYFNV.s:72     .text.timer_config:0000000000000046 .L0 
/var/folders/yy/83vjwp7d53j56dbzj8_jnpcr0000gn/T//ccxqYFNV.s:74     .text.timer_config:000000000000004a .L0 
/var/folders/yy/83vjwp7d53j56dbzj8_jnpcr0000gn/T//ccxqYFNV.s:75     .text.timer_config:000000000000004a .L0 
/var/folders/yy/83vjwp7d53j56dbzj8_jnpcr0000gn/T//ccxqYFNV.s:77     .text.timer_config:000000000000004e .L0 
/var/folders/yy/83vjwp7d53j56dbzj8_jnpcr0000gn/T//ccxqYFNV.s:80     .text.timer_config:0000000000000056 .L0 
/var/folders/yy/83vjwp7d53j56dbzj8_jnpcr0000gn/T//ccxqYFNV.s:84     .text.timer_config:0000000000000060 .L0 
/var/folders/yy/83vjwp7d53j56dbzj8_jnpcr0000gn/T//ccxqYFNV.s:85     .text.timer_config:0000000000000060 .L0 
/var/folders/yy/83vjwp7d53j56dbzj8_jnpcr0000gn/T//ccxqYFNV.s:87     .text.timer_config:0000000000000062 .L0 
/var/folders/yy/83vjwp7d53j56dbzj8_jnpcr0000gn/T//ccxqYFNV.s:91     .text.timer_config:000000000000006a .L0 
/var/folders/yy/83vjwp7d53j56dbzj8_jnpcr0000gn/T//ccxqYFNV.s:93     .text.timer_config:000000000000006e .L0 
/var/folders/yy/83vjwp7d53j56dbzj8_jnpcr0000gn/T//ccxqYFNV.s:95     .text.timer_config:0000000000000072 .L0 
/var/folders/yy/83vjwp7d53j56dbzj8_jnpcr0000gn/T//ccxqYFNV.s:96     .text.timer_config:0000000000000072 .L0 
/var/folders/yy/83vjwp7d53j56dbzj8_jnpcr0000gn/T//ccxqYFNV.s:99     .text.timer_config:000000000000007a .L0 
/var/folders/yy/83vjwp7d53j56dbzj8_jnpcr0000gn/T//ccxqYFNV.s:105    .text.timer_config:000000000000008a .L0 
/var/folders/yy/83vjwp7d53j56dbzj8_jnpcr0000gn/T//ccxqYFNV.s:111    .text.timer_config:000000000000009c .L0 
/var/folders/yy/83vjwp7d53j56dbzj8_jnpcr0000gn/T//ccxqYFNV.s:117    .text.timer_config:00000000000000ac .L0 
/var/folders/yy/83vjwp7d53j56dbzj8_jnpcr0000gn/T//ccxqYFNV.s:121    .text.timer_config:00000000000000b8 .L0 
/var/folders/yy/83vjwp7d53j56dbzj8_jnpcr0000gn/T//ccxqYFNV.s:125    .text.timer_config:00000000000000c4 .L0 
/var/folders/yy/83vjwp7d53j56dbzj8_jnpcr0000gn/T//ccxqYFNV.s:126    .text.timer_config:00000000000000c6 .L0 
/var/folders/yy/83vjwp7d53j56dbzj8_jnpcr0000gn/T//ccxqYFNV.s:128    .text.timer_config:00000000000000c8 .L0 
/var/folders/yy/83vjwp7d53j56dbzj8_jnpcr0000gn/T//ccxqYFNV.s:130    .text.timer_config:00000000000000ca .L0 
/var/folders/yy/83vjwp7d53j56dbzj8_jnpcr0000gn/T//ccxqYFNV.s:134    .text.timer_config:00000000000000cc .L0 
/var/folders/yy/83vjwp7d53j56dbzj8_jnpcr0000gn/T//ccxqYFNV.s:136    .text.timer_config:00000000000000ce .L0 
/var/folders/yy/83vjwp7d53j56dbzj8_jnpcr0000gn/T//ccxqYFNV.s:143    .text.dma_config:0000000000000000 dma_config
/var/folders/yy/83vjwp7d53j56dbzj8_jnpcr0000gn/T//ccxqYFNV.s:146    .text.dma_config:0000000000000000 .L0 
/var/folders/yy/83vjwp7d53j56dbzj8_jnpcr0000gn/T//ccxqYFNV.s:147    .text.dma_config:0000000000000000 .L0 
GAS LISTING /var/folders/yy/83vjwp7d53j56dbzj8_jnpcr0000gn/T//ccxqYFNV.s 			page 9


/var/folders/yy/83vjwp7d53j56dbzj8_jnpcr0000gn/T//ccxqYFNV.s:148    .text.dma_config:0000000000000000 .L0 
/var/folders/yy/83vjwp7d53j56dbzj8_jnpcr0000gn/T//ccxqYFNV.s:149    .text.dma_config:0000000000000000 .L0 
/var/folders/yy/83vjwp7d53j56dbzj8_jnpcr0000gn/T//ccxqYFNV.s:150    .text.dma_config:0000000000000000 .L0 
/var/folders/yy/83vjwp7d53j56dbzj8_jnpcr0000gn/T//ccxqYFNV.s:152    .text.dma_config:0000000000000002 .L0 
/var/folders/yy/83vjwp7d53j56dbzj8_jnpcr0000gn/T//ccxqYFNV.s:154    .text.dma_config:0000000000000002 .L0 
/var/folders/yy/83vjwp7d53j56dbzj8_jnpcr0000gn/T//ccxqYFNV.s:156    .text.dma_config:0000000000000006 .L0 
/var/folders/yy/83vjwp7d53j56dbzj8_jnpcr0000gn/T//ccxqYFNV.s:157    .text.dma_config:0000000000000008 .L0 
/var/folders/yy/83vjwp7d53j56dbzj8_jnpcr0000gn/T//ccxqYFNV.s:159    .text.dma_config:0000000000000008 .L0 
/var/folders/yy/83vjwp7d53j56dbzj8_jnpcr0000gn/T//ccxqYFNV.s:162    .text.dma_config:0000000000000010 .L0 
/var/folders/yy/83vjwp7d53j56dbzj8_jnpcr0000gn/T//ccxqYFNV.s:167    .text.dma_config:000000000000001e .L0 
/var/folders/yy/83vjwp7d53j56dbzj8_jnpcr0000gn/T//ccxqYFNV.s:168    .text.dma_config:000000000000001e .L0 
/var/folders/yy/83vjwp7d53j56dbzj8_jnpcr0000gn/T//ccxqYFNV.s:172    .text.dma_config:0000000000000028 .L0 
/var/folders/yy/83vjwp7d53j56dbzj8_jnpcr0000gn/T//ccxqYFNV.s:173    .text.dma_config:0000000000000028 .L0 
/var/folders/yy/83vjwp7d53j56dbzj8_jnpcr0000gn/T//ccxqYFNV.s:174    .text.dma_config:0000000000000028 .L0 
/var/folders/yy/83vjwp7d53j56dbzj8_jnpcr0000gn/T//ccxqYFNV.s:176    .text.dma_config:000000000000002c .L0 
/var/folders/yy/83vjwp7d53j56dbzj8_jnpcr0000gn/T//ccxqYFNV.s:178    .text.dma_config:0000000000000030 .L0 
/var/folders/yy/83vjwp7d53j56dbzj8_jnpcr0000gn/T//ccxqYFNV.s:180    .text.dma_config:0000000000000032 .L0 
/var/folders/yy/83vjwp7d53j56dbzj8_jnpcr0000gn/T//ccxqYFNV.s:182    .text.dma_config:0000000000000036 .L0 
/var/folders/yy/83vjwp7d53j56dbzj8_jnpcr0000gn/T//ccxqYFNV.s:184    .text.dma_config:0000000000000038 .L0 
/var/folders/yy/83vjwp7d53j56dbzj8_jnpcr0000gn/T//ccxqYFNV.s:186    .text.dma_config:000000000000003a .L0 
/var/folders/yy/83vjwp7d53j56dbzj8_jnpcr0000gn/T//ccxqYFNV.s:188    .text.dma_config:000000000000003c .L0 
/var/folders/yy/83vjwp7d53j56dbzj8_jnpcr0000gn/T//ccxqYFNV.s:189    .text.dma_config:000000000000003c .L0 
/var/folders/yy/83vjwp7d53j56dbzj8_jnpcr0000gn/T//ccxqYFNV.s:190    .text.dma_config:000000000000003c .L0 
/var/folders/yy/83vjwp7d53j56dbzj8_jnpcr0000gn/T//ccxqYFNV.s:192    .text.dma_config:000000000000003e .L0 
/var/folders/yy/83vjwp7d53j56dbzj8_jnpcr0000gn/T//ccxqYFNV.s:194    .text.dma_config:0000000000000042 .L0 
/var/folders/yy/83vjwp7d53j56dbzj8_jnpcr0000gn/T//ccxqYFNV.s:196    .text.dma_config:0000000000000044 .L0 
/var/folders/yy/83vjwp7d53j56dbzj8_jnpcr0000gn/T//ccxqYFNV.s:199    .text.dma_config:000000000000004a .L0 
/var/folders/yy/83vjwp7d53j56dbzj8_jnpcr0000gn/T//ccxqYFNV.s:201    .text.dma_config:000000000000004c .L0 
/var/folders/yy/83vjwp7d53j56dbzj8_jnpcr0000gn/T//ccxqYFNV.s:202    .text.dma_config:000000000000004c .L0 
/var/folders/yy/83vjwp7d53j56dbzj8_jnpcr0000gn/T//ccxqYFNV.s:203    .text.dma_config:000000000000004c .L0 
/var/folders/yy/83vjwp7d53j56dbzj8_jnpcr0000gn/T//ccxqYFNV.s:204    .text.dma_config:000000000000004c .L0 
/var/folders/yy/83vjwp7d53j56dbzj8_jnpcr0000gn/T//ccxqYFNV.s:205    .text.dma_config:000000000000004c .L0 
/var/folders/yy/83vjwp7d53j56dbzj8_jnpcr0000gn/T//ccxqYFNV.s:207    .text.dma_config:000000000000004e .L0 
/var/folders/yy/83vjwp7d53j56dbzj8_jnpcr0000gn/T//ccxqYFNV.s:209    .text.dma_config:0000000000000052 .L0 
/var/folders/yy/83vjwp7d53j56dbzj8_jnpcr0000gn/T//ccxqYFNV.s:211    .text.dma_config:0000000000000056 .L0 
/var/folders/yy/83vjwp7d53j56dbzj8_jnpcr0000gn/T//ccxqYFNV.s:214    .text.dma_config:000000000000005e .L0 
/var/folders/yy/83vjwp7d53j56dbzj8_jnpcr0000gn/T//ccxqYFNV.s:219    .text.dma_config:000000000000006c .L0 
/var/folders/yy/83vjwp7d53j56dbzj8_jnpcr0000gn/T//ccxqYFNV.s:224    .text.dma_config:000000000000007a .L0 
/var/folders/yy/83vjwp7d53j56dbzj8_jnpcr0000gn/T//ccxqYFNV.s:225    .text.dma_config:000000000000007c .L0 
/var/folders/yy/83vjwp7d53j56dbzj8_jnpcr0000gn/T//ccxqYFNV.s:228    .text.dma_config:000000000000007e .L0 
/var/folders/yy/83vjwp7d53j56dbzj8_jnpcr0000gn/T//ccxqYFNV.s:230    .text.dma_config:0000000000000080 .L0 
/var/folders/yy/83vjwp7d53j56dbzj8_jnpcr0000gn/T//ccxqYFNV.s:139    .text.timer_config:00000000000000ce .L0 
/var/folders/yy/83vjwp7d53j56dbzj8_jnpcr0000gn/T//ccxqYFNV.s:233    .text.dma_config:0000000000000080 .L0 
                     .debug_frame:0000000000000000 .L0 
/var/folders/yy/83vjwp7d53j56dbzj8_jnpcr0000gn/T//ccxqYFNV.s:4860   .debug_abbrev:0000000000000000 .Ldebug_abbrev0
/var/folders/yy/83vjwp7d53j56dbzj8_jnpcr0000gn/T//ccxqYFNV.s:5745   .debug_str:00000000000002a9 .LASF426
/var/folders/yy/83vjwp7d53j56dbzj8_jnpcr0000gn/T//ccxqYFNV.s:5925   .debug_str:0000000000000735 .LASF427
/var/folders/yy/83vjwp7d53j56dbzj8_jnpcr0000gn/T//ccxqYFNV.s:6119   .debug_str:0000000000000b84 .LASF428
/var/folders/yy/83vjwp7d53j56dbzj8_jnpcr0000gn/T//ccxqYFNV.s:5623   .debug_ranges:0000000000000000 .Ldebug_ranges0
/var/folders/yy/83vjwp7d53j56dbzj8_jnpcr0000gn/T//ccxqYFNV.s:5631   .debug_line:0000000000000000 .Ldebug_line0
/var/folders/yy/83vjwp7d53j56dbzj8_jnpcr0000gn/T//ccxqYFNV.s:6143   .debug_str:0000000000000c61 .LASF0
/var/folders/yy/83vjwp7d53j56dbzj8_jnpcr0000gn/T//ccxqYFNV.s:5837   .debug_str:0000000000000536 .LASF1
/var/folders/yy/83vjwp7d53j56dbzj8_jnpcr0000gn/T//ccxqYFNV.s:5769   .debug_str:00000000000003af .LASF4
/var/folders/yy/83vjwp7d53j56dbzj8_jnpcr0000gn/T//ccxqYFNV.s:5851   .debug_str:000000000000059e .LASF2
/var/folders/yy/83vjwp7d53j56dbzj8_jnpcr0000gn/T//ccxqYFNV.s:6361   .debug_str:000000000000112c .LASF3
/var/folders/yy/83vjwp7d53j56dbzj8_jnpcr0000gn/T//ccxqYFNV.s:5913   .debug_str:00000000000006ee .LASF5
/var/folders/yy/83vjwp7d53j56dbzj8_jnpcr0000gn/T//ccxqYFNV.s:6453   .debug_str:000000000000133d .LASF6
GAS LISTING /var/folders/yy/83vjwp7d53j56dbzj8_jnpcr0000gn/T//ccxqYFNV.s 			page 10


/var/folders/yy/83vjwp7d53j56dbzj8_jnpcr0000gn/T//ccxqYFNV.s:5791   .debug_str:0000000000000425 .LASF7
/var/folders/yy/83vjwp7d53j56dbzj8_jnpcr0000gn/T//ccxqYFNV.s:6071   .debug_str:0000000000000a89 .LASF8
/var/folders/yy/83vjwp7d53j56dbzj8_jnpcr0000gn/T//ccxqYFNV.s:5997   .debug_str:00000000000008f4 .LASF9
/var/folders/yy/83vjwp7d53j56dbzj8_jnpcr0000gn/T//ccxqYFNV.s:6079   .debug_str:0000000000000ab1 .LASF10
/var/folders/yy/83vjwp7d53j56dbzj8_jnpcr0000gn/T//ccxqYFNV.s:6245   .debug_str:0000000000000ec7 .LASF11
/var/folders/yy/83vjwp7d53j56dbzj8_jnpcr0000gn/T//ccxqYFNV.s:5839   .debug_str:0000000000000542 .LASF12
/var/folders/yy/83vjwp7d53j56dbzj8_jnpcr0000gn/T//ccxqYFNV.s:6253   .debug_str:0000000000000efb .LASF13
/var/folders/yy/83vjwp7d53j56dbzj8_jnpcr0000gn/T//ccxqYFNV.s:6421   .debug_str:0000000000001299 .LASF14
/var/folders/yy/83vjwp7d53j56dbzj8_jnpcr0000gn/T//ccxqYFNV.s:6011   .debug_str:0000000000000955 .LASF155
/var/folders/yy/83vjwp7d53j56dbzj8_jnpcr0000gn/T//ccxqYFNV.s:6017   .debug_str:000000000000097b .LASF15
/var/folders/yy/83vjwp7d53j56dbzj8_jnpcr0000gn/T//ccxqYFNV.s:6019   .debug_str:0000000000000983 .LASF16
/var/folders/yy/83vjwp7d53j56dbzj8_jnpcr0000gn/T//ccxqYFNV.s:6021   .debug_str:000000000000098b .LASF17
/var/folders/yy/83vjwp7d53j56dbzj8_jnpcr0000gn/T//ccxqYFNV.s:6023   .debug_str:0000000000000993 .LASF18
/var/folders/yy/83vjwp7d53j56dbzj8_jnpcr0000gn/T//ccxqYFNV.s:6025   .debug_str:000000000000099b .LASF19
/var/folders/yy/83vjwp7d53j56dbzj8_jnpcr0000gn/T//ccxqYFNV.s:6027   .debug_str:00000000000009a3 .LASF20
/var/folders/yy/83vjwp7d53j56dbzj8_jnpcr0000gn/T//ccxqYFNV.s:6029   .debug_str:00000000000009ab .LASF21
/var/folders/yy/83vjwp7d53j56dbzj8_jnpcr0000gn/T//ccxqYFNV.s:5747   .debug_str:0000000000000331 .LASF22
/var/folders/yy/83vjwp7d53j56dbzj8_jnpcr0000gn/T//ccxqYFNV.s:6471   .debug_str:00000000000013b3 .LASF23
/var/folders/yy/83vjwp7d53j56dbzj8_jnpcr0000gn/T//ccxqYFNV.s:5953   .debug_str:00000000000007dc .LASF24
/var/folders/yy/83vjwp7d53j56dbzj8_jnpcr0000gn/T//ccxqYFNV.s:6225   .debug_str:0000000000000e64 .LASF25
/var/folders/yy/83vjwp7d53j56dbzj8_jnpcr0000gn/T//ccxqYFNV.s:6329   .debug_str:000000000000107b .LASF26
/var/folders/yy/83vjwp7d53j56dbzj8_jnpcr0000gn/T//ccxqYFNV.s:6365   .debug_str:000000000000113d .LASF27
/var/folders/yy/83vjwp7d53j56dbzj8_jnpcr0000gn/T//ccxqYFNV.s:5991   .debug_str:00000000000008da .LASF28
/var/folders/yy/83vjwp7d53j56dbzj8_jnpcr0000gn/T//ccxqYFNV.s:6495   .debug_str:000000000000143f .LASF29
/var/folders/yy/83vjwp7d53j56dbzj8_jnpcr0000gn/T//ccxqYFNV.s:5743   .debug_str:000000000000029f .LASF30
/var/folders/yy/83vjwp7d53j56dbzj8_jnpcr0000gn/T//ccxqYFNV.s:6383   .debug_str:0000000000001195 .LASF31
/var/folders/yy/83vjwp7d53j56dbzj8_jnpcr0000gn/T//ccxqYFNV.s:6313   .debug_str:0000000000001036 .LASF32
/var/folders/yy/83vjwp7d53j56dbzj8_jnpcr0000gn/T//ccxqYFNV.s:6315   .debug_str:000000000000103f .LASF33
/var/folders/yy/83vjwp7d53j56dbzj8_jnpcr0000gn/T//ccxqYFNV.s:6145   .debug_str:0000000000000c6e .LASF34
/var/folders/yy/83vjwp7d53j56dbzj8_jnpcr0000gn/T//ccxqYFNV.s:6407   .debug_str:0000000000001230 .LASF35
/var/folders/yy/83vjwp7d53j56dbzj8_jnpcr0000gn/T//ccxqYFNV.s:6057   .debug_str:0000000000000a43 .LASF36
/var/folders/yy/83vjwp7d53j56dbzj8_jnpcr0000gn/T//ccxqYFNV.s:5705   .debug_str:00000000000001c0 .LASF37
/var/folders/yy/83vjwp7d53j56dbzj8_jnpcr0000gn/T//ccxqYFNV.s:5707   .debug_str:00000000000001cb .LASF38
/var/folders/yy/83vjwp7d53j56dbzj8_jnpcr0000gn/T//ccxqYFNV.s:5709   .debug_str:00000000000001d6 .LASF39
/var/folders/yy/83vjwp7d53j56dbzj8_jnpcr0000gn/T//ccxqYFNV.s:5711   .debug_str:00000000000001e1 .LASF40
/var/folders/yy/83vjwp7d53j56dbzj8_jnpcr0000gn/T//ccxqYFNV.s:5713   .debug_str:00000000000001ec .LASF41
/var/folders/yy/83vjwp7d53j56dbzj8_jnpcr0000gn/T//ccxqYFNV.s:5715   .debug_str:00000000000001f7 .LASF42
/var/folders/yy/83vjwp7d53j56dbzj8_jnpcr0000gn/T//ccxqYFNV.s:6189   .debug_str:0000000000000d62 .LASF43
/var/folders/yy/83vjwp7d53j56dbzj8_jnpcr0000gn/T//ccxqYFNV.s:5829   .debug_str:0000000000000510 .LASF44
/var/folders/yy/83vjwp7d53j56dbzj8_jnpcr0000gn/T//ccxqYFNV.s:5831   .debug_str:0000000000000519 .LASF45
/var/folders/yy/83vjwp7d53j56dbzj8_jnpcr0000gn/T//ccxqYFNV.s:5727   .debug_str:000000000000025b .LASF46
/var/folders/yy/83vjwp7d53j56dbzj8_jnpcr0000gn/T//ccxqYFNV.s:5729   .debug_str:0000000000000266 .LASF47
/var/folders/yy/83vjwp7d53j56dbzj8_jnpcr0000gn/T//ccxqYFNV.s:5685   .debug_str:0000000000000155 .LASF48
/var/folders/yy/83vjwp7d53j56dbzj8_jnpcr0000gn/T//ccxqYFNV.s:5687   .debug_str:000000000000015f .LASF49
/var/folders/yy/83vjwp7d53j56dbzj8_jnpcr0000gn/T//ccxqYFNV.s:6425   .debug_str:00000000000012b4 .LASF50
/var/folders/yy/83vjwp7d53j56dbzj8_jnpcr0000gn/T//ccxqYFNV.s:6427   .debug_str:00000000000012bd .LASF51
/var/folders/yy/83vjwp7d53j56dbzj8_jnpcr0000gn/T//ccxqYFNV.s:5887   .debug_str:000000000000065b .LASF52
/var/folders/yy/83vjwp7d53j56dbzj8_jnpcr0000gn/T//ccxqYFNV.s:5889   .debug_str:0000000000000664 .LASF53
/var/folders/yy/83vjwp7d53j56dbzj8_jnpcr0000gn/T//ccxqYFNV.s:6379   .debug_str:0000000000001184 .LASF54
/var/folders/yy/83vjwp7d53j56dbzj8_jnpcr0000gn/T//ccxqYFNV.s:5669   .debug_str:00000000000000ff .LASF55
/var/folders/yy/83vjwp7d53j56dbzj8_jnpcr0000gn/T//ccxqYFNV.s:5841   .debug_str:000000000000054a .LASF56
/var/folders/yy/83vjwp7d53j56dbzj8_jnpcr0000gn/T//ccxqYFNV.s:6215   .debug_str:0000000000000e36 .LASF57
/var/folders/yy/83vjwp7d53j56dbzj8_jnpcr0000gn/T//ccxqYFNV.s:5739   .debug_str:000000000000028f .LASF58
/var/folders/yy/83vjwp7d53j56dbzj8_jnpcr0000gn/T//ccxqYFNV.s:6083   .debug_str:0000000000000ac8 .LASF59
/var/folders/yy/83vjwp7d53j56dbzj8_jnpcr0000gn/T//ccxqYFNV.s:6085   .debug_str:0000000000000ad2 .LASF60
/var/folders/yy/83vjwp7d53j56dbzj8_jnpcr0000gn/T//ccxqYFNV.s:6087   .debug_str:0000000000000adc .LASF61
/var/folders/yy/83vjwp7d53j56dbzj8_jnpcr0000gn/T//ccxqYFNV.s:6089   .debug_str:0000000000000ae6 .LASF62
GAS LISTING /var/folders/yy/83vjwp7d53j56dbzj8_jnpcr0000gn/T//ccxqYFNV.s 			page 11


/var/folders/yy/83vjwp7d53j56dbzj8_jnpcr0000gn/T//ccxqYFNV.s:6091   .debug_str:0000000000000af0 .LASF63
/var/folders/yy/83vjwp7d53j56dbzj8_jnpcr0000gn/T//ccxqYFNV.s:6075   .debug_str:0000000000000a9f .LASF64
/var/folders/yy/83vjwp7d53j56dbzj8_jnpcr0000gn/T//ccxqYFNV.s:6077   .debug_str:0000000000000aa8 .LASF65
/var/folders/yy/83vjwp7d53j56dbzj8_jnpcr0000gn/T//ccxqYFNV.s:5703   .debug_str:00000000000001b5 .LASF66
/var/folders/yy/83vjwp7d53j56dbzj8_jnpcr0000gn/T//ccxqYFNV.s:5827   .debug_str:0000000000000507 .LASF67
/var/folders/yy/83vjwp7d53j56dbzj8_jnpcr0000gn/T//ccxqYFNV.s:5725   .debug_str:0000000000000250 .LASF68
/var/folders/yy/83vjwp7d53j56dbzj8_jnpcr0000gn/T//ccxqYFNV.s:5993   .debug_str:00000000000008e5 .LASF69
/var/folders/yy/83vjwp7d53j56dbzj8_jnpcr0000gn/T//ccxqYFNV.s:6065   .debug_str:0000000000000a68 .LASF70
/var/folders/yy/83vjwp7d53j56dbzj8_jnpcr0000gn/T//ccxqYFNV.s:6049   .debug_str:0000000000000a14 .LASF71
/var/folders/yy/83vjwp7d53j56dbzj8_jnpcr0000gn/T//ccxqYFNV.s:6293   .debug_str:0000000000000fc9 .LASF72
/var/folders/yy/83vjwp7d53j56dbzj8_jnpcr0000gn/T//ccxqYFNV.s:6433   .debug_str:00000000000012d8 .LASF73
/var/folders/yy/83vjwp7d53j56dbzj8_jnpcr0000gn/T//ccxqYFNV.s:5757   .debug_str:0000000000000364 .LASF74
/var/folders/yy/83vjwp7d53j56dbzj8_jnpcr0000gn/T//ccxqYFNV.s:6141   .debug_str:0000000000000c4a .LASF75
/var/folders/yy/83vjwp7d53j56dbzj8_jnpcr0000gn/T//ccxqYFNV.s:6053   .debug_str:0000000000000a2f .LASF76
/var/folders/yy/83vjwp7d53j56dbzj8_jnpcr0000gn/T//ccxqYFNV.s:6131   .debug_str:0000000000000c01 .LASF77
/var/folders/yy/83vjwp7d53j56dbzj8_jnpcr0000gn/T//ccxqYFNV.s:5907   .debug_str:00000000000006d0 .LASF78
/var/folders/yy/83vjwp7d53j56dbzj8_jnpcr0000gn/T//ccxqYFNV.s:6437   .debug_str:00000000000012f0 .LASF79
/var/folders/yy/83vjwp7d53j56dbzj8_jnpcr0000gn/T//ccxqYFNV.s:5661   .debug_str:00000000000000bd .LASF80
/var/folders/yy/83vjwp7d53j56dbzj8_jnpcr0000gn/T//ccxqYFNV.s:5767   .debug_str:00000000000003a2 .LASF81
/var/folders/yy/83vjwp7d53j56dbzj8_jnpcr0000gn/T//ccxqYFNV.s:5989   .debug_str:00000000000008c0 .LASF82
/var/folders/yy/83vjwp7d53j56dbzj8_jnpcr0000gn/T//ccxqYFNV.s:6209   .debug_str:0000000000000e13 .LASF83
/var/folders/yy/83vjwp7d53j56dbzj8_jnpcr0000gn/T//ccxqYFNV.s:5859   .debug_str:00000000000005cd .LASF84
/var/folders/yy/83vjwp7d53j56dbzj8_jnpcr0000gn/T//ccxqYFNV.s:6081   .debug_str:0000000000000abf .LASF85
/var/folders/yy/83vjwp7d53j56dbzj8_jnpcr0000gn/T//ccxqYFNV.s:5937   .debug_str:0000000000000781 .LASF86
/var/folders/yy/83vjwp7d53j56dbzj8_jnpcr0000gn/T//ccxqYFNV.s:6341   .debug_str:00000000000010ae .LASF87
/var/folders/yy/83vjwp7d53j56dbzj8_jnpcr0000gn/T//ccxqYFNV.s:5949   .debug_str:00000000000007cf .LASF88
/var/folders/yy/83vjwp7d53j56dbzj8_jnpcr0000gn/T//ccxqYFNV.s:6465   .debug_str:000000000000138d .LASF89
/var/folders/yy/83vjwp7d53j56dbzj8_jnpcr0000gn/T//ccxqYFNV.s:6363   .debug_str:0000000000001136 .LASF90
/var/folders/yy/83vjwp7d53j56dbzj8_jnpcr0000gn/T//ccxqYFNV.s:6477   .debug_str:00000000000013dc .LASF91
/var/folders/yy/83vjwp7d53j56dbzj8_jnpcr0000gn/T//ccxqYFNV.s:6475   .debug_str:00000000000013d4 .LASF92
/var/folders/yy/83vjwp7d53j56dbzj8_jnpcr0000gn/T//ccxqYFNV.s:6331   .debug_str:0000000000001082 .LASF93
/var/folders/yy/83vjwp7d53j56dbzj8_jnpcr0000gn/T//ccxqYFNV.s:6473   .debug_str:00000000000013c0 .LASF94
/var/folders/yy/83vjwp7d53j56dbzj8_jnpcr0000gn/T//ccxqYFNV.s:6441   .debug_str:0000000000001307 .LASF95
/var/folders/yy/83vjwp7d53j56dbzj8_jnpcr0000gn/T//ccxqYFNV.s:5943   .debug_str:00000000000007b2 .LASF96
/var/folders/yy/83vjwp7d53j56dbzj8_jnpcr0000gn/T//ccxqYFNV.s:5871   .debug_str:00000000000005fe .LASF97
/var/folders/yy/83vjwp7d53j56dbzj8_jnpcr0000gn/T//ccxqYFNV.s:5967   .debug_str:0000000000000842 .LASF98
/var/folders/yy/83vjwp7d53j56dbzj8_jnpcr0000gn/T//ccxqYFNV.s:6469   .debug_str:00000000000013ab .LASF99
/var/folders/yy/83vjwp7d53j56dbzj8_jnpcr0000gn/T//ccxqYFNV.s:5759   .debug_str:0000000000000376 .LASF100
/var/folders/yy/83vjwp7d53j56dbzj8_jnpcr0000gn/T//ccxqYFNV.s:6461   .debug_str:0000000000001375 .LASF101
/var/folders/yy/83vjwp7d53j56dbzj8_jnpcr0000gn/T//ccxqYFNV.s:6269   .debug_str:0000000000000f3d .LASF102
/var/folders/yy/83vjwp7d53j56dbzj8_jnpcr0000gn/T//ccxqYFNV.s:5833   .debug_str:0000000000000522 .LASF103
/var/folders/yy/83vjwp7d53j56dbzj8_jnpcr0000gn/T//ccxqYFNV.s:6219   .debug_str:0000000000000e47 .LASF104
/var/folders/yy/83vjwp7d53j56dbzj8_jnpcr0000gn/T//ccxqYFNV.s:6429   .debug_str:00000000000012c6 .LASF105
/var/folders/yy/83vjwp7d53j56dbzj8_jnpcr0000gn/T//ccxqYFNV.s:6323   .debug_str:000000000000105a .LASF106
/var/folders/yy/83vjwp7d53j56dbzj8_jnpcr0000gn/T//ccxqYFNV.s:6459   .debug_str:000000000000136b .LASF107
/var/folders/yy/83vjwp7d53j56dbzj8_jnpcr0000gn/T//ccxqYFNV.s:6485   .debug_str:000000000000140f .LASF108
/var/folders/yy/83vjwp7d53j56dbzj8_jnpcr0000gn/T//ccxqYFNV.s:5985   .debug_str:00000000000008ad .LASF109
/var/folders/yy/83vjwp7d53j56dbzj8_jnpcr0000gn/T//ccxqYFNV.s:5935   .debug_str:0000000000000778 .LASF110
/var/folders/yy/83vjwp7d53j56dbzj8_jnpcr0000gn/T//ccxqYFNV.s:6449   .debug_str:000000000000132b .LASF111
/var/folders/yy/83vjwp7d53j56dbzj8_jnpcr0000gn/T//ccxqYFNV.s:6335   .debug_str:0000000000001093 .LASF112
/var/folders/yy/83vjwp7d53j56dbzj8_jnpcr0000gn/T//ccxqYFNV.s:6267   .debug_str:0000000000000f36 .LASF113
/var/folders/yy/83vjwp7d53j56dbzj8_jnpcr0000gn/T//ccxqYFNV.s:5813   .debug_str:00000000000004aa .LASF114
/var/folders/yy/83vjwp7d53j56dbzj8_jnpcr0000gn/T//ccxqYFNV.s:6159   .debug_str:0000000000000ccc .LASF115
/var/folders/yy/83vjwp7d53j56dbzj8_jnpcr0000gn/T//ccxqYFNV.s:5861   .debug_str:00000000000005d4 .LASF116
/var/folders/yy/83vjwp7d53j56dbzj8_jnpcr0000gn/T//ccxqYFNV.s:5865   .debug_str:00000000000005e2 .LASF117
/var/folders/yy/83vjwp7d53j56dbzj8_jnpcr0000gn/T//ccxqYFNV.s:6257   .debug_str:0000000000000f10 .LASF118
/var/folders/yy/83vjwp7d53j56dbzj8_jnpcr0000gn/T//ccxqYFNV.s:5717   .debug_str:0000000000000202 .LASF119
GAS LISTING /var/folders/yy/83vjwp7d53j56dbzj8_jnpcr0000gn/T//ccxqYFNV.s 			page 12


/var/folders/yy/83vjwp7d53j56dbzj8_jnpcr0000gn/T//ccxqYFNV.s:5885   .debug_str:0000000000000650 .LASF120
/var/folders/yy/83vjwp7d53j56dbzj8_jnpcr0000gn/T//ccxqYFNV.s:6051   .debug_str:0000000000000a25 .LASF121
/var/folders/yy/83vjwp7d53j56dbzj8_jnpcr0000gn/T//ccxqYFNV.s:5911   .debug_str:00000000000006e4 .LASF122
/var/folders/yy/83vjwp7d53j56dbzj8_jnpcr0000gn/T//ccxqYFNV.s:6487   .debug_str:0000000000001416 .LASF123
/var/folders/yy/83vjwp7d53j56dbzj8_jnpcr0000gn/T//ccxqYFNV.s:5691   .debug_str:0000000000000183 .LASF124
/var/folders/yy/83vjwp7d53j56dbzj8_jnpcr0000gn/T//ccxqYFNV.s:5923   .debug_str:000000000000072a .LASF125
/var/folders/yy/83vjwp7d53j56dbzj8_jnpcr0000gn/T//ccxqYFNV.s:5927   .debug_str:0000000000000747 .LASF126
/var/folders/yy/83vjwp7d53j56dbzj8_jnpcr0000gn/T//ccxqYFNV.s:6381   .debug_str:000000000000118d .LASF127
/var/folders/yy/83vjwp7d53j56dbzj8_jnpcr0000gn/T//ccxqYFNV.s:5869   .debug_str:00000000000005f6 .LASF128
/var/folders/yy/83vjwp7d53j56dbzj8_jnpcr0000gn/T//ccxqYFNV.s:5785   .debug_str:0000000000000405 .LASF129
/var/folders/yy/83vjwp7d53j56dbzj8_jnpcr0000gn/T//ccxqYFNV.s:5657   .debug_str:00000000000000ac .LASF130
/var/folders/yy/83vjwp7d53j56dbzj8_jnpcr0000gn/T//ccxqYFNV.s:6265   .debug_str:0000000000000f2e .LASF131
/var/folders/yy/83vjwp7d53j56dbzj8_jnpcr0000gn/T//ccxqYFNV.s:5787   .debug_str:000000000000040d .LASF132
/var/folders/yy/83vjwp7d53j56dbzj8_jnpcr0000gn/T//ccxqYFNV.s:6223   .debug_str:0000000000000e59 .LASF133
/var/folders/yy/83vjwp7d53j56dbzj8_jnpcr0000gn/T//ccxqYFNV.s:5971   .debug_str:0000000000000855 .LASF134
/var/folders/yy/83vjwp7d53j56dbzj8_jnpcr0000gn/T//ccxqYFNV.s:6493   .debug_str:0000000000001434 .LASF135
/var/folders/yy/83vjwp7d53j56dbzj8_jnpcr0000gn/T//ccxqYFNV.s:6375   .debug_str:0000000000001173 .LASF136
/var/folders/yy/83vjwp7d53j56dbzj8_jnpcr0000gn/T//ccxqYFNV.s:5901   .debug_str:00000000000006bc .LASF137
/var/folders/yy/83vjwp7d53j56dbzj8_jnpcr0000gn/T//ccxqYFNV.s:5881   .debug_str:000000000000063e .LASF138
/var/folders/yy/83vjwp7d53j56dbzj8_jnpcr0000gn/T//ccxqYFNV.s:5681   .debug_str:000000000000013f .LASF139
/var/folders/yy/83vjwp7d53j56dbzj8_jnpcr0000gn/T//ccxqYFNV.s:5815   .debug_str:00000000000004b5 .LASF140
/var/folders/yy/83vjwp7d53j56dbzj8_jnpcr0000gn/T//ccxqYFNV.s:5855   .debug_str:00000000000005ba .LASF141
/var/folders/yy/83vjwp7d53j56dbzj8_jnpcr0000gn/T//ccxqYFNV.s:6199   .debug_str:0000000000000db7 .LASF142
/var/folders/yy/83vjwp7d53j56dbzj8_jnpcr0000gn/T//ccxqYFNV.s:6043   .debug_str:00000000000009f8 .LASF143
/var/folders/yy/83vjwp7d53j56dbzj8_jnpcr0000gn/T//ccxqYFNV.s:5823   .debug_str:00000000000004ec .LASF144
/var/folders/yy/83vjwp7d53j56dbzj8_jnpcr0000gn/T//ccxqYFNV.s:5939   .debug_str:0000000000000788 .LASF145
/var/folders/yy/83vjwp7d53j56dbzj8_jnpcr0000gn/T//ccxqYFNV.s:6111   .debug_str:0000000000000b61 .LASF146
/var/folders/yy/83vjwp7d53j56dbzj8_jnpcr0000gn/T//ccxqYFNV.s:6367   .debug_str:0000000000001146 .LASF147
/var/folders/yy/83vjwp7d53j56dbzj8_jnpcr0000gn/T//ccxqYFNV.s:5803   .debug_str:000000000000045a .LASF148
/var/folders/yy/83vjwp7d53j56dbzj8_jnpcr0000gn/T//ccxqYFNV.s:5945   .debug_str:00000000000007bd .LASF157
/var/folders/yy/83vjwp7d53j56dbzj8_jnpcr0000gn/T//ccxqYFNV.s:5795   .debug_str:000000000000043a .LASF149
/var/folders/yy/83vjwp7d53j56dbzj8_jnpcr0000gn/T//ccxqYFNV.s:6343   .debug_str:00000000000010b5 .LASF150
/var/folders/yy/83vjwp7d53j56dbzj8_jnpcr0000gn/T//ccxqYFNV.s:6337   .debug_str:000000000000109c .LASF151
/var/folders/yy/83vjwp7d53j56dbzj8_jnpcr0000gn/T//ccxqYFNV.s:6033   .debug_str:00000000000009c5 .LASF152
/var/folders/yy/83vjwp7d53j56dbzj8_jnpcr0000gn/T//ccxqYFNV.s:5761   .debug_str:0000000000000380 .LASF153
/var/folders/yy/83vjwp7d53j56dbzj8_jnpcr0000gn/T//ccxqYFNV.s:6229   .debug_str:0000000000000e77 .LASF154
/var/folders/yy/83vjwp7d53j56dbzj8_jnpcr0000gn/T//ccxqYFNV.s:6333   .debug_str:0000000000001089 .LASF156
/var/folders/yy/83vjwp7d53j56dbzj8_jnpcr0000gn/T//ccxqYFNV.s:5955   .debug_str:00000000000007e8 .LASF158
/var/folders/yy/83vjwp7d53j56dbzj8_jnpcr0000gn/T//ccxqYFNV.s:5853   .debug_str:00000000000005ac .LASF159
/var/folders/yy/83vjwp7d53j56dbzj8_jnpcr0000gn/T//ccxqYFNV.s:6181   .debug_str:0000000000000d40 .LASF160
/var/folders/yy/83vjwp7d53j56dbzj8_jnpcr0000gn/T//ccxqYFNV.s:5863   .debug_str:00000000000005db .LASF161
/var/folders/yy/83vjwp7d53j56dbzj8_jnpcr0000gn/T//ccxqYFNV.s:6249   .debug_str:0000000000000eec .LASF162
/var/folders/yy/83vjwp7d53j56dbzj8_jnpcr0000gn/T//ccxqYFNV.s:5957   .debug_str:00000000000007f1 .LASF163
/var/folders/yy/83vjwp7d53j56dbzj8_jnpcr0000gn/T//ccxqYFNV.s:6059   .debug_str:0000000000000a4d .LASF164
/var/folders/yy/83vjwp7d53j56dbzj8_jnpcr0000gn/T//ccxqYFNV.s:5771   .debug_str:00000000000003b9 .LASF165
/var/folders/yy/83vjwp7d53j56dbzj8_jnpcr0000gn/T//ccxqYFNV.s:6243   .debug_str:0000000000000ebf .LASF166
/var/folders/yy/83vjwp7d53j56dbzj8_jnpcr0000gn/T//ccxqYFNV.s:5979   .debug_str:0000000000000883 .LASF167
/var/folders/yy/83vjwp7d53j56dbzj8_jnpcr0000gn/T//ccxqYFNV.s:5921   .debug_str:000000000000071a .LASF168
/var/folders/yy/83vjwp7d53j56dbzj8_jnpcr0000gn/T//ccxqYFNV.s:6273   .debug_str:0000000000000f51 .LASF169
/var/folders/yy/83vjwp7d53j56dbzj8_jnpcr0000gn/T//ccxqYFNV.s:5883   .debug_str:0000000000000649 .LASF170
/var/folders/yy/83vjwp7d53j56dbzj8_jnpcr0000gn/T//ccxqYFNV.s:5755   .debug_str:000000000000035d .LASF171
/var/folders/yy/83vjwp7d53j56dbzj8_jnpcr0000gn/T//ccxqYFNV.s:6339   .debug_str:00000000000010a1 .LASF172
/var/folders/yy/83vjwp7d53j56dbzj8_jnpcr0000gn/T//ccxqYFNV.s:5675   .debug_str:000000000000011a .LASF173
/var/folders/yy/83vjwp7d53j56dbzj8_jnpcr0000gn/T//ccxqYFNV.s:5783   .debug_str:00000000000003f5 .LASF174
/var/folders/yy/83vjwp7d53j56dbzj8_jnpcr0000gn/T//ccxqYFNV.s:6001   .debug_str:000000000000091c .LASF175
/var/folders/yy/83vjwp7d53j56dbzj8_jnpcr0000gn/T//ccxqYFNV.s:6283   .debug_str:0000000000000f8f .LASF176
/var/folders/yy/83vjwp7d53j56dbzj8_jnpcr0000gn/T//ccxqYFNV.s:6275   .debug_str:0000000000000f5f .LASF177
GAS LISTING /var/folders/yy/83vjwp7d53j56dbzj8_jnpcr0000gn/T//ccxqYFNV.s 			page 13


/var/folders/yy/83vjwp7d53j56dbzj8_jnpcr0000gn/T//ccxqYFNV.s:5849   .debug_str:0000000000000594 .LASF178
/var/folders/yy/83vjwp7d53j56dbzj8_jnpcr0000gn/T//ccxqYFNV.s:6125   .debug_str:0000000000000be7 .LASF179
/var/folders/yy/83vjwp7d53j56dbzj8_jnpcr0000gn/T//ccxqYFNV.s:5633   .debug_str:0000000000000000 .LASF180
/var/folders/yy/83vjwp7d53j56dbzj8_jnpcr0000gn/T//ccxqYFNV.s:6003   .debug_str:000000000000092c .LASF181
/var/folders/yy/83vjwp7d53j56dbzj8_jnpcr0000gn/T//ccxqYFNV.s:5999   .debug_str:0000000000000906 .LASF182
/var/folders/yy/83vjwp7d53j56dbzj8_jnpcr0000gn/T//ccxqYFNV.s:6101   .debug_str:0000000000000b20 .LASF183
/var/folders/yy/83vjwp7d53j56dbzj8_jnpcr0000gn/T//ccxqYFNV.s:5899   .debug_str:00000000000006ab .LASF184
/var/folders/yy/83vjwp7d53j56dbzj8_jnpcr0000gn/T//ccxqYFNV.s:6213   .debug_str:0000000000000e29 .LASF185
/var/folders/yy/83vjwp7d53j56dbzj8_jnpcr0000gn/T//ccxqYFNV.s:6149   .debug_str:0000000000000c81 .LASF186
/var/folders/yy/83vjwp7d53j56dbzj8_jnpcr0000gn/T//ccxqYFNV.s:6155   .debug_str:0000000000000ca9 .LASF187
/var/folders/yy/83vjwp7d53j56dbzj8_jnpcr0000gn/T//ccxqYFNV.s:6177   .debug_str:0000000000000d26 .LASF188
/var/folders/yy/83vjwp7d53j56dbzj8_jnpcr0000gn/T//ccxqYFNV.s:6067   .debug_str:0000000000000a74 .LASF189
/var/folders/yy/83vjwp7d53j56dbzj8_jnpcr0000gn/T//ccxqYFNV.s:6435   .debug_str:00000000000012e6 .LASF190
/var/folders/yy/83vjwp7d53j56dbzj8_jnpcr0000gn/T//ccxqYFNV.s:6039   .debug_str:00000000000009dc .LASF191
/var/folders/yy/83vjwp7d53j56dbzj8_jnpcr0000gn/T//ccxqYFNV.s:5847   .debug_str:0000000000000586 .LASF192
/var/folders/yy/83vjwp7d53j56dbzj8_jnpcr0000gn/T//ccxqYFNV.s:6353   .debug_str:00000000000010e2 .LASF193
/var/folders/yy/83vjwp7d53j56dbzj8_jnpcr0000gn/T//ccxqYFNV.s:5637   .debug_str:0000000000000015 .LASF194
/var/folders/yy/83vjwp7d53j56dbzj8_jnpcr0000gn/T//ccxqYFNV.s:6015   .debug_str:000000000000096d .LASF195
/var/folders/yy/83vjwp7d53j56dbzj8_jnpcr0000gn/T//ccxqYFNV.s:6153   .debug_str:0000000000000c99 .LASF196
/var/folders/yy/83vjwp7d53j56dbzj8_jnpcr0000gn/T//ccxqYFNV.s:6327   .debug_str:0000000000001068 .LASF197
/var/folders/yy/83vjwp7d53j56dbzj8_jnpcr0000gn/T//ccxqYFNV.s:5825   .debug_str:00000000000004f4 .LASF198
/var/folders/yy/83vjwp7d53j56dbzj8_jnpcr0000gn/T//ccxqYFNV.s:6305   .debug_str:0000000000001011 .LASF199
/var/folders/yy/83vjwp7d53j56dbzj8_jnpcr0000gn/T//ccxqYFNV.s:5641   .debug_str:0000000000000035 .LASF200
/var/folders/yy/83vjwp7d53j56dbzj8_jnpcr0000gn/T//ccxqYFNV.s:6443   .debug_str:0000000000001312 .LASF201
/var/folders/yy/83vjwp7d53j56dbzj8_jnpcr0000gn/T//ccxqYFNV.s:5649   .debug_str:0000000000000080 .LASF202
/var/folders/yy/83vjwp7d53j56dbzj8_jnpcr0000gn/T//ccxqYFNV.s:6107   .debug_str:0000000000000b43 .LASF203
/var/folders/yy/83vjwp7d53j56dbzj8_jnpcr0000gn/T//ccxqYFNV.s:5801   .debug_str:0000000000000450 .LASF204
/var/folders/yy/83vjwp7d53j56dbzj8_jnpcr0000gn/T//ccxqYFNV.s:5987   .debug_str:00000000000008b4 .LASF205
/var/folders/yy/83vjwp7d53j56dbzj8_jnpcr0000gn/T//ccxqYFNV.s:6451   .debug_str:0000000000001333 .LASF206
/var/folders/yy/83vjwp7d53j56dbzj8_jnpcr0000gn/T//ccxqYFNV.s:6045   .debug_str:0000000000000a01 .LASF207
/var/folders/yy/83vjwp7d53j56dbzj8_jnpcr0000gn/T//ccxqYFNV.s:6359   .debug_str:0000000000001123 .LASF208
/var/folders/yy/83vjwp7d53j56dbzj8_jnpcr0000gn/T//ccxqYFNV.s:5811   .debug_str:00000000000004a3 .LASF209
/var/folders/yy/83vjwp7d53j56dbzj8_jnpcr0000gn/T//ccxqYFNV.s:5639   .debug_str:0000000000000027 .LASF210
/var/folders/yy/83vjwp7d53j56dbzj8_jnpcr0000gn/T//ccxqYFNV.s:6161   .debug_str:0000000000000cd5 .LASF211
/var/folders/yy/83vjwp7d53j56dbzj8_jnpcr0000gn/T//ccxqYFNV.s:6369   .debug_str:0000000000001152 .LASF212
/var/folders/yy/83vjwp7d53j56dbzj8_jnpcr0000gn/T//ccxqYFNV.s:6385   .debug_str:00000000000011aa .LASF213
/var/folders/yy/83vjwp7d53j56dbzj8_jnpcr0000gn/T//ccxqYFNV.s:6201   .debug_str:0000000000000dc2 .LASF214
/var/folders/yy/83vjwp7d53j56dbzj8_jnpcr0000gn/T//ccxqYFNV.s:6237   .debug_str:0000000000000e9e .LASF215
/var/folders/yy/83vjwp7d53j56dbzj8_jnpcr0000gn/T//ccxqYFNV.s:6299   .debug_str:0000000000000fee .LASF216
/var/folders/yy/83vjwp7d53j56dbzj8_jnpcr0000gn/T//ccxqYFNV.s:5697   .debug_str:000000000000019a .LASF217
/var/folders/yy/83vjwp7d53j56dbzj8_jnpcr0000gn/T//ccxqYFNV.s:6347   .debug_str:00000000000010c4 .LASF218
/var/folders/yy/83vjwp7d53j56dbzj8_jnpcr0000gn/T//ccxqYFNV.s:5781   .debug_str:00000000000003ed .LASF219
/var/folders/yy/83vjwp7d53j56dbzj8_jnpcr0000gn/T//ccxqYFNV.s:6217   .debug_str:0000000000000e3e .LASF220
/var/folders/yy/83vjwp7d53j56dbzj8_jnpcr0000gn/T//ccxqYFNV.s:5655   .debug_str:00000000000000a4 .LASF221
/var/folders/yy/83vjwp7d53j56dbzj8_jnpcr0000gn/T//ccxqYFNV.s:6095   .debug_str:0000000000000b01 .LASF222
/var/folders/yy/83vjwp7d53j56dbzj8_jnpcr0000gn/T//ccxqYFNV.s:6349   .debug_str:00000000000010cd .LASF223
/var/folders/yy/83vjwp7d53j56dbzj8_jnpcr0000gn/T//ccxqYFNV.s:6423   .debug_str:00000000000012a2 .LASF224
/var/folders/yy/83vjwp7d53j56dbzj8_jnpcr0000gn/T//ccxqYFNV.s:5931   .debug_str:0000000000000760 .LASF225
/var/folders/yy/83vjwp7d53j56dbzj8_jnpcr0000gn/T//ccxqYFNV.s:5857   .debug_str:00000000000005c6 .LASF226
/var/folders/yy/83vjwp7d53j56dbzj8_jnpcr0000gn/T//ccxqYFNV.s:6105   .debug_str:0000000000000b36 .LASF227
/var/folders/yy/83vjwp7d53j56dbzj8_jnpcr0000gn/T//ccxqYFNV.s:6187   .debug_str:0000000000000d58 .LASF228
/var/folders/yy/83vjwp7d53j56dbzj8_jnpcr0000gn/T//ccxqYFNV.s:6069   .debug_str:0000000000000a81 .LASF229
/var/folders/yy/83vjwp7d53j56dbzj8_jnpcr0000gn/T//ccxqYFNV.s:5635   .debug_str:0000000000000009 .LASF230
/var/folders/yy/83vjwp7d53j56dbzj8_jnpcr0000gn/T//ccxqYFNV.s:6345   .debug_str:00000000000010bc .LASF231
/var/folders/yy/83vjwp7d53j56dbzj8_jnpcr0000gn/T//ccxqYFNV.s:5663   .debug_str:00000000000000c9 .LASF232
/var/folders/yy/83vjwp7d53j56dbzj8_jnpcr0000gn/T//ccxqYFNV.s:6241   .debug_str:0000000000000eb6 .LASF233
/var/folders/yy/83vjwp7d53j56dbzj8_jnpcr0000gn/T//ccxqYFNV.s:5893   .debug_str:0000000000000689 .LASF234
GAS LISTING /var/folders/yy/83vjwp7d53j56dbzj8_jnpcr0000gn/T//ccxqYFNV.s 			page 14


/var/folders/yy/83vjwp7d53j56dbzj8_jnpcr0000gn/T//ccxqYFNV.s:6013   .debug_str:0000000000000965 .LASF235
/var/folders/yy/83vjwp7d53j56dbzj8_jnpcr0000gn/T//ccxqYFNV.s:5741   .debug_str:0000000000000296 .LASF236
/var/folders/yy/83vjwp7d53j56dbzj8_jnpcr0000gn/T//ccxqYFNV.s:6151   .debug_str:0000000000000c90 .LASF237
/var/folders/yy/83vjwp7d53j56dbzj8_jnpcr0000gn/T//ccxqYFNV.s:6439   .debug_str:00000000000012fc .LASF238
/var/folders/yy/83vjwp7d53j56dbzj8_jnpcr0000gn/T//ccxqYFNV.s:5879   .debug_str:0000000000000633 .LASF239
/var/folders/yy/83vjwp7d53j56dbzj8_jnpcr0000gn/T//ccxqYFNV.s:5731   .debug_str:0000000000000271 .LASF240
/var/folders/yy/83vjwp7d53j56dbzj8_jnpcr0000gn/T//ccxqYFNV.s:5959   .debug_str:00000000000007f9 .LASF241
/var/folders/yy/83vjwp7d53j56dbzj8_jnpcr0000gn/T//ccxqYFNV.s:6497   .debug_str:000000000000144a .LASF242
/var/folders/yy/83vjwp7d53j56dbzj8_jnpcr0000gn/T//ccxqYFNV.s:6457   .debug_str:000000000000135a .LASF243
/var/folders/yy/83vjwp7d53j56dbzj8_jnpcr0000gn/T//ccxqYFNV.s:6317   .debug_str:0000000000001048 .LASF244
/var/folders/yy/83vjwp7d53j56dbzj8_jnpcr0000gn/T//ccxqYFNV.s:6309   .debug_str:0000000000001021 .LASF245
/var/folders/yy/83vjwp7d53j56dbzj8_jnpcr0000gn/T//ccxqYFNV.s:6251   .debug_str:0000000000000ef3 .LASF246
/var/folders/yy/83vjwp7d53j56dbzj8_jnpcr0000gn/T//ccxqYFNV.s:5821   .debug_str:00000000000004e2 .LASF247
/var/folders/yy/83vjwp7d53j56dbzj8_jnpcr0000gn/T//ccxqYFNV.s:6115   .debug_str:0000000000000b75 .LASF248
/var/folders/yy/83vjwp7d53j56dbzj8_jnpcr0000gn/T//ccxqYFNV.s:5933   .debug_str:0000000000000771 .LASF249
/var/folders/yy/83vjwp7d53j56dbzj8_jnpcr0000gn/T//ccxqYFNV.s:5773   .debug_str:00000000000003ca .LASF250
/var/folders/yy/83vjwp7d53j56dbzj8_jnpcr0000gn/T//ccxqYFNV.s:5763   .debug_str:000000000000038a .LASF251
/var/folders/yy/83vjwp7d53j56dbzj8_jnpcr0000gn/T//ccxqYFNV.s:5875   .debug_str:0000000000000617 .LASF252
/var/folders/yy/83vjwp7d53j56dbzj8_jnpcr0000gn/T//ccxqYFNV.s:5897   .debug_str:0000000000000698 .LASF253
/var/folders/yy/83vjwp7d53j56dbzj8_jnpcr0000gn/T//ccxqYFNV.s:6163   .debug_str:0000000000000cdd .LASF254
/var/folders/yy/83vjwp7d53j56dbzj8_jnpcr0000gn/T//ccxqYFNV.s:6301   .debug_str:0000000000000ff7 .LASF255
/var/folders/yy/83vjwp7d53j56dbzj8_jnpcr0000gn/T//ccxqYFNV.s:5963   .debug_str:000000000000080e .LASF256
/var/folders/yy/83vjwp7d53j56dbzj8_jnpcr0000gn/T//ccxqYFNV.s:5733   .debug_str:000000000000027a .LASF257
/var/folders/yy/83vjwp7d53j56dbzj8_jnpcr0000gn/T//ccxqYFNV.s:6137   .debug_str:0000000000000c30 .LASF258
/var/folders/yy/83vjwp7d53j56dbzj8_jnpcr0000gn/T//ccxqYFNV.s:6147   .debug_str:0000000000000c76 .LASF259
/var/folders/yy/83vjwp7d53j56dbzj8_jnpcr0000gn/T//ccxqYFNV.s:6247   .debug_str:0000000000000ede .LASF260
/var/folders/yy/83vjwp7d53j56dbzj8_jnpcr0000gn/T//ccxqYFNV.s:6279   .debug_str:0000000000000f76 .LASF261
/var/folders/yy/83vjwp7d53j56dbzj8_jnpcr0000gn/T//ccxqYFNV.s:6291   .debug_str:0000000000000fbe .LASF262
/var/folders/yy/83vjwp7d53j56dbzj8_jnpcr0000gn/T//ccxqYFNV.s:6307   .debug_str:000000000000101c .LASF263
/var/folders/yy/83vjwp7d53j56dbzj8_jnpcr0000gn/T//ccxqYFNV.s:6133   .debug_str:0000000000000c0e .LASF264
/var/folders/yy/83vjwp7d53j56dbzj8_jnpcr0000gn/T//ccxqYFNV.s:6165   .debug_str:0000000000000cf1 .LASF265
/var/folders/yy/83vjwp7d53j56dbzj8_jnpcr0000gn/T//ccxqYFNV.s:6373   .debug_str:0000000000001166 .LASF266
/var/folders/yy/83vjwp7d53j56dbzj8_jnpcr0000gn/T//ccxqYFNV.s:5765   .debug_str:0000000000000392 .LASF267
/var/folders/yy/83vjwp7d53j56dbzj8_jnpcr0000gn/T//ccxqYFNV.s:6319   .debug_str:000000000000104d .LASF268
/var/folders/yy/83vjwp7d53j56dbzj8_jnpcr0000gn/T//ccxqYFNV.s:6445   .debug_str:000000000000131f .LASF269
/var/folders/yy/83vjwp7d53j56dbzj8_jnpcr0000gn/T//ccxqYFNV.s:6231   .debug_str:0000000000000e85 .LASF270
/var/folders/yy/83vjwp7d53j56dbzj8_jnpcr0000gn/T//ccxqYFNV.s:5647   .debug_str:0000000000000077 .LASF271
/var/folders/yy/83vjwp7d53j56dbzj8_jnpcr0000gn/T//ccxqYFNV.s:5779   .debug_str:00000000000003e7 .LASF272
/var/folders/yy/83vjwp7d53j56dbzj8_jnpcr0000gn/T//ccxqYFNV.s:6233   .debug_str:0000000000000e8d .LASF273
/var/folders/yy/83vjwp7d53j56dbzj8_jnpcr0000gn/T//ccxqYFNV.s:6191   .debug_str:0000000000000d6c .LASF274
/var/folders/yy/83vjwp7d53j56dbzj8_jnpcr0000gn/T//ccxqYFNV.s:5653   .debug_str:000000000000009c .LASF275
/var/folders/yy/83vjwp7d53j56dbzj8_jnpcr0000gn/T//ccxqYFNV.s:6303   .debug_str:0000000000001006 .LASF276
/var/folders/yy/83vjwp7d53j56dbzj8_jnpcr0000gn/T//ccxqYFNV.s:6419   .debug_str:0000000000001291 .LASF277
/var/folders/yy/83vjwp7d53j56dbzj8_jnpcr0000gn/T//ccxqYFNV.s:6031   .debug_str:00000000000009b3 .LASF278
/var/folders/yy/83vjwp7d53j56dbzj8_jnpcr0000gn/T//ccxqYFNV.s:6289   .debug_str:0000000000000fb5 .LASF279
/var/folders/yy/83vjwp7d53j56dbzj8_jnpcr0000gn/T//ccxqYFNV.s:6047   .debug_str:0000000000000a0c .LASF280
/var/folders/yy/83vjwp7d53j56dbzj8_jnpcr0000gn/T//ccxqYFNV.s:6321   .debug_str:0000000000001054 .LASF281
/var/folders/yy/83vjwp7d53j56dbzj8_jnpcr0000gn/T//ccxqYFNV.s:6055   .debug_str:0000000000000a3b .LASF282
/var/folders/yy/83vjwp7d53j56dbzj8_jnpcr0000gn/T//ccxqYFNV.s:6129   .debug_str:0000000000000bfb .LASF283
/var/folders/yy/83vjwp7d53j56dbzj8_jnpcr0000gn/T//ccxqYFNV.s:5951   .debug_str:00000000000007d7 .LASF284
/var/folders/yy/83vjwp7d53j56dbzj8_jnpcr0000gn/T//ccxqYFNV.s:5695   .debug_str:0000000000000195 .LASF285
/var/folders/yy/83vjwp7d53j56dbzj8_jnpcr0000gn/T//ccxqYFNV.s:5701   .debug_str:00000000000001ac .LASF286
/var/folders/yy/83vjwp7d53j56dbzj8_jnpcr0000gn/T//ccxqYFNV.s:6489   .debug_str:000000000000141e .LASF287
/var/folders/yy/83vjwp7d53j56dbzj8_jnpcr0000gn/T//ccxqYFNV.s:6455   .debug_str:0000000000001350 .LASF288
/var/folders/yy/83vjwp7d53j56dbzj8_jnpcr0000gn/T//ccxqYFNV.s:5975   .debug_str:0000000000000868 .LASF289
/var/folders/yy/83vjwp7d53j56dbzj8_jnpcr0000gn/T//ccxqYFNV.s:5817   .debug_str:00000000000004bd .LASF290
/var/folders/yy/83vjwp7d53j56dbzj8_jnpcr0000gn/T//ccxqYFNV.s:6377   .debug_str:000000000000117a .LASF291
GAS LISTING /var/folders/yy/83vjwp7d53j56dbzj8_jnpcr0000gn/T//ccxqYFNV.s 			page 15


/var/folders/yy/83vjwp7d53j56dbzj8_jnpcr0000gn/T//ccxqYFNV.s:6205   .debug_str:0000000000000df9 .LASF292
/var/folders/yy/83vjwp7d53j56dbzj8_jnpcr0000gn/T//ccxqYFNV.s:6211   .debug_str:0000000000000e1f .LASF293
/var/folders/yy/83vjwp7d53j56dbzj8_jnpcr0000gn/T//ccxqYFNV.s:6479   .debug_str:00000000000013e4 .LASF294
/var/folders/yy/83vjwp7d53j56dbzj8_jnpcr0000gn/T//ccxqYFNV.s:5777   .debug_str:00000000000003d9 .LASF295
/var/folders/yy/83vjwp7d53j56dbzj8_jnpcr0000gn/T//ccxqYFNV.s:5735   .debug_str:0000000000000281 .LASF296
/var/folders/yy/83vjwp7d53j56dbzj8_jnpcr0000gn/T//ccxqYFNV.s:6255   .debug_str:0000000000000f04 .LASF297
/var/folders/yy/83vjwp7d53j56dbzj8_jnpcr0000gn/T//ccxqYFNV.s:6371   .debug_str:000000000000115d .LASF298
/var/folders/yy/83vjwp7d53j56dbzj8_jnpcr0000gn/T//ccxqYFNV.s:6403   .debug_str:000000000000121b .LASF299
/var/folders/yy/83vjwp7d53j56dbzj8_jnpcr0000gn/T//ccxqYFNV.s:6185   .debug_str:0000000000000d50 .LASF300
/var/folders/yy/83vjwp7d53j56dbzj8_jnpcr0000gn/T//ccxqYFNV.s:6397   .debug_str:0000000000001203 .LASF301
/var/folders/yy/83vjwp7d53j56dbzj8_jnpcr0000gn/T//ccxqYFNV.s:5903   .debug_str:00000000000006c4 .LASF302
/var/folders/yy/83vjwp7d53j56dbzj8_jnpcr0000gn/T//ccxqYFNV.s:6401   .debug_str:0000000000001214 .LASF303
/var/folders/yy/83vjwp7d53j56dbzj8_jnpcr0000gn/T//ccxqYFNV.s:6287   .debug_str:0000000000000faf .LASF304
/var/folders/yy/83vjwp7d53j56dbzj8_jnpcr0000gn/T//ccxqYFNV.s:5799   .debug_str:000000000000044a .LASF305
/var/folders/yy/83vjwp7d53j56dbzj8_jnpcr0000gn/T//ccxqYFNV.s:6005   .debug_str:000000000000093a .LASF306
/var/folders/yy/83vjwp7d53j56dbzj8_jnpcr0000gn/T//ccxqYFNV.s:6183   .debug_str:0000000000000d49 .LASF307
/var/folders/yy/83vjwp7d53j56dbzj8_jnpcr0000gn/T//ccxqYFNV.s:5775   .debug_str:00000000000003d3 .LASF308
/var/folders/yy/83vjwp7d53j56dbzj8_jnpcr0000gn/T//ccxqYFNV.s:6393   .debug_str:00000000000011f5 .LASF309
/var/folders/yy/83vjwp7d53j56dbzj8_jnpcr0000gn/T//ccxqYFNV.s:5947   .debug_str:00000000000007c7 .LASF310
/var/folders/yy/83vjwp7d53j56dbzj8_jnpcr0000gn/T//ccxqYFNV.s:5665   .debug_str:00000000000000d1 .LASF311
/var/folders/yy/83vjwp7d53j56dbzj8_jnpcr0000gn/T//ccxqYFNV.s:5671   .debug_str:0000000000000107 .LASF312
/var/folders/yy/83vjwp7d53j56dbzj8_jnpcr0000gn/T//ccxqYFNV.s:6227   .debug_str:0000000000000e71 .LASF313
/var/folders/yy/83vjwp7d53j56dbzj8_jnpcr0000gn/T//ccxqYFNV.s:5905   .debug_str:00000000000006c9 .LASF314
/var/folders/yy/83vjwp7d53j56dbzj8_jnpcr0000gn/T//ccxqYFNV.s:6169   .debug_str:0000000000000d01 .LASF315
/var/folders/yy/83vjwp7d53j56dbzj8_jnpcr0000gn/T//ccxqYFNV.s:5699   .debug_str:00000000000001a6 .LASF316
/var/folders/yy/83vjwp7d53j56dbzj8_jnpcr0000gn/T//ccxqYFNV.s:6263   .debug_str:0000000000000f25 .LASF317
/var/folders/yy/83vjwp7d53j56dbzj8_jnpcr0000gn/T//ccxqYFNV.s:5969   .debug_str:000000000000084d .LASF318
/var/folders/yy/83vjwp7d53j56dbzj8_jnpcr0000gn/T//ccxqYFNV.s:6325   .debug_str:0000000000001062 .LASF319
/var/folders/yy/83vjwp7d53j56dbzj8_jnpcr0000gn/T//ccxqYFNV.s:5737   .debug_str:0000000000000289 .LASF320
/var/folders/yy/83vjwp7d53j56dbzj8_jnpcr0000gn/T//ccxqYFNV.s:6175   .debug_str:0000000000000d1d .LASF321
/var/folders/yy/83vjwp7d53j56dbzj8_jnpcr0000gn/T//ccxqYFNV.s:6009   .debug_str:000000000000094d .LASF322
/var/folders/yy/83vjwp7d53j56dbzj8_jnpcr0000gn/T//ccxqYFNV.s:5751   .debug_str:0000000000000343 .LASF323
/var/folders/yy/83vjwp7d53j56dbzj8_jnpcr0000gn/T//ccxqYFNV.s:6037   .debug_str:00000000000009d5 .LASF324
/var/folders/yy/83vjwp7d53j56dbzj8_jnpcr0000gn/T//ccxqYFNV.s:5919   .debug_str:0000000000000713 .LASF325
/var/folders/yy/83vjwp7d53j56dbzj8_jnpcr0000gn/T//ccxqYFNV.s:6261   .debug_str:0000000000000f1d .LASF326
/var/folders/yy/83vjwp7d53j56dbzj8_jnpcr0000gn/T//ccxqYFNV.s:6171   .debug_str:0000000000000d07 .LASF327
/var/folders/yy/83vjwp7d53j56dbzj8_jnpcr0000gn/T//ccxqYFNV.s:6395   .debug_str:00000000000011fe .LASF328
/var/folders/yy/83vjwp7d53j56dbzj8_jnpcr0000gn/T//ccxqYFNV.s:6073   .debug_str:0000000000000a94 .LASF329
/var/folders/yy/83vjwp7d53j56dbzj8_jnpcr0000gn/T//ccxqYFNV.s:6481   .debug_str:00000000000013ef .LASF330
/var/folders/yy/83vjwp7d53j56dbzj8_jnpcr0000gn/T//ccxqYFNV.s:6417   .debug_str:0000000000001289 .LASF331
/var/folders/yy/83vjwp7d53j56dbzj8_jnpcr0000gn/T//ccxqYFNV.s:6007   .debug_str:0000000000000942 .LASF332
/var/folders/yy/83vjwp7d53j56dbzj8_jnpcr0000gn/T//ccxqYFNV.s:6061   .debug_str:0000000000000a55 .LASF333
/var/folders/yy/83vjwp7d53j56dbzj8_jnpcr0000gn/T//ccxqYFNV.s:6431   .debug_str:00000000000012d0 .LASF334
/var/folders/yy/83vjwp7d53j56dbzj8_jnpcr0000gn/T//ccxqYFNV.s:5797   .debug_str:0000000000000440 .LASF335
/var/folders/yy/83vjwp7d53j56dbzj8_jnpcr0000gn/T//ccxqYFNV.s:5995   .debug_str:00000000000008ef .LASF336
/var/folders/yy/83vjwp7d53j56dbzj8_jnpcr0000gn/T//ccxqYFNV.s:6117   .debug_str:0000000000000b7a .LASF337
/var/folders/yy/83vjwp7d53j56dbzj8_jnpcr0000gn/T//ccxqYFNV.s:5679   .debug_str:0000000000000137 .LASF338
/var/folders/yy/83vjwp7d53j56dbzj8_jnpcr0000gn/T//ccxqYFNV.s:5973   .debug_str:0000000000000860 .LASF339
/var/folders/yy/83vjwp7d53j56dbzj8_jnpcr0000gn/T//ccxqYFNV.s:6167   .debug_str:0000000000000cfc .LASF340
/var/folders/yy/83vjwp7d53j56dbzj8_jnpcr0000gn/T//ccxqYFNV.s:6063   .debug_str:0000000000000a5f .LASF341
/var/folders/yy/83vjwp7d53j56dbzj8_jnpcr0000gn/T//ccxqYFNV.s:5961   .debug_str:0000000000000804 .LASF342
/var/folders/yy/83vjwp7d53j56dbzj8_jnpcr0000gn/T//ccxqYFNV.s:6099   .debug_str:0000000000000b18 .LASF343
/var/folders/yy/83vjwp7d53j56dbzj8_jnpcr0000gn/T//ccxqYFNV.s:5659   .debug_str:00000000000000b8 .LASF344
/var/folders/yy/83vjwp7d53j56dbzj8_jnpcr0000gn/T//ccxqYFNV.s:5895   .debug_str:0000000000000693 .LASF345
/var/folders/yy/83vjwp7d53j56dbzj8_jnpcr0000gn/T//ccxqYFNV.s:6295   .debug_str:0000000000000fd0 .LASF346
/var/folders/yy/83vjwp7d53j56dbzj8_jnpcr0000gn/T//ccxqYFNV.s:6127   .debug_str:0000000000000bf5 .LASF347
/var/folders/yy/83vjwp7d53j56dbzj8_jnpcr0000gn/T//ccxqYFNV.s:6093   .debug_str:0000000000000afa .LASF348
GAS LISTING /var/folders/yy/83vjwp7d53j56dbzj8_jnpcr0000gn/T//ccxqYFNV.s 			page 16


/var/folders/yy/83vjwp7d53j56dbzj8_jnpcr0000gn/T//ccxqYFNV.s:6121   .debug_str:0000000000000bce .LASF349
/var/folders/yy/83vjwp7d53j56dbzj8_jnpcr0000gn/T//ccxqYFNV.s:6259   .debug_str:0000000000000f15 .LASF350
/var/folders/yy/83vjwp7d53j56dbzj8_jnpcr0000gn/T//ccxqYFNV.s:6221   .debug_str:0000000000000e53 .LASF351
/var/folders/yy/83vjwp7d53j56dbzj8_jnpcr0000gn/T//ccxqYFNV.s:5749   .debug_str:000000000000033d .LASF352
/var/folders/yy/83vjwp7d53j56dbzj8_jnpcr0000gn/T//ccxqYFNV.s:6447   .debug_str:0000000000001326 .LASF353
/var/folders/yy/83vjwp7d53j56dbzj8_jnpcr0000gn/T//ccxqYFNV.s:5835   .debug_str:0000000000000529 .LASF354
/var/folders/yy/83vjwp7d53j56dbzj8_jnpcr0000gn/T//ccxqYFNV.s:6277   .debug_str:0000000000000f69 .LASF355
/var/folders/yy/83vjwp7d53j56dbzj8_jnpcr0000gn/T//ccxqYFNV.s:5677   .debug_str:000000000000012a .LASF356
/var/folders/yy/83vjwp7d53j56dbzj8_jnpcr0000gn/T//ccxqYFNV.s:5809   .debug_str:0000000000000494 .LASF357
/var/folders/yy/83vjwp7d53j56dbzj8_jnpcr0000gn/T//ccxqYFNV.s:6109   .debug_str:0000000000000b52 .LASF358
/var/folders/yy/83vjwp7d53j56dbzj8_jnpcr0000gn/T//ccxqYFNV.s:6179   .debug_str:0000000000000d35 .LASF359
/var/folders/yy/83vjwp7d53j56dbzj8_jnpcr0000gn/T//ccxqYFNV.s:6311   .debug_str:0000000000001031 .LASF360
/var/folders/yy/83vjwp7d53j56dbzj8_jnpcr0000gn/T//ccxqYFNV.s:6357   .debug_str:0000000000001116 .LASF361
/var/folders/yy/83vjwp7d53j56dbzj8_jnpcr0000gn/T//ccxqYFNV.s:6239   .debug_str:0000000000000ea8 .LASF362
/var/folders/yy/83vjwp7d53j56dbzj8_jnpcr0000gn/T//ccxqYFNV.s:6173   .debug_str:0000000000000d0f .LASF363
/var/folders/yy/83vjwp7d53j56dbzj8_jnpcr0000gn/T//ccxqYFNV.s:6235   .debug_str:0000000000000e94 .LASF364
/var/folders/yy/83vjwp7d53j56dbzj8_jnpcr0000gn/T//ccxqYFNV.s:6041   .debug_str:00000000000009ec .LASF365
/var/folders/yy/83vjwp7d53j56dbzj8_jnpcr0000gn/T//ccxqYFNV.s:6491   .debug_str:0000000000001427 .LASF366
/var/folders/yy/83vjwp7d53j56dbzj8_jnpcr0000gn/T//ccxqYFNV.s:5789   .debug_str:0000000000000417 .LASF367
/var/folders/yy/83vjwp7d53j56dbzj8_jnpcr0000gn/T//ccxqYFNV.s:6281   .debug_str:0000000000000f80 .LASF368
/var/folders/yy/83vjwp7d53j56dbzj8_jnpcr0000gn/T//ccxqYFNV.s:6463   .debug_str:000000000000137c .LASF369
/var/folders/yy/83vjwp7d53j56dbzj8_jnpcr0000gn/T//ccxqYFNV.s:6157   .debug_str:0000000000000cbd .LASF370
/var/folders/yy/83vjwp7d53j56dbzj8_jnpcr0000gn/T//ccxqYFNV.s:6139   .debug_str:0000000000000c39 .LASF371
/var/folders/yy/83vjwp7d53j56dbzj8_jnpcr0000gn/T//ccxqYFNV.s:5909   .debug_str:00000000000006db .LASF372
/var/folders/yy/83vjwp7d53j56dbzj8_jnpcr0000gn/T//ccxqYFNV.s:6409   .debug_str:0000000000001239 .LASF373
/var/folders/yy/83vjwp7d53j56dbzj8_jnpcr0000gn/T//ccxqYFNV.s:6103   .debug_str:0000000000000b2d .LASF374
/var/folders/yy/83vjwp7d53j56dbzj8_jnpcr0000gn/T//ccxqYFNV.s:5693   .debug_str:000000000000018d .LASF375
/var/folders/yy/83vjwp7d53j56dbzj8_jnpcr0000gn/T//ccxqYFNV.s:5651   .debug_str:0000000000000091 .LASF429
/var/folders/yy/83vjwp7d53j56dbzj8_jnpcr0000gn/T//ccxqYFNV.s:5793   .debug_str:000000000000042e .LASF376
/var/folders/yy/83vjwp7d53j56dbzj8_jnpcr0000gn/T//ccxqYFNV.s:6197   .debug_str:0000000000000da4 .LASF377
/var/folders/yy/83vjwp7d53j56dbzj8_jnpcr0000gn/T//ccxqYFNV.s:5873   .debug_str:0000000000000604 .LASF378
/var/folders/yy/83vjwp7d53j56dbzj8_jnpcr0000gn/T//ccxqYFNV.s:6483   .debug_str:0000000000001408 .LASF379
/var/folders/yy/83vjwp7d53j56dbzj8_jnpcr0000gn/T//ccxqYFNV.s:6411   .debug_str:0000000000001240 .LASF380
/var/folders/yy/83vjwp7d53j56dbzj8_jnpcr0000gn/T//ccxqYFNV.s:5845   .debug_str:0000000000000577 .LASF381
/var/folders/yy/83vjwp7d53j56dbzj8_jnpcr0000gn/T//ccxqYFNV.s:5867   .debug_str:00000000000005e7 .LASF382
/var/folders/yy/83vjwp7d53j56dbzj8_jnpcr0000gn/T//ccxqYFNV.s:5719   .debug_str:0000000000000208 .LASF383
/var/folders/yy/83vjwp7d53j56dbzj8_jnpcr0000gn/T//ccxqYFNV.s:6195   .debug_str:0000000000000d81 .LASF384
/var/folders/yy/83vjwp7d53j56dbzj8_jnpcr0000gn/T//ccxqYFNV.s:6415   .debug_str:0000000000001278 .LASF385
/var/folders/yy/83vjwp7d53j56dbzj8_jnpcr0000gn/T//ccxqYFNV.s:5915   .debug_str:00000000000006f9 .LASF386
/var/folders/yy/83vjwp7d53j56dbzj8_jnpcr0000gn/T//ccxqYFNV.s:5843   .debug_str:0000000000000552 .LASF387
/var/folders/yy/83vjwp7d53j56dbzj8_jnpcr0000gn/T//ccxqYFNV.s:5807   .debug_str:000000000000047d .LASF388
/var/folders/yy/83vjwp7d53j56dbzj8_jnpcr0000gn/T//ccxqYFNV.s:6391   .debug_str:00000000000011e1 .LASF389
/var/folders/yy/83vjwp7d53j56dbzj8_jnpcr0000gn/T//ccxqYFNV.s:5819   .debug_str:00000000000004c6 .LASF390
/var/folders/yy/83vjwp7d53j56dbzj8_jnpcr0000gn/T//ccxqYFNV.s:5977   .debug_str:0000000000000872 .LASF391
/var/folders/yy/83vjwp7d53j56dbzj8_jnpcr0000gn/T//ccxqYFNV.s:5753   .debug_str:000000000000034a .LASF392
/var/folders/yy/83vjwp7d53j56dbzj8_jnpcr0000gn/T//ccxqYFNV.s:5689   .debug_str:0000000000000169 .LASF393
/var/folders/yy/83vjwp7d53j56dbzj8_jnpcr0000gn/T//ccxqYFNV.s:5891   .debug_str:000000000000066d .LASF394
/var/folders/yy/83vjwp7d53j56dbzj8_jnpcr0000gn/T//ccxqYFNV.s:6135   .debug_str:0000000000000c16 .LASF395
/var/folders/yy/83vjwp7d53j56dbzj8_jnpcr0000gn/T//ccxqYFNV.s:5645   .debug_str:000000000000005e .LASF396
/var/folders/yy/83vjwp7d53j56dbzj8_jnpcr0000gn/T//ccxqYFNV.s:5667   .debug_str:00000000000000d7 .LASF397
/var/folders/yy/83vjwp7d53j56dbzj8_jnpcr0000gn/T//ccxqYFNV.s:6405   .debug_str:0000000000001223 .LASF398
/var/folders/yy/83vjwp7d53j56dbzj8_jnpcr0000gn/T//ccxqYFNV.s:6413   .debug_str:0000000000001266 .LASF399
/var/folders/yy/83vjwp7d53j56dbzj8_jnpcr0000gn/T//ccxqYFNV.s:5805   .debug_str:0000000000000464 .LASF400
/var/folders/yy/83vjwp7d53j56dbzj8_jnpcr0000gn/T//ccxqYFNV.s:5673   .debug_str:000000000000010e .LASF401
/var/folders/yy/83vjwp7d53j56dbzj8_jnpcr0000gn/T//ccxqYFNV.s:6035   .debug_str:00000000000009cb .LASF402
/var/folders/yy/83vjwp7d53j56dbzj8_jnpcr0000gn/T//ccxqYFNV.s:6113   .debug_str:0000000000000b69 .LASF403
/var/folders/yy/83vjwp7d53j56dbzj8_jnpcr0000gn/T//ccxqYFNV.s:5723   .debug_str:0000000000000241 .LASF404
GAS LISTING /var/folders/yy/83vjwp7d53j56dbzj8_jnpcr0000gn/T//ccxqYFNV.s 			page 17


/var/folders/yy/83vjwp7d53j56dbzj8_jnpcr0000gn/T//ccxqYFNV.s:5981   .debug_str:0000000000000893 .LASF405
/var/folders/yy/83vjwp7d53j56dbzj8_jnpcr0000gn/T//ccxqYFNV.s:6097   .debug_str:0000000000000b0c .LASF406
/var/folders/yy/83vjwp7d53j56dbzj8_jnpcr0000gn/T//ccxqYFNV.s:5929   .debug_str:0000000000000752 .LASF407
/var/folders/yy/83vjwp7d53j56dbzj8_jnpcr0000gn/T//ccxqYFNV.s:6351   .debug_str:00000000000010d7 .LASF430
/var/folders/yy/83vjwp7d53j56dbzj8_jnpcr0000gn/T//ccxqYFNV.s:144    .text.dma_config:0000000000000000 .LFB7
/var/folders/yy/83vjwp7d53j56dbzj8_jnpcr0000gn/T//ccxqYFNV.s:231    .text.dma_config:0000000000000080 .LFE7
/var/folders/yy/83vjwp7d53j56dbzj8_jnpcr0000gn/T//ccxqYFNV.s:5548   .debug_loc:0000000000000000 .LLST2
/var/folders/yy/83vjwp7d53j56dbzj8_jnpcr0000gn/T//ccxqYFNV.s:6123   .debug_str:0000000000000bd4 .LASF408
/var/folders/yy/83vjwp7d53j56dbzj8_jnpcr0000gn/T//ccxqYFNV.s:160    .text.dma_config:0000000000000010 .LVL15
/var/folders/yy/83vjwp7d53j56dbzj8_jnpcr0000gn/T//ccxqYFNV.s:165    .text.dma_config:000000000000001e .LVL16
/var/folders/yy/83vjwp7d53j56dbzj8_jnpcr0000gn/T//ccxqYFNV.s:212    .text.dma_config:000000000000005e .LVL17
/var/folders/yy/83vjwp7d53j56dbzj8_jnpcr0000gn/T//ccxqYFNV.s:217    .text.dma_config:000000000000006c .LVL18
/var/folders/yy/83vjwp7d53j56dbzj8_jnpcr0000gn/T//ccxqYFNV.s:222    .text.dma_config:000000000000007a .LVL19
/var/folders/yy/83vjwp7d53j56dbzj8_jnpcr0000gn/T//ccxqYFNV.s:5683   .debug_str:0000000000000148 .LASF431
/var/folders/yy/83vjwp7d53j56dbzj8_jnpcr0000gn/T//ccxqYFNV.s:15     .text.timer_config:0000000000000000 .LFB6
/var/folders/yy/83vjwp7d53j56dbzj8_jnpcr0000gn/T//ccxqYFNV.s:137    .text.timer_config:00000000000000ce .LFE6
/var/folders/yy/83vjwp7d53j56dbzj8_jnpcr0000gn/T//ccxqYFNV.s:5566   .debug_loc:000000000000002c .LLST0
/var/folders/yy/83vjwp7d53j56dbzj8_jnpcr0000gn/T//ccxqYFNV.s:6399   .debug_str:0000000000001208 .LASF432
/var/folders/yy/83vjwp7d53j56dbzj8_jnpcr0000gn/T//ccxqYFNV.s:5584   .debug_loc:0000000000000058 .LLST1
/var/folders/yy/83vjwp7d53j56dbzj8_jnpcr0000gn/T//ccxqYFNV.s:6207   .debug_str:0000000000000e03 .LASF409
/var/folders/yy/83vjwp7d53j56dbzj8_jnpcr0000gn/T//ccxqYFNV.s:6271   .debug_str:0000000000000f42 .LASF410
/var/folders/yy/83vjwp7d53j56dbzj8_jnpcr0000gn/T//ccxqYFNV.s:40     .text.timer_config:000000000000001a .LVL2
/var/folders/yy/83vjwp7d53j56dbzj8_jnpcr0000gn/T//ccxqYFNV.s:46     .text.timer_config:0000000000000026 .LVL3
/var/folders/yy/83vjwp7d53j56dbzj8_jnpcr0000gn/T//ccxqYFNV.s:50     .text.timer_config:0000000000000030 .LVL4
/var/folders/yy/83vjwp7d53j56dbzj8_jnpcr0000gn/T//ccxqYFNV.s:78     .text.timer_config:0000000000000056 .LVL6
/var/folders/yy/83vjwp7d53j56dbzj8_jnpcr0000gn/T//ccxqYFNV.s:82     .text.timer_config:0000000000000060 .LVL7
/var/folders/yy/83vjwp7d53j56dbzj8_jnpcr0000gn/T//ccxqYFNV.s:97     .text.timer_config:000000000000007a .LVL8
/var/folders/yy/83vjwp7d53j56dbzj8_jnpcr0000gn/T//ccxqYFNV.s:103    .text.timer_config:000000000000008a .LVL9
/var/folders/yy/83vjwp7d53j56dbzj8_jnpcr0000gn/T//ccxqYFNV.s:109    .text.timer_config:000000000000009c .LVL10
/var/folders/yy/83vjwp7d53j56dbzj8_jnpcr0000gn/T//ccxqYFNV.s:115    .text.timer_config:00000000000000ac .LVL11
/var/folders/yy/83vjwp7d53j56dbzj8_jnpcr0000gn/T//ccxqYFNV.s:119    .text.timer_config:00000000000000b8 .LVL12
/var/folders/yy/83vjwp7d53j56dbzj8_jnpcr0000gn/T//ccxqYFNV.s:123    .text.timer_config:00000000000000c4 .LVL13
/var/folders/yy/83vjwp7d53j56dbzj8_jnpcr0000gn/T//ccxqYFNV.s:6467   .debug_str:0000000000001393 .LASF411
/var/folders/yy/83vjwp7d53j56dbzj8_jnpcr0000gn/T//ccxqYFNV.s:5721   .debug_str:0000000000000236 .LASF412
/var/folders/yy/83vjwp7d53j56dbzj8_jnpcr0000gn/T//ccxqYFNV.s:5917   .debug_str:000000000000070a .LASF413
/var/folders/yy/83vjwp7d53j56dbzj8_jnpcr0000gn/T//ccxqYFNV.s:6297   .debug_str:0000000000000fd7 .LASF414
/var/folders/yy/83vjwp7d53j56dbzj8_jnpcr0000gn/T//ccxqYFNV.s:5877   .debug_str:0000000000000620 .LASF415
/var/folders/yy/83vjwp7d53j56dbzj8_jnpcr0000gn/T//ccxqYFNV.s:6193   .debug_str:0000000000000d74 .LASF416
/var/folders/yy/83vjwp7d53j56dbzj8_jnpcr0000gn/T//ccxqYFNV.s:6285   .debug_str:0000000000000f98 .LASF417
/var/folders/yy/83vjwp7d53j56dbzj8_jnpcr0000gn/T//ccxqYFNV.s:5983   .debug_str:00000000000008a2 .LASF418
/var/folders/yy/83vjwp7d53j56dbzj8_jnpcr0000gn/T//ccxqYFNV.s:5965   .debug_str:000000000000081c .LASF419
/var/folders/yy/83vjwp7d53j56dbzj8_jnpcr0000gn/T//ccxqYFNV.s:5643   .debug_str:0000000000000042 .LASF420
/var/folders/yy/83vjwp7d53j56dbzj8_jnpcr0000gn/T//ccxqYFNV.s:6203   .debug_str:0000000000000dd1 .LASF421
/var/folders/yy/83vjwp7d53j56dbzj8_jnpcr0000gn/T//ccxqYFNV.s:5941   .debug_str:0000000000000791 .LASF422
/var/folders/yy/83vjwp7d53j56dbzj8_jnpcr0000gn/T//ccxqYFNV.s:6355   .debug_str:00000000000010f3 .LASF423
/var/folders/yy/83vjwp7d53j56dbzj8_jnpcr0000gn/T//ccxqYFNV.s:6387   .debug_str:00000000000011b4 .LASF424
/var/folders/yy/83vjwp7d53j56dbzj8_jnpcr0000gn/T//ccxqYFNV.s:6389   .debug_str:00000000000011d4 .LASF425
/var/folders/yy/83vjwp7d53j56dbzj8_jnpcr0000gn/T//ccxqYFNV.s:151    .text.dma_config:0000000000000002 .LCFI2
/var/folders/yy/83vjwp7d53j56dbzj8_jnpcr0000gn/T//ccxqYFNV.s:227    .text.dma_config:000000000000007e .LCFI3
/var/folders/yy/83vjwp7d53j56dbzj8_jnpcr0000gn/T//ccxqYFNV.s:23     .text.timer_config:0000000000000002 .LCFI0
/var/folders/yy/83vjwp7d53j56dbzj8_jnpcr0000gn/T//ccxqYFNV.s:133    .text.timer_config:00000000000000cc .LCFI1
/var/folders/yy/83vjwp7d53j56dbzj8_jnpcr0000gn/T//ccxqYFNV.s:19     .text.timer_config:0000000000000000 .LVL0
/var/folders/yy/83vjwp7d53j56dbzj8_jnpcr0000gn/T//ccxqYFNV.s:30     .text.timer_config:000000000000000a .LVL1
/var/folders/yy/83vjwp7d53j56dbzj8_jnpcr0000gn/T//ccxqYFNV.s:62     .text.timer_config:000000000000003e .LVL5
/var/folders/yy/83vjwp7d53j56dbzj8_jnpcr0000gn/T//ccxqYFNV.s:131    .text.timer_config:00000000000000ca .LVL14
/var/folders/yy/83vjwp7d53j56dbzj8_jnpcr0000gn/T//ccxqYFNV.s:254    .debug_info:0000000000000000 .Ldebug_info0

GAS LISTING /var/folders/yy/83vjwp7d53j56dbzj8_jnpcr0000gn/T//ccxqYFNV.s 			page 18


UNDEFINED SYMBOLS
rcu_periph_clock_enable
timer_deinit
timer_struct_para_init
timer_init
timer_channel_output_struct_para_init
timer_channel_output_config
timer_channel_output_pulse_value_config
timer_channel_output_mode_config
timer_channel_output_shadow_config
timer_auto_reload_shadow_enable
timer_enable
dma_deinit
dma_init
dma_circulation_enable
dma_channel_enable
