GAS LISTING /var/folders/yy/83vjwp7d53j56dbzj8_jnpcr0000gn/T//ccMxkhX3.s 			page 1


   1              		.file	"rn4871.c"
   2              		.option nopic
   3              		.attribute arch, "rv32i2p0_m2p0_a2p0_c2p0"
   4              		.attribute unaligned_access, 0
   5              		.attribute stack_align, 16
   6              		.text
   7              	.Ltext0:
   8              		.cfi_sections	.debug_frame
   9              		.globl	rx_dma_buffer
  10              		.globl	tx_dma_buffer
  11              		.section	.text.UUID_parser,"ax",@progbits
  12              		.align	1
  14              	UUID_parser:
  15              	.LFB7:
  16              		.file 1 "rn4871.c"
   1:rn4871.c      **** #include "rn4871.h"
   2:rn4871.c      **** #include "usb_delay.h"
   3:rn4871.c      **** #include "string.h"
   4:rn4871.c      **** 
   5:rn4871.c      **** char rx_dma_buffer[LIO_BT_BUFFER_SIZE] = {'\0'};
   6:rn4871.c      **** char tx_dma_buffer[LIO_BT_BUFFER_SIZE] = {'\0'}; 
   7:rn4871.c      **** 
   8:rn4871.c      **** static void UUID_parser(char *UUID) {
  17              		.loc 1 8 37
  18              		.cfi_startproc
  19              	.LVL0:
   9:rn4871.c      ****     if (UUID == NULL) {
  20              		.loc 1 9 5
  21              		.loc 1 9 8 is_stmt 0
  22 0000 09C5     		beq	a0,zero,.L1
  23 0002 17030000 		tail	UUID_parser.part.0
  23      67000300 
  24              	.LVL1:
  25              	.L1:
  10:rn4871.c      ****         return; // Handle invalid input
  11:rn4871.c      ****     }
  12:rn4871.c      **** 
  13:rn4871.c      ****     char *readPtr = UUID; // Read pointer
  14:rn4871.c      ****     char *writePtr = UUID; // Write pointer
  15:rn4871.c      **** 
  16:rn4871.c      ****     while (*readPtr != '\0') {
  17:rn4871.c      ****         if (*readPtr != '-') {
  18:rn4871.c      ****             *writePtr = *readPtr;
  19:rn4871.c      ****             writePtr++;
  20:rn4871.c      ****         }
  21:rn4871.c      ****         readPtr++;
  22:rn4871.c      ****     }
  23:rn4871.c      **** 
  24:rn4871.c      ****     *writePtr = '\0'; // Null-terminate the modified string
  25:rn4871.c      **** }
  26              		.loc 1 25 1
  27 000a 8280     		ret
  28              		.cfi_endproc
  29              	.LFE7:
  31              		.section	.text.UUID_Flipper,"ax",@progbits
  32              		.align	1
  34              	UUID_Flipper:
GAS LISTING /var/folders/yy/83vjwp7d53j56dbzj8_jnpcr0000gn/T//ccMxkhX3.s 			page 2


  35              	.LFB8:
  26:rn4871.c      **** 
  27:rn4871.c      **** static void UUID_Flipper(char *input, char *output) {
  36              		.loc 1 27 53 is_stmt 1
  37              		.cfi_startproc
  38              	.LVL2:
  28:rn4871.c      ****     int len = strlen(input);
  39              		.loc 1 28 5
  27:rn4871.c      ****     int len = strlen(input);
  40              		.loc 1 27 53 is_stmt 0
  41 0000 0111     		addi	sp,sp,-32
  42              	.LCFI0:
  43              		.cfi_def_cfa_offset 32
  44 0002 22CC     		sw	s0,24(sp)
  45 0004 2EC6     		sw	a1,12(sp)
  46              		.cfi_offset 8, -8
  47 0006 2A84     		mv	s0,a0
  48 0008 06CE     		sw	ra,28(sp)
  49              		.cfi_offset 1, -4
  50              		.loc 1 28 15
  51 000a 97000000 		call	strlen
  51      E7800000 
  52              	.LVL3:
  29:rn4871.c      ****     for (int i = 0; i < len; i += 2) {
  53              		.loc 1 29 5 is_stmt 1
  54              	.LBB8:
  55              		.loc 1 29 10
  56 0012 B245     		lw	a1,12(sp)
  57              		.loc 1 29 5 is_stmt 0
  58 0014 A287     		mv	a5,s0
  59 0016 AA95     		add	a1,a1,a0
  60 0018 2E87     		mv	a4,a1
  61              	.LVL4:
  62              	.L4:
  63              		.loc 1 29 5 discriminator 1
  64 001a B3868740 		sub	a3,a5,s0
  65 001e 7917     		addi	a4,a4,-2
  66 0020 63C8A600 		bgt	a0,a3,.L5
  67              	.LBE8:
  30:rn4871.c      ****         output[len - i - 2] = input[i];
  31:rn4871.c      ****         output[len - i - 1] = input[i + 1];
  32:rn4871.c      ****     }
  33:rn4871.c      ****     output[len] = '\0';
  68              		.loc 1 33 5 is_stmt 1
  69              		.loc 1 33 17 is_stmt 0
  70 0024 23800500 		sb	zero,0(a1)
  34:rn4871.c      **** }
  71              		.loc 1 34 1
  72 0028 F240     		lw	ra,28(sp)
  73              		.cfi_remember_state
  74              		.cfi_restore 1
  75 002a 6244     		lw	s0,24(sp)
  76              		.cfi_restore 8
  77              	.LVL5:
  78 002c 0561     		addi	sp,sp,32
  79              	.LCFI1:
  80              		.cfi_def_cfa_offset 0
GAS LISTING /var/folders/yy/83vjwp7d53j56dbzj8_jnpcr0000gn/T//ccMxkhX3.s 			page 3


  81              	.LVL6:
  82 002e 8280     		jr	ra
  83              	.LVL7:
  84              	.L5:
  85              	.LCFI2:
  86              		.cfi_restore_state
  87              	.LBB9:
  30:rn4871.c      ****         output[len - i - 2] = input[i];
  88              		.loc 1 30 9 is_stmt 1 discriminator 3
  30:rn4871.c      ****         output[len - i - 2] = input[i];
  89              		.loc 1 30 36 is_stmt 0 discriminator 3
  90 0030 83C60700 		lbu	a3,0(a5)
  91 0034 8907     		addi	a5,a5,2
  92              	.LVL8:
  30:rn4871.c      ****         output[len - i - 2] = input[i];
  93              		.loc 1 30 29 discriminator 3
  94 0036 2300D700 		sb	a3,0(a4)
  31:rn4871.c      ****     }
  95              		.loc 1 31 9 is_stmt 1 discriminator 3
  31:rn4871.c      ****     }
  96              		.loc 1 31 36 is_stmt 0 discriminator 3
  97 003a 83C6F7FF 		lbu	a3,-1(a5)
  31:rn4871.c      ****     }
  98              		.loc 1 31 29 discriminator 3
  99 003e A300D700 		sb	a3,1(a4)
 100              	.LVL9:
 101 0042 E1BF     		j	.L4
 102              	.LBE9:
 103              		.cfi_endproc
 104              	.LFE8:
 106              		.section	.text.enter_command_mode,"ax",@progbits
 107              		.align	1
 108              		.globl	enter_command_mode
 110              	enter_command_mode:
 111              	.LFB9:
  35:rn4871.c      **** 
  36:rn4871.c      **** void enter_command_mode(void){
 112              		.loc 1 36 30 is_stmt 1
 113              		.cfi_startproc
  37:rn4871.c      ****     usb_delay_1ms(1000);
 114              		.loc 1 37 5
  36:rn4871.c      ****     usb_delay_1ms(1000);
 115              		.loc 1 36 30 is_stmt 0
 116 0000 0111     		addi	sp,sp,-32
 117              	.LCFI3:
 118              		.cfi_def_cfa_offset 32
 119              		.loc 1 37 5
 120 0002 1305803E 		li	a0,1000
  36:rn4871.c      ****     usb_delay_1ms(1000);
 121              		.loc 1 36 30
 122 0006 06CE     		sw	ra,28(sp)
 123              		.cfi_offset 1, -4
 124              		.loc 1 37 5
 125 0008 97000000 		call	usb_delay_1ms
 125      E7800000 
 126              	.LVL10:
  38:rn4871.c      ****     char command_mode[] = "$$$";
GAS LISTING /var/folders/yy/83vjwp7d53j56dbzj8_jnpcr0000gn/T//ccMxkhX3.s 			page 4


 127              		.loc 1 38 5 is_stmt 1
 128              		.loc 1 38 10 is_stmt 0
 129 0010 B7272400 		li	a5,2367488
 130 0014 93874742 		addi	a5,a5,1060
  39:rn4871.c      ****     lio_send_bt(command_mode, 3);
 131              		.loc 1 39 5
 132 0018 8D45     		li	a1,3
 133 001a 6800     		addi	a0,sp,12
  38:rn4871.c      ****     char command_mode[] = "$$$";
 134              		.loc 1 38 10
 135 001c 3EC6     		sw	a5,12(sp)
 136              		.loc 1 39 5 is_stmt 1
 137 001e 97000000 		call	lio_send_bt
 137      E7800000 
 138              	.LVL11:
  40:rn4871.c      ****     usb_delay_1ms(1000);
 139              		.loc 1 40 5
 140 0026 1305803E 		li	a0,1000
 141 002a 97000000 		call	usb_delay_1ms
 141      E7800000 
 142              	.LVL12:
  41:rn4871.c      ****     command_mode[0] = '\r';
 143              		.loc 1 41 5
 144              		.loc 1 41 21 is_stmt 0
 145 0032 B547     		li	a5,13
  42:rn4871.c      ****     lio_send_bt(command_mode, 1);
 146              		.loc 1 42 5
 147 0034 6800     		addi	a0,sp,12
 148 0036 8545     		li	a1,1
  41:rn4871.c      ****     command_mode[0] = '\r';
 149              		.loc 1 41 21
 150 0038 2306F100 		sb	a5,12(sp)
 151              		.loc 1 42 5 is_stmt 1
 152 003c 97000000 		call	lio_send_bt
 152      E7800000 
 153              	.LVL13:
  43:rn4871.c      **** }
 154              		.loc 1 43 1 is_stmt 0
 155 0044 F240     		lw	ra,28(sp)
 156              		.cfi_restore 1
 157 0046 0561     		addi	sp,sp,32
 158              	.LCFI4:
 159              		.cfi_def_cfa_offset 0
 160 0048 8280     		jr	ra
 161              		.cfi_endproc
 162              	.LFE9:
 164              		.section	.text.lio_init_bt,"ax",@progbits
 165              		.align	1
 166              		.globl	lio_init_bt
 168              	lio_init_bt:
 169              	.LFB10:
  44:rn4871.c      **** 
  45:rn4871.c      **** void lio_init_bt(){
 170              		.loc 1 45 19 is_stmt 1
 171              		.cfi_startproc
  46:rn4871.c      ****     dma_parameter_struct dma_init_struct;
 172              		.loc 1 46 5
GAS LISTING /var/folders/yy/83vjwp7d53j56dbzj8_jnpcr0000gn/T//ccMxkhX3.s 			page 5


  47:rn4871.c      ****     /* enable DMA0 */
  48:rn4871.c      ****     rcu_periph_clock_enable(RCU_DMA0);
 173              		.loc 1 48 5
  45:rn4871.c      ****     dma_parameter_struct dma_init_struct;
 174              		.loc 1 45 19 is_stmt 0
 175 0000 7971     		addi	sp,sp,-48
 176              	.LCFI5:
 177              		.cfi_def_cfa_offset 48
 178              		.loc 1 48 5
 179 0002 13050050 		li	a0,1280
  45:rn4871.c      ****     dma_parameter_struct dma_init_struct;
 180              		.loc 1 45 19
 181 0006 06D6     		sw	ra,44(sp)
 182 0008 22D4     		sw	s0,40(sp)
 183              		.cfi_offset 1, -4
 184              		.cfi_offset 8, -8
 185              		.loc 1 48 5
 186 000a 97000000 		call	rcu_periph_clock_enable
 186      E7800000 
 187              	.LVL14:
  49:rn4871.c      ****     /* initialize USART */
  50:rn4871.c      ****     rcu_periph_clock_enable(RCU_GPIOA);
 188              		.loc 1 50 5 is_stmt 1
 189 0012 13052060 		li	a0,1538
 190 0016 97000000 		call	rcu_periph_clock_enable
 190      E7800000 
 191              	.LVL15:
  51:rn4871.c      **** 
  52:rn4871.c      ****     /* enable USART clock */
  53:rn4871.c      ****     rcu_periph_clock_enable(RCU_USART0);
 192              		.loc 1 53 5
 193 001e 1305E060 		li	a0,1550
 194 0022 97000000 		call	rcu_periph_clock_enable
 194      E7800000 
 195              	.LVL16:
  54:rn4871.c      **** 
  55:rn4871.c      ****     /* connect port to USARTx_Tx */
  56:rn4871.c      ****     gpio_init(GPIOA, GPIO_MODE_AF_PP, GPIO_OSPEED_50MHZ, GPIO_PIN_9);
 196              		.loc 1 56 5
 197 002a 37140140 		li	s0,1073811456
 198 002e 13050480 		addi	a0,s0,-2048
 199 0032 93060020 		li	a3,512
 200 0036 0D46     		li	a2,3
 201 0038 E145     		li	a1,24
 202 003a 97000000 		call	gpio_init
 202      E7800000 
 203              	.LVL17:
  57:rn4871.c      **** 
  58:rn4871.c      ****     /* connect port to USARTx_Rx */
  59:rn4871.c      ****     gpio_init(GPIOA, GPIO_MODE_IN_FLOATING, GPIO_OSPEED_50MHZ, GPIO_PIN_10);
 204              		.loc 1 59 5
 205 0042 93060040 		li	a3,1024
 206 0046 0D46     		li	a2,3
 207 0048 9145     		li	a1,4
 208 004a 13050480 		addi	a0,s0,-2048
 209 004e 97000000 		call	gpio_init
 209      E7800000 
GAS LISTING /var/folders/yy/83vjwp7d53j56dbzj8_jnpcr0000gn/T//ccMxkhX3.s 			page 6


 210              	.LVL18:
  60:rn4871.c      **** 
  61:rn4871.c      ****     /* USART configure */
  62:rn4871.c      ****     usart_deinit(USART0);
 211              		.loc 1 62 5
 212 0056 37440140 		li	s0,1073823744
 213 005a 13050480 		addi	a0,s0,-2048
 214 005e 97000000 		call	usart_deinit
 214      E7800000 
 215              	.LVL19:
  63:rn4871.c      ****     usart_baudrate_set(USART0, 115200U);
 216              		.loc 1 63 5
 217 0066 F165     		li	a1,114688
 218 0068 13050480 		addi	a0,s0,-2048
 219 006c 93850520 		addi	a1,a1,512
 220 0070 97000000 		call	usart_baudrate_set
 220      E7800000 
 221              	.LVL20:
  64:rn4871.c      ****     usart_word_length_set(USART0, USART_WL_8BIT);
 222              		.loc 1 64 5
 223 0078 13050480 		addi	a0,s0,-2048
 224 007c 8145     		li	a1,0
 225 007e 97000000 		call	usart_word_length_set
 225      E7800000 
 226              	.LVL21:
  65:rn4871.c      ****     usart_stop_bit_set(USART0, USART_STB_1BIT);
 227              		.loc 1 65 5
 228 0086 13050480 		addi	a0,s0,-2048
 229 008a 8145     		li	a1,0
 230 008c 97000000 		call	usart_stop_bit_set
 230      E7800000 
 231              	.LVL22:
  66:rn4871.c      ****     usart_parity_config(USART0, USART_PM_NONE);
 232              		.loc 1 66 5
 233 0094 13050480 		addi	a0,s0,-2048
 234 0098 8145     		li	a1,0
 235 009a 97000000 		call	usart_parity_config
 235      E7800000 
 236              	.LVL23:
  67:rn4871.c      ****     usart_hardware_flow_rts_config(USART0, USART_RTS_DISABLE);
 237              		.loc 1 67 5
 238 00a2 13050480 		addi	a0,s0,-2048
 239 00a6 8145     		li	a1,0
 240 00a8 97000000 		call	usart_hardware_flow_rts_config
 240      E7800000 
 241              	.LVL24:
  68:rn4871.c      ****     usart_hardware_flow_cts_config(USART0, USART_CTS_DISABLE);
 242              		.loc 1 68 5
 243 00b0 13050480 		addi	a0,s0,-2048
 244 00b4 8145     		li	a1,0
 245 00b6 97000000 		call	usart_hardware_flow_cts_config
 245      E7800000 
 246              	.LVL25:
  69:rn4871.c      ****     usart_receive_config(USART0, USART_RECEIVE_ENABLE);
 247              		.loc 1 69 5
 248 00be 13050480 		addi	a0,s0,-2048
 249 00c2 9145     		li	a1,4
GAS LISTING /var/folders/yy/83vjwp7d53j56dbzj8_jnpcr0000gn/T//ccMxkhX3.s 			page 7


 250 00c4 97000000 		call	usart_receive_config
 250      E7800000 
 251              	.LVL26:
  70:rn4871.c      ****     usart_transmit_config(USART0, USART_TRANSMIT_ENABLE);
 252              		.loc 1 70 5
 253 00cc A145     		li	a1,8
 254 00ce 13050480 		addi	a0,s0,-2048
 255 00d2 97000000 		call	usart_transmit_config
 255      E7800000 
 256              	.LVL27:
  71:rn4871.c      ****     usart_enable(USART0);
 257              		.loc 1 71 5
 258 00da 13050480 		addi	a0,s0,-2048
 259 00de 97000000 		call	usart_enable
 259      E7800000 
 260              	.LVL28:
  72:rn4871.c      **** 
  73:rn4871.c      ****     usart_dma_transmit_config(USART0, USART_DENT_ENABLE);
 261              		.loc 1 73 5
 262 00e6 13050480 		addi	a0,s0,-2048
 263 00ea 93050008 		li	a1,128
 264 00ee 97000000 		call	usart_dma_transmit_config
 264      E7800000 
 265              	.LVL29:
  74:rn4871.c      ****     usart_dma_receive_config(USART0, USART_DENR_ENABLE);
 266              		.loc 1 74 5
 267 00f6 13050480 		addi	a0,s0,-2048
 268 00fa 93050004 		li	a1,64
 269 00fe 97000000 		call	usart_dma_receive_config
 269      E7800000 
 270              	.LVL30:
  75:rn4871.c      **** 
  76:rn4871.c      ****    
  77:rn4871.c      **** 
  78:rn4871.c      ****     dma_deinit(DMA0, DMA_CH4);
 271              		.loc 1 78 5
 272 0106 9145     		li	a1,4
 273 0108 37050240 		li	a0,1073872896
 274 010c 97000000 		call	dma_deinit
 274      E7800000 
 275              	.LVL31:
  79:rn4871.c      ****     dma_init_struct.direction = DMA_PERIPHERAL_TO_MEMORY;
 276              		.loc 1 79 5
  80:rn4871.c      ****     dma_init_struct.memory_addr = (uint32_t)rx_dma_buffer;
 277              		.loc 1 80 5
 278              		.loc 1 80 35 is_stmt 0
 279 0114 B7070000 		lui	a5,%hi(.LANCHOR0)
 280 0118 93870700 		addi	a5,a5,%lo(.LANCHOR0)
 281              		.loc 1 80 33
 282 011c 3EC6     		sw	a5,12(sp)
  81:rn4871.c      ****     dma_init_struct.memory_inc = DMA_MEMORY_INCREASE_ENABLE;
 283              		.loc 1 81 5 is_stmt 1
  82:rn4871.c      ****     dma_init_struct.memory_width = DMA_MEMORY_WIDTH_8BIT;
 284              		.loc 1 82 5
  83:rn4871.c      ****     dma_init_struct.number = LIO_BT_BUFFER_SIZE;
 285              		.loc 1 83 5
  84:rn4871.c      ****     dma_init_struct.periph_addr = (uint32_t)&USART_DATA(USART0);
GAS LISTING /var/folders/yy/83vjwp7d53j56dbzj8_jnpcr0000gn/T//ccMxkhX3.s 			page 8


 286              		.loc 1 84 5
  83:rn4871.c      ****     dma_init_struct.number = LIO_BT_BUFFER_SIZE;
 287              		.loc 1 83 28 is_stmt 0
 288 011e 93070040 		li	a5,1024
 289 0122 3ECA     		sw	a5,20(sp)
  85:rn4871.c      ****     dma_init_struct.periph_inc = DMA_PERIPH_INCREASE_DISABLE;
  86:rn4871.c      ****     dma_init_struct.periph_width = DMA_PERIPHERAL_WIDTH_8BIT;
  87:rn4871.c      ****     dma_init_struct.priority = DMA_PRIORITY_ULTRA_HIGH;
 290              		.loc 1 87 30
 291 0124 8D67     		li	a5,12288
  88:rn4871.c      ****     dma_init(DMA0, DMA_CH4, &dma_init_struct);
 292              		.loc 1 88 5
 293 0126 5000     		addi	a2,sp,4
  87:rn4871.c      ****     dma_init(DMA0, DMA_CH4, &dma_init_struct);
 294              		.loc 1 87 30
 295 0128 3ECC     		sw	a5,24(sp)
  84:rn4871.c      ****     dma_init_struct.periph_inc = DMA_PERIPH_INCREASE_DISABLE;
 296              		.loc 1 84 33
 297 012a 13044480 		addi	s0,s0,-2044
  85:rn4871.c      ****     dma_init_struct.periph_width = DMA_PERIPHERAL_WIDTH_8BIT;
 298              		.loc 1 85 32
 299 012e 93070010 		li	a5,256
 300              		.loc 1 88 5
 301 0132 9145     		li	a1,4
 302 0134 37050240 		li	a0,1073872896
  85:rn4871.c      ****     dma_init_struct.periph_width = DMA_PERIPHERAL_WIDTH_8BIT;
 303              		.loc 1 85 32
 304 0138 231EF100 		sh	a5,28(sp)
  84:rn4871.c      ****     dma_init_struct.periph_inc = DMA_PERIPH_INCREASE_DISABLE;
 305              		.loc 1 84 33
 306 013c 22C2     		sw	s0,4(sp)
  85:rn4871.c      ****     dma_init_struct.periph_width = DMA_PERIPHERAL_WIDTH_8BIT;
 307              		.loc 1 85 5 is_stmt 1
  86:rn4871.c      ****     dma_init_struct.priority = DMA_PRIORITY_ULTRA_HIGH;
 308              		.loc 1 86 5
  86:rn4871.c      ****     dma_init_struct.priority = DMA_PRIORITY_ULTRA_HIGH;
 309              		.loc 1 86 34 is_stmt 0
 310 013e 02C4     		sw	zero,8(sp)
  87:rn4871.c      ****     dma_init(DMA0, DMA_CH4, &dma_init_struct);
 311              		.loc 1 87 5 is_stmt 1
  82:rn4871.c      ****     dma_init_struct.number = LIO_BT_BUFFER_SIZE;
 312              		.loc 1 82 34 is_stmt 0
 313 0140 02C8     		sw	zero,16(sp)
  79:rn4871.c      ****     dma_init_struct.memory_addr = (uint32_t)rx_dma_buffer;
 314              		.loc 1 79 31
 315 0142 230F0100 		sb	zero,30(sp)
 316              		.loc 1 88 5 is_stmt 1
 317 0146 97000000 		call	dma_init
 317      E7800000 
 318              	.LVL32:
  89:rn4871.c      ****         /* configure DMA mode */
  90:rn4871.c      ****     dma_circulation_disable(DMA0, DMA_CH4);
 319              		.loc 1 90 5
 320 014e 9145     		li	a1,4
 321 0150 37050240 		li	a0,1073872896
 322 0154 97000000 		call	dma_circulation_disable
 322      E7800000 
GAS LISTING /var/folders/yy/83vjwp7d53j56dbzj8_jnpcr0000gn/T//ccMxkhX3.s 			page 9


 323              	.LVL33:
  91:rn4871.c      ****         /* enable DMA channel4 */
  92:rn4871.c      ****     dma_channel_enable(DMA0, DMA_CH4);
 324              		.loc 1 92 5
 325 015c 9145     		li	a1,4
 326 015e 37050240 		li	a0,1073872896
 327 0162 97000000 		call	dma_channel_enable
 327      E7800000 
 328              	.LVL34:
  93:rn4871.c      **** }
 329              		.loc 1 93 1 is_stmt 0
 330 016a B250     		lw	ra,44(sp)
 331              		.cfi_restore 1
 332 016c 2254     		lw	s0,40(sp)
 333              		.cfi_restore 8
 334 016e 4561     		addi	sp,sp,48
 335              	.LCFI6:
 336              		.cfi_def_cfa_offset 0
 337 0170 8280     		jr	ra
 338              		.cfi_endproc
 339              	.LFE10:
 341              		.section	.text.lio_read_bt,"ax",@progbits
 342              		.align	1
 343              		.globl	lio_read_bt
 345              	lio_read_bt:
 346              	.LFB11:
  94:rn4871.c      **** 
  95:rn4871.c      **** size_t lio_read_bt(char* buffer, uint32_t size){
 347              		.loc 1 95 48 is_stmt 1
 348              		.cfi_startproc
 349              	.LVL35:
  96:rn4871.c      ****     if(rx_dma_buffer[0] != 0)
 350              		.loc 1 96 5
 351              		.loc 1 96 21 is_stmt 0
 352 0000 37070000 		lui	a4,%hi(.LANCHOR0)
 353              		.loc 1 96 7
 354 0004 83470700 		lbu	a5,%lo(.LANCHOR0)(a4)
  95:rn4871.c      ****     if(rx_dma_buffer[0] != 0)
 355              		.loc 1 95 48
 356 0008 7971     		addi	sp,sp,-48
 357              	.LCFI7:
 358              		.cfi_def_cfa_offset 48
 359 000a 22D4     		sw	s0,40(sp)
 360 000c 06D6     		sw	ra,44(sp)
 361 000e 26D2     		sw	s1,36(sp)
 362              		.cfi_offset 8, -8
 363              		.cfi_offset 1, -4
 364              		.cfi_offset 9, -12
  97:rn4871.c      ****     {
  98:rn4871.c      ****         int i = 0;
  99:rn4871.c      ****         for(; i < LIO_BT_BUFFER_SIZE && rx_dma_buffer[i] != 0 && i < size - 1; i++){
 100:rn4871.c      ****             buffer[i] = rx_dma_buffer[i];
 101:rn4871.c      ****             rx_dma_buffer[i] = 0;
 102:rn4871.c      ****         }
 103:rn4871.c      ****         buffer[i] = '\0';
 104:rn4871.c      **** 
 105:rn4871.c      ****         dma_parameter_struct dma_init_struct;
GAS LISTING /var/folders/yy/83vjwp7d53j56dbzj8_jnpcr0000gn/T//ccMxkhX3.s 			page 10


 106:rn4871.c      **** 
 107:rn4871.c      ****         dma_deinit(DMA0, DMA_CH4);
 108:rn4871.c      ****         dma_init_struct.direction = DMA_PERIPHERAL_TO_MEMORY;
 109:rn4871.c      ****         dma_init_struct.memory_addr = (uint32_t)rx_dma_buffer;
 110:rn4871.c      ****         dma_init_struct.memory_inc = DMA_MEMORY_INCREASE_ENABLE;
 111:rn4871.c      ****         dma_init_struct.memory_width = DMA_MEMORY_WIDTH_8BIT;
 112:rn4871.c      ****         dma_init_struct.number = LIO_BT_BUFFER_SIZE;
 113:rn4871.c      ****         dma_init_struct.periph_addr = (uint32_t)&USART_DATA(USART0);
 114:rn4871.c      ****         dma_init_struct.periph_inc = DMA_PERIPH_INCREASE_DISABLE;
 115:rn4871.c      ****         dma_init_struct.periph_width = DMA_PERIPHERAL_WIDTH_8BIT;
 116:rn4871.c      ****         dma_init_struct.priority = DMA_PRIORITY_ULTRA_HIGH;
 117:rn4871.c      ****         dma_init(DMA0, DMA_CH4, &dma_init_struct);
 118:rn4871.c      ****         /* configure DMA mode */
 119:rn4871.c      ****         dma_circulation_disable(DMA0, DMA_CH4);
 120:rn4871.c      ****         /* enable DMA channel4 */
 121:rn4871.c      ****         dma_channel_enable(DMA0, DMA_CH4);
 122:rn4871.c      ****         return i;
 123:rn4871.c      ****     }
 124:rn4871.c      ****     return 0;
 365              		.loc 1 124 12
 366 0010 0144     		li	s0,0
  96:rn4871.c      ****     {
 367              		.loc 1 96 7
 368 0012 C1CF     		beq	a5,zero,.L11
 369 0014 93040700 		addi	s1,a4,%lo(.LANCHOR0)
 370              	.LBB10:
  98:rn4871.c      ****         for(; i < LIO_BT_BUFFER_SIZE && rx_dma_buffer[i] != 0 && i < size - 1; i++){
 371              		.loc 1 98 13
 372 0018 8147     		li	a5,0
 373              	.LBE10:
  96:rn4871.c      ****     {
 374              		.loc 1 96 7
 375 001a 13070700 		addi	a4,a4,%lo(.LANCHOR0)
 376              	.LBB11:
  99:rn4871.c      ****             buffer[i] = rx_dma_buffer[i];
 377              		.loc 1 99 75
 378 001e FD15     		addi	a1,a1,-1
 379              	.LVL36:
  99:rn4871.c      ****             buffer[i] = rx_dma_buffer[i];
 380              		.loc 1 99 9
 381 0020 13060040 		li	a2,1024
 382              	.L13:
 383              	.LVL37:
  99:rn4871.c      ****             buffer[i] = rx_dma_buffer[i];
 384              		.loc 1 99 54 discriminator 2
 385 0024 83460700 		lbu	a3,0(a4)
  99:rn4871.c      ****             buffer[i] = rx_dma_buffer[i];
 386              		.loc 1 99 38 discriminator 2
 387 0028 89CE     		beq	a3,zero,.L14
  99:rn4871.c      ****             buffer[i] = rx_dma_buffer[i];
 388              		.loc 1 99 63 discriminator 3
 389 002a 63FCB700 		bleu	a1,a5,.L14
 100:rn4871.c      ****             rx_dma_buffer[i] = 0;
 390              		.loc 1 100 13 is_stmt 1 discriminator 4
 100:rn4871.c      ****             rx_dma_buffer[i] = 0;
 391              		.loc 1 100 23 is_stmt 0 discriminator 4
 392 002e 3308F500 		add	a6,a0,a5
GAS LISTING /var/folders/yy/83vjwp7d53j56dbzj8_jnpcr0000gn/T//ccMxkhX3.s 			page 11


 393 0032 2300D800 		sb	a3,0(a6)
 101:rn4871.c      ****         }
 394              		.loc 1 101 13 is_stmt 1 discriminator 4
 101:rn4871.c      ****         }
 395              		.loc 1 101 30 is_stmt 0 discriminator 4
 396 0036 23000700 		sb	zero,0(a4)
  99:rn4871.c      ****             buffer[i] = rx_dma_buffer[i];
 397              		.loc 1 99 81 discriminator 4
 398 003a 8507     		addi	a5,a5,1
 399              	.LVL38:
 400 003c 0507     		addi	a4,a4,1
  99:rn4871.c      ****             buffer[i] = rx_dma_buffer[i];
 401              		.loc 1 99 9 discriminator 4
 402 003e E393C7FE 		bne	a5,a2,.L13
 403              	.L14:
 103:rn4871.c      **** 
 404              		.loc 1 103 9 is_stmt 1
 103:rn4871.c      **** 
 405              		.loc 1 103 19 is_stmt 0
 406 0042 3E95     		add	a0,a0,a5
 407              	.LVL39:
 408 0044 23000500 		sb	zero,0(a0)
 105:rn4871.c      **** 
 409              		.loc 1 105 9 is_stmt 1
 107:rn4871.c      ****         dma_init_struct.direction = DMA_PERIPHERAL_TO_MEMORY;
 410              		.loc 1 107 9
 411 0048 9145     		li	a1,4
 412              	.LVL40:
 413 004a 37050240 		li	a0,1073872896
 103:rn4871.c      **** 
 414              		.loc 1 103 15 is_stmt 0
 415 004e 3E84     		mv	s0,a5
 107:rn4871.c      ****         dma_init_struct.direction = DMA_PERIPHERAL_TO_MEMORY;
 416              		.loc 1 107 9
 417 0050 97000000 		call	dma_deinit
 417      E7800000 
 418              	.LVL41:
 108:rn4871.c      ****         dma_init_struct.memory_addr = (uint32_t)rx_dma_buffer;
 419              		.loc 1 108 9 is_stmt 1
 109:rn4871.c      ****         dma_init_struct.memory_inc = DMA_MEMORY_INCREASE_ENABLE;
 420              		.loc 1 109 9
 113:rn4871.c      ****         dma_init_struct.periph_inc = DMA_PERIPH_INCREASE_DISABLE;
 421              		.loc 1 113 37 is_stmt 0
 422 0058 B7470140 		li	a5,1073823744
 423 005c 93874780 		addi	a5,a5,-2044
 424 0060 3EC2     		sw	a5,4(sp)
 112:rn4871.c      ****         dma_init_struct.periph_addr = (uint32_t)&USART_DATA(USART0);
 425              		.loc 1 112 32
 426 0062 93070040 		li	a5,1024
 427 0066 3ECA     		sw	a5,20(sp)
 116:rn4871.c      ****         dma_init(DMA0, DMA_CH4, &dma_init_struct);
 428              		.loc 1 116 34
 429 0068 8D67     		li	a5,12288
 430 006a 3ECC     		sw	a5,24(sp)
 117:rn4871.c      ****         /* configure DMA mode */
 431              		.loc 1 117 9
 432 006c 5000     		addi	a2,sp,4
GAS LISTING /var/folders/yy/83vjwp7d53j56dbzj8_jnpcr0000gn/T//ccMxkhX3.s 			page 12


 114:rn4871.c      ****         dma_init_struct.periph_width = DMA_PERIPHERAL_WIDTH_8BIT;
 433              		.loc 1 114 36
 434 006e 93070010 		li	a5,256
 117:rn4871.c      ****         /* configure DMA mode */
 435              		.loc 1 117 9
 436 0072 9145     		li	a1,4
 437 0074 37050240 		li	a0,1073872896
 114:rn4871.c      ****         dma_init_struct.periph_width = DMA_PERIPHERAL_WIDTH_8BIT;
 438              		.loc 1 114 36
 439 0078 231EF100 		sh	a5,28(sp)
 109:rn4871.c      ****         dma_init_struct.memory_inc = DMA_MEMORY_INCREASE_ENABLE;
 440              		.loc 1 109 37
 441 007c 26C6     		sw	s1,12(sp)
 110:rn4871.c      ****         dma_init_struct.memory_width = DMA_MEMORY_WIDTH_8BIT;
 442              		.loc 1 110 9 is_stmt 1
 111:rn4871.c      ****         dma_init_struct.number = LIO_BT_BUFFER_SIZE;
 443              		.loc 1 111 9
 112:rn4871.c      ****         dma_init_struct.periph_addr = (uint32_t)&USART_DATA(USART0);
 444              		.loc 1 112 9
 113:rn4871.c      ****         dma_init_struct.periph_inc = DMA_PERIPH_INCREASE_DISABLE;
 445              		.loc 1 113 9
 114:rn4871.c      ****         dma_init_struct.periph_width = DMA_PERIPHERAL_WIDTH_8BIT;
 446              		.loc 1 114 9
 115:rn4871.c      ****         dma_init_struct.priority = DMA_PRIORITY_ULTRA_HIGH;
 447              		.loc 1 115 9
 115:rn4871.c      ****         dma_init_struct.priority = DMA_PRIORITY_ULTRA_HIGH;
 448              		.loc 1 115 38 is_stmt 0
 449 007e 02C4     		sw	zero,8(sp)
 116:rn4871.c      ****         dma_init(DMA0, DMA_CH4, &dma_init_struct);
 450              		.loc 1 116 9 is_stmt 1
 111:rn4871.c      ****         dma_init_struct.number = LIO_BT_BUFFER_SIZE;
 451              		.loc 1 111 38 is_stmt 0
 452 0080 02C8     		sw	zero,16(sp)
 108:rn4871.c      ****         dma_init_struct.memory_addr = (uint32_t)rx_dma_buffer;
 453              		.loc 1 108 35
 454 0082 230F0100 		sb	zero,30(sp)
 117:rn4871.c      ****         /* configure DMA mode */
 455              		.loc 1 117 9 is_stmt 1
 456 0086 97000000 		call	dma_init
 456      E7800000 
 457              	.LVL42:
 119:rn4871.c      ****         /* enable DMA channel4 */
 458              		.loc 1 119 9
 459 008e 9145     		li	a1,4
 460 0090 37050240 		li	a0,1073872896
 461 0094 97000000 		call	dma_circulation_disable
 461      E7800000 
 462              	.LVL43:
 121:rn4871.c      ****         return i;
 463              		.loc 1 121 9
 464 009c 9145     		li	a1,4
 465 009e 37050240 		li	a0,1073872896
 466 00a2 97000000 		call	dma_channel_enable
 466      E7800000 
 467              	.LVL44:
 122:rn4871.c      ****     }
 468              		.loc 1 122 9
GAS LISTING /var/folders/yy/83vjwp7d53j56dbzj8_jnpcr0000gn/T//ccMxkhX3.s 			page 13


 469              	.L11:
 470              	.LBE11:
 125:rn4871.c      **** }
 471              		.loc 1 125 1 is_stmt 0
 472 00aa 2285     		mv	a0,s0
 473 00ac B250     		lw	ra,44(sp)
 474              		.cfi_restore 1
 475 00ae 2254     		lw	s0,40(sp)
 476              		.cfi_restore 8
 477 00b0 9254     		lw	s1,36(sp)
 478              		.cfi_restore 9
 479 00b2 4561     		addi	sp,sp,48
 480              	.LCFI8:
 481              		.cfi_def_cfa_offset 0
 482 00b4 8280     		jr	ra
 483              		.cfi_endproc
 484              	.LFE11:
 486              		.section	.text.lio_send_bt,"ax",@progbits
 487              		.align	1
 488              		.globl	lio_send_bt
 490              	lio_send_bt:
 491              	.LFB12:
 126:rn4871.c      **** 
 127:rn4871.c      **** size_t lio_send_bt(char* message, uint32_t size){
 492              		.loc 1 127 49 is_stmt 1
 493              		.cfi_startproc
 494              	.LVL45:
 128:rn4871.c      ****     for(int i = 0; i < size && i < LIO_BT_BUFFER_SIZE; i++) {
 495              		.loc 1 128 5
 496              	.LBB12:
 497              		.loc 1 128 9
 498              	.LBE12:
 127:rn4871.c      ****     for(int i = 0; i < size && i < LIO_BT_BUFFER_SIZE; i++) {
 499              		.loc 1 127 49 is_stmt 0
 500 0000 7971     		addi	sp,sp,-48
 501              	.LCFI9:
 502              		.cfi_def_cfa_offset 48
 503 0002 22D4     		sw	s0,40(sp)
 504              		.cfi_offset 8, -8
 505 0004 37040000 		lui	s0,%hi(.LANCHOR1)
 506 0008 26D2     		sw	s1,36(sp)
 507 000a 06D6     		sw	ra,44(sp)
 508              		.cfi_offset 9, -12
 509              		.cfi_offset 1, -4
 127:rn4871.c      ****     for(int i = 0; i < size && i < LIO_BT_BUFFER_SIZE; i++) {
 510              		.loc 1 127 49
 511 000c AE84     		mv	s1,a1
 512              	.LBB13:
 513              		.loc 1 128 13
 514 000e 8147     		li	a5,0
 515 0010 13040400 		addi	s0,s0,%lo(.LANCHOR1)
 516              		.loc 1 128 29
 517 0014 13070040 		li	a4,1024
 518              	.LVL46:
 519              	.L22:
 520              		.loc 1 128 5 discriminator 1
 521 0018 63849700 		beq	a5,s1,.L23
GAS LISTING /var/folders/yy/83vjwp7d53j56dbzj8_jnpcr0000gn/T//ccMxkhX3.s 			page 14


 522              		.loc 1 128 29 discriminator 3
 523 001c 6396E706 		bne	a5,a4,.L24
 524              	.L23:
 525              	.LBE13:
 129:rn4871.c      ****         tx_dma_buffer[i] = message[i];
 130:rn4871.c      ****     }
 131:rn4871.c      **** 
 132:rn4871.c      ****     dma_parameter_struct dma_init_struct;
 526              		.loc 1 132 5 is_stmt 1
 133:rn4871.c      ****     dma_deinit(DMA0, DMA_CH3);
 527              		.loc 1 133 5
 528 0020 8D45     		li	a1,3
 529              	.LVL47:
 530 0022 37050240 		li	a0,1073872896
 531              	.LVL48:
 532 0026 97000000 		call	dma_deinit
 532      E7800000 
 533              	.LVL49:
 134:rn4871.c      ****     dma_init_struct.direction = DMA_MEMORY_TO_PERIPHERAL;
 534              		.loc 1 134 5
 135:rn4871.c      ****     dma_init_struct.memory_addr = (uint32_t)tx_dma_buffer;
 535              		.loc 1 135 5
 136:rn4871.c      ****     dma_init_struct.memory_inc = DMA_MEMORY_INCREASE_ENABLE;
 137:rn4871.c      ****     dma_init_struct.memory_width = DMA_MEMORY_WIDTH_8BIT;
 138:rn4871.c      ****     dma_init_struct.number = size;
 139:rn4871.c      ****     dma_init_struct.periph_addr = (uint32_t)&USART_DATA(USART0);
 536              		.loc 1 139 33 is_stmt 0
 537 002e B7470140 		li	a5,1073823744
 538 0032 93874780 		addi	a5,a5,-2044
 539 0036 3EC2     		sw	a5,4(sp)
 140:rn4871.c      ****     dma_init_struct.periph_inc = DMA_PERIPH_INCREASE_DISABLE;
 141:rn4871.c      ****     dma_init_struct.periph_width = DMA_PERIPHERAL_WIDTH_8BIT;
 142:rn4871.c      ****     dma_init_struct.priority = DMA_PRIORITY_ULTRA_HIGH;
 540              		.loc 1 142 30
 541 0038 8D67     		li	a5,12288
 542 003a 3ECC     		sw	a5,24(sp)
 140:rn4871.c      ****     dma_init_struct.periph_inc = DMA_PERIPH_INCREASE_DISABLE;
 543              		.loc 1 140 32
 544 003c 93070010 		li	a5,256
 143:rn4871.c      ****     dma_init(DMA0, DMA_CH3, &dma_init_struct);
 545              		.loc 1 143 5
 546 0040 5000     		addi	a2,sp,4
 140:rn4871.c      ****     dma_init_struct.periph_inc = DMA_PERIPH_INCREASE_DISABLE;
 547              		.loc 1 140 32
 548 0042 231EF100 		sh	a5,28(sp)
 549              		.loc 1 143 5
 550 0046 8D45     		li	a1,3
 134:rn4871.c      ****     dma_init_struct.memory_addr = (uint32_t)tx_dma_buffer;
 551              		.loc 1 134 31
 552 0048 8547     		li	a5,1
 553              		.loc 1 143 5
 554 004a 37050240 		li	a0,1073872896
 134:rn4871.c      ****     dma_init_struct.memory_addr = (uint32_t)tx_dma_buffer;
 555              		.loc 1 134 31
 556 004e 230FF100 		sb	a5,30(sp)
 135:rn4871.c      ****     dma_init_struct.memory_inc = DMA_MEMORY_INCREASE_ENABLE;
 557              		.loc 1 135 33
GAS LISTING /var/folders/yy/83vjwp7d53j56dbzj8_jnpcr0000gn/T//ccMxkhX3.s 			page 15


 558 0052 22C6     		sw	s0,12(sp)
 136:rn4871.c      ****     dma_init_struct.memory_width = DMA_MEMORY_WIDTH_8BIT;
 559              		.loc 1 136 5 is_stmt 1
 137:rn4871.c      ****     dma_init_struct.number = size;
 560              		.loc 1 137 5
 138:rn4871.c      ****     dma_init_struct.periph_addr = (uint32_t)&USART_DATA(USART0);
 561              		.loc 1 138 28 is_stmt 0
 562 0054 26CA     		sw	s1,20(sp)
 137:rn4871.c      ****     dma_init_struct.number = size;
 563              		.loc 1 137 34
 564 0056 02C8     		sw	zero,16(sp)
 138:rn4871.c      ****     dma_init_struct.periph_addr = (uint32_t)&USART_DATA(USART0);
 565              		.loc 1 138 5 is_stmt 1
 139:rn4871.c      ****     dma_init_struct.periph_inc = DMA_PERIPH_INCREASE_DISABLE;
 566              		.loc 1 139 5
 140:rn4871.c      ****     dma_init_struct.periph_width = DMA_PERIPHERAL_WIDTH_8BIT;
 567              		.loc 1 140 5
 141:rn4871.c      ****     dma_init_struct.priority = DMA_PRIORITY_ULTRA_HIGH;
 568              		.loc 1 141 5
 141:rn4871.c      ****     dma_init_struct.priority = DMA_PRIORITY_ULTRA_HIGH;
 569              		.loc 1 141 34 is_stmt 0
 570 0058 02C4     		sw	zero,8(sp)
 142:rn4871.c      ****     dma_init(DMA0, DMA_CH3, &dma_init_struct);
 571              		.loc 1 142 5 is_stmt 1
 572              		.loc 1 143 5
 573 005a 97000000 		call	dma_init
 573      E7800000 
 574              	.LVL50:
 144:rn4871.c      ****     /* configure DMA mode */
 145:rn4871.c      ****     dma_circulation_disable(DMA0, DMA_CH3);
 575              		.loc 1 145 5
 576 0062 8D45     		li	a1,3
 577 0064 37050240 		li	a0,1073872896
 578 0068 97000000 		call	dma_circulation_disable
 578      E7800000 
 579              	.LVL51:
 146:rn4871.c      ****     /* enable DMA channel3 */
 147:rn4871.c      ****     dma_channel_enable(DMA0, DMA_CH3);
 580              		.loc 1 147 5
 581 0070 37050240 		li	a0,1073872896
 582 0074 8D45     		li	a1,3
 583 0076 97000000 		call	dma_channel_enable
 583      E7800000 
 584              	.LVL52:
 148:rn4871.c      **** }
 585              		.loc 1 148 1 is_stmt 0
 586 007e B250     		lw	ra,44(sp)
 587              		.cfi_remember_state
 588              		.cfi_restore 1
 589 0080 2254     		lw	s0,40(sp)
 590              		.cfi_restore 8
 591 0082 9254     		lw	s1,36(sp)
 592              		.cfi_restore 9
 593              	.LVL53:
 594 0084 4561     		addi	sp,sp,48
 595              	.LCFI10:
 596              		.cfi_def_cfa_offset 0
GAS LISTING /var/folders/yy/83vjwp7d53j56dbzj8_jnpcr0000gn/T//ccMxkhX3.s 			page 16


 597 0086 8280     		jr	ra
 598              	.LVL54:
 599              	.L24:
 600              	.LCFI11:
 601              		.cfi_restore_state
 602              	.LBB14:
 129:rn4871.c      ****     }
 603              		.loc 1 129 9 is_stmt 1 discriminator 4
 129:rn4871.c      ****     }
 604              		.loc 1 129 35 is_stmt 0 discriminator 4
 605 0088 B306F500 		add	a3,a0,a5
 606 008c 03C60600 		lbu	a2,0(a3)
 129:rn4871.c      ****     }
 607              		.loc 1 129 26 discriminator 4
 608 0090 B306F400 		add	a3,s0,a5
 128:rn4871.c      ****         tx_dma_buffer[i] = message[i];
 609              		.loc 1 128 57 discriminator 4
 610 0094 8507     		addi	a5,a5,1
 611              	.LVL55:
 129:rn4871.c      ****     }
 612              		.loc 1 129 26 discriminator 4
 613 0096 2380C600 		sb	a2,0(a3)
 614 009a BDBF     		j	.L22
 615              	.LBE14:
 616              		.cfi_endproc
 617              	.LFE12:
 619              		.section	.text.fuseStrings,"ax",@progbits
 620              		.align	1
 622              	fuseStrings:
 623              	.LFB13:
 149:rn4871.c      **** 
 150:rn4871.c      **** static int fuseStrings(char *str1, const char *str2) {
 624              		.loc 1 150 54 is_stmt 1
 625              		.cfi_startproc
 626              	.LVL56:
 151:rn4871.c      ****     char *start = str1;  // Save the starting position of str1
 627              		.loc 1 151 5
 152:rn4871.c      **** 
 153:rn4871.c      ****     // Find the end of the first string
 154:rn4871.c      ****     while (*str1 != '\0') {
 628              		.loc 1 154 5
 629              		.loc 1 154 11 is_stmt 0
 630 0000 AA87     		mv	a5,a0
 631              	.LVL57:
 632              	.L27:
 633 0002 03C70700 		lbu	a4,0(a5)
 634 0006 09EB     		bne	a4,zero,.L28
 635              	.L29:
 155:rn4871.c      ****         str1++;
 156:rn4871.c      ****     }
 157:rn4871.c      ****     // Copy characters from the second string to the end of the first string
 158:rn4871.c      ****     while (*str2 != '\0') {
 636              		.loc 1 158 12
 637 0008 03C70500 		lbu	a4,0(a1)
 638              		.loc 1 158 11
 639 000c 01EB     		bne	a4,zero,.L30
 159:rn4871.c      ****         *str1 = *str2;
GAS LISTING /var/folders/yy/83vjwp7d53j56dbzj8_jnpcr0000gn/T//ccMxkhX3.s 			page 17


 160:rn4871.c      ****         str1++;
 161:rn4871.c      ****         str2++;
 162:rn4871.c      ****     }
 163:rn4871.c      ****     // Add the null terminator to mark the end of the concatenated string
 164:rn4871.c      ****     *str1 = '\0';
 640              		.loc 1 164 5 is_stmt 1
 641              		.loc 1 164 11 is_stmt 0
 642 000e 23800700 		sb	zero,0(a5)
 165:rn4871.c      ****     // Calculate and return the length of the concatenated string
 166:rn4871.c      ****     return str1 - start;
 643              		.loc 1 166 5 is_stmt 1
 167:rn4871.c      **** }
 644              		.loc 1 167 1 is_stmt 0
 645 0012 3385A740 		sub	a0,a5,a0
 646              	.LVL58:
 647 0016 8280     		ret
 648              	.LVL59:
 649              	.L28:
 155:rn4871.c      ****     }
 650              		.loc 1 155 9 is_stmt 1
 155:rn4871.c      ****     }
 651              		.loc 1 155 13 is_stmt 0
 652 0018 8507     		addi	a5,a5,1
 653              	.LVL60:
 654 001a E5B7     		j	.L27
 655              	.L30:
 159:rn4871.c      ****         str1++;
 656              		.loc 1 159 9 is_stmt 1
 159:rn4871.c      ****         str1++;
 657              		.loc 1 159 15 is_stmt 0
 658 001c 2380E700 		sb	a4,0(a5)
 160:rn4871.c      ****         str2++;
 659              		.loc 1 160 9 is_stmt 1
 161:rn4871.c      ****     }
 660              		.loc 1 161 13 is_stmt 0
 661 0020 8505     		addi	a1,a1,1
 662              	.LVL61:
 160:rn4871.c      ****         str2++;
 663              		.loc 1 160 13
 664 0022 8507     		addi	a5,a5,1
 665              	.LVL62:
 161:rn4871.c      ****     }
 666              		.loc 1 161 9 is_stmt 1
 667 0024 D5B7     		j	.L29
 668              		.cfi_endproc
 669              	.LFE13:
 671              		.section	.text.init_bluetooth,"ax",@progbits
 672              		.align	1
 673              		.globl	init_bluetooth
 675              	init_bluetooth:
 676              	.LFB14:
 168:rn4871.c      **** 
 169:rn4871.c      **** void init_bluetooth(init_ble_struct init_struct){
 677              		.loc 1 169 49
 678              		.cfi_startproc
 170:rn4871.c      ****     UUID_parser(init_struct.service_uuid);
 679              		.loc 1 170 5
GAS LISTING /var/folders/yy/83vjwp7d53j56dbzj8_jnpcr0000gn/T//ccMxkhX3.s 			page 18


 680              	.LVL63:
 681              	.LBB15:
 682              	.LBB16:
   9:rn4871.c      ****         return; // Handle invalid input
 683              		.loc 1 9 5
 684              	.LBE16:
 685              	.LBE15:
 169:rn4871.c      ****     UUID_parser(init_struct.service_uuid);
 686              		.loc 1 169 49 is_stmt 0
 687 0000 7171     		addi	sp,sp,-176
 688              	.LCFI12:
 689              		.cfi_def_cfa_offset 176
 690 0002 4AD1     		sw	s2,160(sp)
 691              		.cfi_offset 18, -16
 692              	.LBB20:
 693              	.LBB17:
 694 0004 13095501 		addi	s2,a0,21
 695              	.LVL64:
 696              	.LBE17:
 697              	.LBE20:
 698 0008 22D5     		sw	s0,168(sp)
 699              		.cfi_offset 8, -8
 700 000a 2A84     		mv	s0,a0
 701              	.LBB21:
 702              	.LBB18:
 703 000c 4A85     		mv	a0,s2
 704              	.LBE18:
 705              	.LBE21:
 706 000e 06D7     		sw	ra,172(sp)
 707 0010 26D3     		sw	s1,164(sp)
 708 0012 4ECF     		sw	s3,156(sp)
 709 0014 52CD     		sw	s4,152(sp)
 710 0016 56CB     		sw	s5,148(sp)
 711 0018 5AC9     		sw	s6,144(sp)
 712 001a 5EC7     		sw	s7,140(sp)
 713              		.cfi_offset 1, -4
 714              		.cfi_offset 9, -12
 715              		.cfi_offset 19, -20
 716              		.cfi_offset 20, -24
 717              		.cfi_offset 21, -28
 718              		.cfi_offset 22, -32
 719              		.cfi_offset 23, -36
 720              	.LBB22:
 721              	.LBB23:
 722 001c 130A5405 		addi	s4,s0,85
 723              	.LBE23:
 724              	.LBE22:
 725              	.LBB25:
 726              	.LBB19:
 727 0020 97000000 		call	UUID_parser.part.0
 727      E7800000 
 728              	.LVL65:
 729              	.LBE19:
 730              	.LBE25:
 171:rn4871.c      ****     UUID_parser(init_struct.tx_characteristic_uuid);
 731              		.loc 1 171 5 is_stmt 1
 732              	.LBB26:
GAS LISTING /var/folders/yy/83vjwp7d53j56dbzj8_jnpcr0000gn/T//ccMxkhX3.s 			page 19


 733              	.LBB24:
   9:rn4871.c      ****         return; // Handle invalid input
 734              		.loc 1 9 5
 735 0028 5285     		mv	a0,s4
 736 002a 97000000 		call	UUID_parser.part.0
 736      E7800000 
 737              	.LVL66:
 738              	.LBE24:
 739              	.LBE26:
 172:rn4871.c      ****     UUID_parser(init_struct.rx_characteristic_uuid);
 740              		.loc 1 172 5
 741              	.LBB27:
 742              	.LBB28:
   9:rn4871.c      ****         return; // Handle invalid input
 743              		.loc 1 9 5
 744 0032 930A5409 		addi	s5,s0,149
 745              	.LVL67:
 746 0036 5685     		mv	a0,s5
 747 0038 97000000 		call	UUID_parser.part.0
 747      E7800000 
 748              	.LVL68:
 749              	.LBE28:
 750              	.LBE27:
 173:rn4871.c      ****     char flipped_uuid[64];
 751              		.loc 1 173 5
 174:rn4871.c      ****     UUID_Flipper(init_struct.service_uuid, flipped_uuid);
 752              		.loc 1 174 5
 753 0040 8A85     		mv	a1,sp
 754 0042 4A85     		mv	a0,s2
 755 0044 97000000 		call	UUID_Flipper
 755      E7800000 
 756              	.LVL69:
 175:rn4871.c      ****     printf("\nThis is the flipped uuid: %s\n", flipped_uuid);
 757              		.loc 1 175 5
 758 004c 37050000 		lui	a0,%hi(.LANCHOR2)
 759 0050 8A85     		mv	a1,sp
 760 0052 930B0500 		addi	s7,a0,%lo(.LANCHOR2)
 761 0056 13050500 		addi	a0,a0,%lo(.LANCHOR2)
 762 005a 97000000 		call	printf
 762      E7800000 
 763              	.LVL70:
 176:rn4871.c      ****     fflush(0);
 764              		.loc 1 176 5
 765 0062 0145     		li	a0,0
 766 0064 97000000 		call	fflush
 766      E7800000 
 767              	.LVL71:
 177:rn4871.c      **** 
 178:rn4871.c      ****     char sendBuf[64] = {'\0'};
 768              		.loc 1 178 5
 769              		.loc 1 178 10 is_stmt 0
 770 006c 13060004 		li	a2,64
 771 0070 8145     		li	a1,0
 772 0072 8800     		addi	a0,sp,64
 773 0074 97000000 		call	memset
 773      E7800000 
 774              	.LVL72:
GAS LISTING /var/folders/yy/83vjwp7d53j56dbzj8_jnpcr0000gn/T//ccMxkhX3.s 			page 20


 179:rn4871.c      ****     int str_len = 0;
 775              		.loc 1 179 5 is_stmt 1
 180:rn4871.c      **** 
 181:rn4871.c      ****     enter_command_mode();
 776              		.loc 1 181 5
 777 007c 97000000 		call	enter_command_mode
 777      E7800000 
 778              	.LVL73:
 182:rn4871.c      ****     usb_delay_1ms(400);
 779              		.loc 1 182 5
 780 0084 13050019 		li	a0,400
 781 0088 97000000 		call	usb_delay_1ms
 781      E7800000 
 782              	.LVL74:
 183:rn4871.c      ****     /************* Complete factory reset ****************/
 184:rn4871.c      ****     sendBuf[0] = '\0';
 783              		.loc 1 184 5
 185:rn4871.c      ****     strcpy(sendBuf, "SF,1\r");
 784              		.loc 1 185 5 is_stmt 0
 785 0090 B7050000 		lui	a1,%hi(.LC1)
 786 0094 93850500 		addi	a1,a1,%lo(.LC1)
 787 0098 8800     		addi	a0,sp,64
 184:rn4871.c      ****     strcpy(sendBuf, "SF,1\r");
 788              		.loc 1 184 16
 789 009a 23000104 		sb	zero,64(sp)
 790              		.loc 1 185 5 is_stmt 1
 791 009e 97000000 		call	strcpy
 791      E7800000 
 792              	.LVL75:
 186:rn4871.c      **** 
 187:rn4871.c      ****     lio_send_bt(sendBuf, 5);
 793              		.loc 1 187 5
 794 00a6 9545     		li	a1,5
 795 00a8 8800     		addi	a0,sp,64
 796 00aa 97000000 		call	lio_send_bt
 796      E7800000 
 797              	.LVL76:
 188:rn4871.c      ****     usb_delay_1ms(1000);
 798              		.loc 1 188 5
 799 00b2 1305803E 		li	a0,1000
 800 00b6 97000000 		call	usb_delay_1ms
 800      E7800000 
 801              	.LVL77:
 189:rn4871.c      ****     /************* Complete factory reset ****************/
 190:rn4871.c      **** 
 191:rn4871.c      ****     enter_command_mode();
 802              		.loc 1 191 5
 803 00be 97000000 		call	enter_command_mode
 803      E7800000 
 804              	.LVL78:
 192:rn4871.c      ****     usb_delay_1ms(400);
 805              		.loc 1 192 5
 806 00c6 13050019 		li	a0,400
 807 00ca 97000000 		call	usb_delay_1ms
 807      E7800000 
 808              	.LVL79:
 193:rn4871.c      **** 
GAS LISTING /var/folders/yy/83vjwp7d53j56dbzj8_jnpcr0000gn/T//ccMxkhX3.s 			page 21


 194:rn4871.c      ****     
 195:rn4871.c      **** 
 196:rn4871.c      **** 
 197:rn4871.c      **** 
 198:rn4871.c      ****     /************* Sets name ****************/
 199:rn4871.c      ****     sendBuf[0] = '\0';
 809              		.loc 1 199 5
 200:rn4871.c      ****     strcpy(sendBuf, "SN,");
 810              		.loc 1 200 5 is_stmt 0
 811 00d2 B7050000 		lui	a1,%hi(.LC2)
 812 00d6 93850500 		addi	a1,a1,%lo(.LC2)
 813 00da 8800     		addi	a0,sp,64
 199:rn4871.c      ****     strcpy(sendBuf, "SN,");
 814              		.loc 1 199 16
 815 00dc 23000104 		sb	zero,64(sp)
 816              		.loc 1 200 5 is_stmt 1
 817 00e0 97000000 		call	strcpy
 817      E7800000 
 818              	.LVL80:
 201:rn4871.c      ****     str_len = fuseStrings(sendBuf,init_struct.name);
 819              		.loc 1 201 5
 820              		.loc 1 201 15 is_stmt 0
 821 00e8 A285     		mv	a1,s0
 822 00ea 8800     		addi	a0,sp,64
 202:rn4871.c      ****     str_len = fuseStrings(sendBuf, "\r");
 823              		.loc 1 202 15
 824 00ec B7040000 		lui	s1,%hi(.LC3)
 201:rn4871.c      ****     str_len = fuseStrings(sendBuf,init_struct.name);
 825              		.loc 1 201 15
 826 00f0 97000000 		call	fuseStrings
 826      E7800000 
 827              	.LVL81:
 828              		.loc 1 202 5 is_stmt 1
 829              		.loc 1 202 15 is_stmt 0
 830 00f8 93850400 		addi	a1,s1,%lo(.LC3)
 831 00fc 8800     		addi	a0,sp,64
 832 00fe 97000000 		call	fuseStrings
 832      E7800000 
 833              	.LVL82:
 203:rn4871.c      ****     lio_send_bt(sendBuf, str_len);
 834              		.loc 1 203 5 is_stmt 1
 835 0106 AA85     		mv	a1,a0
 836 0108 8800     		addi	a0,sp,64
 837              	.LVL83:
 838 010a 97000000 		call	lio_send_bt
 838      E7800000 
 839              	.LVL84:
 204:rn4871.c      ****     usb_delay_1ms(400);
 840              		.loc 1 204 5
 841 0112 13050019 		li	a0,400
 842 0116 97000000 		call	usb_delay_1ms
 842      E7800000 
 843              	.LVL85:
 205:rn4871.c      ****     /************* Sets name ****************/
 206:rn4871.c      ****     
 207:rn4871.c      ****     /************* Disable low power mode ****************/
 208:rn4871.c      ****     sendBuf[0] = '\0';
GAS LISTING /var/folders/yy/83vjwp7d53j56dbzj8_jnpcr0000gn/T//ccMxkhX3.s 			page 22


 844              		.loc 1 208 5
 209:rn4871.c      ****     strcpy(sendBuf, "S0,0\r");
 845              		.loc 1 209 5 is_stmt 0
 846 011e B7050000 		lui	a1,%hi(.LC4)
 847 0122 93850500 		addi	a1,a1,%lo(.LC4)
 848 0126 8800     		addi	a0,sp,64
 208:rn4871.c      ****     strcpy(sendBuf, "S0,0\r");
 849              		.loc 1 208 16
 850 0128 23000104 		sb	zero,64(sp)
 851              		.loc 1 209 5 is_stmt 1
 852 012c 97000000 		call	strcpy
 852      E7800000 
 853              	.LVL86:
 210:rn4871.c      ****     lio_send_bt(sendBuf, 5);
 854              		.loc 1 210 5
 855 0134 9545     		li	a1,5
 856 0136 8800     		addi	a0,sp,64
 857 0138 97000000 		call	lio_send_bt
 857      E7800000 
 858              	.LVL87:
 211:rn4871.c      ****     usb_delay_1ms(400);
 859              		.loc 1 211 5
 860 0140 13050019 		li	a0,400
 861 0144 97000000 		call	usb_delay_1ms
 861      E7800000 
 862              	.LVL88:
 212:rn4871.c      ****     /************* Disable low power mode ****************/
 213:rn4871.c      **** 
 214:rn4871.c      **** 
 215:rn4871.c      ****     /************* Remove all Services and Characteristics ****************/
 216:rn4871.c      ****     sendBuf[0]= '\0';
 863              		.loc 1 216 5
 217:rn4871.c      ****     strcpy(sendBuf,"PZ\r");
 864              		.loc 1 217 5 is_stmt 0
 865 014c B7050000 		lui	a1,%hi(.LC5)
 866 0150 93850500 		addi	a1,a1,%lo(.LC5)
 867 0154 8800     		addi	a0,sp,64
 216:rn4871.c      ****     strcpy(sendBuf,"PZ\r");
 868              		.loc 1 216 15
 869 0156 23000104 		sb	zero,64(sp)
 870              		.loc 1 217 5 is_stmt 1
 871 015a 97000000 		call	strcpy
 871      E7800000 
 872              	.LVL89:
 218:rn4871.c      ****     lio_send_bt(sendBuf,3);
 873              		.loc 1 218 5
 874 0162 8D45     		li	a1,3
 875 0164 8800     		addi	a0,sp,64
 876 0166 97000000 		call	lio_send_bt
 876      E7800000 
 877              	.LVL90:
 219:rn4871.c      ****     usb_delay_1ms(400);
 878              		.loc 1 219 5
 879 016e 13050019 		li	a0,400
 880 0172 97000000 		call	usb_delay_1ms
 880      E7800000 
 881              	.LVL91:
GAS LISTING /var/folders/yy/83vjwp7d53j56dbzj8_jnpcr0000gn/T//ccMxkhX3.s 			page 23


 220:rn4871.c      ****     /************* Remove all Services and Characteristics ****************/    
 221:rn4871.c      **** 
 222:rn4871.c      ****     /************* Reboot ****************/
 223:rn4871.c      ****     sendBuf[0]= '\0';
 882              		.loc 1 223 5
 224:rn4871.c      ****     strcpy(sendBuf,"R,1\r");
 883              		.loc 1 224 5 is_stmt 0
 884 017a B7090000 		lui	s3,%hi(.LC6)
 885 017e 93850900 		addi	a1,s3,%lo(.LC6)
 886 0182 8800     		addi	a0,sp,64
 223:rn4871.c      ****     strcpy(sendBuf,"R,1\r");
 887              		.loc 1 223 15
 888 0184 23000104 		sb	zero,64(sp)
 889              		.loc 1 224 5 is_stmt 1
 890 0188 97000000 		call	strcpy
 890      E7800000 
 891              	.LVL92:
 225:rn4871.c      ****     lio_send_bt(sendBuf,4);
 892              		.loc 1 225 5
 893 0190 9145     		li	a1,4
 894 0192 8800     		addi	a0,sp,64
 895 0194 97000000 		call	lio_send_bt
 895      E7800000 
 896              	.LVL93:
 226:rn4871.c      ****     usb_delay_1ms(1000);
 897              		.loc 1 226 5
 898 019c 1305803E 		li	a0,1000
 899 01a0 97000000 		call	usb_delay_1ms
 899      E7800000 
 900              	.LVL94:
 227:rn4871.c      ****     /************* Reboot ****************/
 228:rn4871.c      **** 
 229:rn4871.c      ****     enter_command_mode();
 901              		.loc 1 229 5
 902 01a8 97000000 		call	enter_command_mode
 902      E7800000 
 903              	.LVL95:
 230:rn4871.c      ****     usb_delay_1ms(400);
 904              		.loc 1 230 5
 905 01b0 13050019 		li	a0,400
 906 01b4 97000000 		call	usb_delay_1ms
 906      E7800000 
 907              	.LVL96:
 231:rn4871.c      **** 
 232:rn4871.c      ****     /************* Create service ****************/
 233:rn4871.c      ****     sendBuf[0] = '\0';
 908              		.loc 1 233 5
 234:rn4871.c      ****     strcpy(sendBuf, "PS,");
 909              		.loc 1 234 5 is_stmt 0
 910 01bc B7050000 		lui	a1,%hi(.LC7)
 911 01c0 93850500 		addi	a1,a1,%lo(.LC7)
 912 01c4 8800     		addi	a0,sp,64
 233:rn4871.c      ****     strcpy(sendBuf, "PS,");
 913              		.loc 1 233 16
 914 01c6 23000104 		sb	zero,64(sp)
 915              		.loc 1 234 5 is_stmt 1
 916 01ca 97000000 		call	strcpy
GAS LISTING /var/folders/yy/83vjwp7d53j56dbzj8_jnpcr0000gn/T//ccMxkhX3.s 			page 24


 916      E7800000 
 917              	.LVL97:
 235:rn4871.c      ****     str_len = fuseStrings(sendBuf, init_struct.service_uuid);
 918              		.loc 1 235 5
 919              		.loc 1 235 15 is_stmt 0
 920 01d2 CA85     		mv	a1,s2
 921 01d4 8800     		addi	a0,sp,64
 922 01d6 97000000 		call	fuseStrings
 922      E7800000 
 923              	.LVL98:
 236:rn4871.c      ****     str_len = fuseStrings(sendBuf, "\r");
 924              		.loc 1 236 5 is_stmt 1
 925              		.loc 1 236 15 is_stmt 0
 926 01de 93850400 		addi	a1,s1,%lo(.LC3)
 927 01e2 8800     		addi	a0,sp,64
 928 01e4 97000000 		call	fuseStrings
 928      E7800000 
 929              	.LVL99:
 237:rn4871.c      ****     lio_send_bt(sendBuf, str_len);
 930              		.loc 1 237 5 is_stmt 1
 931 01ec AA85     		mv	a1,a0
 932 01ee 8800     		addi	a0,sp,64
 933              	.LVL100:
 934 01f0 97000000 		call	lio_send_bt
 934      E7800000 
 935              	.LVL101:
 238:rn4871.c      ****     usb_delay_1ms(400);
 936              		.loc 1 238 5
 937 01f8 13050019 		li	a0,400
 938 01fc 97000000 		call	usb_delay_1ms
 938      E7800000 
 939              	.LVL102:
 239:rn4871.c      ****     /************* Create service ****************/
 240:rn4871.c      **** 
 241:rn4871.c      ****     /************* Create characteristic ****************/
 242:rn4871.c      ****     sendBuf[0] = '\0';
 940              		.loc 1 242 5
 243:rn4871.c      ****     strcpy(sendBuf, "PC,");
 941              		.loc 1 243 5 is_stmt 0
 942 0204 370B0000 		lui	s6,%hi(.LC8)
 943 0208 93050B00 		addi	a1,s6,%lo(.LC8)
 944 020c 8800     		addi	a0,sp,64
 242:rn4871.c      ****     strcpy(sendBuf, "PC,");
 945              		.loc 1 242 16
 946 020e 23000104 		sb	zero,64(sp)
 947              		.loc 1 243 5 is_stmt 1
 948 0212 97000000 		call	strcpy
 948      E7800000 
 949              	.LVL103:
 244:rn4871.c      ****     str_len = fuseStrings(sendBuf, init_struct.tx_characteristic_uuid);
 950              		.loc 1 244 5
 951              		.loc 1 244 15 is_stmt 0
 952 021a D285     		mv	a1,s4
 953 021c 8800     		addi	a0,sp,64
 954 021e 97000000 		call	fuseStrings
 954      E7800000 
 955              	.LVL104:
GAS LISTING /var/folders/yy/83vjwp7d53j56dbzj8_jnpcr0000gn/T//ccMxkhX3.s 			page 25


 245:rn4871.c      ****     str_len = fuseStrings(sendBuf, ",");
 956              		.loc 1 245 5 is_stmt 1
 957              		.loc 1 245 15 is_stmt 0
 958 0226 37090000 		lui	s2,%hi(.LC9)
 959 022a 93050900 		addi	a1,s2,%lo(.LC9)
 960 022e 8800     		addi	a0,sp,64
 961 0230 97000000 		call	fuseStrings
 961      E7800000 
 962              	.LVL105:
 246:rn4871.c      ****     str_len = fuseStrings(sendBuf, init_struct.tx_properties);
 963              		.loc 1 246 5 is_stmt 1
 964              		.loc 1 246 15 is_stmt 0
 965 0238 9305540D 		addi	a1,s0,213
 966 023c 8800     		addi	a0,sp,64
 967 023e 97000000 		call	fuseStrings
 967      E7800000 
 968              	.LVL106:
 247:rn4871.c      ****     str_len = fuseStrings(sendBuf, ",");
 969              		.loc 1 247 5 is_stmt 1
 970              		.loc 1 247 15 is_stmt 0
 971 0246 93050900 		addi	a1,s2,%lo(.LC9)
 972 024a 8800     		addi	a0,sp,64
 973 024c 97000000 		call	fuseStrings
 973      E7800000 
 974              	.LVL107:
 248:rn4871.c      ****     str_len = fuseStrings(sendBuf, init_struct.message_size);
 975              		.loc 1 248 5 is_stmt 1
 976              		.loc 1 248 15 is_stmt 0
 977 0254 130AF40D 		addi	s4,s0,223
 978 0258 D285     		mv	a1,s4
 979 025a 8800     		addi	a0,sp,64
 980 025c 97000000 		call	fuseStrings
 980      E7800000 
 981              	.LVL108:
 249:rn4871.c      ****     str_len = fuseStrings(sendBuf, "\r");
 982              		.loc 1 249 5 is_stmt 1
 983              		.loc 1 249 15 is_stmt 0
 984 0264 93850400 		addi	a1,s1,%lo(.LC3)
 985 0268 8800     		addi	a0,sp,64
 986 026a 97000000 		call	fuseStrings
 986      E7800000 
 987              	.LVL109:
 250:rn4871.c      ****     lio_send_bt(sendBuf, str_len);
 988              		.loc 1 250 5 is_stmt 1
 989 0272 AA85     		mv	a1,a0
 990 0274 8800     		addi	a0,sp,64
 991              	.LVL110:
 992 0276 97000000 		call	lio_send_bt
 992      E7800000 
 993              	.LVL111:
 251:rn4871.c      ****     usb_delay_1ms(400);
 994              		.loc 1 251 5
 995 027e 13050019 		li	a0,400
 996 0282 97000000 		call	usb_delay_1ms
 996      E7800000 
 997              	.LVL112:
 252:rn4871.c      ****     /************* Create characteristic ****************/
GAS LISTING /var/folders/yy/83vjwp7d53j56dbzj8_jnpcr0000gn/T//ccMxkhX3.s 			page 26


 253:rn4871.c      **** 
 254:rn4871.c      ****     /************* Create characteristic ****************/
 255:rn4871.c      ****     sendBuf[0]= '\0';
 998              		.loc 1 255 5
 256:rn4871.c      ****     strcpy(sendBuf,"PC,");
 999              		.loc 1 256 5 is_stmt 0
 1000 028a 93050B00 		addi	a1,s6,%lo(.LC8)
 1001 028e 8800     		addi	a0,sp,64
 255:rn4871.c      ****     strcpy(sendBuf,"PC,");
 1002              		.loc 1 255 15
 1003 0290 23000104 		sb	zero,64(sp)
 1004              		.loc 1 256 5 is_stmt 1
 1005 0294 97000000 		call	strcpy
 1005      E7800000 
 1006              	.LVL113:
 257:rn4871.c      ****     str_len = fuseStrings(sendBuf, init_struct.rx_characteristic_uuid);
 1007              		.loc 1 257 5
 1008              		.loc 1 257 15 is_stmt 0
 1009 029c D685     		mv	a1,s5
 1010 029e 8800     		addi	a0,sp,64
 1011 02a0 97000000 		call	fuseStrings
 1011      E7800000 
 1012              	.LVL114:
 258:rn4871.c      ****     str_len = fuseStrings(sendBuf, ",");
 1013              		.loc 1 258 5 is_stmt 1
 1014              		.loc 1 258 15 is_stmt 0
 1015 02a8 93050900 		addi	a1,s2,%lo(.LC9)
 1016 02ac 8800     		addi	a0,sp,64
 1017 02ae 97000000 		call	fuseStrings
 1017      E7800000 
 1018              	.LVL115:
 259:rn4871.c      ****     str_len = fuseStrings(sendBuf, init_struct.rx_properties);
 1019              		.loc 1 259 5 is_stmt 1
 1020              		.loc 1 259 15 is_stmt 0
 1021 02b6 9305A40D 		addi	a1,s0,218
 1022 02ba 8800     		addi	a0,sp,64
 1023 02bc 97000000 		call	fuseStrings
 1023      E7800000 
 1024              	.LVL116:
 260:rn4871.c      ****     str_len = fuseStrings(sendBuf, ",");
 1025              		.loc 1 260 5 is_stmt 1
 1026              		.loc 1 260 15 is_stmt 0
 1027 02c4 93050900 		addi	a1,s2,%lo(.LC9)
 1028 02c8 8800     		addi	a0,sp,64
 1029 02ca 97000000 		call	fuseStrings
 1029      E7800000 
 1030              	.LVL117:
 261:rn4871.c      ****     str_len = fuseStrings(sendBuf, init_struct.message_size);
 1031              		.loc 1 261 5 is_stmt 1
 1032              		.loc 1 261 15 is_stmt 0
 1033 02d2 D285     		mv	a1,s4
 1034 02d4 8800     		addi	a0,sp,64
 1035 02d6 97000000 		call	fuseStrings
 1035      E7800000 
 1036              	.LVL118:
 262:rn4871.c      ****     str_len = fuseStrings(sendBuf, "\r");
 1037              		.loc 1 262 5 is_stmt 1
GAS LISTING /var/folders/yy/83vjwp7d53j56dbzj8_jnpcr0000gn/T//ccMxkhX3.s 			page 27


 1038              		.loc 1 262 15 is_stmt 0
 1039 02de 93850400 		addi	a1,s1,%lo(.LC3)
 1040 02e2 8800     		addi	a0,sp,64
 1041 02e4 97000000 		call	fuseStrings
 1041      E7800000 
 1042              	.LVL119:
 263:rn4871.c      ****     lio_send_bt(sendBuf, str_len);
 1043              		.loc 1 263 5 is_stmt 1
 1044 02ec AA85     		mv	a1,a0
 1045 02ee 8800     		addi	a0,sp,64
 1046              	.LVL120:
 1047 02f0 97000000 		call	lio_send_bt
 1047      E7800000 
 1048              	.LVL121:
 264:rn4871.c      ****     usb_delay_1ms(400);
 1049              		.loc 1 264 5
 1050 02f8 13050019 		li	a0,400
 1051 02fc 97000000 		call	usb_delay_1ms
 1051      E7800000 
 1052              	.LVL122:
 265:rn4871.c      ****     /************* Create characteristic ****************/
 266:rn4871.c      **** 
 267:rn4871.c      ****     /************* Set Authentication ****************/
 268:rn4871.c      ****     sendBuf[0]= '\0';
 1053              		.loc 1 268 5
 269:rn4871.c      ****     strcpy(sendBuf,"SA,2\r");
 1054              		.loc 1 269 5 is_stmt 0
 1055 0304 B7050000 		lui	a1,%hi(.LC10)
 1056 0308 93850500 		addi	a1,a1,%lo(.LC10)
 1057 030c 8800     		addi	a0,sp,64
 268:rn4871.c      ****     strcpy(sendBuf,"SA,2\r");
 1058              		.loc 1 268 15
 1059 030e 23000104 		sb	zero,64(sp)
 1060              		.loc 1 269 5 is_stmt 1
 1061 0312 97000000 		call	strcpy
 1061      E7800000 
 1062              	.LVL123:
 270:rn4871.c      ****     lio_send_bt(sendBuf, 5);
 1063              		.loc 1 270 5
 1064 031a 9545     		li	a1,5
 1065 031c 8800     		addi	a0,sp,64
 1066 031e 97000000 		call	lio_send_bt
 1066      E7800000 
 1067              	.LVL124:
 271:rn4871.c      ****     usb_delay_1ms(400);
 1068              		.loc 1 271 5
 1069 0326 13050019 		li	a0,400
 1070 032a 97000000 		call	usb_delay_1ms
 1070      E7800000 
 1071              	.LVL125:
 272:rn4871.c      ****     /************* Set Authentication ****************/
 273:rn4871.c      **** 
 274:rn4871.c      ****     /************* Set pin ****************/
 275:rn4871.c      ****     sendBuf[0]= '\0';
 1072              		.loc 1 275 5
 276:rn4871.c      ****     strcpy(sendBuf,"SP,");
 1073              		.loc 1 276 5 is_stmt 0
GAS LISTING /var/folders/yy/83vjwp7d53j56dbzj8_jnpcr0000gn/T//ccMxkhX3.s 			page 28


 1074 0332 B7050000 		lui	a1,%hi(.LC11)
 1075 0336 93850500 		addi	a1,a1,%lo(.LC11)
 1076 033a 8800     		addi	a0,sp,64
 275:rn4871.c      ****     strcpy(sendBuf,"SP,");
 1077              		.loc 1 275 15
 1078 033c 23000104 		sb	zero,64(sp)
 1079              		.loc 1 276 5 is_stmt 1
 1080 0340 97000000 		call	strcpy
 1080      E7800000 
 1081              	.LVL126:
 277:rn4871.c      ****     str_len = fuseStrings(sendBuf, init_struct.pin_code);
 1082              		.loc 1 277 5
 1083              		.loc 1 277 15 is_stmt 0
 1084 0348 9305240E 		addi	a1,s0,226
 1085 034c 8800     		addi	a0,sp,64
 1086 034e 97000000 		call	fuseStrings
 1086      E7800000 
 1087              	.LVL127:
 278:rn4871.c      ****     str_len = fuseStrings(sendBuf, "\r");
 1088              		.loc 1 278 5 is_stmt 1
 1089              		.loc 1 278 15 is_stmt 0
 1090 0356 93850400 		addi	a1,s1,%lo(.LC3)
 1091 035a 8800     		addi	a0,sp,64
 1092 035c 97000000 		call	fuseStrings
 1092      E7800000 
 1093              	.LVL128:
 279:rn4871.c      ****     lio_send_bt(sendBuf, str_len);
 1094              		.loc 1 279 5 is_stmt 1
 1095 0364 AA85     		mv	a1,a0
 1096 0366 8800     		addi	a0,sp,64
 1097              	.LVL129:
 1098 0368 97000000 		call	lio_send_bt
 1098      E7800000 
 1099              	.LVL130:
 280:rn4871.c      ****     usb_delay_1ms(400);
 1100              		.loc 1 280 5
 1101 0370 13050019 		li	a0,400
 1102 0374 97000000 		call	usb_delay_1ms
 1102      E7800000 
 1103              	.LVL131:
 281:rn4871.c      ****     /************* Set pin ****************/
 282:rn4871.c      **** 
 283:rn4871.c      ****     /************* Clear Advertise ****************/
 284:rn4871.c      ****     sendBuf[0] = '\0';
 1104              		.loc 1 284 5
 285:rn4871.c      ****     strcpy(sendBuf, "IA,Z");
 1105              		.loc 1 285 5 is_stmt 0
 1106 037c B7050000 		lui	a1,%hi(.LC12)
 1107 0380 93850500 		addi	a1,a1,%lo(.LC12)
 1108 0384 8800     		addi	a0,sp,64
 284:rn4871.c      ****     strcpy(sendBuf, "IA,Z");
 1109              		.loc 1 284 16
 1110 0386 23000104 		sb	zero,64(sp)
 1111              		.loc 1 285 5 is_stmt 1
 1112 038a 97000000 		call	strcpy
 1112      E7800000 
 1113              	.LVL132:
GAS LISTING /var/folders/yy/83vjwp7d53j56dbzj8_jnpcr0000gn/T//ccMxkhX3.s 			page 29


 286:rn4871.c      ****     str_len = fuseStrings(sendBuf, "\r");
 1114              		.loc 1 286 5
 1115              		.loc 1 286 15 is_stmt 0
 1116 0392 93850400 		addi	a1,s1,%lo(.LC3)
 1117 0396 8800     		addi	a0,sp,64
 1118 0398 97000000 		call	fuseStrings
 1118      E7800000 
 1119              	.LVL133:
 287:rn4871.c      ****     lio_send_bt(sendBuf, str_len);
 1120              		.loc 1 287 5 is_stmt 1
 1121 03a0 AA85     		mv	a1,a0
 1122 03a2 8800     		addi	a0,sp,64
 1123              	.LVL134:
 1124 03a4 97000000 		call	lio_send_bt
 1124      E7800000 
 1125              	.LVL135:
 288:rn4871.c      ****     usb_delay_1ms(400);
 1126              		.loc 1 288 5
 1127 03ac 13050019 		li	a0,400
 1128 03b0 97000000 		call	usb_delay_1ms
 1128      E7800000 
 1129              	.LVL136:
 289:rn4871.c      ****     /************* Clear Advertise ****************/
 290:rn4871.c      **** 
 291:rn4871.c      ****     
 292:rn4871.c      ****     /************* Advertise UUID ****************/
 293:rn4871.c      ****     sendBuf[0] = '\0';
 1130              		.loc 1 293 5
 294:rn4871.c      ****     strcpy(sendBuf, "NA,07,");
 1131              		.loc 1 294 5 is_stmt 0
 1132 03b8 B7050000 		lui	a1,%hi(.LC13)
 1133 03bc 93850500 		addi	a1,a1,%lo(.LC13)
 1134 03c0 8800     		addi	a0,sp,64
 293:rn4871.c      ****     strcpy(sendBuf, "NA,07,");
 1135              		.loc 1 293 16
 1136 03c2 23000104 		sb	zero,64(sp)
 1137              		.loc 1 294 5 is_stmt 1
 1138 03c6 97000000 		call	strcpy
 1138      E7800000 
 1139              	.LVL137:
 295:rn4871.c      ****     str_len = fuseStrings(sendBuf, flipped_uuid);
 1140              		.loc 1 295 5
 1141              		.loc 1 295 15 is_stmt 0
 1142 03ce 8A85     		mv	a1,sp
 1143 03d0 8800     		addi	a0,sp,64
 1144 03d2 97000000 		call	fuseStrings
 1144      E7800000 
 1145              	.LVL138:
 296:rn4871.c      ****     str_len = fuseStrings(sendBuf, "\r");
 1146              		.loc 1 296 5 is_stmt 1
 1147              		.loc 1 296 15 is_stmt 0
 1148 03da 93850400 		addi	a1,s1,%lo(.LC3)
 1149 03de 8800     		addi	a0,sp,64
 1150 03e0 97000000 		call	fuseStrings
 1150      E7800000 
 1151              	.LVL139:
 1152 03e8 2A84     		mv	s0,a0
GAS LISTING /var/folders/yy/83vjwp7d53j56dbzj8_jnpcr0000gn/T//ccMxkhX3.s 			page 30


 1153              	.LVL140:
 297:rn4871.c      ****     printf("This is the flipped uuid cmd: %s\n", flipped_uuid);
 1154              		.loc 1 297 5 is_stmt 1
 1155 03ea 8A85     		mv	a1,sp
 1156 03ec 1385CB06 		addi	a0,s7,108
 1157 03f0 97000000 		call	printf
 1157      E7800000 
 1158              	.LVL141:
 298:rn4871.c      ****     lio_send_bt(sendBuf, str_len);
 1159              		.loc 1 298 5
 1160 03f8 A285     		mv	a1,s0
 1161 03fa 8800     		addi	a0,sp,64
 1162 03fc 97000000 		call	lio_send_bt
 1162      E7800000 
 1163              	.LVL142:
 299:rn4871.c      ****     usb_delay_1ms(400);
 1164              		.loc 1 299 5
 1165 0404 13050019 		li	a0,400
 1166 0408 97000000 		call	usb_delay_1ms
 1166      E7800000 
 1167              	.LVL143:
 300:rn4871.c      ****     /************* Advertise UUID ****************/
 301:rn4871.c      **** 
 302:rn4871.c      ****     /************* Reboot ****************/
 303:rn4871.c      ****     sendBuf[0]= '\0';
 1168              		.loc 1 303 5
 304:rn4871.c      ****     strcpy(sendBuf,"R,1\r");
 1169              		.loc 1 304 5 is_stmt 0
 1170 0410 93850900 		addi	a1,s3,%lo(.LC6)
 1171 0414 8800     		addi	a0,sp,64
 303:rn4871.c      ****     strcpy(sendBuf,"R,1\r");
 1172              		.loc 1 303 15
 1173 0416 23000104 		sb	zero,64(sp)
 1174              		.loc 1 304 5 is_stmt 1
 1175 041a 97000000 		call	strcpy
 1175      E7800000 
 1176              	.LVL144:
 305:rn4871.c      ****     lio_send_bt(sendBuf,4);
 1177              		.loc 1 305 5
 1178 0422 9145     		li	a1,4
 1179 0424 8800     		addi	a0,sp,64
 1180 0426 97000000 		call	lio_send_bt
 1180      E7800000 
 1181              	.LVL145:
 306:rn4871.c      ****     usb_delay_1ms(1000);
 1182              		.loc 1 306 5
 1183 042e 1305803E 		li	a0,1000
 1184 0432 97000000 		call	usb_delay_1ms
 1184      E7800000 
 1185              	.LVL146:
 307:rn4871.c      ****     /************* Reboot ****************/
 308:rn4871.c      ****     return;
 1186              		.loc 1 308 5
 309:rn4871.c      **** }
 1187              		.loc 1 309 1 is_stmt 0
 1188 043a BA50     		lw	ra,172(sp)
 1189              		.cfi_restore 1
GAS LISTING /var/folders/yy/83vjwp7d53j56dbzj8_jnpcr0000gn/T//ccMxkhX3.s 			page 31


 1190 043c 2A54     		lw	s0,168(sp)
 1191              		.cfi_restore 8
 1192              	.LVL147:
 1193 043e 9A54     		lw	s1,164(sp)
 1194              		.cfi_restore 9
 1195 0440 0A59     		lw	s2,160(sp)
 1196              		.cfi_restore 18
 1197 0442 FA49     		lw	s3,156(sp)
 1198              		.cfi_restore 19
 1199 0444 6A4A     		lw	s4,152(sp)
 1200              		.cfi_restore 20
 1201 0446 DA4A     		lw	s5,148(sp)
 1202              		.cfi_restore 21
 1203 0448 4A4B     		lw	s6,144(sp)
 1204              		.cfi_restore 22
 1205 044a BA4B     		lw	s7,140(sp)
 1206              		.cfi_restore 23
 1207 044c 4D61     		addi	sp,sp,176
 1208              	.LCFI13:
 1209              		.cfi_def_cfa_offset 0
 1210 044e 8280     		jr	ra
 1211              		.cfi_endproc
 1212              	.LFE14:
 1214              		.section	.text.UUID_parser.part.0,"ax",@progbits
 1215              		.align	1
 1217              	UUID_parser.part.0:
 1218              	.LFB15:
   8:rn4871.c      ****     if (UUID == NULL) {
 1219              		.loc 1 8 13 is_stmt 1
 1220              		.cfi_startproc
 1221              	.LVL148:
  13:rn4871.c      ****     char *writePtr = UUID; // Write pointer
 1222              		.loc 1 13 11 is_stmt 0
 1223 0000 2A87     		mv	a4,a0
  17:rn4871.c      ****             *writePtr = *readPtr;
 1224              		.loc 1 17 12
 1225 0002 9306D002 		li	a3,45
 1226              	.LVL149:
 1227              	.L34:
  16:rn4871.c      ****         if (*readPtr != '-') {
 1228              		.loc 1 16 12
 1229 0006 83470700 		lbu	a5,0(a4)
  16:rn4871.c      ****         if (*readPtr != '-') {
 1230              		.loc 1 16 11
 1231 000a 81E7     		bne	a5,zero,.L36
  24:rn4871.c      **** }
 1232              		.loc 1 24 5 is_stmt 1
  24:rn4871.c      **** }
 1233              		.loc 1 24 15 is_stmt 0
 1234 000c 23000500 		sb	zero,0(a0)
  25:rn4871.c      **** 
 1235              		.loc 1 25 1
 1236 0010 8280     		ret
 1237              	.L36:
  17:rn4871.c      ****             *writePtr = *readPtr;
 1238              		.loc 1 17 9 is_stmt 1
  17:rn4871.c      ****             *writePtr = *readPtr;
GAS LISTING /var/folders/yy/83vjwp7d53j56dbzj8_jnpcr0000gn/T//ccMxkhX3.s 			page 32


 1239              		.loc 1 17 12 is_stmt 0
 1240 0012 6385D700 		beq	a5,a3,.L35
  18:rn4871.c      ****             writePtr++;
 1241              		.loc 1 18 13 is_stmt 1
  18:rn4871.c      ****             writePtr++;
 1242              		.loc 1 18 23 is_stmt 0
 1243 0016 2300F500 		sb	a5,0(a0)
  19:rn4871.c      ****         }
 1244              		.loc 1 19 13 is_stmt 1
  19:rn4871.c      ****         }
 1245              		.loc 1 19 21 is_stmt 0
 1246 001a 0505     		addi	a0,a0,1
 1247              	.LVL150:
 1248              	.L35:
  21:rn4871.c      ****     }
 1249              		.loc 1 21 9 is_stmt 1
  21:rn4871.c      ****     }
 1250              		.loc 1 21 16 is_stmt 0
 1251 001c 0507     		addi	a4,a4,1
 1252              	.LVL151:
 1253 001e E5B7     		j	.L34
 1254              		.cfi_endproc
 1255              	.LFE15:
 1257              		.section	.rodata
 1258              		.align	2
 1259              		.set	.LANCHOR2,. + 0
 1260              	.LC0:
 1261 0000 0A546869 		.string	"\nThis is the flipped uuid: %s\n"
 1261      73206973 
 1261      20746865 
 1261      20666C69 
 1261      70706564 
 1262 001f 00       		.zero	1
 1263              	.LC1:
 1264 0020 53462C31 		.string	"SF,1\r"
 1264      0D00
 1265 0026 0000     		.zero	2
 1266              	.LC2:
 1267 0028 534E2C00 		.string	"SN,"
 1268              	.LC3:
 1269 002c 0D00     		.string	"\r"
 1270 002e 0000     		.zero	2
 1271              	.LC4:
 1272 0030 53302C30 		.string	"S0,0\r"
 1272      0D00
 1273 0036 0000     		.zero	2
 1274              	.LC5:
 1275 0038 505A0D00 		.string	"PZ\r"
 1276              	.LC6:
 1277 003c 522C310D 		.string	"R,1\r"
 1277      00
 1278 0041 000000   		.zero	3
 1279              	.LC7:
 1280 0044 50532C00 		.string	"PS,"
 1281              	.LC8:
 1282 0048 50432C00 		.string	"PC,"
 1283              	.LC9:
GAS LISTING /var/folders/yy/83vjwp7d53j56dbzj8_jnpcr0000gn/T//ccMxkhX3.s 			page 33


 1284 004c 2C00     		.string	","
 1285 004e 0000     		.zero	2
 1286              	.LC10:
 1287 0050 53412C32 		.string	"SA,2\r"
 1287      0D00
 1288 0056 0000     		.zero	2
 1289              	.LC11:
 1290 0058 53502C00 		.string	"SP,"
 1291              	.LC12:
 1292 005c 49412C5A 		.string	"IA,Z"
 1292      00
 1293 0061 000000   		.zero	3
 1294              	.LC13:
 1295 0064 4E412C30 		.string	"NA,07,"
 1295      372C00
 1296 006b 00       		.zero	1
 1297              	.LC14:
 1298 006c 54686973 		.string	"This is the flipped uuid cmd: %s\n"
 1298      20697320 
 1298      74686520 
 1298      666C6970 
 1298      70656420 
 1299              		.section	.bss.rx_dma_buffer,"aw",@nobits
 1300              		.align	2
 1301              		.set	.LANCHOR0,. + 0
 1304              	rx_dma_buffer:
 1305 0000 00000000 		.zero	1024
 1305      00000000 
 1305      00000000 
 1305      00000000 
 1305      00000000 
 1306              		.section	.bss.tx_dma_buffer,"aw",@nobits
 1307              		.align	2
 1308              		.set	.LANCHOR1,. + 0
 1311              	tx_dma_buffer:
 1312 0000 00000000 		.zero	1024
 1312      00000000 
 1312      00000000 
 1312      00000000 
 1312      00000000 
 1313              		.text
 1314              	.Letext0:
 1315              		.file 2 "/Users/gulda/Documents/risc-v/toolchain-gd32v-v200-osx/compiler/riscv64-unknown-elf/inclu
 1316              		.file 3 "/Users/gulda/Documents/risc-v/toolchain-gd32v-v200-osx/compiler/riscv64-unknown-elf/inclu
 1317              		.file 4 "../../firmware/GD32VF103_standard_peripheral/Include/gd32vf103_dma.h"
 1318              		.file 5 "../../firmware/GD32VF103_standard_peripheral/Include/gd32vf103_rcu.h"
 1319              		.file 6 "/Users/gulda/Documents/risc-v/toolchain-gd32v-v200-osx/compiler/lib/gcc/riscv64-unknown-e
 1320              		.file 7 "lib/usbcdc/include/drv_usb_regs.h"
 1321              		.file 8 "../../firmware/GD32VF103_standard_peripheral/system_gd32vf103.h"
 1322              		.file 9 "lib/usbcdc/include/usb_ch9_std.h"
 1323              		.file 10 "lib/usbcdc/include/drv_usb_core.h"
 1324              		.file 11 "lib/usbcdc/include/drv_usb_dev.h"
 1325              		.file 12 "/Users/gulda/Documents/risc-v/toolchain-gd32v-v200-osx/compiler/riscv64-unknown-elf/incl
 1326              		.file 13 "/Users/gulda/Documents/risc-v/toolchain-gd32v-v200-osx/compiler/riscv64-unknown-elf/incl
 1327              		.file 14 "/Users/gulda/Documents/risc-v/toolchain-gd32v-v200-osx/compiler/riscv64-unknown-elf/incl
 1328              		.file 15 "lib/usbcdc/include/cdc_acm_core.h"
 1329              		.file 16 "/Users/gulda/Documents/risc-v/toolchain-gd32v-v200-osx/compiler/riscv64-unknown-elf/incl
GAS LISTING /var/folders/yy/83vjwp7d53j56dbzj8_jnpcr0000gn/T//ccMxkhX3.s 			page 34


 1330              		.file 17 "lib/usbcdc/include/usb_serial_if.h"
 1331              		.file 18 "rn4871.h"
 1332              		.file 19 "/Users/gulda/Documents/risc-v/toolchain-gd32v-v200-osx/compiler/riscv64-unknown-elf/incl
 1333              		.file 20 "lib/usbcdc/include/usb_delay.h"
 1334              		.file 21 "/Users/gulda/Documents/risc-v/toolchain-gd32v-v200-osx/compiler/riscv64-unknown-elf/incl
 1335              		.file 22 "../../firmware/GD32VF103_standard_peripheral/Include/gd32vf103_gpio.h"
 1336              		.file 23 "../../firmware/GD32VF103_standard_peripheral/Include/gd32vf103_usart.h"
 1337              		.file 24 "<built-in>"
GAS LISTING /var/folders/yy/83vjwp7d53j56dbzj8_jnpcr0000gn/T//ccMxkhX3.s 			page 35

